EXPORTS
    CRC32_TAB @1 DATA
    _Z10isLeapYearRKj @2
    _Z10main_asciiv @3
    _Z10printMonthjRj @4
    _Z11printHeaderj @5
    _Z12is_leap_yearRKj = _Z12is_leap_yearRKj@4 @6
    _Z12is_leap_yearRKj@4 @7
    _Z13DllEntryPointP11HINSTANCE__mPv = _Z13DllEntryPointP11HINSTANCE__mPv@12 @8
    _Z13DllEntryPointP11HINSTANCE__mPv@12 @9
    _Z13days_in_monthRKjS0_ = _Z13days_in_monthRKjS0_@8 @10
    _Z13days_in_monthRKjS0_@8 @11
    _Z13printcalendarv @12
    _Z16numOfDaysInMonthjRj @13
    _Z17firstDayOfJanuaryRj @14
    _Z18printcalendarmonthjRj @15
    _Z18start_kop32_serverPcS_ @16
    _Z19printcalendarheaderj @17
    _Z20classic_monitor_procv = _Z20classic_monitor_procv@0 @18
    _Z20classic_monitor_procv@0 @19
    _Z21classic_event_handlerPN3stk13__kop32_classEPKcS3_S3_ = _Z21classic_event_handlerPN3stk13__kop32_classEPKcS3_S3_@16 @20
    _Z21classic_event_handlerPN3stk13__kop32_classEPKcS3_S3_@16 @21
    _Z24get_value_at_ini_sectionPwS_S_S_mS_ @22
    _Z24start_kop32_in_text_modePc = _Z24start_kop32_in_text_modePc@4 @23
    _Z24start_kop32_in_text_modePc@4 @24
    _Z24start_kop32_in_text_modePcPFPKcPN3stk13__kop32_classES1_S1_S1_EPFvS1_EPFcvE = _Z24start_kop32_in_text_modePcPFPKcPN3stk13__kop32_classES1_S1_S1_EPFvS1_EPFcvE@16 @25
    _Z24start_kop32_in_text_modePcPFPKcPN3stk13__kop32_classES1_S1_S1_EPFvS1_EPFcvE@16 @26
    _Z24start_kop32_in_text_modePcPFvPKcEPFcvE = _Z24start_kop32_in_text_modePcPFvPKcEPFcvE@12 @27
    _Z24start_kop32_in_text_modePcPFvPKcEPFcvE@12 @28
    _Z24test_ConsoleGetchHandlerv = _Z24test_ConsoleGetchHandlerv@0 @29
    _Z24test_ConsoleGetchHandlerv@0 @30
    _Z24test_ConsolePrintHandlerPKc = _Z24test_ConsolePrintHandlerPKc@4 @31
    _Z24test_ConsolePrintHandlerPKc@4 @32
    _Z4skipj @33
    _Z5c_endj = _Z5c_endj@4 @34
    _Z5c_endj@4 @35
    _Z6searchPc @36
    _Z7c_startv = _Z7c_startv@0 @37
    _Z7c_startv@0 @38
    _ZN3stk10__database11import_fromEPKcS2_ = _ZN3stk10__database11import_fromEPKcS2_@12 @39
    _ZN3stk10__database11import_fromEPKcS2_@12 @40
    _ZN3stk10__database3addEPS0_ = _ZN3stk10__database3addEPS0_@8 @41
    _ZN3stk10__database3addEPS0_@8 @42
    _ZN3stk10__database3setEPS0_ = _ZN3stk10__database3setEPS0_@8 @43
    _ZN3stk10__database3setEPS0_@8 @44
    _ZN3stk10__database4loadEPKc = _ZN3stk10__database4loadEPKc@8 @45
    _ZN3stk10__database4loadEPKc@8 @46
    _ZN3stk10__database5clearEv = _ZN3stk10__database5clearEv@4 @47
    _ZN3stk10__database5clearEv@4 @48
    _ZN3stk10__database5itemsEv = _ZN3stk10__database5itemsEv@4 @49
    _ZN3stk10__database5itemsEv@4 @50
    _ZN3stk10__database9set_aliasEPKc = _ZN3stk10__database9set_aliasEPKc@8 @51
    _ZN3stk10__database9set_aliasEPKc@8 @52
    _ZN3stk10__database9set_ownerEPS0_ = _ZN3stk10__database9set_ownerEPS0_@8 @53
    _ZN3stk10__database9set_ownerEPS0_@8 @54
    _ZN3stk10__databaseC1EPKS0_ = _ZN3stk10__databaseC1EPKS0_@8 @55
    _ZN3stk10__databaseC1EPKS0_@8 @56
    _ZN3stk10__databaseC1EPKS0_PKc = _ZN3stk10__databaseC1EPKS0_PKc@12 @57
    _ZN3stk10__databaseC1EPKS0_PKc@12 @58
    _ZN3stk10__databaseC1Ev = _ZN3stk10__databaseC1Ev@4 @59
    _ZN3stk10__databaseC1Ev@4 @60
    _ZN3stk10__databaseC2EPKS0_ = _ZN3stk10__databaseC2EPKS0_@8 @61
    _ZN3stk10__databaseC2EPKS0_@8 @62
    _ZN3stk10__databaseC2EPKS0_PKc = _ZN3stk10__databaseC2EPKS0_PKc@12 @63
    _ZN3stk10__databaseC2EPKS0_PKc@12 @64
    _ZN3stk10__databaseC2Ev = _ZN3stk10__databaseC2Ev@4 @65
    _ZN3stk10__databaseC2Ev@4 @66
    _ZN3stk10__databaseD0Ev = _ZN3stk10__databaseD0Ev@8 @67
    _ZN3stk10__databaseD0Ev@8 @68
    _ZN3stk10__databaseD1Ev = _ZN3stk10__databaseD1Ev@8 @69
    _ZN3stk10__databaseD1Ev@8 @70
    _ZN3stk10__databaseD2Ev = _ZN3stk10__databaseD2Ev@8 @71
    _ZN3stk10__databaseD2Ev@8 @72
    _ZN3stk10__passwordC1Ev = _ZN3stk10__passwordC1Ev@4 @73
    _ZN3stk10__passwordC1Ev@4 @74
    _ZN3stk10__passwordC2Ev = _ZN3stk10__passwordC2Ev@4 @75
    _ZN3stk10__passwordC2Ev@4 @76
    _ZN3stk10__passwordD1Ev = _ZN3stk10__passwordD1Ev@8 @77
    _ZN3stk10__passwordD1Ev@8 @78
    _ZN3stk10__passwordD2Ev = _ZN3stk10__passwordD2Ev@8 @79
    _ZN3stk10__passwordD2Ev@8 @80
    _ZN3stk11compression12compress_ARIEPvPKvjj = _ZN3stk11compression12compress_ARIEPvPKvjj@16 @81
    _ZN3stk11compression12compress_ARIEPvPKvjj@16 @82
    _ZN3stk11compression12compress_BWTEPvPKvjj = _ZN3stk11compression12compress_BWTEPvPKvjj@16 @83
    _ZN3stk11compression12compress_BWTEPvPKvjj@16 @84
    _ZN3stk11compression12compress_HUFEPvPKvjj = _ZN3stk11compression12compress_HUFEPvPKvjj@16 @85
    _ZN3stk11compression12compress_HUFEPvPKvjj@16 @86
    _ZN3stk11compression12compress_LZSEPvPKvjj = _ZN3stk11compression12compress_LZSEPvPKvjj@16 @87
    _ZN3stk11compression12compress_LZSEPvPKvjj@16 @88
    _ZN3stk11compression14uncompress_ARIEPvjPKv = _ZN3stk11compression14uncompress_ARIEPvjPKv@12 @89
    _ZN3stk11compression14uncompress_ARIEPvjPKv@12 @90
    _ZN3stk11compression14uncompress_BWTEPvjPKv = _ZN3stk11compression14uncompress_BWTEPvjPKv@12 @91
    _ZN3stk11compression14uncompress_BWTEPvjPKv@12 @92
    _ZN3stk11compression14uncompress_HUFEPvjPKv = _ZN3stk11compression14uncompress_HUFEPvjPKv@12 @93
    _ZN3stk11compression14uncompress_HUFEPvjPKv@12 @94
    _ZN3stk11compression14uncompress_LZSEPvjPKv = _ZN3stk11compression14uncompress_LZSEPvjPKv@12 @95
    _ZN3stk11compression14uncompress_LZSEPvjPKv@12 @96
    _ZN3stk11compression16__ari_compressor10initializeEv = _ZN3stk11compression16__ari_compressor10initializeEv@4 @97
    _ZN3stk11compression16__ari_compressor10initializeEv@4 @98
    _ZN3stk11compression16__ari_compressor13flush_decoderEv = _ZN3stk11compression16__ari_compressor13flush_decoderEv@4 @99
    _ZN3stk11compression16__ari_compressor13flush_decoderEv@4 @100
    _ZN3stk11compression16__ari_compressor13flush_encoderEPjh = _ZN3stk11compression16__ari_compressor13flush_encoderEPjh@12 @101
    _ZN3stk11compression16__ari_compressor13flush_encoderEPjh@12 @102
    _ZN3stk11compression16__ari_compressor18initialize_decoderEPKjh = _ZN3stk11compression16__ari_compressor18initialize_decoderEPKjh@12 @103
    _ZN3stk11compression16__ari_compressor18initialize_decoderEPKjh@12 @104
    _ZN3stk11compression16__ari_compressor18initialize_encoderEv = _ZN3stk11compression16__ari_compressor18initialize_encoderEv@4 @105
    _ZN3stk11compression16__ari_compressor18initialize_encoderEv@4 @106
    _ZN3stk11compression16__ari_compressor6decodeEPcPKjh = _ZN3stk11compression16__ari_compressor6decodeEPcPKjh@16 @107
    _ZN3stk11compression16__ari_compressor6decodeEPcPKjh@16 @108
    _ZN3stk11compression16__ari_compressor6encodeEPjhh = _ZN3stk11compression16__ari_compressor6encodeEPjhh@16 @109
    _ZN3stk11compression16__ari_compressor6encodeEPjhh@16 @110
    _ZN3stk11compression16__ari_compressor6searchEj = _ZN3stk11compression16__ari_compressor6searchEj@8 @111
    _ZN3stk11compression16__ari_compressor6searchEj@8 @112
    _ZN3stk11compression16__ari_compressor6updateEj = _ZN3stk11compression16__ari_compressor6updateEj@8 @113
    _ZN3stk11compression16__ari_compressor6updateEj@8 @114
    _ZN3stk11compression16__ari_compressorC1Ev @115
    _ZN3stk11compression16__ari_compressorC2Ev @116
    _ZN3stk11compression16__ari_compressorD1Ev @117
    _ZN3stk11compression16__ari_compressorD2Ev @118
    _ZN3stk11compression16__bwt_compressor11find_groupsEjjjPjS2_ = _ZN3stk11compression16__bwt_compressor11find_groupsEjjjPjS2_@24 @119
    _ZN3stk11compression16__bwt_compressor11find_groupsEjjjPjS2_@24 @120
    _ZN3stk11compression16__bwt_compressor11sort_groupsEjjj = _ZN3stk11compression16__bwt_compressor11sort_groupsEjjj@16 @121
    _ZN3stk11compression16__bwt_compressor11sort_groupsEjjj@16 @122
    _ZN3stk11compression16__bwt_compressor4saveEPc = _ZN3stk11compression16__bwt_compressor4saveEPc@8 @123
    _ZN3stk11compression16__bwt_compressor4saveEPc@8 @124
    _ZN3stk11compression16__bwt_compressor4sortEv = _ZN3stk11compression16__bwt_compressor4sortEv@4 @125
    _ZN3stk11compression16__bwt_compressor4sortEv@4 @126
    _ZN3stk11compression16__bwt_compressor8generateEPKcj = _ZN3stk11compression16__bwt_compressor8generateEPKcj@12 @127
    _ZN3stk11compression16__bwt_compressor8generateEPKcj@12 @128
    _ZN3stk11compression16__bwt_compressorC1Ej @129
    _ZN3stk11compression16__bwt_compressorC2Ej @130
    _ZN3stk11compression16__bwt_compressorD1Ev @131
    _ZN3stk11compression16__bwt_compressorD2Ev @132
    _ZN3stk11compression17__huff_compressor10initializeEv = _ZN3stk11compression17__huff_compressor10initializeEv@4 @133
    _ZN3stk11compression17__huff_compressor10initializeEv@4 @134
    _ZN3stk11compression17__huff_compressor11reconstructEv = _ZN3stk11compression17__huff_compressor11reconstructEv@4 @135
    _ZN3stk11compression17__huff_compressor11reconstructEv@4 @136
    _ZN3stk11compression17__huff_compressor6decodeEPaPKaa = _ZN3stk11compression17__huff_compressor6decodeEPaPKaa@16 @137
    _ZN3stk11compression17__huff_compressor6decodeEPaPKaa@16 @138
    _ZN3stk11compression17__huff_compressor6encodeEPaaa = _ZN3stk11compression17__huff_compressor6encodeEPaaa@16 @139
    _ZN3stk11compression17__huff_compressor6encodeEPaaa@16 @140
    _ZN3stk11compression17__huff_compressor6updateEa = _ZN3stk11compression17__huff_compressor6updateEa@8 @141
    _ZN3stk11compression17__huff_compressor6updateEa@8 @142
    _ZN3stk11compression17__huff_compressorC1Ev = _ZN3stk11compression17__huff_compressorC1Ev@4 @143
    _ZN3stk11compression17__huff_compressorC1Ev@4 @144
    _ZN3stk11compression17__huff_compressorC2Ev = _ZN3stk11compression17__huff_compressorC2Ev@4 @145
    _ZN3stk11compression17__huff_compressorC2Ev@4 @146
    _ZN3stk11compression17__huff_compressorD1Ev = _ZN3stk11compression17__huff_compressorD1Ev@8 @147
    _ZN3stk11compression17__huff_compressorD1Ev@8 @148
    _ZN3stk11compression17__huff_compressorD2Ev = _ZN3stk11compression17__huff_compressorD2Ev@8 @149
    _ZN3stk11compression17__huff_compressorD2Ev@8 @150
    _ZN3stk11compression17__lzss_compressor10initializeEPKc = _ZN3stk11compression17__lzss_compressor10initializeEPKc@8 @151
    _ZN3stk11compression17__lzss_compressor10initializeEPKc@8 @152
    _ZN3stk11compression17__lzss_compressor14search_forwardEv = _ZN3stk11compression17__lzss_compressor14search_forwardEv@4 @153
    _ZN3stk11compression17__lzss_compressor14search_forwardEv@4 @154
    _ZN3stk11compression17__lzss_compressor15search_backwardEv = _ZN3stk11compression17__lzss_compressor15search_backwardEv@4 @155
    _ZN3stk11compression17__lzss_compressor15search_backwardEv@4 @156
    _ZN3stk11compression17__lzss_compressor20clear_forward_resultEv = _ZN3stk11compression17__lzss_compressor20clear_forward_resultEv@4 @157
    _ZN3stk11compression17__lzss_compressor20clear_forward_resultEv@4 @158
    _ZN3stk11compression17__lzss_compressor21clear_backward_resultEv = _ZN3stk11compression17__lzss_compressor21clear_backward_resultEv@4 @159
    _ZN3stk11compression17__lzss_compressor21clear_backward_resultEv@4 @160
    _ZN3stk11compression17__lzss_compressor3cutEj = _ZN3stk11compression17__lzss_compressor3cutEj@8 @161
    _ZN3stk11compression17__lzss_compressor3cutEj@8 @162
    _ZN3stk11compression17__lzss_compressor4skipEv = _ZN3stk11compression17__lzss_compressor4skipEv@4 @163
    _ZN3stk11compression17__lzss_compressor4skipEv@4 @164
    _ZN3stk11compression17__lzss_compressor6insertEv = _ZN3stk11compression17__lzss_compressor6insertEv@4 @165
    _ZN3stk11compression17__lzss_compressor6insertEv@4 @166
    _ZN3stk11compression17__lzss_compressor6updateEPKcjb = _ZN3stk11compression17__lzss_compressor6updateEPKcjb@16 @167
    _ZN3stk11compression17__lzss_compressor6updateEPKcjb@16 @168
    _ZN3stk11compression17__lzss_compressorC1Ejj @169
    _ZN3stk11compression17__lzss_compressorC2Ejj @170
    _ZN3stk11compression17__lzss_compressorD1Ev @171
    _ZN3stk11compression17__lzss_compressorD2Ev @172
    _ZN3stk11compression24__static_huff_compressor10initializeEv = _ZN3stk11compression24__static_huff_compressor10initializeEv@4 @173
    _ZN3stk11compression24__static_huff_compressor10initializeEv@4 @174
    _ZN3stk11compression24__static_huff_compressor11reconstructEv = _ZN3stk11compression24__static_huff_compressor11reconstructEv@4 @175
    _ZN3stk11compression24__static_huff_compressor11reconstructEv@4 @176
    _ZN3stk11compression24__static_huff_compressor6decodeEPcPKcc = _ZN3stk11compression24__static_huff_compressor6decodeEPcPKcc@16 @177
    _ZN3stk11compression24__static_huff_compressor6decodeEPcPKcc@16 @178
    _ZN3stk11compression24__static_huff_compressor6encodeEPccc = _ZN3stk11compression24__static_huff_compressor6encodeEPccc@16 @179
    _ZN3stk11compression24__static_huff_compressor6encodeEPccc@16 @180
    _ZN3stk11compression24__static_huff_compressor6updateEc = _ZN3stk11compression24__static_huff_compressor6updateEc@8 @181
    _ZN3stk11compression24__static_huff_compressor6updateEc@8 @182
    _ZN3stk11compression24__static_huff_compressorC1Ev @183
    _ZN3stk11compression24__static_huff_compressorC2Ev @184
    _ZN3stk11compression24__static_huff_compressorD1Ev @185
    _ZN3stk11compression24__static_huff_compressorD2Ev @186
    _ZN3stk11compression4testEv = _ZN3stk11compression4testEv@0 @187
    _ZN3stk11compression4testEv@0 @188
    _ZN3stk11file_header19__lzss_header_coder10dup_decodeEPjS2_PKv = _ZN3stk11file_header19__lzss_header_coder10dup_decodeEPjS2_PKv@12 @189
    _ZN3stk11file_header19__lzss_header_coder10dup_decodeEPjS2_PKv@12 @190
    _ZN3stk11file_header19__lzss_header_coder10dup_encodeEPvjj = _ZN3stk11file_header19__lzss_header_coder10dup_encodeEPvjj@12 @191
    _ZN3stk11file_header19__lzss_header_coder10dup_encodeEPvjj@12 @192
    _ZN3stk11file_header19__lzss_header_coder10lit_decodeEPjPKv = _ZN3stk11file_header19__lzss_header_coder10lit_decodeEPjPKv@8 @193
    _ZN3stk11file_header19__lzss_header_coder10lit_decodeEPjPKv@8 @194
    _ZN3stk11file_header19__lzss_header_coder10lit_encodeEPvj = _ZN3stk11file_header19__lzss_header_coder10lit_encodeEPvj@8 @195
    _ZN3stk11file_header19__lzss_header_coder10lit_encodeEPvj@8 @196
    _ZN3stk11file_header19__lzss_header_coder10rle_decodeEPjS2_PKv = _ZN3stk11file_header19__lzss_header_coder10rle_decodeEPjS2_PKv@12 @197
    _ZN3stk11file_header19__lzss_header_coder10rle_decodeEPjS2_PKv@12 @198
    _ZN3stk11file_header19__lzss_header_coder10rle_encodeEPvjj = _ZN3stk11file_header19__lzss_header_coder10rle_encodeEPvjj@12 @199
    _ZN3stk11file_header19__lzss_header_coder10rle_encodeEPvjj@12 @200
    _ZN3stk11file_header19__lzss_header_coder14check_lit_costEj = _ZN3stk11file_header19__lzss_header_coder14check_lit_costEj@4 @201
    _ZN3stk11file_header19__lzss_header_coder14check_lit_costEj@4 @202
    _ZN3stk11file_header19__lzss_header_coder20check_dup_match_costEjjj = _ZN3stk11file_header19__lzss_header_coder20check_dup_match_costEjjj@12 @203
    _ZN3stk11file_header19__lzss_header_coder20check_dup_match_costEjjj@12 @204
    _ZN3stk11file_header19__lzss_header_coder20check_rle_match_costEjjj = _ZN3stk11file_header19__lzss_header_coder20check_rle_match_costEjjj@12 @205
    _ZN3stk11file_header19__lzss_header_coder20check_rle_match_costEjjj@12 @206
    _ZN3stk11file_header19__lzss_header_coder9dup_priceEjj = _ZN3stk11file_header19__lzss_header_coder9dup_priceEjj@8 @207
    _ZN3stk11file_header19__lzss_header_coder9dup_priceEjj@8 @208
    _ZN3stk11file_header19__lzss_header_coder9lit_priceEj = _ZN3stk11file_header19__lzss_header_coder9lit_priceEj@4 @209
    _ZN3stk11file_header19__lzss_header_coder9lit_priceEj@4 @210
    _ZN3stk11file_header19__lzss_header_coder9rle_priceEjj = _ZN3stk11file_header19__lzss_header_coder9rle_priceEjj@8 @211
    _ZN3stk11file_header19__lzss_header_coder9rle_priceEjj@8 @212
    _ZN3stk11file_header19__lzss_header_coderC1Ev = _ZN3stk11file_header19__lzss_header_coderC1Ev@4 @213
    _ZN3stk11file_header19__lzss_header_coderC1Ev@4 @214
    _ZN3stk11file_header19__lzss_header_coderC2Ev = _ZN3stk11file_header19__lzss_header_coderC2Ev@4 @215
    _ZN3stk11file_header19__lzss_header_coderC2Ev@4 @216
    _ZN3stk11file_header19__lzss_header_coderD0Ev = _ZN3stk11file_header19__lzss_header_coderD0Ev@8 @217
    _ZN3stk11file_header19__lzss_header_coderD0Ev@8 @218
    _ZN3stk11file_header19__lzss_header_coderD1Ev = _ZN3stk11file_header19__lzss_header_coderD1Ev@8 @219
    _ZN3stk11file_header19__lzss_header_coderD1Ev@8 @220
    _ZN3stk11file_header19__lzss_header_coderD2Ev = _ZN3stk11file_header19__lzss_header_coderD2Ev@8 @221
    _ZN3stk11file_header19__lzss_header_coderD2Ev@8 @222
    _ZN3stk12__cstr_class13shrink_to_fitEv = _ZN3stk12__cstr_class13shrink_to_fitEv@4 @223
    _ZN3stk12__cstr_class13shrink_to_fitEv@4 @224
    _ZN3stk12__cstr_class3addEPKc = _ZN3stk12__cstr_class3addEPKc@8 @225
    _ZN3stk12__cstr_class3addEPKc@8 @226
    _ZN3stk12__cstr_class3setEPKc = _ZN3stk12__cstr_class3setEPKc@8 @227
    _ZN3stk12__cstr_class3setEPKc@8 @228
    _ZN3stk12__cstr_class3setEPS0_ = _ZN3stk12__cstr_class3setEPS0_@8 @229
    _ZN3stk12__cstr_class3setEPS0_@8 @230
    _ZN3stk12__cstr_class4dataEv = _ZN3stk12__cstr_class4dataEv@4 @231
    _ZN3stk12__cstr_class4dataEv@4 @232
    _ZN3stk12__cstr_class5clearEv = _ZN3stk12__cstr_class5clearEv@4 @233
    _ZN3stk12__cstr_class5clearEv@4 @234
    _ZN3stk12__cstr_class6__initEjPKc = _ZN3stk12__cstr_class6__initEjPKc@12 @235
    _ZN3stk12__cstr_class6__initEjPKc@12 @236
    _ZN3stk12__cstr_class6resizeEj = _ZN3stk12__cstr_class6resizeEj@8 @237
    _ZN3stk12__cstr_class6resizeEj@8 @238
    _ZN3stk12__cstr_class7reserveEj = _ZN3stk12__cstr_class7reserveEj@8 @239
    _ZN3stk12__cstr_class7reserveEj@8 @240
    _ZN3stk12__cstr_classC1EPKc = _ZN3stk12__cstr_classC1EPKc@8 @241
    _ZN3stk12__cstr_classC1EPKc@8 @242
    _ZN3stk12__cstr_classC1Ej = _ZN3stk12__cstr_classC1Ej@8 @243
    _ZN3stk12__cstr_classC1Ej@8 @244
    _ZN3stk12__cstr_classC1EjPKc = _ZN3stk12__cstr_classC1EjPKc@12 @245
    _ZN3stk12__cstr_classC1EjPKc@12 @246
    _ZN3stk12__cstr_classC1Ev = _ZN3stk12__cstr_classC1Ev@4 @247
    _ZN3stk12__cstr_classC1Ev@4 @248
    _ZN3stk12__cstr_classC2EPKc = _ZN3stk12__cstr_classC2EPKc@8 @249
    _ZN3stk12__cstr_classC2EPKc@8 @250
    _ZN3stk12__cstr_classC2Ej = _ZN3stk12__cstr_classC2Ej@8 @251
    _ZN3stk12__cstr_classC2Ej@8 @252
    _ZN3stk12__cstr_classC2EjPKc = _ZN3stk12__cstr_classC2EjPKc@12 @253
    _ZN3stk12__cstr_classC2EjPKc@12 @254
    _ZN3stk12__cstr_classC2Ev = _ZN3stk12__cstr_classC2Ev@4 @255
    _ZN3stk12__cstr_classC2Ev@4 @256
    _ZN3stk12__cstr_classD0Ev = _ZN3stk12__cstr_classD0Ev@8 @257
    _ZN3stk12__cstr_classD0Ev@8 @258
    _ZN3stk12__cstr_classD1Ev = _ZN3stk12__cstr_classD1Ev@8 @259
    _ZN3stk12__cstr_classD1Ev@8 @260
    _ZN3stk12__cstr_classD2Ev = _ZN3stk12__cstr_classD2Ev@8 @261
    _ZN3stk12__cstr_classD2Ev@8 @262
    _ZN3stk12__cstr_stack21set_default_text_sizeEj = _ZN3stk12__cstr_stack21set_default_text_sizeEj@8 @263
    _ZN3stk12__cstr_stack21set_default_text_sizeEj@8 @264
    _ZN3stk12__cstr_stack3popEj = _ZN3stk12__cstr_stack3popEj@8 @265
    _ZN3stk12__cstr_stack3popEj@8 @266
    _ZN3stk12__cstr_stack4pushEPKc = _ZN3stk12__cstr_stack4pushEPKc@8 @267
    _ZN3stk12__cstr_stack4pushEPKc@8 @268
    _ZN3stk12__cstr_stack4pushEj = _ZN3stk12__cstr_stack4pushEj@8 @269
    _ZN3stk12__cstr_stack4pushEj@8 @270
    _ZN3stk12__cstr_stack4pushEjPKc = _ZN3stk12__cstr_stack4pushEjPKc@12 @271
    _ZN3stk12__cstr_stack4pushEjPKc@12 @272
    _ZN3stk12__cstr_stack6__initEjj = _ZN3stk12__cstr_stack6__initEjj@12 @273
    _ZN3stk12__cstr_stack6__initEjj@12 @274
    _ZN3stk12__cstr_stack8set_sizeEj = _ZN3stk12__cstr_stack8set_sizeEj@8 @275
    _ZN3stk12__cstr_stack8set_sizeEj@8 @276
    _ZN3stk12__cstr_stackC1Ej = _ZN3stk12__cstr_stackC1Ej@8 @277
    _ZN3stk12__cstr_stackC1Ej@8 @278
    _ZN3stk12__cstr_stackC1Ejj = _ZN3stk12__cstr_stackC1Ejj@12 @279
    _ZN3stk12__cstr_stackC1Ejj@12 @280
    _ZN3stk12__cstr_stackC1Ev = _ZN3stk12__cstr_stackC1Ev@4 @281
    _ZN3stk12__cstr_stackC1Ev@4 @282
    _ZN3stk12__cstr_stackC2Ej = _ZN3stk12__cstr_stackC2Ej@8 @283
    _ZN3stk12__cstr_stackC2Ej@8 @284
    _ZN3stk12__cstr_stackC2Ejj = _ZN3stk12__cstr_stackC2Ejj@12 @285
    _ZN3stk12__cstr_stackC2Ejj@12 @286
    _ZN3stk12__cstr_stackC2Ev = _ZN3stk12__cstr_stackC2Ev@4 @287
    _ZN3stk12__cstr_stackC2Ev@4 @288
    _ZN3stk12__cstr_stackD0Ev = _ZN3stk12__cstr_stackD0Ev@8 @289
    _ZN3stk12__cstr_stackD0Ev@8 @290
    _ZN3stk12__cstr_stackD1Ev = _ZN3stk12__cstr_stackD1Ev@8 @291
    _ZN3stk12__cstr_stackD1Ev@8 @292
    _ZN3stk12__cstr_stackD2Ev = _ZN3stk12__cstr_stackD2Ev@8 @293
    _ZN3stk12__cstr_stackD2Ev@8 @294
    _ZN3stk12__stk_vectorIPNS_12__cstr_classEE3popEv = _ZN3stk12__stk_vectorIPNS_12__cstr_classEE3popEv@4 @295
    _ZN3stk12__stk_vectorIPNS_12__cstr_classEE3popEv@4 @296
    _ZN3stk12__stk_vectorIPNS_12__cstr_classEE4pushERKS2_ = _ZN3stk12__stk_vectorIPNS_12__cstr_classEE4pushERKS2_@8 @297
    _ZN3stk12__stk_vectorIPNS_12__cstr_classEE4pushERKS2_@8 @298
    _ZN3stk12__stk_vectorIPNS_12__cstr_classEE6removeEj = _ZN3stk12__stk_vectorIPNS_12__cstr_classEE6removeEj@8 @299
    _ZN3stk12__stk_vectorIPNS_12__cstr_classEE6removeEj@8 @300
    _ZN3stk12__stk_vectorIPNS_12__cstr_classEE6resizeEj = _ZN3stk12__stk_vectorIPNS_12__cstr_classEE6resizeEj@8 @301
    _ZN3stk12__stk_vectorIPNS_12__cstr_classEE6resizeEj@8 @302
    _ZN3stk12__stk_vectorIPNS_12__cstr_classEE7clearedEv = _ZN3stk12__stk_vectorIPNS_12__cstr_classEE7clearedEv@4 @303
    _ZN3stk12__stk_vectorIPNS_12__cstr_classEE7clearedEv@4 @304
    _ZN3stk12__stk_vectorIPNS_12__cstr_classEE8set_sizeEj = _ZN3stk12__stk_vectorIPNS_12__cstr_classEE8set_sizeEj@8 @305
    _ZN3stk12__stk_vectorIPNS_12__cstr_classEE8set_sizeEj@8 @306
    _ZN3stk12__stk_vectorIPNS_12__cstr_classEEC2Ej = _ZN3stk12__stk_vectorIPNS_12__cstr_classEEC2Ej@8 @307
    _ZN3stk12__stk_vectorIPNS_12__cstr_classEEC2Ej@8 @308
    _ZN3stk12__stk_vectorIPNS_12__cstr_classEED0Ev = _ZN3stk12__stk_vectorIPNS_12__cstr_classEED0Ev@8 @309
    _ZN3stk12__stk_vectorIPNS_12__cstr_classEED0Ev@8 @310
    _ZN3stk12__stk_vectorIPNS_12__cstr_classEED1Ev = _ZN3stk12__stk_vectorIPNS_12__cstr_classEED1Ev@8 @311
    _ZN3stk12__stk_vectorIPNS_12__cstr_classEED1Ev@8 @312
    _ZN3stk12__stk_vectorIPNS_12__cstr_classEED2Ev = _ZN3stk12__stk_vectorIPNS_12__cstr_classEED2Ev@8 @313
    _ZN3stk12__stk_vectorIPNS_12__cstr_classEED2Ev@8 @314
    _ZN3stk12__stk_vectorIcE6resizeEj = _ZN3stk12__stk_vectorIcE6resizeEj@8 @315
    _ZN3stk12__stk_vectorIcE6resizeEj@8 @316
    _ZN3stk12__stk_vectorIcE7clearedEv = _ZN3stk12__stk_vectorIcE7clearedEv@4 @317
    _ZN3stk12__stk_vectorIcE7clearedEv@4 @318
    _ZN3stk12__stk_vectorIcE8set_sizeEj = _ZN3stk12__stk_vectorIcE8set_sizeEj@8 @319
    _ZN3stk12__stk_vectorIcE8set_sizeEj@8 @320
    _ZN3stk12__stk_vectorIcEC2Ej = _ZN3stk12__stk_vectorIcEC2Ej@8 @321
    _ZN3stk12__stk_vectorIcEC2Ej@8 @322
    _ZN3stk12__stk_vectorIcED0Ev = _ZN3stk12__stk_vectorIcED0Ev@8 @323
    _ZN3stk12__stk_vectorIcED0Ev@8 @324
    _ZN3stk12__stk_vectorIcED1Ev = _ZN3stk12__stk_vectorIcED1Ev@8 @325
    _ZN3stk12__stk_vectorIcED1Ev@8 @326
    _ZN3stk12__stk_vectorIcED2Ev = _ZN3stk12__stk_vectorIcED2Ev@8 @327
    _ZN3stk12__stk_vectorIcED2Ev@8 @328
    _ZN3stk13__kop32_class10f_exec_oneEjj = _ZN3stk13__kop32_class10f_exec_oneEjj@12 @329
    _ZN3stk13__kop32_class10f_exec_oneEjj@12 @330
    _ZN3stk13__kop32_class10f_skip_oneEjj = _ZN3stk13__kop32_class10f_skip_oneEjj@12 @331
    _ZN3stk13__kop32_class10f_skip_oneEjj@12 @332
    _ZN3stk13__kop32_class12prepare_listEv = _ZN3stk13__kop32_class12prepare_listEv@4 @333
    _ZN3stk13__kop32_class12prepare_listEv@4 @334
    _ZN3stk13__kop32_class15prepare_optionsEPKc = _ZN3stk13__kop32_class15prepare_optionsEPKc@8 @335
    _ZN3stk13__kop32_class15prepare_optionsEPKc@8 @336
    _ZN3stk13__kop32_class18f_check_free_spaceEPKcxxbb = _ZN3stk13__kop32_class18f_check_free_spaceEPKcxxbb@32 @337
    _ZN3stk13__kop32_class18f_check_free_spaceEPKcxxbb@32 @338
    _ZN3stk13__kop32_class19f_write_file_threadEPv = _ZN3stk13__kop32_class19f_write_file_threadEPv@4 @339
    _ZN3stk13__kop32_class19f_write_file_threadEPv@4 @340
    _ZN3stk13__kop32_class25f_create_destination_listEPKc = _ZN3stk13__kop32_class25f_create_destination_listEPKc@8 @341
    _ZN3stk13__kop32_class25f_create_destination_listEPKc@8 @342
    _ZN3stk13__kop32_class5abortEv = _ZN3stk13__kop32_class5abortEv@4 @343
    _ZN3stk13__kop32_class5abortEv@4 @344
    _ZN3stk13__kop32_class5resetEv = _ZN3stk13__kop32_class5resetEv@4 @345
    _ZN3stk13__kop32_class5resetEv@4 @346
    _ZN3stk13__kop32_class8do_eventEPKcS2_S2_ = _ZN3stk13__kop32_class8do_eventEPKcS2_S2_@16 @347
    _ZN3stk13__kop32_class8do_eventEPKcS2_S2_@16 @348
    _ZN3stk13__kop32_class8exec_allEv = _ZN3stk13__kop32_class8exec_allEv@4 @349
    _ZN3stk13__kop32_class8exec_allEv@4 @350
    _ZN3stk13__kop32_class8exec_oneEj = _ZN3stk13__kop32_class8exec_oneEj@8 @351
    _ZN3stk13__kop32_class8exec_oneEj@8 @352
    _ZN3stk13__kop32_classC1Ev = _ZN3stk13__kop32_classC1Ev@4 @353
    _ZN3stk13__kop32_classC1Ev@4 @354
    _ZN3stk13__kop32_classC2Ev = _ZN3stk13__kop32_classC2Ev@4 @355
    _ZN3stk13__kop32_classC2Ev@4 @356
    _ZN3stk13__kop32_classD0Ev = _ZN3stk13__kop32_classD0Ev@8 @357
    _ZN3stk13__kop32_classD0Ev@8 @358
    _ZN3stk13__kop32_classD1Ev = _ZN3stk13__kop32_classD1Ev@8 @359
    _ZN3stk13__kop32_classD1Ev@8 @360
    _ZN3stk13__kop32_classD2Ev = _ZN3stk13__kop32_classD2Ev@8 @361
    _ZN3stk13__kop32_classD2Ev@8 @362
    _ZN3stk14__kop32_search10f_seek_dstEPKcS2_S2_ = _ZN3stk14__kop32_search10f_seek_dstEPKcS2_S2_@16 @363
    _ZN3stk14__kop32_search10f_seek_dstEPKcS2_S2_@16 @364
    _ZN3stk14__kop32_search10f_seek_srcEPKc = _ZN3stk14__kop32_search10f_seek_srcEPKc@8 @365
    _ZN3stk14__kop32_search10f_seek_srcEPKc@8 @366
    _ZN3stk14__kop32_search15f_seek_src_fileEPKci = _ZN3stk14__kop32_search15f_seek_src_fileEPKci@12 @367
    _ZN3stk14__kop32_search15f_seek_src_fileEPKci@12 @368
    _ZN3stk14__kop32_search23create_destination_listEPKcS2_S2_PNS_10__databaseE = _ZN3stk14__kop32_search23create_destination_listEPKcS2_S2_PNS_10__databaseE@20 @369
    _ZN3stk14__kop32_search23create_destination_listEPKcS2_S2_PNS_10__databaseE@20 @370
    _ZN3stk14__kop32_search4execEPKcPKNS_10__databaseEPS3_ = _ZN3stk14__kop32_search4execEPKcPKNS_10__databaseEPS3_@16 @371
    _ZN3stk14__kop32_search4execEPKcPKNS_10__databaseEPS3_@16 @372
    _ZN3stk14__kop32_search5ownerEv = _ZN3stk14__kop32_search5ownerEv@4 @373
    _ZN3stk14__kop32_search5ownerEv@4 @374
    _ZN3stk14__kop32_search9set_ownerEPNS_13__kop32_classE = _ZN3stk14__kop32_search9set_ownerEPNS_13__kop32_classE@8 @375
    _ZN3stk14__kop32_search9set_ownerEPNS_13__kop32_classE@8 @376
    _ZN3stk14__kop32_searchC1EPNS_13__kop32_classE = _ZN3stk14__kop32_searchC1EPNS_13__kop32_classE@8 @377
    _ZN3stk14__kop32_searchC1EPNS_13__kop32_classE@8 @378
    _ZN3stk14__kop32_searchC2EPNS_13__kop32_classE = _ZN3stk14__kop32_searchC2EPNS_13__kop32_classE@8 @379
    _ZN3stk14__kop32_searchC2EPNS_13__kop32_classE@8 @380
    _ZN3stk14__kop32_searchD1Ev = _ZN3stk14__kop32_searchD1Ev@8 @381
    _ZN3stk14__kop32_searchD1Ev@8 @382
    _ZN3stk14__kop32_searchD2Ev = _ZN3stk14__kop32_searchD2Ev@8 @383
    _ZN3stk14__kop32_searchD2Ev@8 @384
    _ZN3stk14__math_pharser22f_decode_subexpressionEj = _ZN3stk14__math_pharser22f_decode_subexpressionEj@8 @385
    _ZN3stk14__math_pharser22f_decode_subexpressionEj@8 @386
    _ZN3stk14__math_pharser6decodeEPKc = _ZN3stk14__math_pharser6decodeEPKc@8 @387
    _ZN3stk14__math_pharser6decodeEPKc@8 @388
    _ZN3stk14__math_pharserC1Ev = _ZN3stk14__math_pharserC1Ev@4 @389
    _ZN3stk14__math_pharserC1Ev@4 @390
    _ZN3stk14__math_pharserC2Ev = _ZN3stk14__math_pharserC2Ev@4 @391
    _ZN3stk14__math_pharserC2Ev@4 @392
    _ZN3stk14__math_pharserD1Ev = _ZN3stk14__math_pharserD1Ev@8 @393
    _ZN3stk14__math_pharserD1Ev@8 @394
    _ZN3stk14__math_pharserD2Ev = _ZN3stk14__math_pharserD2Ev@8 @395
    _ZN3stk14__math_pharserD2Ev@8 @396
    _ZN3stk15__password_text3getEv = _ZN3stk15__password_text3getEv@4 @397
    _ZN3stk15__password_text3getEv@4 @398
    _ZN3stk15__password_text3setEPKc = _ZN3stk15__password_text3setEPKc@8 @399
    _ZN3stk15__password_text3setEPKc@8 @400
    _ZN3stk15__password_text4sizeEv = _ZN3stk15__password_text4sizeEv@4 @401
    _ZN3stk15__password_text4sizeEv@4 @402
    _ZN3stk15__password_text8get_hashEv = _ZN3stk15__password_text8get_hashEv@4 @403
    _ZN3stk15__password_text8get_hashEv@4 @404
    _ZN3stk15__password_textC1Ev = _ZN3stk15__password_textC1Ev@4 @405
    _ZN3stk15__password_textC1Ev@4 @406
    _ZN3stk15__password_textC2Ev = _ZN3stk15__password_textC2Ev@4 @407
    _ZN3stk15__password_textC2Ev@4 @408
    _ZN3stk15__password_textD1Ev = _ZN3stk15__password_textD1Ev@8 @409
    _ZN3stk15__password_textD1Ev@8 @410
    _ZN3stk15__password_textD2Ev = _ZN3stk15__password_textD2Ev@8 @411
    _ZN3stk15__password_textD2Ev@8 @412
    _ZN3stk15__password_textaSEPKc = _ZN3stk15__password_textaSEPKc@8 @413
    _ZN3stk15__password_textaSEPKc@8 @414
    _ZN3stk15__password_textcvPKcEv = _ZN3stk15__password_textcvPKcEv@4 @415
    _ZN3stk15__password_textcvPKcEv@4 @416
    _ZN3stk16__database_aliasC1EPKc = _ZN3stk16__database_aliasC1EPKc@8 @417
    _ZN3stk16__database_aliasC1EPKc@8 @418
    _ZN3stk16__database_aliasC1Ev = _ZN3stk16__database_aliasC1Ev@4 @419
    _ZN3stk16__database_aliasC1Ev@4 @420
    _ZN3stk16__database_aliasD0Ev = _ZN3stk16__database_aliasD0Ev@8 @421
    _ZN3stk16__database_aliasD0Ev@8 @422
    _ZN3stk16__database_aliasD1Ev = _ZN3stk16__database_aliasD1Ev@8 @423
    _ZN3stk16__database_aliasD1Ev@8 @424
    _ZN3stk16__database_items11set_numbersEjjj = _ZN3stk16__database_items11set_numbersEjjj@16 @425
    _ZN3stk16__database_items11set_numbersEjjj@16 @426
    _ZN3stk16__database_items11set_pointerEjjPv = _ZN3stk16__database_items11set_pointerEjjPv@16 @427
    _ZN3stk16__database_items11set_pointerEjjPv@16 @428
    _ZN3stk16__database_items12sort_numbersEj = _ZN3stk16__database_items12sort_numbersEj@8 @429
    _ZN3stk16__database_items12sort_numbersEj@8 @430
    _ZN3stk16__database_items12sort_pointerEj = _ZN3stk16__database_items12sort_pointerEj@8 @431
    _ZN3stk16__database_items12sort_pointerEj@8 @432
    _ZN3stk16__database_items13set_text_sizeEjj = _ZN3stk16__database_items13set_text_sizeEjj@12 @433
    _ZN3stk16__database_items13set_text_sizeEjj@12 @434
    _ZN3stk16__database_items3addEPKNS0_6__atomE = _ZN3stk16__database_items3addEPKNS0_6__atomE@8 @435
    _ZN3stk16__database_items3addEPKNS0_6__atomE@8 @436
    _ZN3stk16__database_items3cutEj = _ZN3stk16__database_items3cutEj@8 @437
    _ZN3stk16__database_items3cutEj@8 @438
    _ZN3stk16__database_items3setEjPKNS0_6__atomE = _ZN3stk16__database_items3setEjPKNS0_6__atomE@12 @439
    _ZN3stk16__database_items3setEjPKNS0_6__atomE@12 @440
    _ZN3stk16__database_items4swapEjj = _ZN3stk16__database_items4swapEjj@12 @441
    _ZN3stk16__database_items4swapEjj@12 @442
    _ZN3stk16__database_items5clearEv = _ZN3stk16__database_items5clearEv@4 @443
    _ZN3stk16__database_items5clearEv@4 @444
    _ZN3stk16__database_items6__atom3setEPc = _ZN3stk16__database_items6__atom3setEPc@8 @445
    _ZN3stk16__database_items6__atom3setEPc@8 @446
    _ZN3stk16__database_items6__atom5resetEv = _ZN3stk16__database_items6__atom5resetEv@4 @447
    _ZN3stk16__database_items6__atom5resetEv@4 @448
    _ZN3stk16__database_items6__atomC1Ev = _ZN3stk16__database_items6__atomC1Ev@4 @449
    _ZN3stk16__database_items6__atomC1Ev@4 @450
    _ZN3stk16__database_items6__atomC2Ev = _ZN3stk16__database_items6__atomC2Ev@4 @451
    _ZN3stk16__database_items6__atomC2Ev@4 @452
    _ZN3stk16__database_items6__atomD1Ev = _ZN3stk16__database_items6__atomD1Ev@8 @453
    _ZN3stk16__database_items6__atomD1Ev@8 @454
    _ZN3stk16__database_items6__atomD2Ev = _ZN3stk16__database_items6__atomD2Ev@8 @455
    _ZN3stk16__database_items6__atomD2Ev@8 @456
    _ZN3stk16__database_items6insertEjPKNS0_6__atomE = _ZN3stk16__database_items6insertEjPKNS0_6__atomE@12 @457
    _ZN3stk16__database_items6insertEjPKNS0_6__atomE@12 @458
    _ZN3stk16__database_items8add_textEPKc = _ZN3stk16__database_items8add_textEPKc@8 @459
    _ZN3stk16__database_items8add_textEPKc@8 @460
    _ZN3stk16__database_items8set_textEjPKc = _ZN3stk16__database_items8set_textEjPKc@12 @461
    _ZN3stk16__database_items8set_textEjPKc@12 @462
    _ZN3stk16__database_items9clear_allEv = _ZN3stk16__database_items9clear_allEv@4 @463
    _ZN3stk16__database_items9clear_allEv@4 @464
    _ZN3stk16__database_items9set_countEj = _ZN3stk16__database_items9set_countEj@8 @465
    _ZN3stk16__database_items9set_countEj@8 @466
    _ZN3stk16__database_items9sort_textEv = _ZN3stk16__database_items9sort_textEv@4 @467
    _ZN3stk16__database_items9sort_textEv@4 @468
    _ZN3stk16__database_itemsC1EPKNS_10__databaseE = _ZN3stk16__database_itemsC1EPKNS_10__databaseE@8 @469
    _ZN3stk16__database_itemsC1EPKNS_10__databaseE@8 @470
    _ZN3stk16__database_itemsC1Ev = _ZN3stk16__database_itemsC1Ev@4 @471
    _ZN3stk16__database_itemsC1Ev@4 @472
    _ZN3stk16__database_itemsC2EPKNS_10__databaseE = _ZN3stk16__database_itemsC2EPKNS_10__databaseE@8 @473
    _ZN3stk16__database_itemsC2EPKNS_10__databaseE@8 @474
    _ZN3stk16__database_itemsC2Ev = _ZN3stk16__database_itemsC2Ev@4 @475
    _ZN3stk16__database_itemsC2Ev@4 @476
    _ZN3stk16__database_itemsD0Ev = _ZN3stk16__database_itemsD0Ev@8 @477
    _ZN3stk16__database_itemsD0Ev@8 @478
    _ZN3stk16__database_itemsD1Ev = _ZN3stk16__database_itemsD1Ev@8 @479
    _ZN3stk16__database_itemsD1Ev@8 @480
    _ZN3stk16__database_itemsD2Ev = _ZN3stk16__database_itemsD2Ev@8 @481
    _ZN3stk16__database_itemsD2Ev@8 @482
    _ZN3stk16__database_itemsixEj = _ZN3stk16__database_itemsixEj@8 @483
    _ZN3stk16__database_itemsixEj@8 @484
    _ZN3stk18CSTR_FROM_DATABASEEPcPKcPKNS_10__databaseE = _ZN3stk18CSTR_FROM_DATABASEEPcPKcPKNS_10__databaseE@12 @485
    _ZN3stk18CSTR_FROM_DATABASEEPcPKcPKNS_10__databaseE@12 @486
    _ZN3stk18DATABASE_FROM_CSTREPNS_10__databaseEPKcS3_ = _ZN3stk18DATABASE_FROM_CSTREPNS_10__databaseEPKcS3_@12 @487
    _ZN3stk18DATABASE_FROM_CSTREPNS_10__databaseEPKcS3_@12 @488
    _ZN3stk18__kop32_class_list5resetEv = _ZN3stk18__kop32_class_list5resetEv@4 @489
    _ZN3stk18__kop32_class_list5resetEv@4 @490
    _ZN3stk18__kop32_class_listC1Ev = _ZN3stk18__kop32_class_listC1Ev@4 @491
    _ZN3stk18__kop32_class_listC1Ev@4 @492
    _ZN3stk18__kop32_class_listC2Ev = _ZN3stk18__kop32_class_listC2Ev@4 @493
    _ZN3stk18__kop32_class_listC2Ev@4 @494
    _ZN3stk18__kop32_class_listD0Ev = _ZN3stk18__kop32_class_listD0Ev@8 @495
    _ZN3stk18__kop32_class_listD0Ev@8 @496
    _ZN3stk18__kop32_class_listD1Ev = _ZN3stk18__kop32_class_listD1Ev@8 @497
    _ZN3stk18__kop32_class_listD1Ev@8 @498
    _ZN3stk18__kop32_class_listD2Ev = _ZN3stk18__kop32_class_listD2Ev@8 @499
    _ZN3stk18__kop32_class_listD2Ev@8 @500
    _ZN3stk21__kop32_class_options5resetEv = _ZN3stk21__kop32_class_options5resetEv@4 @501
    _ZN3stk21__kop32_class_options5resetEv@4 @502
    _ZN3stk21__kop32_class_optionsC1Ev = _ZN3stk21__kop32_class_optionsC1Ev@4 @503
    _ZN3stk21__kop32_class_optionsC1Ev@4 @504
    _ZN3stk21__kop32_class_optionsC2Ev = _ZN3stk21__kop32_class_optionsC2Ev@4 @505
    _ZN3stk21__kop32_class_optionsC2Ev@4 @506
    _ZN3stk21__kop32_class_optionsD1Ev = _ZN3stk21__kop32_class_optionsD1Ev@8 @507
    _ZN3stk21__kop32_class_optionsD1Ev@8 @508
    _ZN3stk21__kop32_class_optionsD2Ev = _ZN3stk21__kop32_class_optionsD2Ev@8 @509
    _ZN3stk21__kop32_class_optionsD2Ev@8 @510
    _ZN3stk32__kop32_class_progress_controler11actual_timeEv = _ZN3stk32__kop32_class_progress_controler11actual_timeEv@4 @511
    _ZN3stk32__kop32_class_progress_controler11actual_timeEv@4 @512
    _ZN3stk32__kop32_class_progress_controler12__stat_group10add_readedEj = _ZN3stk32__kop32_class_progress_controler12__stat_group10add_readedEj@8 @513
    _ZN3stk32__kop32_class_progress_controler12__stat_group10add_readedEj@8 @514
    _ZN3stk32__kop32_class_progress_controler12__stat_group5resetEv = _ZN3stk32__kop32_class_progress_controler12__stat_group5resetEv@4 @515
    _ZN3stk32__kop32_class_progress_controler12__stat_group5resetEv@4 @516
    _ZN3stk32__kop32_class_progress_controler12__stat_groupC1Ev = _ZN3stk32__kop32_class_progress_controler12__stat_groupC1Ev@4 @517
    _ZN3stk32__kop32_class_progress_controler12__stat_groupC1Ev@4 @518
    _ZN3stk32__kop32_class_progress_controler12__stat_groupC2Ev = _ZN3stk32__kop32_class_progress_controler12__stat_groupC2Ev@4 @519
    _ZN3stk32__kop32_class_progress_controler12__stat_groupC2Ev@4 @520
    _ZN3stk32__kop32_class_progress_controler12__stat_groupD1Ev = _ZN3stk32__kop32_class_progress_controler12__stat_groupD1Ev@8 @521
    _ZN3stk32__kop32_class_progress_controler12__stat_groupD1Ev@8 @522
    _ZN3stk32__kop32_class_progress_controler12__stat_groupD2Ev = _ZN3stk32__kop32_class_progress_controler12__stat_groupD2Ev@8 @523
    _ZN3stk32__kop32_class_progress_controler12__stat_groupD2Ev@8 @524
    _ZN3stk32__kop32_class_progress_controler12freeze_timerEv = _ZN3stk32__kop32_class_progress_controler12freeze_timerEv@4 @525
    _ZN3stk32__kop32_class_progress_controler12freeze_timerEv@4 @526
    _ZN3stk32__kop32_class_progress_controler12resume_timerEv = _ZN3stk32__kop32_class_progress_controler12resume_timerEv@4 @527
    _ZN3stk32__kop32_class_progress_controler12resume_timerEv@4 @528
    _ZN3stk32__kop32_class_progress_controler16initialize_timerEv = _ZN3stk32__kop32_class_progress_controler16initialize_timerEv@4 @529
    _ZN3stk32__kop32_class_progress_controler16initialize_timerEv@4 @530
    _ZN3stk32__kop32_class_progress_controler30default_callback_event_handlerEPNS_13__kop32_classEPKcS4_S4_ = _ZN3stk32__kop32_class_progress_controler30default_callback_event_handlerEPNS_13__kop32_classEPKcS4_S4_@16 @531
    _ZN3stk32__kop32_class_progress_controler30default_callback_event_handlerEPNS_13__kop32_classEPKcS4_S4_@16 @532
    _ZN3stk32__kop32_class_progress_controler5ownerEv = _ZN3stk32__kop32_class_progress_controler5ownerEv@4 @533
    _ZN3stk32__kop32_class_progress_controler5ownerEv@4 @534
    _ZN3stk32__kop32_class_progress_controler5resetEv = _ZN3stk32__kop32_class_progress_controler5resetEv@4 @535
    _ZN3stk32__kop32_class_progress_controler5resetEv@4 @536
    _ZN3stk32__kop32_class_progress_controler6__stat5resetEv = _ZN3stk32__kop32_class_progress_controler6__stat5resetEv@4 @537
    _ZN3stk32__kop32_class_progress_controler6__stat5resetEv@4 @538
    _ZN3stk32__kop32_class_progress_controler6__stat7percentEv = _ZN3stk32__kop32_class_progress_controler6__stat7percentEv@4 @539
    _ZN3stk32__kop32_class_progress_controler6__stat7percentEv@4 @540
    _ZN3stk32__kop32_class_progress_controler6__statC1Ev = _ZN3stk32__kop32_class_progress_controler6__statC1Ev@4 @541
    _ZN3stk32__kop32_class_progress_controler6__statC1Ev@4 @542
    _ZN3stk32__kop32_class_progress_controler6__statC2Ev = _ZN3stk32__kop32_class_progress_controler6__statC2Ev@4 @543
    _ZN3stk32__kop32_class_progress_controler6__statC2Ev@4 @544
    _ZN3stk32__kop32_class_progress_controler6__statD1Ev = _ZN3stk32__kop32_class_progress_controler6__statD1Ev@8 @545
    _ZN3stk32__kop32_class_progress_controler6__statD1Ev@8 @546
    _ZN3stk32__kop32_class_progress_controler6__statD2Ev = _ZN3stk32__kop32_class_progress_controler6__statD2Ev@8 @547
    _ZN3stk32__kop32_class_progress_controler6__statD2Ev@8 @548
    _ZN3stk32__kop32_class_progress_controler7elapsedEv = _ZN3stk32__kop32_class_progress_controler7elapsedEv@4 @549
    _ZN3stk32__kop32_class_progress_controler7elapsedEv@4 @550
    _ZN3stk32__kop32_class_progress_controler8do_eventEPKcS2_S2_ = _ZN3stk32__kop32_class_progress_controler8do_eventEPKcS2_S2_@16 @551
    _ZN3stk32__kop32_class_progress_controler8do_eventEPKcS2_S2_@16 @552
    _ZN3stk32__kop32_class_progress_controler9set_ownerEPNS_13__kop32_classE = _ZN3stk32__kop32_class_progress_controler9set_ownerEPNS_13__kop32_classE@8 @553
    _ZN3stk32__kop32_class_progress_controler9set_ownerEPNS_13__kop32_classE@8 @554
    _ZN3stk32__kop32_class_progress_controlerC1EPNS_13__kop32_classE = _ZN3stk32__kop32_class_progress_controlerC1EPNS_13__kop32_classE@8 @555
    _ZN3stk32__kop32_class_progress_controlerC1EPNS_13__kop32_classE@8 @556
    _ZN3stk32__kop32_class_progress_controlerC2EPNS_13__kop32_classE = _ZN3stk32__kop32_class_progress_controlerC2EPNS_13__kop32_classE@8 @557
    _ZN3stk32__kop32_class_progress_controlerC2EPNS_13__kop32_classE@8 @558
    _ZN3stk32__kop32_class_progress_controlerD1Ev = _ZN3stk32__kop32_class_progress_controlerD1Ev@8 @559
    _ZN3stk32__kop32_class_progress_controlerD1Ev@8 @560
    _ZN3stk32__kop32_class_progress_controlerD2Ev = _ZN3stk32__kop32_class_progress_controlerD2Ev@8 @561
    _ZN3stk32__kop32_class_progress_controlerD2Ev@8 @562
    _ZN3stk3com4openEaiccc = _ZN3stk3com4openEaiccc@20 @563
    _ZN3stk3com4openEaiccc@20 @564
    _ZN3stk3com4recvEaPvi = _ZN3stk3com4recvEaPvi@12 @565
    _ZN3stk3com4recvEaPvi@12 @566
    _ZN3stk3com4sendEaPvi = _ZN3stk3com4sendEaPvi@12 @567
    _ZN3stk3com4sendEaPvi@12 @568
    _ZN3stk3com5closeEa = _ZN3stk3com5closeEa@4 @569
    _ZN3stk3com5closeEa@4 @570
    _ZN3stk3con10con_atexitEv @571
    _ZN3stk3con13error_handlerE @572 DATA
    _ZN3stk3con13getch_handlerE @573 DATA
    _ZN3stk3con13print_handlerE @574 DATA
    _ZN3stk3con14stderr_handlerEPKc = _ZN3stk3con14stderr_handlerEPKc@4 @575
    _ZN3stk3con14stderr_handlerEPKc@4 @576
    _ZN3stk3con14stdinp_handlerEv = _ZN3stk3con14stdinp_handlerEv@0 @577
    _ZN3stk3con14stdinp_handlerEv@0 @578
    _ZN3stk3con14stdout_handlerEPKc = _ZN3stk3con14stdout_handlerEPKc@4 @579
    _ZN3stk3con14stdout_handlerEPKc@4 @580
    _ZN3stk3con20set_console_handlersEPFcvEPFvPKcES6_ = _ZN3stk3con20set_console_handlersEPFcvEPFvPKcES6_@12 @581
    _ZN3stk3con20set_console_handlersEPFcvEPFvPKcES6_@12 @582
    _ZN3stk3con5errorEPKc = _ZN3stk3con5errorEPKc@4 @583
    _ZN3stk3con5errorEPKc@4 @584
    _ZN3stk3con5getchEv = _ZN3stk3con5getchEv@0 @585
    _ZN3stk3con5getchEv@0 @586
    _ZN3stk3con5printEPKc = _ZN3stk3con5printEPKc@4 @587
    _ZN3stk3con5printEPKc@4 @588
    _ZN3stk3con6printeEPKcz @589
    _ZN3stk3con6printrEPKcc @590
    _ZN3stk3con6printsEPKcz @591
    _ZN3stk3cpu10cpu_has_htEv @592
    _ZN3stk3cpu10cpu_has_ssEv @593
    _ZN3stk3cpu10cpu_vendorEv @594
    _ZN3stk3cpu10tsc_resumeEv @595
    _ZN3stk3cpu11cpu_has_adxEv @596
    _ZN3stk3cpu11cpu_has_aesEv @597
    _ZN3stk3cpu11cpu_has_avxEv @598
    _ZN3stk3cpu11cpu_has_bmiEv @599
    _ZN3stk3cpu11cpu_has_fmaEv @600
    _ZN3stk3cpu11cpu_has_mmxEv @601
    _ZN3stk3cpu11cpu_has_msrEv @602
    _ZN3stk3cpu11cpu_has_psnEv @603
    _ZN3stk3cpu11cpu_has_shaEv @604
    _ZN3stk3cpu11cpu_has_smxEv @605
    _ZN3stk3cpu11cpu_has_sseEv @606
    _ZN3stk3cpu11cpu_has_tbmEv @607
    _ZN3stk3cpu11cpu_has_tscEv @608
    _ZN3stk3cpu11cpu_has_vmxEv @609
    _ZN3stk3cpu11cpu_has_x87Ev @610
    _ZN3stk3cpu11cpu_has_xopEv @611
    _ZN3stk3cpu11cpu_num_mhzEb @612
    _ZN3stk3cpu11tsc_elapsedEv @613
    _ZN3stk3cpu12cpu_has_cmovEv @614
    _ZN3stk3cpu12cpu_has_ermsEv @615
    _ZN3stk3cpu12cpu_has_f16cEv @616
    _ZN3stk3cpu12cpu_has_fxsrEv @617
    _ZN3stk3cpu12cpu_has_mtrrEv @618
    _ZN3stk3cpu13cpu_has_3dnowEv @619
    _ZN3stk3cpu13cpu_has_amd64Ev @620
    _ZN3stk3cpu13cpu_has_clfshEv @621
    _ZN3stk3cpu13cpu_has_clmulEv @622
    _ZN3stk3cpu13cpu_has_lzcntEv @623
    _ZN3stk3cpu13cpu_has_movbeEv @624
    _ZN3stk3cpu13cpu_has_sse4aEv @625
    _ZN3stk3cpu13cpu_has_xsaveEv @626
    _ZN3stk3cpu13cpu_num_coresEv @627
    _ZN3stk3cpu14cpu_cache_sizeEh @628
    _ZN3stk3cpu14cpu_has_mmxextEv @629
    _ZN3stk3cpu14cpu_has_popcntEv @630
    _ZN3stk3cpu14cpu_has_rdrandEv @631
    _ZN3stk3cpu14cpu_has_rdseedEv @632
    _ZN3stk3cpu14cpu_has_viaaesEv @633
    _ZN3stk3cpu14cpu_has_viarngEv @634
    _ZN3stk3cpu14cpu_print_infoEv @635
    _ZN3stk3cpu14tsc_checkpointEv @636
    _ZN3stk3cpu15cpu_has_avx512fEv @637
    _ZN3stk3cpu15cpu_has_cmpxchgEv @638
    _ZN3stk3cpu15cpu_has_perftscEv @639
    _ZN3stk3cpu15cpu_has_viahashEv @640
    _ZN3stk3cpu15cpu_num_threadsEv @641
    _ZN3stk3cpu16cpu_has_avx512bwEv @642
    _ZN3stk3cpu16cpu_has_avx512cdEv @643
    _ZN3stk3cpu16cpu_has_avx512dqEv @644
    _ZN3stk3cpu16cpu_has_avx512erEv @645
    _ZN3stk3cpu16cpu_has_avx512pfEv @646
    _ZN3stk3cpu16cpu_has_avx512vlEv @647
    _ZN3stk3cpu16tsc_start_pausedEv @648
    _ZN3stk3cpu17cpu_has_pclmulqdqEv @649
    _ZN3stk3cpu18cpu_has_avx512ifmaEv @650
    _ZN3stk3cpu18cpu_has_avx512vbmiEv @651
    _ZN3stk3cpu19cpu_cache_line_sizeEh @652
    _ZN3stk3cpu21cpu_has_3dnowprefetchEv @653
    _ZN3stk3cpu5cpuidEPjS1_S1_S1_jj @654
    _ZN3stk3cpu5rdtscEv @655
    _ZN3stk3cpu6rdtscpEPjS1_ @656
    _ZN3stk3cpu7cpu_psnEv @657
    _ZN3stk3cpu7cpuidexEPjS1_S1_S1_jj @658
    _ZN3stk3cpu7rdtscexEv @659
    _ZN3stk3cpu8cpu_nameEv @660
    _ZN3stk3cpu8cpu_testEv @661
    _ZN3stk3cpu8tsc_initEv @662
    _ZN3stk3cpu9tsc_pauseEv @663
    _ZN3stk3cpu9tsc_startEv @664
    _ZN3stk3mem10StrHex2binEPc = _ZN3stk3mem10StrHex2binEPc@4 @665
    _ZN3stk3mem10StrHex2binEPc@4 @666
    _ZN3stk3mem10__mem_tail3addEv = _ZN3stk3mem10__mem_tail3addEv@4 @667
    _ZN3stk3mem10__mem_tail3addEv@4 @668
    _ZN3stk3mem10__mem_tail5checkEv = _ZN3stk3mem10__mem_tail5checkEv@4 @669
    _ZN3stk3mem10__mem_tail5checkEv@4 @670
    _ZN3stk3mem3chrEPKvcj = _ZN3stk3mem3chrEPKvcj@12 @671
    _ZN3stk3mem3chrEPKvcj@12 @672
    _ZN3stk3mem3cmpEPKvS2_j = _ZN3stk3mem3cmpEPKvS2_j@12 @673
    _ZN3stk3mem3cmpEPKvS2_j@12 @674
    _ZN3stk3mem3lenEPc = _ZN3stk3mem3lenEPc@4 @675
    _ZN3stk3mem3lenEPc@4 @676
    _ZN3stk3mem3movEPvPKvj = _ZN3stk3mem3movEPvPKvj@12 @677
    _ZN3stk3mem3movEPvPKvj@12 @678
    _ZN3stk3mem3posEPKvjjS2_j = _ZN3stk3mem3posEPKvjjS2_j@20 @679
    _ZN3stk3mem3posEPKvjjS2_j@20 @680
    _ZN3stk3mem3revEPvPKvj = _ZN3stk3mem3revEPvPKvj@12 @681
    _ZN3stk3mem3revEPvPKvj@12 @682
    _ZN3stk3mem3rolEPvj = _ZN3stk3mem3rolEPvj@8 @683
    _ZN3stk3mem3rolEPvj@8 @684
    _ZN3stk3mem3rorEPvj = _ZN3stk3mem3rorEPvj@8 @685
    _ZN3stk3mem3rorEPvj@8 @686
    _ZN3stk3mem3setEPvhj = _ZN3stk3mem3setEPvhj@12 @687
    _ZN3stk3mem3setEPvhj@12 @688
    _ZN3stk3mem3shlEPvj = _ZN3stk3mem3shlEPvj@8 @689
    _ZN3stk3mem3shlEPvj@8 @690
    _ZN3stk3mem3shrEPvj = _ZN3stk3mem3shrEPvj@8 @691
    _ZN3stk3mem3shrEPvj@8 @692
    _ZN3stk3mem4chrrEPKvcj = _ZN3stk3mem4chrrEPKvcj@12 @693
    _ZN3stk3mem4chrrEPKvcj@12 @694
    _ZN3stk3mem4freeEPv = _ZN3stk3mem4freeEPv@4 @695
    _ZN3stk3mem4freeEPv@4 @696
    _ZN3stk3mem4kmp2EPcjS1_jS1_ = _ZN3stk3mem4kmp2EPcjS1_jS1_@20 @697
    _ZN3stk3mem4kmp2EPcjS1_jS1_@20 @698
    _ZN3stk3mem4posrEPKvjjS2_j = _ZN3stk3mem4posrEPKvjjS2_j@20 @699
    _ZN3stk3mem4posrEPKvjjS2_j@20 @700
    _ZN3stk3mem4sizeEPKv = _ZN3stk3mem4sizeEPKv@4 @701
    _ZN3stk3mem4sizeEPKv@4 @702
    _ZN3stk3mem4swapEPvjj = _ZN3stk3mem4swapEPvjj@12 @703
    _ZN3stk3mem4swapEPvjj@12 @704
    _ZN3stk3mem5allocEj = _ZN3stk3mem5allocEj@4 @705
    _ZN3stk3mem5allocEj@4 @706
    _ZN3stk3mem5setexEPvPKvaj = _ZN3stk3mem5setexEPvPKvaj@16 @707
    _ZN3stk3mem5setexEPvPKvaj@16 @708
    _ZN3stk3mem6callocEcj = _ZN3stk3mem6callocEcj@8 @709
    _ZN3stk3mem6callocEcj@8 @710
    _ZN3stk3mem7bit_movEPvhPKvhj = _ZN3stk3mem7bit_movEPvhPKvhj@20 @711
    _ZN3stk3mem7bit_movEPvhPKvhj@20 @712
    _ZN3stk3mem7pos_kmpEPKvjjS2_j = _ZN3stk3mem7pos_kmpEPKvjjS2_j@20 @713
    _ZN3stk3mem7pos_kmpEPKvjjS2_j@20 @714
    _ZN3stk3mem7reallocEPvj = _ZN3stk3mem7reallocEPvj@8 @715
    _ZN3stk3mem7reallocEPvj@8 @716
    _ZN3stk3mem9allocatedEv = _ZN3stk3mem9allocatedEv@0 @717
    _ZN3stk3mem9allocatedEv@0 @718
    _ZN3stk3mem9asciitdecEPc = _ZN3stk3mem9asciitdecEPc@4 @719
    _ZN3stk3mem9asciitdecEPc@4 @720
    _ZN3stk3mem9bit_setexEPvhPKvhhj = _ZN3stk3mem9bit_setexEPvhPKvhhj@24 @721
    _ZN3stk3mem9bit_setexEPvhPKvhhj@24 @722
    _ZN3stk4cstr10between_ccEPcPKccc = _ZN3stk4cstr10between_ccEPcPKccc@16 @723
    _ZN3stk4cstr10between_ccEPcPKccc@16 @724
    _ZN3stk4cstr10substr_endEPcPKcjj = _ZN3stk4cstr10substr_endEPcPKcjj@16 @725
    _ZN3stk4cstr10substr_endEPcPKcjj@16 @726
    _ZN3stk4cstr11compare_maxEPKcS2_j = _ZN3stk4cstr11compare_maxEPKcS2_j@12 @727
    _ZN3stk4cstr11compare_maxEPKcS2_j@12 @728
    _ZN3stk4cstr11luhna_checkEPKc = _ZN3stk4cstr11luhna_checkEPKc@4 @729
    _ZN3stk4cstr11luhna_checkEPKc@4 @730
    _ZN3stk4cstr11mov_if_dupsEPcPKc = _ZN3stk4cstr11mov_if_dupsEPcPKc@8 @731
    _ZN3stk4cstr11mov_if_dupsEPcPKc@8 @732
    _ZN3stk4cstr11replace_chrEPccc = _ZN3stk4cstr11replace_chrEPccc@12 @733
    _ZN3stk4cstr11replace_chrEPccc@12 @734
    _ZN3stk4cstr13between_wordsEPcPKcS3_S3_ = _ZN3stk4cstr13between_wordsEPcPKcS3_S3_@16 @735
    _ZN3stk4cstr13between_wordsEPcPKcS3_S3_@16 @736
    _ZN3stk4cstr13fix_file_pathEPcPKc = _ZN3stk4cstr13fix_file_pathEPcPKc@8 @737
    _ZN3stk4cstr13fix_file_pathEPcPKc@8 @738
    _ZN3stk4cstr13get_file_exttEPcPKc = _ZN3stk4cstr13get_file_exttEPcPKc@8 @739
    _ZN3stk4cstr13get_file_exttEPcPKc@8 @740
    _ZN3stk4cstr13get_file_nameEPcPKc = _ZN3stk4cstr13get_file_nameEPcPKc@8 @741
    _ZN3stk4cstr13get_file_nameEPcPKc@8 @742
    _ZN3stk4cstr13get_file_pathEPcPKc = _ZN3stk4cstr13get_file_pathEPcPKc@8 @743
    _ZN3stk4cstr13get_file_pathEPcPKc@8 @744
    _ZN3stk4cstr13get_file_rootEPcPKc = _ZN3stk4cstr13get_file_rootEPcPKc@8 @745
    _ZN3stk4cstr13get_file_rootEPcPKc@8 @746
    _ZN3stk4cstr3brkEPKcS2_ = _ZN3stk4cstr3brkEPKcS2_@8 @747
    _ZN3stk4cstr3brkEPKcS2_@8 @748
    _ZN3stk4cstr3catEPcPKc = _ZN3stk4cstr3catEPcPKc@8 @749
    _ZN3stk4cstr3catEPcPKc@8 @750
    _ZN3stk4cstr3chrEPKcc = _ZN3stk4cstr3chrEPKcc@8 @751
    _ZN3stk4cstr3chrEPKcc@8 @752
    _ZN3stk4cstr3cutEPcjj = _ZN3stk4cstr3cutEPcjj@12 @753
    _ZN3stk4cstr3cutEPcjj@12 @754
    _ZN3stk4cstr3dupEPKc = _ZN3stk4cstr3dupEPKc@4 @755
    _ZN3stk4cstr3dupEPKc@4 @756
    _ZN3stk4cstr3lenEPKc = _ZN3stk4cstr3lenEPKc@4 @757
    _ZN3stk4cstr3lenEPKc@4 @758
    _ZN3stk4cstr3lwrEPc = _ZN3stk4cstr3lwrEPc@4 @759
    _ZN3stk4cstr3lwrEPc@4 @760
    _ZN3stk4cstr3movEPcPKc = _ZN3stk4cstr3movEPcPKc@8 @761
    _ZN3stk4cstr3movEPcPKc@8 @762
    _ZN3stk4cstr3posEPKcjS2_ = _ZN3stk4cstr3posEPKcjS2_@12 @763
    _ZN3stk4cstr3posEPKcjS2_@12 @764
    _ZN3stk4cstr3setEPccjj = _ZN3stk4cstr3setEPccjj@16 @765
    _ZN3stk4cstr3setEPccjj@16 @766
    _ZN3stk4cstr3uprEPc = _ZN3stk4cstr3uprEPc@4 @767
    _ZN3stk4cstr3uprEPc@4 @768
    _ZN3stk4cstr4atoiEPKc = _ZN3stk4cstr4atoiEPKc@4 @769
    _ZN3stk4cstr4atoiEPKc@4 @770
    _ZN3stk4cstr4brksEPKcjS2_ = _ZN3stk4cstr4brksEPKcjS2_@12 @771
    _ZN3stk4cstr4brksEPKcjS2_@12 @772
    _ZN3stk4cstr4chrrEPKcc = _ZN3stk4cstr4chrrEPKcc@8 @773
    _ZN3stk4cstr4chrrEPKcc@8 @774
    _ZN3stk4cstr4freeEPc = _ZN3stk4cstr4freeEPc@4 @775
    _ZN3stk4cstr4freeEPc@4 @776
    _ZN3stk4cstr4itoaEi = _ZN3stk4cstr4itoaEi@4 @777
    _ZN3stk4cstr4itoaEi@4 @778
    _ZN3stk4cstr4itoaEiPca = _ZN3stk4cstr4itoaEiPca@12 @779
    _ZN3stk4cstr4itoaEiPca@12 @780
    _ZN3stk4cstr4itoaEia = _ZN3stk4cstr4itoaEia@8 @781
    _ZN3stk4cstr4itoaEia@8 @782
    _ZN3stk4cstr4posrEPKcjS2_ = _ZN3stk4cstr4posrEPKcjS2_@12 @783
    _ZN3stk4cstr4posrEPKcjS2_@12 @784
    _ZN3stk4cstr4testEPKcS2_ = _ZN3stk4cstr4testEPKcS2_@8 @785
    _ZN3stk4cstr4testEPKcS2_@8 @786
    _ZN3stk4cstr4trimEPcc = _ZN3stk4cstr4trimEPcc@8 @787
    _ZN3stk4cstr4trimEPcc@8 @788
    _ZN3stk4cstr5allocEj = _ZN3stk4cstr5allocEj@4 @789
    _ZN3stk4cstr5allocEj@4 @790
    _ZN3stk4cstr5catexEPcPKc = _ZN3stk4cstr5catexEPcPKc@8 @791
    _ZN3stk4cstr5catexEPcPKc@8 @792
    _ZN3stk4cstr5dupexEPcPKc = _ZN3stk4cstr5dupexEPcPKc@8 @793
    _ZN3stk4cstr5dupexEPcPKc@8 @794
    _ZN3stk4cstr6insertEPcjPKc = _ZN3stk4cstr6insertEPcjPKc@12 @795
    _ZN3stk4cstr6insertEPcjPKc@12 @796
    _ZN3stk4cstr6mov_ifEPcPKcc = _ZN3stk4cstr6mov_ifEPcPKcc@12 @797
    _ZN3stk4cstr6mov_ifEPcPKcc@12 @798
    _ZN3stk4cstr6substrEPcPKcjj = _ZN3stk4cstr6substrEPcPKcjj@16 @799
    _ZN3stk4cstr6substrEPcPKcjj@16 @800
    _ZN3stk4cstr7allocexEjPKc = _ZN3stk4cstr7allocexEjPKc@8 @801
    _ZN3stk4cstr7allocexEjPKc@8 @802
    _ZN3stk4cstr7chr_endEPKccj = _ZN3stk4cstr7chr_endEPKccj@12 @803
    _ZN3stk4cstr7chr_endEPKccj@12 @804
    _ZN3stk4cstr7chr_sumEPKcc = _ZN3stk4cstr7chr_sumEPKcc@8 @805
    _ZN3stk4cstr7chr_sumEPKcc@8 @806
    _ZN3stk4cstr7compareEPKcS2_ = _ZN3stk4cstr7compareEPKcS2_@8 @807
    _ZN3stk4cstr7compareEPKcS2_@8 @808
    _ZN3stk4cstr7cut_endEPcjj = _ZN3stk4cstr7cut_endEPcjj@12 @809
    _ZN3stk4cstr7cut_endEPcjj@12 @810
    _ZN3stk4cstr7mov_maxEPcPKcj = _ZN3stk4cstr7mov_maxEPcPKcj@12 @811
    _ZN3stk4cstr7mov_maxEPcPKcj@12 @812
    _ZN3stk4cstr7pos_endEPKcjS2_j = _ZN3stk4cstr7pos_endEPKcjS2_j@16 @813
    _ZN3stk4cstr7pos_endEPKcjS2_j@16 @814
    _ZN3stk4cstr7reallocEPcj = _ZN3stk4cstr7reallocEPcj@8 @815
    _ZN3stk4cstr7reallocEPcj@8 @816
    _ZN3stk4cstr7replaceEPcPKcS3_ = _ZN3stk4cstr7replaceEPcPKcS3_@12 @817
    _ZN3stk4cstr7replaceEPcPKcS3_@12 @818
    _ZN3stk4cstr7set_endEPccjj = _ZN3stk4cstr7set_endEPccjj@16 @819
    _ZN3stk4cstr7set_endEPccjj@16 @820
    _ZN3stk4cstr9between_cEPcPKcc = _ZN3stk4cstr9between_cEPcPKcc@12 @821
    _ZN3stk4cstr9between_cEPcPKcc@12 @822
    _ZN3stk4cstr9reallocexEPcjPKc = _ZN3stk4cstr9reallocexEPcjPKc@12 @823
    _ZN3stk4cstr9reallocexEPcjPKc@12 @824
    _ZN3stk4file10create_mapEPvP20_SECURITY_ATTRIBUTESmmmPKw = _ZN3stk4file10create_mapEPvP20_SECURITY_ATTRIBUTESmmmPKw@24 @825
    _ZN3stk4file10create_mapEPvP20_SECURITY_ATTRIBUTESmmmPKw@24 @826
    _ZN3stk4file14close_map_viewEPKv = _ZN3stk4file14close_map_viewEPKv@4 @827
    _ZN3stk4file14close_map_viewEPKv@4 @828
    _ZN3stk4file14flush_map_viewEPKvm = _ZN3stk4file14flush_map_viewEPKvm@8 @829
    _ZN3stk4file14flush_map_viewEPKvm@8 @830
    _ZN3stk4file15create_map_viewEPvmmmm = _ZN3stk4file15create_map_viewEPvmmmm@20 @831
    _ZN3stk4file15create_map_viewEPvmmmm@20 @832
    _ZN3stk4file30get_wchar_value_at_ini_sectionEPwS1_S1_S1_mS1_ @833
    _ZN3stk4file4mime6atexitEv @834
    _ZN3stk4file4mime6decodeEPc = _ZN3stk4file4mime6decodeEPc@4 @835
    _ZN3stk4file4mime6decodeEPc@4 @836
    _ZN3stk4file4readEPvS1_mPmP11_OVERLAPPED = _ZN3stk4file4readEPvS1_mPmP11_OVERLAPPED@20 @837
    _ZN3stk4file4readEPvS1_mPmP11_OVERLAPPED@20 @838
    _ZN3stk4file5closeEPv = _ZN3stk4file5closeEPv@4 @839
    _ZN3stk4file5closeEPv@4 @840
    _ZN3stk4file5writeEPvPKvmPmP11_OVERLAPPED = _ZN3stk4file5writeEPvPKvmPmP11_OVERLAPPED@20 @841
    _ZN3stk4file5writeEPvPKvmPmP11_OVERLAPPED@20 @842
    _ZN3stk4file6createEPKcmmP20_SECURITY_ATTRIBUTESmmPv = _ZN3stk4file6createEPKcmmP20_SECURITY_ATTRIBUTESmmPv@28 @843
    _ZN3stk4file6createEPKcmmP20_SECURITY_ATTRIBUTESmmPv@28 @844
    _ZN3stk4file9close_mapEPv = _ZN3stk4file9close_mapEPv@4 @845
    _ZN3stk4file9close_mapEPv@4 @846
    _ZN3stk4hash3md58calc_MD5EPKcj = _ZN3stk4hash3md58calc_MD5EPKcj@8 @847
    _ZN3stk4hash3md58calc_MD5EPKcj@8 @848
    _ZN3stk4hash3md59reset_MD5Ev = _ZN3stk4hash3md59reset_MD5Ev@0 @849
    _ZN3stk4hash3md59reset_MD5Ev@0 @850
    _ZN3stk4hash4ssc110print_SSC1Ev = _ZN3stk4hash4ssc110print_SSC1Ev@0 @851
    _ZN3stk4hash4ssc110print_SSC1Ev@0 @852
    _ZN3stk4hash4ssc110reset_SSC1Ev = _ZN3stk4hash4ssc110reset_SSC1Ev@0 @853
    _ZN3stk4hash4ssc110reset_SSC1Ev@0 @854
    _ZN3stk4hash4ssc19calc_SSC1EPKvjj = _ZN3stk4hash4ssc19calc_SSC1EPKvjj@12 @855
    _ZN3stk4hash4ssc19calc_SSC1EPKvjj@12 @856
    _ZN3stk4hash5crc3210calc_CRC32EPKvj = _ZN3stk4hash5crc3210calc_CRC32EPKvj@8 @857
    _ZN3stk4hash5crc3210calc_CRC32EPKvj@8 @858
    _ZN3stk4hash5crc3210test_CRC32Eb = _ZN3stk4hash5crc3210test_CRC32Eb@4 @859
    _ZN3stk4hash5crc3210test_CRC32Eb@4 @860
    _ZN3stk4hash5crc3211reset_CRC32Ev = _ZN3stk4hash5crc3211reset_CRC32Ev@0 @861
    _ZN3stk4hash5crc3211reset_CRC32Ev@0 @862
    _ZN3stk4hash5crc3215calc_CRC32_nextEPKvjj = _ZN3stk4hash5crc3215calc_CRC32_nextEPKvjj@12 @863
    _ZN3stk4hash5crc3215calc_CRC32_nextEPKvjj@12 @864
    _ZN3stk4hash7adler3212calc_ADLER32EPKvj = _ZN3stk4hash7adler3212calc_ADLER32EPKvj@8 @865
    _ZN3stk4hash7adler3212calc_ADLER32EPKvj@8 @866
    _ZN3stk4idle9wait_autoEPNS0_8__idle_tEd = _ZN3stk4idle9wait_autoEPNS0_8__idle_tEd@12 @867
    _ZN3stk4idle9wait_autoEPNS0_8__idle_tEd@12 @868
    _ZN3stk4idle9wait_initEPNS0_8__idle_tE = _ZN3stk4idle9wait_initEPNS0_8__idle_tE@4 @869
    _ZN3stk4idle9wait_initEPNS0_8__idle_tE@4 @870
    _ZN3stk4test10start_testEiPPc = _ZN3stk4test10start_testEiPPc@8 @871
    _ZN3stk4test10start_testEiPPc@8 @872
    _ZN3stk4test10stk_atexitEv @873
    _ZN3stk4time10wait_untilEl = _ZN3stk4time10wait_untilEl@4 @874
    _ZN3stk4time10wait_untilEl@4 @875
    _ZN3stk4time18FILETIME_to_time_tEPK9_FILETIME = _ZN3stk4time18FILETIME_to_time_tEPK9_FILETIME@4 @876
    _ZN3stk4time18FILETIME_to_time_tEPK9_FILETIME@4 @877
    _ZN3stk4time18time_t_to_FILETIMEElP9_FILETIME = _ZN3stk4time18time_t_to_FILETIMEElP9_FILETIME@8 @878
    _ZN3stk4time18time_t_to_FILETIMEElP9_FILETIME@8 @879
    _ZN3stk4time7time_msEv = _ZN3stk4time7time_msEv@0 @880
    _ZN3stk4time7time_msEv@0 @881
    _ZN3stk4time7time_usEv = _ZN3stk4time7time_usEv@0 @882
    _ZN3stk4time7time_usEv@0 @883
    _ZN3stk4time7wait_msEy = _ZN3stk4time7wait_msEy@8 @884
    _ZN3stk4time7wait_msEy@8 @885
    _ZN3stk4time7wait_usEy = _ZN3stk4time7wait_usEy@8 @886
    _ZN3stk4time7wait_usEy@8 @887
    _ZN3stk4time9wait_idleEld = _ZN3stk4time9wait_idleEld@12 @888
    _ZN3stk4time9wait_idleEld@12 @889
    _ZN3stk5isortEPvjjPFiPKvS2_E @890
    _ZN3stk5qsortEPvjjPFiPKvS2_E @891
    _ZN3stk5ssortEPvjjPFiPKvS2_E @892
    _ZN3stk6cipher11base642charEPciS1_ = _ZN3stk6cipher11base642charEPciS1_@12 @893
    _ZN3stk6cipher11base642charEPciS1_@12 @894
    _ZN3stk6cipher11char2base64EPciS1_ = _ZN3stk6cipher11char2base64EPciS1_@12 @895
    _ZN3stk6cipher11char2base64EPciS1_@12 @896
    _ZN3stk6cipher11uncript_MTFEPvj = _ZN3stk6cipher11uncript_MTFEPvj@8 @897
    _ZN3stk6cipher11uncript_MTFEPvj@8 @898
    _ZN3stk6cipher11uncript_ROTEPvjj = _ZN3stk6cipher11uncript_ROTEPvjj@12 @899
    _ZN3stk6cipher11uncript_ROTEPvjj@12 @900
    _ZN3stk6cipher11uncript_XOREPvjPKcj = _ZN3stk6cipher11uncript_XOREPvjPKcj@16 @901
    _ZN3stk6cipher11uncript_XOREPvjPKcj@16 @902
    _ZN3stk6cipher12__mime_coderIPcS2_EC2Ev @903
    _ZN3stk6cipher12__mtf_cipher10initializeEv = _ZN3stk6cipher12__mtf_cipher10initializeEv@4 @904
    _ZN3stk6cipher12__mtf_cipher10initializeEv@4 @905
    _ZN3stk6cipher12__mtf_cipher6decodeEc = _ZN3stk6cipher12__mtf_cipher6decodeEc@8 @906
    _ZN3stk6cipher12__mtf_cipher6decodeEc@8 @907
    _ZN3stk6cipher12__mtf_cipher6encodeEc = _ZN3stk6cipher12__mtf_cipher6encodeEc@8 @908
    _ZN3stk6cipher12__mtf_cipher6encodeEc@8 @909
    _ZN3stk6cipher12__mtf_cipherC1Ev @910
    _ZN3stk6cipher12__mtf_cipherC2Ev @911
    _ZN3stk6cipher12__mtf_cipherD1Ev @912
    _ZN3stk6cipher12__mtf_cipherD2Ev @913
    _ZN3stk6cipher13__pair_cipher10initializeEv = _ZN3stk6cipher13__pair_cipher10initializeEv@4 @914
    _ZN3stk6cipher13__pair_cipher10initializeEv@4 @915
    _ZN3stk6cipher13__pair_cipher6decodeEc = _ZN3stk6cipher13__pair_cipher6decodeEc@8 @916
    _ZN3stk6cipher13__pair_cipher6decodeEc@8 @917
    _ZN3stk6cipher13__pair_cipher6encodeEc = _ZN3stk6cipher13__pair_cipher6encodeEc@8 @918
    _ZN3stk6cipher13__pair_cipher6encodeEc@8 @919
    _ZN3stk6cipher13__pair_cipherC1Ev @920
    _ZN3stk6cipher13__pair_cipherC2Ev @921
    _ZN3stk6cipher13__pair_cipherD1Ev @922
    _ZN3stk6cipher13__pair_cipherD2Ev @923
    _ZN3stk6cipher16__base64_decoderIPcS2_E11DecodeCurr4ERS2_ @924
    _ZN3stk6cipher16__base64_decoderIPcS2_E6FilterES2_S2_S2_ @925
    _ZN3stk6cipher16__base64_decoderIPcS2_E6FinishES2_ @926
    _ZN3stk6cipher16__base64_decoderIPcS2_EC1Ev @927
    _ZN3stk6cipher16__base64_encoderIPcS2_E11EncodeCurr3ERS2_ @928
    _ZN3stk6cipher16__base64_encoderIPcS2_E6FilterES2_S2_S2_ @929
    _ZN3stk6cipher16__base64_encoderIPcS2_E6FinishES2_ @930
    _ZN3stk6cipher16__base64_encoderIPcS2_EC1Ev @931
    _ZN3stk6cipher8__base6410initializeEv = _ZN3stk6cipher8__base6410initializeEv@4 @932
    _ZN3stk6cipher8__base6410initializeEv@4 @933
    _ZN3stk6cipher8__base646decodeEc = _ZN3stk6cipher8__base646decodeEc@8 @934
    _ZN3stk6cipher8__base646decodeEc@8 @935
    _ZN3stk6cipher8__base646encodeEc = _ZN3stk6cipher8__base646encodeEc@8 @936
    _ZN3stk6cipher8__base646encodeEc@8 @937
    _ZN3stk6cipher8__base64C1Ev @938
    _ZN3stk6cipher8__base64C2Ev @939
    _ZN3stk6cipher8__base64D1Ev @940
    _ZN3stk6cipher8__base64D2Ev @941
    _ZN3stk6cipher9cript_MTFEPvj = _ZN3stk6cipher9cript_MTFEPvj@8 @942
    _ZN3stk6cipher9cript_MTFEPvj@8 @943
    _ZN3stk6cipher9cript_ROTEPvjj = _ZN3stk6cipher9cript_ROTEPvjj@12 @944
    _ZN3stk6cipher9cript_ROTEPvjj@12 @945
    _ZN3stk6cipher9cript_XOREPvjPKcj = _ZN3stk6cipher9cript_XOREPvjPKcj@16 @946
    _ZN3stk6cipher9cript_XOREPvjPKcj@16 @947
    _ZN3stk6socket12close_socketEj = _ZN3stk6socket12close_socketEj@4 @948
    _ZN3stk6socket12close_socketEj@4 @949
    _ZN3stk6socket13get_file_sizeEPKc = _ZN3stk6socket13get_file_sizeEPKc@4 @950
    _ZN3stk6socket13get_file_sizeEPKc@4 @951
    _ZN3stk6socket13recv_for_sureEjPcii = _ZN3stk6socket13recv_for_sureEjPcii@16 @952
    _ZN3stk6socket13recv_for_sureEjPcii@16 @953
    _ZN3stk6socket13send_for_sureEjPKcii = _ZN3stk6socket13send_for_sureEjPKcii@16 @954
    _ZN3stk6socket13send_for_sureEjPKcii@16 @955
    _ZN3stk6socket16get_file_contentEPKcPci = _ZN3stk6socket16get_file_contentEPKcPci@12 @956
    _ZN3stk6socket16get_file_contentEPKcPci@12 @957
    _ZN3stk6socket17start_http_serverEPKcS2_S2_ = _ZN3stk6socket17start_http_serverEPKcS2_S2_@12 @958
    _ZN3stk6socket17start_http_serverEPKcS2_S2_@12 @959
    _ZN3stk6socket17start_tftp_serverEPKcS2_S2_ = _ZN3stk6socket17start_tftp_serverEPKcS2_S2_@12 @960
    _ZN3stk6socket17start_tftp_serverEPKcS2_S2_@12 @961
    _ZN3stk6socket18get_file_size_ansiEPKc = _ZN3stk6socket18get_file_size_ansiEPKc@4 @962
    _ZN3stk6socket18get_file_size_ansiEPKc@4 @963
    _ZN3stk6socket18print_socket_errorEv = _ZN3stk6socket18print_socket_errorEv@0 @964
    _ZN3stk6socket18print_socket_errorEv@0 @965
    _ZN3stk6socket19SOCKET_BUFFER_CLASSC1Ev = _ZN3stk6socket19SOCKET_BUFFER_CLASSC1Ev@4 @966
    _ZN3stk6socket19SOCKET_BUFFER_CLASSC1Ev@4 @967
    _ZN3stk6socket19SOCKET_BUFFER_CLASSD0Ev = _ZN3stk6socket19SOCKET_BUFFER_CLASSD0Ev@8 @968
    _ZN3stk6socket19SOCKET_BUFFER_CLASSD0Ev@8 @969
    _ZN3stk6socket19SOCKET_BUFFER_CLASSD1Ev = _ZN3stk6socket19SOCKET_BUFFER_CLASSD1Ev@8 @970
    _ZN3stk6socket19SOCKET_BUFFER_CLASSD1Ev@8 @971
    _ZN3stk6socket20create_client_socketEPKcS2_i = _ZN3stk6socket20create_client_socketEPKcS2_i@12 @972
    _ZN3stk6socket20create_client_socketEPKcS2_i@12 @973
    _ZN3stk6socket20create_server_socketEPKcS2_i = _ZN3stk6socket20create_server_socketEPKcS2_i@12 @974
    _ZN3stk6socket20create_server_socketEPKcS2_i@12 @975
    _ZN3stk6socket20create_server_socketEPKci = _ZN3stk6socket20create_server_socketEPKci@8 @976
    _ZN3stk6socket20create_server_socketEPKci@8 @977
    _ZN3stk6thread22ssthread_arg_wrapper_t7requestEcil = _ZN3stk6thread22ssthread_arg_wrapper_t7requestEcil@16 @978
    _ZN3stk6thread22ssthread_arg_wrapper_t7requestEcil@16 @979
    _ZN3stk7__kop3217set_text_handlersEPFcvEPFvPKcES6_ = _ZN3stk7__kop3217set_text_handlersEPFcvEPFvPKcES6_@12 @980
    _ZN3stk7__kop3217set_text_handlersEPFcvEPFvPKcES6_@12 @981
    _ZN3stk7__kop3217text_monitor_procEPNS_13__kop32_classE = _ZN3stk7__kop3217text_monitor_procEPNS_13__kop32_classE@4 @982
    _ZN3stk7__kop3217text_monitor_procEPNS_13__kop32_classE@4 @983
    _ZN3stk7__kop3218start_in_text_modeEPKc = _ZN3stk7__kop3218start_in_text_modeEPKc@4 @984
    _ZN3stk7__kop3218start_in_text_modeEPKc@4 @985
    _ZN3stk7__kop3218text_event_handlerEPNS_13__kop32_classEPKcS4_S4_ = _ZN3stk7__kop3218text_event_handlerEPNS_13__kop32_classEPKcS4_S4_@16 @986
    _ZN3stk7__kop3218text_event_handlerEPNS_13__kop32_classEPKcS4_S4_@16 @987
    _ZN3stk7__kop325startEPKcPFS2_PNS_13__kop32_classES2_S2_S2_E = _ZN3stk7__kop325startEPKcPFS2_PNS_13__kop32_classES2_S2_S2_E@8 @988
    _ZN3stk7__kop325startEPKcPFS2_PNS_13__kop32_classES2_S2_S2_E@8 @989
    _ZN3stk7bsearchEPKvS1_jjPFiS1_S1_E @990
    _ZN3stk9ATOM_TO_CEPcPKNS_16__database_items6__atomE = _ZN3stk9ATOM_TO_CEPcPKNS_16__database_items6__atomE@8 @991
    _ZN3stk9ATOM_TO_CEPcPKNS_16__database_items6__atomE@8 @992
    _ZN3stk9C_TO_ATOMEPNS_16__database_items6__atomEPKc = _ZN3stk9C_TO_ATOMEPNS_16__database_items6__atomEPKc@8 @993
    _ZN3stk9C_TO_ATOMEPNS_16__database_items6__atomEPKc@8 @994
    _ZN3stk9__journal10get_streamEv = _ZN3stk9__journal10get_streamEv@4 @995
    _ZN3stk9__journal10get_streamEv@4 @996
    _ZN3stk9__journal10write_lineEPKc = _ZN3stk9__journal10write_lineEPKc@8 @997
    _ZN3stk9__journal10write_lineEPKc@8 @998
    _ZN3stk9__journal13get_next_lineEv = _ZN3stk9__journal13get_next_lineEv@4 @999
    _ZN3stk9__journal13get_next_lineEv@4 @1000
    _ZN3stk9__journal14get_first_lineEl = _ZN3stk9__journal14get_first_lineEl@8 @1001
    _ZN3stk9__journal14get_first_lineEl@8 @1002
    _ZN3stk9__journal19write_formated_lineEPKcz @1003
    _ZN3stk9__journal5closeEv = _ZN3stk9__journal5closeEv@4 @1004
    _ZN3stk9__journal5closeEv@4 @1005
    _ZN3stk9__journal6createEv = _ZN3stk9__journal6createEv@4 @1006
    _ZN3stk9__journal6createEv@4 @1007
    _ZN3stk9__journal8get_lineEj = _ZN3stk9__journal8get_lineEj@8 @1008
    _ZN3stk9__journal8get_lineEj@8 @1009
    _ZN3stk9__journalC1Ev = _ZN3stk9__journalC1Ev@4 @1010
    _ZN3stk9__journalC1Ev@4 @1011
    _ZN3stk9__journalC2Ev = _ZN3stk9__journalC2Ev@4 @1012
    _ZN3stk9__journalC2Ev@4 @1013
    _ZN3stk9__journalD1Ev = _ZN3stk9__journalD1Ev@8 @1014
    _ZN3stk9__journalD1Ev@8 @1015
    _ZN3stk9__journalD2Ev = _ZN3stk9__journalD2Ev@8 @1016
    _ZN3stk9__journalD2Ev@8 @1017
    _ZN3stk9__pharser12delete_foundEPc = _ZN3stk9__pharser12delete_foundEPc@8 @1018
    _ZN3stk9__pharser12delete_foundEPc@8 @1019
    _ZN3stk9__pharser4findEPKcS2_S2_S2_Pc = _ZN3stk9__pharser4findEPKcS2_S2_S2_Pc@24 @1020
    _ZN3stk9__pharser4findEPKcS2_S2_S2_Pc@24 @1021
    _ZN3stk9__pharserC1Ev = _ZN3stk9__pharserC1Ev@4 @1022
    _ZN3stk9__pharserC1Ev@4 @1023
    _ZN3stk9__pharserC2Ev = _ZN3stk9__pharserC2Ev@4 @1024
    _ZN3stk9__pharserC2Ev@4 @1025
    _ZN3stk9__pharserD1Ev = _ZN3stk9__pharserD1Ev@8 @1026
    _ZN3stk9__pharserD1Ev@8 @1027
    _ZN3stk9__pharserD2Ev = _ZN3stk9__pharserD2Ev@8 @1028
    _ZN3stk9__pharserD2Ev@8 @1029
    _ZN9__gnu_cxx13new_allocatorIPN3stk12__cstr_classEE10deallocateEPS3_j @1030
    _ZN9__gnu_cxx13new_allocatorIPN3stk12__cstr_classEE7destroyEPS3_ @1031
    _ZN9__gnu_cxx13new_allocatorIPN3stk12__cstr_classEE8allocateEjPKv @1032
    _ZN9__gnu_cxx13new_allocatorIPN3stk12__cstr_classEE9constructEPS3_RKS3_ @1033
    _ZN9__gnu_cxx13new_allocatorIPN3stk12__cstr_classEEC2ERKS4_ @1034
    _ZN9__gnu_cxx13new_allocatorIPN3stk12__cstr_classEEC2Ev @1035
    _ZN9__gnu_cxx13new_allocatorIPN3stk12__cstr_classEED2Ev @1036
    _ZN9__gnu_cxx13new_allocatorIPPN3stk12__cstr_classEE10deallocateEPS4_j @1037
    _ZN9__gnu_cxx13new_allocatorIPPN3stk12__cstr_classEE8allocateEjPKv @1038
    _ZN9__gnu_cxx13new_allocatorIPPN3stk12__cstr_classEEC2Ev @1039
    _ZN9__gnu_cxx13new_allocatorIPPN3stk12__cstr_classEED2Ev @1040
    _ZN9__gnu_cxx13new_allocatorIPPvE10deallocateEPS2_j @1041
    _ZN9__gnu_cxx13new_allocatorIPPvE8allocateEjPKv @1042
    _ZN9__gnu_cxx13new_allocatorIPPvEC2Ev @1043
    _ZN9__gnu_cxx13new_allocatorIPPvED2Ev @1044
    _ZN9__gnu_cxx13new_allocatorIPvE10deallocateEPS1_j @1045
    _ZN9__gnu_cxx13new_allocatorIPvE7destroyEPS1_ @1046
    _ZN9__gnu_cxx13new_allocatorIPvE8allocateEjPKv @1047
    _ZN9__gnu_cxx13new_allocatorIPvE9constructEPS1_RKS1_ @1048
    _ZN9__gnu_cxx13new_allocatorIPvEC2ERKS2_ @1049
    _ZN9__gnu_cxx13new_allocatorIPvEC2Ev @1050
    _ZN9__gnu_cxx13new_allocatorIPvED2Ev @1051
    _ZNK3stk10__database4saveEPKc = _ZNK3stk10__database4saveEPKc@8 @1052
    _ZNK3stk10__database4saveEPKc@8 @1053
    _ZNK3stk10__database5aliasEv = _ZNK3stk10__database5aliasEv@4 @1054
    _ZNK3stk10__database5aliasEv@4 @1055
    _ZNK3stk10__database5itemsEv = _ZNK3stk10__database5itemsEv@4 @1056
    _ZNK3stk10__database5itemsEv@4 @1057
    _ZNK3stk10__database5ownerEv = _ZNK3stk10__database5ownerEv@4 @1058
    _ZNK3stk10__database5ownerEv@4 @1059
    _ZNK3stk10__database9export_toEPcPKc = _ZNK3stk10__database9export_toEPcPKc@12 @1060
    _ZNK3stk10__database9export_toEPcPKc@12 @1061
    _ZNK3stk12__cstr_class3lenEv = _ZNK3stk12__cstr_class3lenEv@4 @1062
    _ZNK3stk12__cstr_class3lenEv@4 @1063
    _ZNK3stk12__cstr_class5c_strEv = _ZNK3stk12__cstr_class5c_strEv@4 @1064
    _ZNK3stk12__cstr_class5c_strEv@4 @1065
    _ZNK3stk12__cstr_class6substrEjj = _ZNK3stk12__cstr_class6substrEjj@12 @1066
    _ZNK3stk12__cstr_class6substrEjj@12 @1067
    _ZNK3stk12__stk_vectorIPNS_12__cstr_classEE3topEv = _ZNK3stk12__stk_vectorIPNS_12__cstr_classEE3topEv@4 @1068
    _ZNK3stk12__stk_vectorIPNS_12__cstr_classEE3topEv@4 @1069
    _ZNK3stk12__stk_vectorIPNS_12__cstr_classEE5countEv = _ZNK3stk12__stk_vectorIPNS_12__cstr_classEE5countEv@4 @1070
    _ZNK3stk12__stk_vectorIPNS_12__cstr_classEE5countEv@4 @1071
    _ZNK3stk12__stk_vectorIPNS_12__cstr_classEE5frontEv = _ZNK3stk12__stk_vectorIPNS_12__cstr_classEE5frontEv@4 @1072
    _ZNK3stk12__stk_vectorIPNS_12__cstr_classEE5frontEv@4 @1073
    _ZNK3stk12__stk_vectorIcE2atEj = _ZNK3stk12__stk_vectorIcE2atEj@8 @1074
    _ZNK3stk12__stk_vectorIcE2atEj@8 @1075
    _ZNK3stk12__stk_vectorIcE4backEv = _ZNK3stk12__stk_vectorIcE4backEv@4 @1076
    _ZNK3stk12__stk_vectorIcE4backEv@4 @1077
    _ZNK3stk12__stk_vectorIcE5countEv = _ZNK3stk12__stk_vectorIcE5countEv@4 @1078
    _ZNK3stk12__stk_vectorIcE5countEv@4 @1079
    _ZNK3stk12__stk_vectorIcE6bottomEv = _ZNK3stk12__stk_vectorIcE6bottomEv@4 @1080
    _ZNK3stk12__stk_vectorIcE6bottomEv@4 @1081
    _ZNK3stk12__stk_vectorIcE8mem_sizeEv = _ZNK3stk12__stk_vectorIcE8mem_sizeEv@4 @1082
    _ZNK3stk12__stk_vectorIcE8mem_sizeEv@4 @1083
    _ZNK3stk16__database_items11get_numbersEjj = _ZNK3stk16__database_items11get_numbersEjj@12 @1084
    _ZNK3stk16__database_items11get_numbersEjj@12 @1085
    _ZNK3stk16__database_items11get_pointerEjj = _ZNK3stk16__database_items11get_pointerEjj@12 @1086
    _ZNK3stk16__database_items11get_pointerEjj@12 @1087
    _ZNK3stk16__database_items11search_textEPKc = _ZNK3stk16__database_items11search_textEPKc@8 @1088
    _ZNK3stk16__database_items11search_textEPKc@8 @1089
    _ZNK3stk16__database_items13get_text_sizeEj = _ZNK3stk16__database_items13get_text_sizeEj@8 @1090
    _ZNK3stk16__database_items13get_text_sizeEj@8 @1091
    _ZNK3stk16__database_items14search_numbersEjj = _ZNK3stk16__database_items14search_numbersEjj@12 @1092
    _ZNK3stk16__database_items14search_numbersEjj@12 @1093
    _ZNK3stk16__database_items14search_pointerEjPKv = _ZNK3stk16__database_items14search_pointerEjPKv@12 @1094
    _ZNK3stk16__database_items14search_pointerEjPKv@12 @1095
    _ZNK3stk16__database_items14search_text_exEjPKc = _ZNK3stk16__database_items14search_text_exEjPKc@12 @1096
    _ZNK3stk16__database_items14search_text_exEjPKc@12 @1097
    _ZNK3stk16__database_items17search_numbers_exEjjj = _ZNK3stk16__database_items17search_numbers_exEjjj@16 @1098
    _ZNK3stk16__database_items17search_numbers_exEjjj@16 @1099
    _ZNK3stk16__database_items17search_pointer_exEjjPKv = _ZNK3stk16__database_items17search_pointer_exEjjPKv@16 @1100
    _ZNK3stk16__database_items17search_pointer_exEjjPKv@16 @1101
    _ZNK3stk16__database_items3getEj = _ZNK3stk16__database_items3getEj@8 @1102
    _ZNK3stk16__database_items3getEj@8 @1103
    _ZNK3stk16__database_items5countEv = _ZNK3stk16__database_items5countEv@4 @1104
    _ZNK3stk16__database_items5countEv@4 @1105
    _ZNK3stk16__database_items8get_textEj = _ZNK3stk16__database_items8get_textEj@8 @1106
    _ZNK3stk16__database_items8get_textEj@8 @1107
    _ZNK3stk16__database_items9serializeEPKc = _ZNK3stk16__database_items9serializeEPKc@8 @1108
    _ZNK3stk16__database_items9serializeEPKc@8 @1109
    _ZNK3stk16__database_itemsixEj = _ZNK3stk16__database_itemsixEj@8 @1110
    _ZNK3stk16__database_itemsixEj@8 @1111
    _ZNK9__gnu_cxx13new_allocatorIPN3stk12__cstr_classEE8max_sizeEv @1112
    _ZNK9__gnu_cxx13new_allocatorIPPN3stk12__cstr_classEE8max_sizeEv @1113
    _ZNK9__gnu_cxx13new_allocatorIPPvE8max_sizeEv @1114
    _ZNK9__gnu_cxx13new_allocatorIPvE8max_sizeEv @1115
    _ZNKSt11_Deque_baseIPN3stk12__cstr_classESaIS2_EE19_M_get_Tp_allocatorEv @1116
    _ZNKSt11_Deque_baseIPN3stk12__cstr_classESaIS2_EE20_M_get_map_allocatorEv @1117
    _ZNKSt11_Deque_baseIPvSaIS0_EE19_M_get_Tp_allocatorEv @1118
    _ZNKSt11_Deque_baseIPvSaIS0_EE20_M_get_map_allocatorEv @1119
    _ZNKSt15_Deque_iteratorIPN3stk12__cstr_classERKS2_PS3_EdeEv @1120
    _ZNKSt15_Deque_iteratorIPN3stk12__cstr_classERS2_PS2_EdeEv @1121
    _ZNKSt15_Deque_iteratorIPvRKS0_PS1_EdeEv @1122
    _ZNKSt15_Deque_iteratorIPvRS0_PS0_EdeEv @1123
    _ZNKSt5dequeIPN3stk12__cstr_classESaIS2_EE3endEv @1124
    _ZNKSt5dequeIPN3stk12__cstr_classESaIS2_EE4sizeEv @1125
    _ZNKSt5dequeIPN3stk12__cstr_classESaIS2_EE5beginEv @1126
    _ZNKSt5dequeIPN3stk12__cstr_classESaIS2_EE5emptyEv @1127
    _ZNKSt5dequeIPvSaIS0_EE3endEv @1128
    _ZNKSt5dequeIPvSaIS0_EE4sizeEv @1129
    _ZNKSt5dequeIPvSaIS0_EE5beginEv @1130
    _ZNKSt5stackIPN3stk12__cstr_classESt5dequeIS2_SaIS2_EEE4sizeEv @1131
    _ZNKSt5stackIPN3stk12__cstr_classESt5dequeIS2_SaIS2_EEE5emptyEv @1132
    _ZNSaIPN3stk12__cstr_classEEC2ERKS2_ @1133
    _ZNSaIPN3stk12__cstr_classEEC2Ev @1134
    _ZNSaIPN3stk12__cstr_classEED2Ev @1135
    _ZNSaIPPN3stk12__cstr_classEEC1IS1_EERKSaIT_E @1136
    _ZNSaIPPN3stk12__cstr_classEED1Ev @1137
    _ZNSaIPPvEC1IS_EERKSaIT_E @1138
    _ZNSaIPPvED1Ev @1139
    _ZNSaIPvEC2ERKS0_ @1140
    _ZNSaIPvEC2Ev @1141
    _ZNSaIPvED2Ev @1142
    _ZNSt10_Iter_baseIPPPN3stk12__cstr_classELb0EE7_S_baseES4_ @1143
    _ZNSt10_Iter_baseIPPPvLb0EE7_S_baseES2_ @1144
    _ZNSt10_Iter_baseISt15_Deque_iteratorIPN3stk12__cstr_classERKS3_PS4_ELb0EE7_S_baseES7_ @1145
    _ZNSt10_Iter_baseISt15_Deque_iteratorIPN3stk12__cstr_classERS3_PS3_ELb0EE7_S_baseES6_ @1146
    _ZNSt10_Iter_baseISt15_Deque_iteratorIPvRKS1_PS2_ELb0EE7_S_baseES5_ @1147
    _ZNSt10_Iter_baseISt15_Deque_iteratorIPvRS1_PS1_ELb0EE7_S_baseES4_ @1148
    _ZNSt11_Deque_baseIPN3stk12__cstr_classESaIS2_EE11_Deque_implC1ERKS3_ @1149
    _ZNSt11_Deque_baseIPN3stk12__cstr_classESaIS2_EE11_Deque_implC1Ev @1150
    _ZNSt11_Deque_baseIPN3stk12__cstr_classESaIS2_EE11_Deque_implD1Ev @1151
    _ZNSt11_Deque_baseIPN3stk12__cstr_classESaIS2_EE15_M_allocate_mapEj @1152
    _ZNSt11_Deque_baseIPN3stk12__cstr_classESaIS2_EE15_M_create_nodesEPPS2_S6_ @1153
    _ZNSt11_Deque_baseIPN3stk12__cstr_classESaIS2_EE16_M_allocate_nodeEv @1154
    _ZNSt11_Deque_baseIPN3stk12__cstr_classESaIS2_EE16_M_destroy_nodesEPPS2_S6_ @1155
    _ZNSt11_Deque_baseIPN3stk12__cstr_classESaIS2_EE17_M_deallocate_mapEPPS2_j @1156
    _ZNSt11_Deque_baseIPN3stk12__cstr_classESaIS2_EE17_M_initialize_mapEj @1157
    _ZNSt11_Deque_baseIPN3stk12__cstr_classESaIS2_EE18_M_deallocate_nodeEPS2_ @1158
    _ZNSt11_Deque_baseIPN3stk12__cstr_classESaIS2_EE19_M_get_Tp_allocatorEv @1159
    _ZNSt11_Deque_baseIPN3stk12__cstr_classESaIS2_EEC2ERKS3_j @1160
    _ZNSt11_Deque_baseIPN3stk12__cstr_classESaIS2_EEC2Ev @1161
    _ZNSt11_Deque_baseIPN3stk12__cstr_classESaIS2_EED2Ev @1162
    _ZNSt11_Deque_baseIPvSaIS0_EE11_Deque_implC1ERKS1_ @1163
    _ZNSt11_Deque_baseIPvSaIS0_EE11_Deque_implC1Ev @1164
    _ZNSt11_Deque_baseIPvSaIS0_EE11_Deque_implD1Ev @1165
    _ZNSt11_Deque_baseIPvSaIS0_EE15_M_allocate_mapEj @1166
    _ZNSt11_Deque_baseIPvSaIS0_EE15_M_create_nodesEPPS0_S4_ @1167
    _ZNSt11_Deque_baseIPvSaIS0_EE16_M_allocate_nodeEv @1168
    _ZNSt11_Deque_baseIPvSaIS0_EE16_M_destroy_nodesEPPS0_S4_ @1169
    _ZNSt11_Deque_baseIPvSaIS0_EE17_M_deallocate_mapEPPS0_j @1170
    _ZNSt11_Deque_baseIPvSaIS0_EE17_M_initialize_mapEj @1171
    _ZNSt11_Deque_baseIPvSaIS0_EE18_M_deallocate_nodeEPS0_ @1172
    _ZNSt11_Deque_baseIPvSaIS0_EE19_M_get_Tp_allocatorEv @1173
    _ZNSt11_Deque_baseIPvSaIS0_EEC2ERKS1_j @1174
    _ZNSt11_Deque_baseIPvSaIS0_EEC2Ev @1175
    _ZNSt11_Deque_baseIPvSaIS0_EED2Ev @1176
    _ZNSt11__copy_moveILb0ELb0ESt26random_access_iterator_tagE8__copy_mISt15_Deque_iteratorIPN3stk12__cstr_classERKS6_PS7_ES3_IS6_RS6_PS6_EEET0_T_SF_SE_ @1177
    _ZNSt11__copy_moveILb0ELb0ESt26random_access_iterator_tagE8__copy_mISt15_Deque_iteratorIPvRKS4_PS5_ES3_IS4_RS4_PS4_EEET0_T_SD_SC_ @1178
    _ZNSt11__copy_moveILb0ELb1ESt26random_access_iterator_tagE8__copy_mIPPN3stk12__cstr_classEEEPT_PKS7_SA_S8_ @1179
    _ZNSt11__copy_moveILb0ELb1ESt26random_access_iterator_tagE8__copy_mIPPvEEPT_PKS5_S8_S6_ @1180
    _ZNSt15_Deque_iteratorIPN3stk12__cstr_classERKS2_PS3_E11_M_set_nodeEPPS2_ @1181
    _ZNSt15_Deque_iteratorIPN3stk12__cstr_classERKS2_PS3_E14_S_buffer_sizeEv @1182
    _ZNSt15_Deque_iteratorIPN3stk12__cstr_classERKS2_PS3_EC1ERKS_IS2_RS2_PS2_E @1183
    _ZNSt15_Deque_iteratorIPN3stk12__cstr_classERKS2_PS3_EppEv @1184
    _ZNSt15_Deque_iteratorIPN3stk12__cstr_classERS2_PS2_E11_M_set_nodeEPS4_ @1185
    _ZNSt15_Deque_iteratorIPN3stk12__cstr_classERS2_PS2_E14_S_buffer_sizeEv @1186
    _ZNSt15_Deque_iteratorIPN3stk12__cstr_classERS2_PS2_EC1ERKS5_ @1187
    _ZNSt15_Deque_iteratorIPN3stk12__cstr_classERS2_PS2_EC1Ev @1188
    _ZNSt15_Deque_iteratorIPN3stk12__cstr_classERS2_PS2_EmmEv @1189
    _ZNSt15_Deque_iteratorIPN3stk12__cstr_classERS2_PS2_EppEv @1190
    _ZNSt15_Deque_iteratorIPvRKS0_PS1_E11_M_set_nodeEPPS0_ @1191
    _ZNSt15_Deque_iteratorIPvRKS0_PS1_E14_S_buffer_sizeEv @1192
    _ZNSt15_Deque_iteratorIPvRKS0_PS1_EC1ERKS_IS0_RS0_PS0_E @1193
    _ZNSt15_Deque_iteratorIPvRKS0_PS1_EppEv @1194
    _ZNSt15_Deque_iteratorIPvRS0_PS0_E11_M_set_nodeEPS2_ @1195
    _ZNSt15_Deque_iteratorIPvRS0_PS0_E14_S_buffer_sizeEv @1196
    _ZNSt15_Deque_iteratorIPvRS0_PS0_EC1ERKS3_ @1197
    _ZNSt15_Deque_iteratorIPvRS0_PS0_EC1Ev @1198
    _ZNSt15_Deque_iteratorIPvRS0_PS0_EmmEv @1199
    _ZNSt15_Deque_iteratorIPvRS0_PS0_EppEv @1200
    _ZNSt20__copy_move_backwardILb0ELb1ESt26random_access_iterator_tagE13__copy_move_bIPPN3stk12__cstr_classEEEPT_PKS7_SA_S8_ @1201
    _ZNSt20__copy_move_backwardILb0ELb1ESt26random_access_iterator_tagE13__copy_move_bIPPvEEPT_PKS5_S8_S6_ @1202
    _ZNSt20__uninitialized_copyILb1EE13__uninit_copyISt15_Deque_iteratorIPN3stk12__cstr_classERKS5_PS6_ES2_IS5_RS5_PS5_EEET0_T_SE_SD_ @1203
    _ZNSt20__uninitialized_copyILb1EE13__uninit_copyISt15_Deque_iteratorIPvRKS3_PS4_ES2_IS3_RS3_PS3_EEET0_T_SC_SB_ @1204
    _ZNSt5dequeIPN3stk12__cstr_classESaIS2_EE15_M_destroy_dataESt15_Deque_iteratorIS2_RS2_PS2_ES8_RKS3_ @1205
    _ZNSt5dequeIPN3stk12__cstr_classESaIS2_EE15_M_pop_back_auxEv @1206
    _ZNSt5dequeIPN3stk12__cstr_classESaIS2_EE16_M_push_back_auxERKS2_ @1207
    _ZNSt5dequeIPN3stk12__cstr_classESaIS2_EE17_M_reallocate_mapEjb @1208
    _ZNSt5dequeIPN3stk12__cstr_classESaIS2_EE22_M_reserve_map_at_backEj @1209
    _ZNSt5dequeIPN3stk12__cstr_classESaIS2_EE3endEv @1210
    _ZNSt5dequeIPN3stk12__cstr_classESaIS2_EE4backEv @1211
    _ZNSt5dequeIPN3stk12__cstr_classESaIS2_EE5beginEv @1212
    _ZNSt5dequeIPN3stk12__cstr_classESaIS2_EE8pop_backEv @1213
    _ZNSt5dequeIPN3stk12__cstr_classESaIS2_EE9push_backERKS2_ @1214
    _ZNSt5dequeIPN3stk12__cstr_classESaIS2_EEC1ERKS4_ @1215
    _ZNSt5dequeIPN3stk12__cstr_classESaIS2_EEC1Ev @1216
    _ZNSt5dequeIPN3stk12__cstr_classESaIS2_EED1Ev @1217
    _ZNSt5dequeIPvSaIS0_EE15_M_destroy_dataESt15_Deque_iteratorIS0_RS0_PS0_ES6_RKS1_ @1218
    _ZNSt5dequeIPvSaIS0_EE15_M_pop_back_auxEv @1219
    _ZNSt5dequeIPvSaIS0_EE16_M_push_back_auxERKS0_ @1220
    _ZNSt5dequeIPvSaIS0_EE17_M_reallocate_mapEjb @1221
    _ZNSt5dequeIPvSaIS0_EE22_M_reserve_map_at_backEj @1222
    _ZNSt5dequeIPvSaIS0_EE3endEv @1223
    _ZNSt5dequeIPvSaIS0_EE4backEv @1224
    _ZNSt5dequeIPvSaIS0_EE5beginEv @1225
    _ZNSt5dequeIPvSaIS0_EE8pop_backEv @1226
    _ZNSt5dequeIPvSaIS0_EE9push_backERKS0_ @1227
    _ZNSt5dequeIPvSaIS0_EEC1ERKS2_ @1228
    _ZNSt5dequeIPvSaIS0_EEC1Ev @1229
    _ZNSt5dequeIPvSaIS0_EED1Ev @1230
    _ZNSt5stackIPN3stk12__cstr_classESt5dequeIS2_SaIS2_EEE3popEv @1231
    _ZNSt5stackIPN3stk12__cstr_classESt5dequeIS2_SaIS2_EEE3topEv @1232
    _ZNSt5stackIPN3stk12__cstr_classESt5dequeIS2_SaIS2_EEE4pushERKS2_ @1233
    _ZNSt5stackIPN3stk12__cstr_classESt5dequeIS2_SaIS2_EEEC1ERKS5_ @1234
    _ZNSt5stackIPN3stk12__cstr_classESt5dequeIS2_SaIS2_EEED1Ev @1235
    _ZNSt5stackIPvSt5dequeIS0_SaIS0_EEE3popEv @1236
    _ZNSt5stackIPvSt5dequeIS0_SaIS0_EEE3topEv @1237
    _ZNSt5stackIPvSt5dequeIS0_SaIS0_EEE4pushERKS0_ @1238
    _ZNSt5stackIPvSt5dequeIS0_SaIS0_EEEC1ERKS3_ @1239
    _ZNSt5stackIPvSt5dequeIS0_SaIS0_EEED1Ev @1240
    _ZNSt8ios_base4setfESt13_Ios_FmtflagsS0_ @1241
    _ZSt12__miter_baseIPPPN3stk12__cstr_classEENSt11_Miter_baseIT_E13iterator_typeES6_ @1242
    _ZSt12__miter_baseIPPPvENSt11_Miter_baseIT_E13iterator_typeES4_ @1243
    _ZSt12__miter_baseISt15_Deque_iteratorIPN3stk12__cstr_classERKS3_PS4_EENSt11_Miter_baseIT_E13iterator_typeES9_ @1244
    _ZSt12__miter_baseISt15_Deque_iteratorIPvRKS1_PS2_EENSt11_Miter_baseIT_E13iterator_typeES7_ @1245
    _ZSt12__niter_baseIPPPN3stk12__cstr_classEENSt11_Niter_baseIT_E13iterator_typeES6_ @1246
    _ZSt12__niter_baseIPPPvENSt11_Niter_baseIT_E13iterator_typeES4_ @1247
    _ZSt12__niter_baseISt15_Deque_iteratorIPN3stk12__cstr_classERKS3_PS4_EENSt11_Niter_baseIT_E13iterator_typeES9_ @1248
    _ZSt12__niter_baseISt15_Deque_iteratorIPN3stk12__cstr_classERS3_PS3_EENSt11_Niter_baseIT_E13iterator_typeES8_ @1249
    _ZSt12__niter_baseISt15_Deque_iteratorIPvRKS1_PS2_EENSt11_Niter_baseIT_E13iterator_typeES7_ @1250
    _ZSt12__niter_baseISt15_Deque_iteratorIPvRS1_PS1_EENSt11_Niter_baseIT_E13iterator_typeES6_ @1251
    _ZSt13__copy_move_aILb0EPPPN3stk12__cstr_classES4_ET1_T0_S6_S5_ @1252
    _ZSt13__copy_move_aILb0EPPPvS2_ET1_T0_S4_S3_ @1253
    _ZSt13__copy_move_aILb0ESt15_Deque_iteratorIPN3stk12__cstr_classERKS3_PS4_ES0_IS3_RS3_PS3_EET1_T0_SC_SB_ @1254
    _ZSt13__copy_move_aILb0ESt15_Deque_iteratorIPvRKS1_PS2_ES0_IS1_RS1_PS1_EET1_T0_SA_S9_ @1255
    _ZSt13copy_backwardIPPPN3stk12__cstr_classES4_ET0_T_S6_S5_ @1256
    _ZSt13copy_backwardIPPPvS2_ET0_T_S4_S3_ @1257
    _ZSt14__copy_move_a2ILb0EPPPN3stk12__cstr_classES4_ET1_T0_S6_S5_ @1258
    _ZSt14__copy_move_a2ILb0EPPPvS2_ET1_T0_S4_S3_ @1259
    _ZSt14__copy_move_a2ILb0ESt15_Deque_iteratorIPN3stk12__cstr_classERKS3_PS4_ES0_IS3_RS3_PS3_EET1_T0_SC_SB_ @1260
    _ZSt14__copy_move_a2ILb0ESt15_Deque_iteratorIPvRKS1_PS2_ES0_IS1_RS1_PS1_EET1_T0_SA_S9_ @1261
    _ZSt16__deque_buf_sizej @1262
    _ZSt18uninitialized_copyISt15_Deque_iteratorIPN3stk12__cstr_classERKS3_PS4_ES0_IS3_RS3_PS3_EET0_T_SC_SB_ @1263
    _ZSt18uninitialized_copyISt15_Deque_iteratorIPvRKS1_PS2_ES0_IS1_RS1_PS1_EET0_T_SA_S9_ @1264
    _ZSt22__copy_move_backward_aILb0EPPPN3stk12__cstr_classES4_ET1_T0_S6_S5_ @1265
    _ZSt22__copy_move_backward_aILb0EPPPvS2_ET1_T0_S4_S3_ @1266
    _ZSt22__uninitialized_copy_aISt15_Deque_iteratorIPN3stk12__cstr_classERKS3_PS4_ES0_IS3_RS3_PS3_ES3_ET0_T_SC_SB_RSaIT1_E @1267
    _ZSt22__uninitialized_copy_aISt15_Deque_iteratorIPvRKS1_PS2_ES0_IS1_RS1_PS1_ES1_ET0_T_SA_S9_RSaIT1_E @1268
    _ZSt23__copy_move_backward_a2ILb0EPPPN3stk12__cstr_classES4_ET1_T0_S6_S5_ @1269
    _ZSt23__copy_move_backward_a2ILb0EPPPvS2_ET1_T0_S4_S3_ @1270
    _ZSt3maxIjERKT_S2_S2_ @1271
    _ZSt4copyIPPPN3stk12__cstr_classES4_ET0_T_S6_S5_ @1272
    _ZSt4copyIPPPvS2_ET0_T_S4_S3_ @1273
    _ZSt4copyISt15_Deque_iteratorIPN3stk12__cstr_classERKS3_PS4_ES0_IS3_RS3_PS3_EET0_T_SC_SB_ @1274
    _ZSt4copyISt15_Deque_iteratorIPvRKS1_PS2_ES0_IS1_RS1_PS1_EET0_T_SA_S9_ @1275
    _ZSt4leftRSt8ios_base @1276
    _ZSt4setwi @1277
    _ZStaNRSt13_Ios_FmtflagsS_ @1278
    _ZStanSt13_Ios_FmtflagsS_ @1279
    _ZStcoSt13_Ios_Fmtflags @1280
    _ZSteqIPN3stk12__cstr_classERS2_PS2_EbRKSt15_Deque_iteratorIT_T0_T1_ESB_ @1281
    _ZStmiIPN3stk12__cstr_classERKS2_PS3_ENSt15_Deque_iteratorIT_T0_T1_E15difference_typeERKSA_SD_ @1282
    _ZStmiIPN3stk12__cstr_classERS2_PS2_ENSt15_Deque_iteratorIT_T0_T1_E15difference_typeERKS9_SC_ @1283
    _ZStmiIPvRKS0_PS1_ENSt15_Deque_iteratorIT_T0_T1_E15difference_typeERKS8_SB_ @1284
    _ZStmiIPvRS0_PS0_ENSt15_Deque_iteratorIT_T0_T1_E15difference_typeERKS7_SA_ @1285
    _ZStoRRSt13_Ios_FmtflagsS_ @1286
    _ZStorSt13_Ios_FmtflagsS_ @1287
    _ZTIN3stk10__databaseE @1288 DATA
    _ZTIN3stk11file_header19__lzss_header_coderE @1289 DATA
    _ZTIN3stk12__cstr_classE @1290 DATA
    _ZTIN3stk12__cstr_stackE @1291 DATA
    _ZTIN3stk12__stk_vectorIPNS_12__cstr_classEEE @1292 DATA
    _ZTIN3stk12__stk_vectorIcEE @1293 DATA
    _ZTIN3stk13__kop32_classE @1294 DATA
    _ZTIN3stk16__database_aliasE @1295 DATA
    _ZTIN3stk16__database_itemsE @1296 DATA
    _ZTIN3stk18__kop32_class_listE @1297 DATA
    _ZTIN3stk6cipher12__mime_coderIPcS2_EE @1298 DATA
    _ZTIN3stk6cipher16__base64_decoderIPcS2_EE @1299 DATA
    _ZTIN3stk6cipher16__base64_encoderIPcS2_EE @1300 DATA
    _ZTIN3stk6socket19SOCKET_BUFFER_CLASSE @1301 DATA
    _ZTISt9bad_alloc @1302 DATA
    _ZTISt9exception @1303 DATA
    _ZTSN3stk10__databaseE @1304 DATA
    _ZTSN3stk11file_header19__lzss_header_coderE @1305 DATA
    _ZTSN3stk12__cstr_classE @1306 DATA
    _ZTSN3stk12__cstr_stackE @1307 DATA
    _ZTSN3stk12__stk_vectorIPNS_12__cstr_classEEE @1308 DATA
    _ZTSN3stk12__stk_vectorIcEE @1309 DATA
    _ZTSN3stk13__kop32_classE @1310 DATA
    _ZTSN3stk16__database_aliasE @1311 DATA
    _ZTSN3stk16__database_itemsE @1312 DATA
    _ZTSN3stk18__kop32_class_listE @1313 DATA
    _ZTSN3stk6cipher12__mime_coderIPcS2_EE @1314 DATA
    _ZTSN3stk6cipher16__base64_decoderIPcS2_EE @1315 DATA
    _ZTSN3stk6cipher16__base64_encoderIPcS2_EE @1316 DATA
    _ZTSN3stk6socket19SOCKET_BUFFER_CLASSE @1317 DATA
    _ZTSSt9bad_alloc @1318 DATA
    _ZTSSt9exception @1319 DATA
    _ZTVN3stk10__databaseE @1320 DATA
    _ZTVN3stk11file_header19__lzss_header_coderE @1321 DATA
    _ZTVN3stk12__cstr_classE @1322 DATA
    _ZTVN3stk12__cstr_stackE @1323 DATA
    _ZTVN3stk12__stk_vectorIPNS_12__cstr_classEEE @1324 DATA
    _ZTVN3stk12__stk_vectorIcEE @1325 DATA
    _ZTVN3stk13__kop32_classE @1326 DATA
    _ZTVN3stk16__database_aliasE @1327 DATA
    _ZTVN3stk16__database_itemsE @1328 DATA
    _ZTVN3stk18__kop32_class_listE @1329 DATA
    _ZTVN3stk6cipher12__mime_coderIPcS2_EE @1330 DATA
    _ZTVN3stk6cipher16__base64_decoderIPcS2_EE @1331 DATA
    _ZTVN3stk6cipher16__base64_encoderIPcS2_EE @1332 DATA
    _ZTVN3stk6socket19SOCKET_BUFFER_CLASSE @1333 DATA
    _ZZN3stk12__stk_vectorIPNS_12__cstr_classEE4pushERKS2_E14__entered_time @1334 DATA
    _ZZN3stk12__stk_vectorIPNS_12__cstr_classEE6removeEjE14__entered_time @1335 DATA
    _ZZN3stk12__stk_vectorIPNS_12__cstr_classEE7clearedEvE14__entered_time @1336 DATA
    _ZZN3stk12__stk_vectorIPNS_12__cstr_classEE8set_sizeEjE14__entered_time @1337 DATA
    _ZZN3stk12__stk_vectorIPNS_12__cstr_classEEC4EjE14__entered_time @1338 DATA
    _ZZN3stk12__stk_vectorIPNS_12__cstr_classEED4EvE14__entered_time @1339 DATA
    _ZZN3stk12__stk_vectorIcE7clearedEvE14__entered_time @1340 DATA
    _ZZN3stk12__stk_vectorIcE8set_sizeEjE14__entered_time @1341 DATA
    _ZZN3stk12__stk_vectorIcEC4EjE14__entered_time @1342 DATA
    _ZZN3stk12__stk_vectorIcED4EvE14__entered_time @1343 DATA
    _ZZNK3stk12__stk_vectorIPNS_12__cstr_classEE5countEvE14__entered_time @1344 DATA
    _ZZNK3stk12__stk_vectorIPNS_12__cstr_classEE5frontEvE14__entered_time @1345 DATA
    _ZZNK3stk12__stk_vectorIcE2atEjE14__entered_time @1346 DATA
    _ZZNK3stk12__stk_vectorIcE4backEvE14__entered_time @1347 DATA
    _ZZNK3stk12__stk_vectorIcE5countEvE14__entered_time @1348 DATA
    _ZZNK3stk12__stk_vectorIcE8mem_sizeEvE14__entered_time @1349 DATA
    _ZdlPv @1350
    _Znaj @1351
    _Znwj @1352
    _ZnwjPv @1353
    __barier @1354 DATA
    __barier_locker @1355 DATA
    __com_dev @1356 DATA
    __com_handle @1357 DATA
    __stasm_stack @1358 DATA
    _gmonparam @1359 DATA
    _mcleanup @1360
    _stasm_eax @1361 DATA
    _stasm_eax_max @1362 DATA
    _stasm_eax_stack @1363 DATA
    _stasm_ebx @1364 DATA
    _stasm_ebx_max @1365 DATA
    _stasm_ebx_stack @1366 DATA
    _stasm_ecx @1367 DATA
    _stasm_ecx_max @1368 DATA
    _stasm_ecx_stack @1369 DATA
    _stasm_edi @1370 DATA
    _stasm_edi_max @1371 DATA
    _stasm_edi_stack @1372 DATA
    _stasm_edx @1373 DATA
    _stasm_edx_max @1374 DATA
    _stasm_edx_stack @1375 DATA
    _stasm_esi @1376 DATA
    _stasm_esi_max @1377 DATA
    _stasm_esi_stack @1378 DATA
    _stasm_fnsaved_stack @1379 DATA
    _stasm_fxsaved_stack @1380 DATA
    _stasm_mmx @1381 DATA
    _stasm_mmx_max @1382 DATA
    _stasm_mmx_stack @1383 DATA
    _stasm_sse1 @1384 DATA
    _stasm_sse1_max @1385 DATA
    _stasm_sse1_stack @1386 DATA
    _stasm_sse2 @1387 DATA
    _stasm_sse2_max @1388 DATA
    _stasm_sse2_stack @1389 DATA
    _stasm_x86 @1390 DATA
    _stasm_x86_max @1391 DATA
    _stasm_x86_stack @1392 DATA
    _stasm_x87 @1393 DATA
    _stasm_x87_max @1394 DATA
    _stasm_x87_stack @1395 DATA
    active = active@4 @1396
    active@4 @1397
    cmpxchg4 = cmpxchg4@12 @1398
    cmpxchg4@12 @1399
    cmpxchg8 = cmpxchg8@20 @1400
    cmpxchg8@20 @1401
    create = create@12 @1402
    create@12 @1403
    detach = detach@4 @1404
    detach@4 @1405
    id = id@4 @1406
    id@4 @1407
    join = join@4 @1408
    join@4 @1409
    joinable = joinable@4 @1410
    joinable@4 @1411
    kop @1412 DATA
    kop32 @1413 DATA
    moncontrol @1414
    monstartup @1415
    onexit = onexit@12 @1416
    onexit@12 @1417
    onexit_common = onexit_common@4 @1418
    onexit_common@4 @1419
    profil @1420
    profile_ctl @1421
    quit = quit@4 @1422
    quit@4 @1423
    run = run@4 @1424
    run@4 @1425
    suspend = suspend@4 @1426
    suspend@4 @1427
    terminate = terminate@8 @1428
    terminate@8 @1429
    this_id = this_id@0 @1430
    this_id@0 @1431
    vsnprintf @1432
    yeld = yeld@0 @1433
    yeld@0 @1434
