	.file	"stk_console.cpp"
 # GNU C++ (i686-posix-dwarf-rev1, Built by MinGW-W64 project) version 4.9.2 (i686-w64-mingw32)
 #	compiled by GNU C version 4.9.2, GMP version 6.0.0, MPFR version 3.1.2-p9, MPC version 1.0.2
 # warning: MPFR header version 3.1.2-p9 differs from library version 3.1.2-p10.
 # GGC heuristics: --param ggc-min-expand=100 --param ggc-min-heapsize=131072
 # options passed:  -fpreprocessed stk_console.ii -malign-double
 # -momit-leaf-frame-pointer -m32 -mfpmath=sse -mpreferred-stack-boundary=8
 # -mmmx -msse -msse2 -mthreads -mtune=generic -march=i686
 # -auxbase-strip debug\stk_console.o -g -g -O3 -Wno-write-strings
 # -Wno-multichar -Wno-unused-variable -Wno-unused-parameter
 # -Wno-unused-value -Wno-unused-label -Wno-unused-but-set-variable
 # -Wattributes -Winline -Wshadow -Wunknown-pragmas -Wall -Wextra
 # -std=gnu++11 -std=c++11 -fno-keep-inline-dllexport
 # -fno-use-linker-plugin -fverbose-asm -fstrict-aliasing -fwrapv
 # -funroll-loops -flto -fexceptions -frtti
 # options enabled:  -faggressive-loop-optimizations
 # -fasynchronous-unwind-tables -fauto-inc-dec -fbranch-count-reg
 # -fcaller-saves -fcombine-stack-adjustments -fcommon -fcompare-elim
 # -fcprop-registers -fcrossjumping -fcse-follow-jumps -fdefer-pop
 # -fdelete-null-pointer-checks -fdevirtualize -fdevirtualize-speculatively
 # -fdwarf2-cfi-asm -fearly-inlining -feliminate-unused-debug-types
 # -fexceptions -fexpensive-optimizations -fforward-propagate
 # -ffunction-cse -fgcse -fgcse-after-reload -fgcse-lm -fgnu-runtime
 # -fgnu-unique -fguess-branch-probability -fhoist-adjacent-loads -fident
 # -fif-conversion -fif-conversion2 -findirect-inlining -finline
 # -finline-atomics -finline-functions -finline-functions-called-once
 # -finline-small-functions -fipa-cp -fipa-cp-clone -fipa-profile
 # -fipa-pure-const -fipa-reference -fipa-sra -fira-hoist-pressure
 # -fira-share-save-slots -fira-share-spill-slots
 # -fisolate-erroneous-paths-dereference -fivopts -fkeep-static-consts
 # -fleading-underscore -fmath-errno -fmerge-constants
 # -fmerge-debug-strings -fmove-loop-invariants -fomit-frame-pointer
 # -foptimize-sibling-calls -foptimize-strlen -fpartial-inlining -fpeephole
 # -fpeephole2 -fpredictive-commoning -fprefetch-loop-arrays -free
 # -freg-struct-return -frename-registers -freorder-blocks
 # -freorder-blocks-and-partition -freorder-functions
 # -frerun-cse-after-loop -fsched-critical-path-heuristic
 # -fsched-dep-count-heuristic -fsched-group-heuristic -fsched-interblock
 # -fsched-last-insn-heuristic -fsched-rank-heuristic -fsched-spec
 # -fsched-spec-insn-heuristic -fsched-stalled-insns-dep -fschedule-insns2
 # -fset-stack-executable -fshow-column -fshrink-wrap -fsigned-zeros
 # -fsplit-ivs-in-unroller -fsplit-wide-types -fstrict-aliasing
 # -fstrict-overflow -fstrict-volatile-bitfields -fsync-libcalls
 # -fthread-jumps -ftoplevel-reorder -ftrapping-math -ftree-bit-ccp
 # -ftree-builtin-call-dce -ftree-ccp -ftree-ch -ftree-coalesce-vars
 # -ftree-copy-prop -ftree-copyrename -ftree-cselim -ftree-dce
 # -ftree-dominator-opts -ftree-dse -ftree-forwprop -ftree-fre
 # -ftree-loop-distribute-patterns -ftree-loop-if-convert -ftree-loop-im
 # -ftree-loop-ivcanon -ftree-loop-optimize -ftree-loop-vectorize
 # -ftree-parallelize-loops= -ftree-partial-pre -ftree-phiprop -ftree-pre
 # -ftree-pta -ftree-reassoc -ftree-scev-cprop -ftree-sink
 # -ftree-slp-vectorize -ftree-slsr -ftree-sra -ftree-switch-conversion
 # -ftree-tail-merge -ftree-ter -ftree-vrp -funit-at-a-time -funroll-loops
 # -funswitch-loops -funwind-tables -fvar-tracking
 # -fvar-tracking-assignments -fverbose-asm -fweb -fwrapv
 # -fzero-initialized-in-bss -m32 -m80387 -m96bit-long-double
 # -maccumulate-outgoing-args -malign-double -malign-stringops
 # -mavx256-split-unaligned-load -mavx256-split-unaligned-store
 # -mfancy-math-387 -mfp-ret-in-387 -mieee-fp -mlong-double-80 -mmmx
 # -mms-bitfields -mno-red-zone -mno-sse4 -mpush-args -msahf -msse -msse2
 # -mstack-arg-probe -mvzeroupper

	.text
Ltext0:
	.section	.gnu.lto_.profile.f43aea78,"dr0"
	.ascii "x\234cf```c\200\0F\206\217\254G\231\0\6\1\1\310"
	.text
	.section	.gnu.lto_.jmpfuncs.f43aea78,"dr0"
	.ascii "x\234\225\222\317kSA\20\307\277\263/\277Z5B\221\36zIJ\301\203H\377\3\377\3\351A(^\204@\325BHIKS\361\24^\310)\247\320\213\220\36\"(Ak\177Dmk\233"
	.ascii "4\215?\2E\244\224R\2\242'\21E<\10\22z\12\25qf\362\2\217\20\360u\227\367vg\346\263;\337\235]\13\375\333\241\5\334\340"
	.ascii "1\314\37\1\206\270\31\353\276\314a\271\15\237\306C\372\37\220\225"
	.ascii "60\350\6\316\311\234\324\350\374\31"
	.ascii "8\357\6.\364\1\302\222#h\333\366\220\220LY\246e\250\262\275\365"
	.ascii "7\20\241b\246\20m\33\200=\331?\271M+}\232)dBm\326\370\204\",\344)\245!x\276\324*\373#W;\270\21\274\366\343\367g\177\27\267hY\361g\16\336\250\177\215\375"
	.ascii "4m\343K\200Vh\4\234A\334\217\263\37\336\373\304\357\317DA\253\34\360\246eM7_\367\252\245\254\370s\7\377\266\377\340\323E\25s\7\364\242#FK\354\223\221\253$M\4\322\330\10HV<l\346\313\206\267\313\311v\201\23\341\351%\357\346M\354\206f\337\364*vK\361W\16\336\254V\36\31\25{\23\264M\"H\353\244\272\276|?:\16I0\310+v\330+Q\31/qZ\313\330r\267\356\23\351)\35\244;\222\206\207\317\364\24**\261\352\365D\273\212\327\34\274t\260\270Dz\242e~\224{\377\251\277"
	.ascii "7Au\315\360\332\253\240"
	.ascii "7\212\277\355\12\372X\377\325)q\221\5\275\353\251q\277\273o\360\312\236"
	.ascii "2\342J\12"
	.ascii "1\314a\36q$\261\300\363)\334\303"
	.ascii "4\367\273\354\33\305"
	.ascii "5L`\22\327\271\3\227\343\230\305-\244\30K0x\233\255$[\263\230ax\234\355"
	.ascii "9\356\300?\342\205\21G"
	.text
	.section	.gnu.lto_.inline.f43aea78,"dr0"
	.ascii "x\234\205R=N\303"
	.ascii "0\24\376\336\263\225\237\306I#T1\260T\\\0\256\300\11|\0F\246\226S0T\314\331\20\22C\7\4\227\340\0\210\245"
	.ascii "0TB0\0\22\3ltd\343\331\216*\245\11i\24\373\375|\376\336\237\255\320\375}s\220\5\20\17\11\314\217CD\363\261\367*\3Pe\271\33\341\312VV\365`\32\271\303\312\367\323"
	.ascii "5\306\231\217\230\374\233+\205\31\11\22\375\34"
	.ascii "48\320\245l\203\236dY7QB:\252\10\323C\316\267\221\13\230\214RLWLo\237\213\247\344\213\177"
	.ascii "9\21\344\206\366\200\211\27\324\0S\1o\235w\342\5O\203\10\26H~Y,K\242\204\234z>>c\360u\256\275\252\235Zz5\1\317\212#W\324\216\376\300\345@\210'\367/\207\255Rs\202r\243\22)]a\303\26\217\344%D2\5\355\314\225\354\312\10VG\220\203\360\4\177\25p\20y\275VGx\300\271\"r\225\253\343\273\347z\216"
	.ascii "2P\275YEe\227fi\\\274\360H\302\335\266\"\326\376]\275\300k,g\355\325\305\376\226\256Z]\314\342u\27\315\372CO\255\234\370\3T\230`\272"
	.text
	.section	.gnu.lto_.pureconst.f43aea78,"dr0"
	.ascii "x\234cf``\220e\200\0>\6\11&\11f\11\26\11\16\11N\11.\11n\11\36\11^\11>\11!+\21+1+\0\37\267\2w"
	.text
	.section	.gnu.lto__ZN3stk3con14stdinp_handlerEv@0.f43aea78,"dr0"
	.ascii "x\234ePMK\2a\20\236g\326]7B\210\242\213\327\16\22T\376\37\21\212\242C\24)\330\325\\C\320\223T\324\251\322K\37\366\245t\350\324\305\372\1\205x(\"\352bP\207\"\21\312E\304f\264C\324\302\276\37"
	.ascii "3\317\327\274\6\375\377\374\362gA4,;\14\2\257^\23%m\6\364@\240\4#\201W\256"
	.ascii "3\336\327*\27v`\317q\234\217\253\364tvc\312e\242\6\23\306\374\30U\35\354#@\2\254\247\332\267\375VJ\200\3\332\227\306\1,\361\240\322`\331\351t\32\271\313e/\223\313\342\347"
	.ascii "2\233\262\30\26\251\30\325dQ\337gf\335\215{\254\254\237\345C\312\377b\315\220\253f\213\34o9\31\307v\331\323V\216T\237j7\25\373\205\245\322\275\26\222\251m\354`+\351(\12( \216CHB\34I\231D\364"
	.ascii "3]3{\242\306o:\272\364\363f\376\315\327\243\227C.\233\342\214c\245K\257\262\271\233\367\5\307]\266p\"Z\30\321\271\265\321l\245\252}\22\314\311\224\303"
	.ascii "2\24N\21\24\277\"\342\364\0O\317\312\374\233\337\333PG\224\4$A\\\266"
	.ascii "5\332\235\267\207V\2=\2?\267\356\343@\37Ef\36\232\213\204cK\363\223"
	.ascii "3\221\305Xdavb&\32\245o\237\324\221\203"
	.text
	.section	.gnu.lto__ZN3stk3con14stdout_handlerEPKc@4.f43aea78,"dr0"
	.ascii "x\234eQ=KcQ\20\235"
	.ascii "3\357\371\22\15\302\242`\21,,\24+\327\277a!\373\13\4WDD\24#\230\302&x\23#Z\211\204]\10\352\32\360#~\307/,\264zvZ\250H\212eE]X\\PPP\"\253\17\11\356L\322\210^x\367\336\231{\316\231"
	.ascii "9\363,\372\270\202\362eAT-',\2\217\37\23E\375\14\350\205@\203\214A\334\360\3c\334]I\6\352\347\215"
	.ascii "1\367"
	.ascii "3\207\235\346\333W\217\211r\\\324A\32\365\202I\214\\\344\3V\25H\356\273\231\307\243\300"
	.ascii "5{\214\32\15\367\22\7IGC\266"
	.ascii "5\274\215\375\371\345\253\233"
	.ascii "5&\346&\207\354&\217-,\300\22"
	.ascii "9,\"\210%\4IR\204e\324)\372!\236\377\31p\342R\373S\261$V\340H\333\264^\341\232\327\327\334\374\376\4\34\26\212m\311Vb\243@\244+\201\252\217\277\314zZg\210%6\323\315J~b\365"
	.ascii "4\235\35\313p\344\305\214\32\277\307N^\225%\373\373\352\344\324\257\255:\205p1\32\237\302\17LF\215\242l\254\"\202"
	.ascii "5i\220\220\221"
	.ascii "4\211\350\277\221G\273(j\275\245\333\5\372\316s\352\256\274Hw\233=\366Ie\254+]\336N\277\317\245\312\33\33<\366cC\264P\253\377C\37\236_\342\331Ri\314\214\272_\304\20"
	.ascii "6\321(\365\266\20\241s\14\233\24\264\32\275"
	.ascii "7P\232c\231\11\266\5\365\304\266"
	.ascii "4\343q\31]\"\352N\226\24\360\244\23\201NB\214Vv\205Z\372\303\335\255\355\241\336\376PO\307\347\366\276>r\332Z\303\35\3\341\377\375\"\256\223"
	.text
	.section	.gnu.lto__ZN3stk3con14stderr_handlerEPKc@4.f43aea78,"dr0"
	.ascii "x\234ePKK\33a\24\275\347~\343\30;\10\245B\27\241\213n\304\225\365o\270\20\177\201`EDJ\245\21\314\242\233\340\227"
	.ascii "4\242+\221\340\"\264>\26\342\253j|\265\25]\215\213B\241\250\24\27bi+\370\0\5EC\202:\224`\357\235l\212\16\314|\337\271s\316\271\367\\C\17\237\250\274G z&'\14\201\207\266\211\222\21\6\364B\240^F/\316"
	.ascii "8\317\30\362\347\262^\335\244\265\366*\365\275\323\16\277\14\230\250\300e\37L\241N8\231\376\337%\317<\5\311}=W\334\362N9`<W\270\221\371\226u\25\262\243\360<u\270_Y;am\312\317\276s\32\3"
	.ascii "6\230\206\21;\314 \212YDIJ\204\217\250Uv>]\332\363\334\264\364~\\n\211"
	.ascii "9\270"
	.ascii "26->\361\355\335]a~\363\13\\\26\211c\344S\341 \24\322\261P5\307\11\263\236\346'R\231\345\205&\25\337\260f\32\333\35\314q\342\257\35\260\221\200\335\222:K\365\340x\347GDGuC8\223L\217`\24\37\222VY\16\346\221\300\202\14H\310I\231\304\364\272\277\350\224M\315\377r'\224\177\276\35\277\250.\313\375\246\200+\245"
	.ascii "3\26U.\377\336\357\235\24\215R#\254\360k\376v\262\252\241>\340*,\211"
	.ascii "5\226\225\26\22"
	.ascii "3\245\313\3#\203\332\1\277Y\2b\5\15\322\177\25\11\372\205>;\16\355N\367\3=*\260\354\10\237\204u\303\216\14\27\260G\177\220\364\327*B>\351\206\240\233\221\340"
	.ascii "5\257b-=\361\327\255\355\261"
	.ascii "7=\261\256\216\27\355\335\335\344\266\265\306;\336\306\377\1\240\15\266B"
	.text
	.section	.gnu.lto__ZN3stk3con6atexitEv.f43aea78,"dr0"
	.ascii "x\234mR\317kSA\20\236\231}\357%6=\210\336\212`!\207\\$\301\203\12\342M\360O\360$T)\1Ek\202\315\301K\310&\15\330\203\226"
	.ascii "6x\250?\251\210"
	.ascii "5\332\232Z\373\303FK\311\245ZASTT*\255\306\322\26\355\241\264F+QB\234yIS\214}\360vwf\277\375\346\333\371V\301\377\337a\376\213\4p\210g\264\0\251"
	.ascii "3\13\20u\22\251\253\317\0t\235\271\356\0]\257\310\230\330+\321\233]\34\31h\226Q&\242,\0!B\312"
	.ascii "01\202\337h\215\260"
	.ascii "3\323\327\355\362\334\321Z\257\316\17\216)}\371x\201+\344\251\\\21{\321\3\214Z\213\27?\270\254"
	.ascii "8\243\266\227\367\360.Z\310\363\300\216\214.\225\206^v\265{\320\251\240@h\360@\260LH\260B\2\311\23\256L.gL\220\0\26\370\264\350Xd\20\317\352#\306\22\351\27W\216\12\341/R\\\353\346\333\216\24\205\377\350v\355,\220\222\373\212\202\317\13\323\257\235_\211"
	.ascii "3v\230\214\306\257\343\15\274\26\325\202BLb\30\357a\3\13\273\317ix\207\361\231"
	.ascii "6k\223\263z\232"
	.ascii "5`\237\340@$(\340\306\331\22\276\354+\203\15\6?\37YOZ\33\2\214\242\234\341l\264\367\351E\207P\30v\330"
	.ascii "3>;\267)\200\260\237\5<\260\5\244*\2\262m\337\261B\212\356\215\212\6\214\357Q\357"
	.ascii "1\226\31\266\325"
	.ascii "1Q\327\205\354L\275:\200B\232N\375x\345\222\32f\243\204O\22S\335\226\204\226!\341\317\337\243\23u\356[Z\307r\35\267\23N=\245\343\271Riw\201\34"
	.ascii "8\200\212m\301\207\330\200\203\225\333\261\222G\350\346\353\303,\306ss\375\227\16\376\343cnr)\247\4a[\231g7jl\306!~b\200\303<\326\232\342\314\223\262\267q\4\303\300%\12\264m\211\"\334\307\325\334\376\312\265\266v\261\326\266\321\252m\217"
	.ascii "9m;#,=\323X\241\331\332\213\332\346\217U\233\237\26\32\273\333\213d\332\17\354\23F3\351#BW~~(Y\226\263\363T\340Xk\350tSs\340lk\340\214\337\333\34\14B#\347\274>\257\327\27\362\237\17\371\354U\213\277\305'0\236\275'\301<\321\24\14\235\373\13*1%\332"
	.text
	.section	.gnu.lto__ZN3stk3con5getchEv@0.part.0.f43aea78,"dr0"
	.ascii "x\234eQ\337KTa\20\235"
	.ascii "3\367\356\335\33\"\210!\224\257\373 \201\350\277\340\337!B\201\364 E+\330\353\342weC_\224\14zrm\23\322\266\37j\6=\371\"\372\30(\313B\212DA\254\277Q\222\5\363\"\266\236\271B\324\366\301\235\363\335\231"
	.ascii "33g\346\363\344\377\323\311\357\266\212\264\21\221\22\370O\327y\361\241\11*<\303(\364\0\273\10d\330W\17\303"
	.ascii "8\320S\305\311dy9\354\230u\316\375\374q4\225~r+f\245\232\12:\333q\247\335\350s\350\20\22O\363\227\233MA\236\304\26\213"
	.ascii "3\360\32\1\10\214\255\256}\271\227\231qnl\345s\241\324\23\275t\277\353u4\26\262\203\22"
	.ascii "2\213\255\316\325\353{\207\32Bb\205\322\250G\343\371"
	.ascii "4\222"
	.ascii "2#R\245"
	.ascii "1\265U\365\15\275\35\325\4\267"
	.ascii "1\362l\251\330\373\217\236\225\312\214&jj\212F\245x\203\200m\337\"\370\245\246\364EebAs\27n\314\205\261\372\227\326\212\336\357\325\215r\270\257\364$\277\245(_\300"
	.ascii "4\246\"g,\340\35rx\17\316\200y\272\205\32\316F\317\326\232\256\253\352\337\371H\362?\235\27\217\233\377\344\247\330\31\13\226\316P\371\371\253bs\367\274\251\356\215"
	.ascii "5\300\"\13\"c\245M(\11\347\27\371\312\15\12\344.\373\270\30|@w\22\302\22r\362\225\257\232"
	.ascii "4\365\32GI\327\310Mx\37\311\243\252XC\23\272\225\276N\360\231\303Ywhm\215\337\20\265\220\225\22\331\5\365\371Z\30o\345\256aA\356\344\346@\266o\350\361\203\273\375\331GC\331\207\367\273\372\7\7\345\12*i\302s"
	.text
	.section	.gnu.lto__ZN3stk3con5getchEv@0.f43aea78,"dr0"
	.ascii "x\234eO\313J\3A\20\354\352\331\215\353\343\260(\212\344\7\202 \371\2\363'\202\207\340A|$\20\257!\263f\5O\242^c\274\371\26\203\340\315\213\376\200\22T\304\7\12\22E\21\304\260\207\20$\304\236]\210\240\3\323=\335U]S\255\350\377\31\223;\13\242A\311\210\21x\345\234\310s\230U9E\272\307\12\\\322}\12v\324\266\242\7l\300d\2\25XY6\12x\347:\343s\265z\342$6\265\326_\317\37\245\256\305\341&\23\5L\30\215c$n\370[H\220\20\353~\353\246"
	.ascii "7\346\13\321"
	.ascii "5\270\0\333\210\211\13\252\364\237\352v;\250\234]\241\33$\343l\202%A\314\31"
	.ascii "5\252I0\177\277"
	.ascii "0\233\254\356\260\260vt\234"
	.ascii "4\2\15\266D{\343r\371\220\363\337zI;M\346\226\231\221\356S\355\242\352\274\261t\302r\307\363\327QF\311\323\206\5\354 \217]\210E\354I\233\256\341\337\26\207~5;\323\342\21\373\206G\306\201\242rJ=\240\250\357\21q\15]l\252\20\265(p\15\352F\30\377\365\206 \224;@\276"
	.ascii "3b\207+=\302s\251a\300W@D\225\24lAV\207\301e\203\201\251\314xn~z\"\235\231\313ef&\223\351l\226~\0\342:\204\344"
	.text
	.section	.gnu.lto__ZN3stk3con5printEPKc@4.part.1.f43aea78,"dr0"
	.ascii "x\234mP\317k\23a\20\375\336\354f\233\30\2E\301C\361 \324\322\213\330\177A\357\305\277@\250\22{\20\305\24\232\203\227\320/!\322\236\244\6\225B\265iQk\265&\265j\13z\332\243\36TjAQ\374\205l\253\202\5C\304v)1\276\331H\321j`3\337\314\274y\363\346"
	.ascii "9\346\337\337~~\307\305\230=\214\210\31\270\243O\371p!Q\24"
	.ascii "8\32\363q\7\320\207\201\31r\305\301\20\276HM0\352\317\216%\273\257[k\277=\257\244\355\205\243!\231\352\322b\306"
	.ascii "4\272\211)\15\277m$\235\335"
	.ascii "0|?\250~\177\222\374,\241`\257\246\17K\217\306<M\305\325\364k\341\343\253\266\256\253\326\26\374\346\244=\350\206\\t\3\16\371"
	.ascii "0\203\16\334D\207a\311\340\26\272\24^+6^&\275\"\227\267\267vb\26\36\30\347vZ\333l~\12\205Y(\256\360/F\375:f\2\2\365\220\200+\31\235\25\221(\276@\241]IW\27\37\237OuNQ\303\207\265K\207\374\342\244\375\331l\342?J~\337x\33\235\353\324\364\32\205\322\374t\357_\252\374\332\224h?\322U\27l\327\214\12<2T\341\255\263!\230X>W\225\334\246\35\261qJo\350E\254\276\17\236-\305\325#/Jg\362\305\313\270\202\361\274U\224\213"
	.ascii "9\344pG\345`\236e\325\361cx5H\264X\345\317y7\232_\330(\257\245\266\346\333\270\31wu\234\255\245\213\327\312\251\236\212*\357\15%\216{$\304>\245V\241\4ll\26\227\23\24hG\374\303\264\24\367\321\23\265\260\200\234y\203\263\266\14\335k\266\337\222\250\213\264\200\213\4\322.*\13e\7\357[\241u\352\376;\344\375zL}RS\3z\305*\15\330u\"sd0{\262/\235"
	.ascii "9=\230"
	.ascii "9\325\177 =0`\274c}\331\376"
	.ascii "3\331_\33D\342\251"
	.text
	.section	.gnu.lto__ZN3stk3con5printEPKc@4.f43aea78,"dr0"
	.ascii "x\234eO\301J[Q\20\235"
	.ascii "3\367\276gh\\\4\13.\304\205\33q\347\27T\360C\12*\301E\261"
	.ascii "4\202Y\270\11\336\304\7\355J$\270\20"
	.ascii "4\"\210m\254\32\205.\244\256\342\316\215\212\212\210mU(\26Z\350\302\370\4y\224\20g^@\245^\270\314\314\231sf\346\30z\376^\311\337\4Q\247D\370\4\236\336'\312'\230M\251\217\334\13\33\246\310\265\32xM\330"
	.ascii "6\23x\200F\2M\260\261\36&\360\207k\214\351\352\352l\262g\331"
	.ascii "9w}\264\236v3\203\21\23\205\334\334\204\217\350\21N\361\375y=i\332A\222\177\255\334\356%\177s\304\350\322r\273\270;\353k\311V\313\277\205\237g-\335K\316\25\252\215E\327o#6\370\4#\363PF\7V\320A\2\21>\243[\351\265\240~\232\364\3Y\236j\356\304*|qF\33mU\327h|\331\332\271A\13\213\304\32\304\32\272\22\226\332\370\305\254\321|C\241X\333\352U\335\35\253\237\205\343\251\12\347\376\271\17.\21\261W\327\241\202^^\35\34&\364L/.\313\371`\36%\314\345\235\262,\326\220\303\272\334F\250\10L'\10\316&\333\37g>\250\255"
	.ascii "06\224Gz\201\241R\237\371\201\300}\207rI\310\362M\304~\334\266\24\246\264\235\212\233\377\237fC\26\243\330D\356\251\306\213M] _\15\275XFj\31\212\212\223\227o2\257\307\262#\3\351\314\273\261\314\333\341\336\364\350(\371C\3\331\341\361\354=~B\243\6"
	.text
	.section	.gnu.lto__ZN3stk3con5errorEPKc@4.part.2.f43aea78,"dr0"
	.ascii "x\234mQ\317k\23Q\20~\337\354v\233\30\12E\301C\361 \204\322\213\330\177A/\236\212\177\201P%\364 \212-4\7/\241/!\322\234\244\15\"\305\252m\221j\265&\261j+zZ\4A\17*\"\264(jE\22\177\200\242!\305v\321\270~\263\21\321\352\302\333y3\363\315\314"
	.ascii "7\337s\314\277\337.\236\264\30\263\203\26m\6\356\330#^\\Hd\5\216\332l\314\1\364b`F\\q0\202\17R\27\214\371\363\23\211\236Yk\355\227\273\225\224=u0`\247\206\264:\343\"z\210)\216\276l&\234\355"
	.ascii "0\274\337.\257=L\274\227@\260S\335;\305\373\23\236\272\342\252\373"
	.ascii "1\367\346Y{\367\5ks~8m\367\270\1\7]\202\303~\230C\27.\243\313"
	.ascii "0dp\5\335\12\257\347\233+\11/\317\341\235\255\231\230\207\7\332\312Vk\303\360]!I/\20W\370k#\177-3U\2u\221*G\322:5\221\310.#\327\251M\337.=\30\357H\316\220\303\353\357\247\367\372\371i\373#\14\361\37&\277v\274\212\344:9=G\256\270P\352\373\213\225\37\316\210\346#^\15\301f\316(\301c\207"
	.ascii "2\274u&\4\347\237\236,K\346\233-\330X ^S7bt\265\372\370IL5\362\"w.\233?\213s\230\314ZE\271\250 \203kJ\7\13\14+\217\257\243\313\265x\253\253\374Y\357F\365\213\33S\237:~\327\267s2\256k9SgVjk\216\"c\242\356\275\372\306l\274\267\244\213\364\5\22\307\15\366\307\315h\224\22\327\227m~^uH\330\26\374\375\224\30\213\350\215RXB\306\274\300\11;\5\345a6\357\266\245!\322\2\336\"\220\362\221i \11\356[\243\224\372\32\257\220\365\307\367\251n*r\225\332"
	.ascii "1JA\266\35\36<0\234>\322\237\32<6<xt`wjh\310x\207\372\323\3\307\323?\1\242\371\351\311"
	.text
	.section	.gnu.lto__ZN3stk3con5errorEPKc@4.f43aea78,"dr0"
	.ascii "x\234eOMK[Q\20\235"
	.ascii "3\367\276\227\320\270\10\12.B\27\335\210;\177\201\202+\177EA%\270(\226F0\13"
	.ascii "7\301\233\370\300\256$\206.\204"
	.ascii "6E\20\277\252M\354\262]\264\321\225\33\25)\245\330\17\5\261\320\202\13\345\11\362\220\220\316\274@\225z\341"
	.ascii "23g\316\231\231c\350\376\353\227\277\5\242\207\22\341\23\270\274OTL2\233\352\0\271\7"
	.ascii "6L\223\353"
	.ascii "0\360\332\260m'\360\0\215\4\232fc=L\343\17_2\312\215\215\205T\357\262s\356b\247\236u/F\"&\12\271\275\11+\350\25Ne\366g3e\272A\222\277\257]\355\245~s\304x\244\345\207\312\356\202\257%[-\317K\247G\211\236%\347J\215\326\242\33\264\21\33\254\302\310<\254!\203udH \302\33\364(\375"
	.ascii "2h~M\371\201,O\267wb\3\276"
	.ascii "8\243zg\303\265Z\341\307\355\262\237`\221X\203XCg\302R\33\277\230"
	.ascii "5\232o(U\336}\352S\335"
	.ascii "5\253\237\327\237\347j\\\270q\317]2b\257\251C\5=9;8L\352\231^\\\256\25\203W\250\342e\321)\313b\23\5\274\225\333\10"
	.ascii "5\201\351\13\202\243\231\356\333\231\377\324V\30u\345\221^`\250:`~ p\337\241\\\22\262|\23\261\37\267-\205im\247\343\346\377\247\331\220\305(\266P\270\253\361bS\307(6\346\207b\31\251e(*N\272\236\344\36O\346\307\207\263\271g\223\271\247c}\331\211\11\362G\207\363cS\371\277\16\31\242\211"
	.text
	.section	.gnu.lto__ZN3stk3con20set_console_handlersEPFcvEPFvPKcES6_@12.f43aea78,"dr0"
	.ascii "x\234\205RMk\23A\30\236\367\235\331\331\215Q\24E\17=y\11E\20\177\203x\362\37x\21b\211\213)\226$l\203\27)\235\324\200\342AJ\221RZ\225\202\324\326\346\243~\264\232*\305\330C\361\242\"\242U\21[i\2\212E,\21m(!\276"
	.ascii "3[\332\264\6\272\260\314\274\17\317\327\314.g\377?Qz\27\221\261S\264B\200\1\366\276b,\345 \362\311Y\306\324.\361"
	.ascii "9\310\324n\16\302\307\5Z>.\15n\201\364q\211\366\340\234\306\235?6\341"
	.ascii "68>\356\0\350\15\3\326\215\\X\322v\240\33\276\343\12Bo13\20l\35QJ\375\232\35\271\250\256\237\251R\213\12\372\255\340\16\264\22';\363"
	.ascii "3\23\340\207\200\321~:\377\373e\360\33V\21\16\353\361I\337\213\1\251G\24z,\344\352\253\30\272\255T\317\342x\337UG\235\254\"\207Q\340d\10c\320\2w\241\205\21\304`\34BD_.,\345\220\37"
	.ascii "5\306\243s3?\244/\315|\270l\244\2"
	.ascii "2\333\245\202A\326H\313\345\251\205\275\374\204\221\16.\257\276\337c\244\303\331au\\he\256\211"
	.ascii "2\17!M_I\327\346\203"
	.ascii "2MG\336\347\237\24&@\2\255\23\373\213\252^\257\364?\367\202\2tE\33tZ\0\214\222\225\210\253o\261\214\250W\376\16\322\37/==\242\325\177Q\220\361B\351\365\33G_\6'\317{\224\252\237"
	.ascii "2M\364\255\370'\350\351\377:\17\232M\324[o\257\345\261kM]QN\25\255\232n\321h`\231q,\225\276\1"
	.ascii "7a(\245"
	.ascii "4\213\303}\350\202\7\332\26\36\22L\231\306^l\226y\266^\306n\364\"\26Ln\224\261v*#k\10[\313\310&e\4LQ\231G\246\314cS\306"
	.ascii "6\366r\263\314\322z\231@C\272\315\350\367\334!\35\233\306\25"
	.ascii "6\342\246M\\\300\370"
	.ascii "9&\356\13\244\212\25\241\355tJ\211\372\23J6\7\332\343\247;\223\347\303\221x\254"
	.ascii "3\336\341\36\213$\22\354`[\370\234\233\214D\303\356\5"
	.ascii "7\226\14G\333bg;\\\217\320\204\327N\363v\324\365\274\270\267\25\375\7\310\243-\21"
	.text
	.section	.gnu.lto__ZN3stk3con6printsEPKcz.f43aea78,"dr0"
	.ascii "x\234\225W}P\224\307\31\337g\337\373\342\356\340\200\363\0\17\25\2\210&\255R\255\20m\247\323t\372G\363G&3\235i\247\377"
	.ascii "8s\245x\246\214\10V0\231\351\214\223\27\270 I\15U\246\311\20\243-\224Di1DT\24\243\324\3"
	.ascii "5b\24\215\361#`P\217D0\332D\270\234\225^\375\240\317\263\373\336y\\\316\314\311"
	.ascii "1{\357\356\376\366\367|\375\336\335=\205}\373o90\366j2c\17\360\31"
	.ascii "2\31\360M\247\31\253"
	.ascii "6q\320\311\7E>\364\232t\\\331x\234"
	.ascii "1\325\254\367\30\231j\325\203Q\2\14\362\241\327d\344\246\372y8\237@\255\325\304\315\315K\251"
	.ascii "7\341\300^\2\230%\332\314\15\222\305\"X,\334z>\15{\266COc\317\312\223&\372i2\261Y\217\335DH\222\213\222\300&\37l\220L\17\220\314S\304\262\31bY\12\267\313e\251bY*\330%\332\16"
	.ascii "3\345\303\14\356"
	.ascii "8\375\21\1\234}\12\2\34<-\262\233\306"
	.ascii "3\344\362t\261<\35"
	.ascii "2\344\252\214\320\362\231\322j\257\311\11@\17\14\330\313\\\321\351\15FS\202\331bML\262%\247\244\332g8\322\322"
	.ascii "3f:\341e\235Nf\326(\277\222\345\327\15\356\347\260\311\333\336d\231\367\256\252\252\23"
	.ascii "5]\276D\365/\277\15r\306\2\\B`;\314C\320\261\367n\24*i\300\360\361@\307\355\1\313\227<\310!\233\272\37"
	.ascii "4\366"
	.ascii "7\31\250\313u\324\255\277"
	.ascii "8\332o\233\333\252\252"
	.ascii "5\336\267ku\317\6\271\2;@A6h\3'\374\3\234\14\207\30\374\23\346\22\332\357\271\377\251\305\340A\333\311\322\"\264\203\1\213\257\303\271\15\327\367\37\260(Y\302\346\356\326w\367%\10\233\317P\367\235"
	.ascii "7\336\334\251\27"
	.ascii "6M\324\35"
	.ascii "9\272\373\202"
	.ascii "5\267\5Y|\355\255\37\232\324\372Z\257zojJ\11r\35\354\224\306\337C\343\35h\\\13\352}\310\275\317ii\327d\177\207UyR\30\31\30>\326kC\32o\215\257\247u\203I\355W=\276\251\251\254 \327\303\256\351!h,\235\220K\313\366u5+\312\22A\341\351x\353\206Izr\370\310kH\321\254Q\30`wL\212=\220\373~\252\267fj*p~s\377\217a\31`z\214flL\211\330$$\11W\223\251\237B\215\35\33\203\3\33s&5\263\250;\233\232"
	.ascii "9\330X\262h,\33(\271"
	.ascii "9\202:\217\246\346\322T>M\315\247f\1"
	.ascii "5\5\324\24R\263\224 \214]\303\344\373u\370\205Y\321)\243X\242\235\213\224a\360x\207\352\226L\257\223\226;Q)l\367b\213\200\277\236k\350\340\353\357\252\365\252)\310\255\1\216"
	.ascii "5\204.XOSW\257\235"
	.ascii "9k\242b%\342\330>p\6y\22F>\212r\331Z\244\\\202\276\306\26\7\261Lrs4\217\215\354L\243\260\211\356\347\352\366\240q\33\274]\255V#*\31\366\303z\350\246\234\302\1\330\6\354\2x\206j\15\17"
	.ascii "9\253\267\37\334h\244\325&D|\240\345~\224\353)\322a\250U\317j\330\304h\373)\1N\201\36\304"
	.ascii "8\202<\225]\202\232+\33N9%8\11\361\354\"p\352QJp\204\211`\276\2\32zd(\321\276\37\12\373\336\203\276\23\313g\240\326^5\212\304\342\337"
	.ascii "3\302W\203V\16\265"
	.ascii "3\351\273"
	.ascii "2\376/\364"
	.ascii "42\305\306P\212GNq\351vr\334\216\35\16;\346\15'u\314\246\261D\244\321\304\32"
	.ascii "2\245\215a\315FJ\334"
	.ascii "6z\303"
	.ascii "6\372\276e#eR\4A\322L`\227rP\223f\212\206"
	.ascii "0\212D@\244"
	.ascii "2pc\203#\322\251"
	.ascii "1\240\231\263[\266\327\332\304\14"
	.ascii "08\12N\223\230O \227-Ty\254f\243\377b\265Qr\331q\305\361\256;m\206\220\317\366\373\224\321H\365\330E\267\371\320\360e\20!\20\312\0\307"
	.ascii "0\204\17E\10\307\265\20\6C\332\263Cn(IV\326\5\342u\272\\W('\35\321I\232\21\300\227\216A\277|i\376^s\342\270\216\254:\324l\6'\250\244i$\300\306\221\302X\362J\277OJ\215\314G\272\350\266U{\266>\364\326\14\37\241\267'\205\267\247\204\332\34"
	.ascii "2\347\207_\277\254<t+\314aF\334@\270\320\211\314\212!\324\251\235\306\230\22\314\10\340\33\315\340\264\364\277{\337\336\7\206\254g\267\251M\331A>\223Fj\356\325\357Q\20\334D`'\234\201,A\3\37\303z\234mx\307\337\241\317\252\224\370L\302\37\34\33\37\322\207\360\263\340l\10\377\211\300\237;\320\335\302\311G\313o\30\234\243\364\314\26N&Q\242"
	.ascii "1O\23\273\206\375F-S\261\353\32]\310\363\341B^\300a\4\\\34\270"
	.ascii "9&\322`\240\22\\\304),`[\367-\257.f\374s\2\270\243"
	.ascii "0\370T\306\377p\312\373\323 \317\12p\203\364~\20\326\7y\266p\325F*\244\207d\206\7"
	.ascii "8\246\366\225\266\301q\237>j\267\305"
	.ascii "3\206vr\271\321"
	.ascii "2\30\212a\371\211\200P\377%\315\262\257\317\17"
	.ascii "8%\302\312\21\353i\21|\206\361\345b\236r\205\214\374W{\227\321\370$\317$\210\30k9\3rhV\334I\33\16'\215\206\221\245\266\321 9f#\15\344;\345\246ym\226\34\234\203\343\302\224f(\353\221:\216\26\356\225\260p\257\222!\332x\207Dq\337j\357n\345\312\26\20\307\357\307u\303uF:~k|m\255\215\21'x\36\370b\36\277#\264qg!]\215w\252n\14"
	.ascii "4N\237\377\223\11\213\322*9o\364\354hJ\212\305\351\200\317cr~A\234s\242"
	.ascii "9\307\307\333\337"
	.ascii "4);$\347\251\375\243=\266X\234\12\\\213\311"
	.ascii "9J\234\331\321\234[\274\3\365\211\312.\311\331y\364\256G\27\213S\17c19\257\23g&\212z\203\357\356\311kM\215\206i\312\363\215\216\373f\21\206lSL\224+\241\277\200\274tE^\335\340K!\316\33T\323\245\321"
	.ascii "5\235\33\340\11\2\0"
	.ascii "7Q\241\230n\241\203l\264\35\344\371B2uGgK=\344\340r\310s\206\312K\302\307A\361\336"
	.ascii "5}\323\257\213\251\376y\1\261O\375\373\273\325\377\25\275w\363\205\366:G\317\352\245\271\274\270u\376uX\347\267\264]\376tmZ\330\347<m\207La\347\323\24!\370+[\17i\357\301\\\12 B\362\371qK~<,\371\11\262"
	.ascii "9\14\232\327\363\243\31\236\14\340\211\306\300/\262\233\217&\203\374)yV\234\11)%>\213\337\204-\6\304\351"
	.ascii "0_\236\16{\32n*\232\351\210\343 \225\35\1q\36\34"
	.ascii "4\306\254\213v\36\334\216\363<\370\17\356\357\242Rw\342;\17&C\370\377\12\374\27\307\336\30\24\247\275e\5\203\340\303\363\300\256\225\244\321?\326b\321\222\21_\311\377\27.\371]\221\214\34\301"
	.ascii "7\203\35z\232\356 \3\265\327\33\264z\344\340\342\313\373\232o\213\37A\206\251,\6\367\302Ir\260{K\10~ZK`\236"
	.ascii "8G\344\\\32;\271X\270\326\371\265\177\221\234^\20w\251\356\207K\365`\232"
	.ascii "8\12\36!\216)!\216\5\362&!\325\321r\352\361\324\241\362\220\311jN\11)\220\352\30\17\253\243 B\35\351l\217\22\207:jx|\352\250\345Z\265=<.u\274\22\302\327\11|_\317\210K\210c\25\203\15<,\216\14\255\2\23\273nu&<\226"
	.ascii "8\352yH\34\257b.\264\242\216\242\353\177;\301\350"
	.ascii "2<\330y}\263\310\212\366\33Q\355\35\232"
	.ascii "4\24\355U\353\1\367c\6\257\361\"\201w\312\213h\337\240\376\321\330?!V\250\344\216_\273\253\26\306]\262\215"
	.ascii "\341\222\275\316\205J<\352f\210y{\371^\0\357\250\14\32"
	.ascii "8\311\244"
	.ascii "0\310\277O?f&&\356\214(\217\365k\346\317<t\241\337\304\267M\273\237S\265"
	.ascii "7c\300W\240\332{\371\27\362\307#\335\355\361\354\322!\231\275\264bye\325*WIEyeE\231{a\311\232"
	.ascii "5\314T\354ZY\261vuqU\202\313\265\256\274\364\17\353\334\213\314.\327\213\305\256"
	.ascii "5\305k\213W[\312\335\356\25\356\25\256\312\322?\272\215\253W\272\313K\334\354\251J\346bk\330ZV\312\312Y\25>\377\216\255c+\361\343\306\261'\330O\330\363\354\327\354"
	.ascii "9\374"
	.ascii "0\226_\312*\330rV\211\260U\10,\301^9\366*X\31\202\27b\177\15~\30"
	.ascii "3\271\\\225Uk\335\305\253\25\227\253\34;\322!\253\313UVQR\\\346*^\373\302\213?\373\371\217\12~Y\205\377\205\13\13\27\376\240\340W\25\25e\225\5\253K\313_xi\311\262\305\256\37..(-ZZ\264\340\245\242%\13\304 \15\224\227\224\255[\341.\250\254ZQZ\261\360\367\354\377\247\231K\262"
	.text
	.section	.gnu.lto__ZN3stk3con6printrEPKcc.f43aea78,"dr0"
	.ascii "x\234\225VYl\224U\24\276\347\376\263\357+\264\3\24H\13M\5dM\364\11\365I\215\361\215G\223\212"
	.ascii "0$D((\220\370B\370\313"
	.ascii "4\235\206\20\2\23%U@@\26\213 \264\354\233"
	.ascii "0PV-`e\207\262\264\266,\21\23\310\20\352\210\245\236s\356\337\237a(\246\366\341\366\236\373\237\345;\337"
	.ascii "9\347\336\321\304\313\177\5 \304D\217\20\223p\17\375\4\310\245g\205\250tH\31=X$t\227va\264\320=\32X\325\261Em\216"
	.ascii "8\254\322\262\370\244@\5[\225\35\25l\340P\12v\265"
	.ascii "9\342pHgM)~w\321\352qJ\367\232"
	.ascii "7Iz\30E\311\5n\245\355\226v\345\305\303^<\322\313"
	.ascii "6A\266\361J\37K~\226|\20P6\376\236M\0\202j\23\204\260\332\204\324\346\210#,C\312o\204\375F \252\24\242\0\264\21 \26H\315b\265\331\35N\227\333\343\365\371\3\301P8\22\205\5\26\253b\305\241\376\205\325\277\373\362\221\204\245\351\315\265\356\322\15\272\256?L\35\336\353\323\277\374"
	.ascii "8+\205\310H\245\2\33\241\24\225R\311\33]n\255\37\10\334\357\333\372\370\214\373\236\314J\30B\342\376\324\251Z\33\211\322B\342\203\205mW\355\303\326\351\372\302\364\212\204\345\275\254\324\340{\320\320\35\324A\14"
	.ascii "6AL\340\221\200\37`\30*\237\331y\241\336\252\15b\267m_\177W#\321p\251\236>\324\250\25d\245\5"
	.ascii "6+\303\221"
	.ascii "1(#3\253\200-0\214t\37Uu]v\333\252\20s@!\205\37\301\206\5\267\342\267z=Se\327\206\263\317\344\362?\226"
	.ascii "8\213\327\242\336\355\247\215I\207~jM\325\355\356\356\301\350\12\266\276\10\312\310v\33\24\23%\265"
	.ascii "7&ic\331C\343\351\354J\13{X\363,a\311\261\257\357\325\276\201\355\223w\367\354sk\357\260\203\355\353"
	.ascii "6\354v2[o\223\270\376\253\345[\254\314\226\203\304\326c\333/z\24\300\356u'\34zM\"\255\377\323\335\255e\245\15\266\253\10;0\302\316\347\21vAq\227$\323\307\311m\327\355\332\7\34\244\371x\303VPnV\36\257\306<u\23\347\356^q\356\201\342m\241\264\336\335\275\243kY\335k\362\15\340#\211$\333]@\305\361\340\326\341eB|t\352\7\342>@\333 -!\252G\230\226\10g\35\305\255\263\0\27W!c\34@\362@Z\212Hi0\271\33\212\213\273\230v%\264\33NK\31-#h\31\211\213\34E\273\321\14f\14m\307\322\341"
	.ascii "8Z\306\223(D;V\273\321-:\244\304\177Z\13T\245;\223\23^\354\10\302L\220\14\252\270"
	.ascii "7p\335\13\266N\351A\325o\317/\331*\347?\325ktGVz2\22\373\6\366\301|\321)]Y\351\25\327`\341M\273\322\366\242\201\270\4\222$\362\332\311\237\23\365\311;\253'*\15\37\36AqL\235>\326\324a\240S\372"
	.ascii "1N\345\306\3\213\355Tj\37\6\330\17\254\364\270\272E*\245 \33\7\304E\250\272\232\260\31ghu\253\375\\\263\203\254\354hu\300\250X\7\216\14"
	.ascii "65AK>Y\275\23\224z\10\343\220\323\345\206y\230\217\30b\252\272\311\310!\202\347P\22"
	.ascii "3\323h\240"
	.ascii "4\"\354\323\"\360"
	.ascii "2a\16\227-\232@\37E>;\376\214$\2\17\";\271\320\2x\366\23\304\262"
	.ascii "2\310~\254\2/\37\4w4\265"
	.ascii "6\252\202F\363\35\205\250\20/\370\10\261\330\246o\314\332W\301\212J\275\22\265\302p\10\346\303aJ\32\322\260\12^ '\232K\251\23"
	.ascii "5\216\230\344\330\210\234\26H\350\315\206nA~\374H\6\31\24p\24\23\311\312(\327"
	.ascii "8\331\24S\312\205\250o\322\263\213\350)\24\234\314\3\346\371\225\251\344co4\261\37C\354\344\345:\350\211[\\\7\302\371!c\265\367\220\256"
	.ascii "7\370\376\213\363\343\10"
	.ascii "5\227d\207Irk\223\321B\3\372\14\355\204\11\355\244I\353\35\277\341%\207H\247\250)U1z\332t`\237c\234"
	.ascii "2c\234~)\306@b\203\376\332\245K\350\343\264\16\34eJ\207\224\214\241\221=\315~\7\350Uj\376fc\302\317c\200W\323\317\20s\362"
	.ascii "0\270\10\244\307\30\205\324\243c)\243\311\213\320\342\344\256'u\266\36\224\375\272h\254s;\246\37\213k\16\266\334\0\6MZV\370\5A71\350"
	.ascii "3\6\350\246\236~+RcB\21\275\342\250FX\257$6E\214\217"
	.ascii "4\364\352\243O\264\202\232\314\233u\177\33\223"
	.ascii "9\230l[\300\242\244\241\371\34\366\317\340\354\11"
	.ascii "8\313\227\16\336\322\5\324\220\251\265o\365\326n\205]\324\16\271\223S\310b]e\325\312\347\231\270\341\34f\362+g\322\314\335"
	.ascii "7\224\301\371Mp\317\352\16\32\211\361\374S@\3l\311+C\346\307\370\315\214q\236\330j\1\253\362"
	.ascii "0<\337C,\203\227\202\200\13\234`\11\206\314\312\1\34\262\365\\\257"
	.ascii "3\365\312\210\27\315\210\227"
	.ascii "8\253\341\234U\200\352\301\35\320\224\362\32\376z/\177~\275/\233\365\276\302\376\324E\30"
	.ascii "4;\352L\312H\251\254\317\20\257\232\20\257\21)\350\346\341\355\376\6(\263fn6\335\365\327\352?\275\312"
	.ascii "4]\226\245\251(\203\353l\332\202\246\271\372\3\361\354\6\320\255\275"
	.ascii "0\275o\221?\357\201\303\327Q\250[\5n\342\235\205\242j\307\16\274U\351va\246;\201>v\312\21}\316\344\226\231\311m#\23|\10\331\307\310NIr\242\266\372\301\0u2\12\35\343"
	.ascii "9\366@\265\376\210\265^\272\310\6e$!l\345&@}\27\276\246YY\244\236'\217r3\32\35\323\223E\327\257\221\12\36r*a\276!\220\200\200P\307j<5eh\324\16o\13\300\334\203\367"
	.ascii "44\13\25\240Y\244\247\226\15\347RNU\313"
	.ascii "1}f\240\315d\340\367\347\14\260\217\261jh\22)c\210\306\341\21\25lEv=\377\272\223\335\370\347\27\320\256\336\371ZCm<FGe\325\25\245FW\344\266\301\373\334\6\343\215"
	.ascii "6\350\300\250\\wz\224\17/*\351\365\201\30\234\341\337\6w\230\327"
	.ascii "1Y9\204^\253\207\365\27\332\264\377\365\\\335"
	.ascii "5\357\353{y\315GU\273\17\252\241\242\364"
	.ascii "3\353&T\246\237\276\333\363\216\265c%\32\335\350"
	.ascii "5<}\326Gs\346~Z>eV\305\234Y3\342\257O\231=[\330&\227\317\215\177"
	.ascii "1\327"
	.ascii "1\271\242|\356\364\231\361"
	.ascii "9.%\227\317\210W\370\247\225\177"
	.ascii "2o\332\264\370\347\345\25\361\370\324\370Tgy\371\274\212\351\237\315\213\217\205\351\366\231\323\342\25S\342\342_\352~aM"
	.text
	.section	.gnu.lto__ZN3stk3con6printeEPKcz.f43aea78,"dr0"
	.ascii "x\234\225W}P\\\325\25\277\347\276\335\267o?\330\345+\251\220\244\204PDm\4\33\3\265v:\255\343?\316\264\323ig\332\377\234Y\221l,#\354R u\246"
	.ascii "3\214\217e\223"
	.ascii "0\326qR\246\211\250\215C>\210\264$D \237&\321%F!\15\20\211\11\201\210\201 \20c\261@6\212\333\204\320s\356\335]`\335"
	.ascii "8\333]\346\356=\367\236\373;_\277w\336Ea\337\376"
	.ascii "8\200\261\337\330\31\13\342\34\226"
	.ascii "1\340\333z\31\253\326"
	.ascii "8\30\344D\221\223\16\315\300\225\227;\31\323-F\237\211\351"
	.ascii "6#\230\244\202*'\35\232\211k\265"
	.ascii "9\270o\246\321\246qK\303c$M/C\311\14\26\251m\341\252D\261\12\24+\267]\\\216\222\343\344\217Q\262q\373t\27m&4\30QL\0\273<d\7\207\234"
	.ascii "8 \221&\220\310\223$J\252@I\342)\362\\\262"
	.ascii "8\227\14)R=E\252wh\251\0"
	.ascii "4a\300^\344\212\301\250\232"
	.ascii "4\263\305jK\260;\22\223\222SR\341E\203A&\303$\177\22\345\317\15>\303a\233\277\271\336\232\323\250\353\372\364\205K#\11\372\337\236\11r\306\2\\\252\300>\310A\245\17\16\334\310W\226\3\303\351\361\226[=\326\317y\220\303j\22\337\251\353\252WI\344\6\22k\373\307\273\34\331{t\335\353\177\243\306\360T\220+\360\26(\210\6M\220\16\377\200t\206K\14\376\11\331\244=\343\233\273lU}h;QZ\204fP\261^\6\334\333z\375\350q\253\222!l\266\355i<b\26"
	.ascii "6\177A\342\336\355;\366\33\205M\215\304kg\332.\331\262v!\312\310\301\306\17"
	.ascii "5\275\266\306\257\337\231\237W\202\334\0\373\245\361\3h\274\5\215\207\202:\10Ys\234\216~u~\360U\243\362\240"
	.ascii "02\335\335\333kF\30\277\267\341\354fC\227\356\33\231\237\317\10r#\274\275"
	.ascii "4\200\20F+d\341\241\236#\207\33\24%O\0\274;\351\355"
	.ascii "4H?\316"
	.ascii "5>\341\367"
	.ascii "5\350w\347\347!\310Uh\213\211\320\16Y\7\223\375\336\371\371\366\313u\265\217\363G\0sc\322p\320\254"
	.ascii "8\230m\302O;\311\16\32\222pPSq\260\244\321@\231TW\340`]I\342*\240\244f\10\324L\332ZC[Y\264\225M\303Z\32\362h\203\261"
	.ascii "1L5\362j\214s\374Q\306\261 H6e\10|\376\300K\353\227\226%\224*Q\30\34\17\341\210\12o~\374J\13\257\272\255\327\352Z\220\333\2\34K\6\207\241\212\266\206\307\316\367iT\233\4\\;\2\351A\216\317\36\33Gv A\225+p\272n\327"
	.ascii "2\202\231\345Z4\220\203\14-\301p\10qT\337\27"
	.ascii "4\355\204"
	.ascii "7\252\365j\324J\204\243P\5\307(\215p\34v\2\273\4\276\301\32u\1\263z\337\211\227MtZC\215wB\351\36\347F\212u\10j\364\276\220\256"
	.ascii "5\332~R\200S\244'0\220 OfW\300{ukw\272T\266\241>\353\7N\22\345\4W\230\10f\22h\351\236\241D\373~2\342\373)\364\235P>\1\275f\330$2\213\237\237\12_\325pA\364V\373w\345\374]tuq\222M\221$_\353\346\322q{\334\256\275\27q\315\37I\353\204#\204\262(\221\32\253\315\221"
	.ascii "6\206B6\34q\333\350\210\330"
	.ascii "8\375-\33\16\312\6}\306\270\231\351\353\220\227\26\21\16))R\5\26\223\3{\31\274/\275\232\0\332\351{}_\215C\354\0\203"
	.ascii "3\220\256\211}3\371l\245\342cA\353Z?\365\232$V\22\236\350<\374u\223\32v:e\216r\272\230@)Bl89\364)\210\30HK\205\17"
	.ascii "0\206\17E\14\235\241\30\6\302\364K\202\254p\226ll3\247\12"
	.ascii "6}\323\322a\210Y\303\324\0>x\14\272\344s\263\260\345\377y\220/\13py\10\316BU\220/g\364p\6_\312\227fR\243\241\276\27@z3\370\227\204\332\355=\333i \377\357\323W38G\364H#6\327]\313\217\305\325\364"
	.ascii "9\242\375\342\314\246\13\261\251\332\367\367\205\270-\320\215q\367\210\270{\5uSe\371f\267_U\26\334\212`XP\357|\204"
	.ascii "3\11,\31\223\261Eo7\305L\305\212\0\265%\370H\372\177\354\310\241\273j\306\223;\365\372\325A\276\222V\274wj\333\25T\256'\345U\320\7\31"
	.ascii "29\27\240\12w_\331;\323b\314pK\375\357\223\376\211\211\251AcX?\3>\16\353_\24\372{\373OMr\362\321\212\345\203K\224\237\325\302K;\325\14\23"
	.ascii "5\375\366\360\250)\224\252\330\24\211\346D\177\204\23\227q\31\25\372{\276\230\20yP\251\6\3\"\21\343\330\317\220\206"
	.ascii "4I\24\314\36\202\315M\3m\203\206\250\226\213o\26\352\342\262\333"
	.ascii "2\30\214\221\260\314\200\240\377\25\231"
	.ascii "0\377\255C\7iK8\263F\234\247C\360\11z\225\205\321e\211\352\317\214\217>J\353\263<\215T\304\32\310\205\364\270\3\35\212\4J\313\242G\232$\306\12\204Y\214\271\362\236<\213&\326\325\10\261\206\11\223\272\354\240\310\375k\315\307\366pe;\210\267\353G[\206\266\230\350\355\352\35"
	.ascii "9\320X\247\351\221\27\364\17`$\346\353\365\32u\351\225\10\347\365\277\372\227\363\20\302\34\231\271"
	.ascii "0mU\336\224\230"
	.ascii "7N\275Uo\217\205y\37\214\306\304\374\214"
	.ascii "0WDcNM5\357\320\224\335\22\263\373\350\370)G,L\5\306bb\216\23\346\252h\314\327\375=\265\11J\263\304l=s\333g\210\205i\204\211\230\230\327\11"
	.ascii "3\15\273\306\326\221\231sc\365u\352\22\212\215\214\267\315\244\221\16\331\246\230(W\202h\1y\243Z|/\203\317\5\13oPM\363\242k\232\35\340f\241\0_ \25"
	.ascii "1\335\202\7\253\320v\220\337\217l\250\251\333r1]\362!C\36\217\334\335Tl\317\377F\217C\345&\306\243\22"
	.ascii "5\272\246\372\366\16%&\355s\2\242\257L~7\355\277\244\226\371\200\340b\353\365\335Fi>3n\212\377'B\361\251P\177\357\255\261Db\310\14u\264$\361\212\26w\204\273\373\373U\271\277\206\366\27=\3Yq?\3\323\221g`\206\214\16A\310\355\354h\204\7\3\370"
	.ascii "2cpS\244\33"
	.ascii "3\266&\310\37\22&w\365\207\251\23\237\305@\304\342-\321\316\263e;\377l\307\260\22"
	.ascii "2\275\250\177'\263"
	.ascii "1\203h\340\207M1\13\23j\340_\305\331\300\277\306\206,J5\33_\3\377&\254\37\224\15\374\334\266\327@4\360&l\340\377]h\340)\341\242\324\315L\336"
	.ascii "4\207\322\21_\325oG\252~G\244#\203\256w\3\255_>+\310)/\373z\307\340\254ZpH\257\305K\275\221\301\34\24\10\253\251\362rqz\300xo\335\273\250+\10"
	.ascii "9u3t\377X\33w\245\346#\225\322\271\340\206O\377+\304|\217\376"
	.ascii "0@W(\250\346D\216\265A\276\226\202\230\236\236\32U\376\257K\252\227\207oi5|\347\222;\27\376\33\11>\354\363W\241\332\337\367K\371O\1]\330\0S\200`)\305\236\247+*\237w\26y\334\25\236\22WnQY\31\323\12\235\33=\345\245\205\225f\247s\223\273\370\217\233\\?2\226\25\226\27\226Z\335.\327\6\327\6gE\361\237]\246\322\215.w\221\213=T\301\234\254\214\225\263b\346f\225"
	.ascii "8\177\226mb\33\361\353\302\265L\366"
	.ascii "3\366k\366{\366+\374"
	.ascii "2v\177"
	.ascii "1\363\260\247Y\5\252=\217\212E(\271Q\362\260\22T\316E\271\14\277\214iNgEe\271\253\260Tq:\335(H_lNg\211\247\250\260\304Y"
	.ascii "X\376\334\237\236x\362\361\274\337V\342_~n~\356#y\277\363xJ*\362J\213\335\317\275\260\376'\353\234\217\256\313+.x\254\340\341\27\12\326?,\26i\301]T\262i\203+\257\242rC\261'\367\17\354\177\276\331pD"
	.text
	.section	.gnu.lto_.symbol_nodes.f43aea78,"dr0"
	.ascii "x\234U\217\333O\324@\30\305Og\372\261\335\233\256u\255\300.\310E\377\316\17\260\4\203\21\15F\320%*\256UQ\274_\21\301\13"
	.ascii "6\240nB\214&\372\2\211\230nx!\361\305'\322\250\323vk\246}\231"
	.ascii "9\277s\316\364\373$\200\317\22\311'\26\210\15\234\333\4\230"
	.ascii "1\265`\201\36\23*\14q\233X\350\\\334!\226\31p\237\30\231\346u2\346\5Kj\222\210N\343"
	.ascii "9\261\231\4"
	.ascii "0rJ\25\226,\246N\301"
	.ascii "8\323T`\221\270\353\377\13\363\12,[\234\313$\356\22[\231\304\212\305\371L\342\36q!\223\270E\\\324\1y$\257\11\6\335 3>o\22E\247x@\\\312\4\227\250\253\251\346\26\17\211\313\31c\215r\261\361\210\370@\306\360\311\212\14\343\11\361\301t\323\21\13\306S\342\212\256\237\21\37\322\365+b[\327o\210\17\353\372"
	.ascii "5qU\327o\211\217\350z\225\330\321\365\12\361Q]/\23w\353\372\5q\217\256_\22\367\352\372=qM\327\357\210\353\232\226\350F\360\343\317\250!EO\347\"\323\213\331\13\277\275aH+\215\344-\214\355\\\266\314<~\207\301\250\1Y\350\201\273\23"
	.ascii "9\305B\342\24S\247\224:\345R\342\224S\307\36\202\27\374Z\254H{\270\23\211\310z\270:.\244=\10\377S\340*T\203\327\272`I{\0A+0\245}\14\356\224\277\237\223v?\374i\177\177Be\373\340\235\217Q\35\376Lp\361\244\210[\263aTW\250\21~\34O\320\\\330P\177+b\355\312\336\325\212\254\236\200\27oS\35\202\273\261\365A\365\252\303\10&\332\227*1j%h\20\301\331\255"
	.ascii "1\225\252#\230\216/\307\341~O\274\"~\316EqG\15\36F\253"
	.ascii "8\351*\21Y\377\33\255\342\14\300\237l\233\322Q\17M\266\325LN\15\376\351\31K:j\225\315\335m\222N?\274/\273\333Q\266\17\356\327\30\325\341}K\352"
	.ascii "5\270\263{jn\247\214fC\315\215\177\343"
	.ascii "2)n"
	.text
	.section	.gnu.lto_.refs.f43aea78,"dr0"
	.ascii "x\234%\215\215J\303P\24\203\363\235\366\234\316\272\272\266ww\27\374\1\21'n\242\350\4Q|\377\267\361!\354e!\204@\22\322H\372\323\31,\4\253\322,\342\255\34E\203w\304\312:\261\252\321\205"
	.ascii "6\320\13\343R#\254\253\33"
	.ascii "4\321\\\261"
	.ascii "1\306\226)\26#F3&k\322\254d\244N\251WZ+F<\21;k\213\342Z~\247x\222\37\360\27\342M\376\201\177\22_\362\37\322\357\260U\36\310\263rV^\352"
	.ascii "7\370\275\374\1\177$\366\362\272\223\237\310\337\343N\305(\235J\257R?\254\235\361-q\376\270U\255?\343G\342U\376N9\351\37/V\12e"
	.text
	.section	.gnu.lto_.decls.f43aea78,"dr0"
	.ascii "x\234\265Z\13TT\311\231\356\352\352\206\246\351\206y\270"
	.ascii "3\263L6c\234\254\233I2:\17\307d\366"
	.ascii "5d\263$\263"
	.ascii "39\223\311\311f7gv\317\351a\260\35I\20\10\335\342${rry\10(\210<\344!\240"
	.ascii "4\12\276@AD\4\1i\1y\10\242\274U@\32y\10\212\320(*\17\265\367\257\252{\273\357\205\306LfN\372\370\323]\177\375\365\375\257\252\277\252\356\25\313d\262M\256"
	.ascii "2\231\15>\331\377 \223Y\341\267'\360~\16\244\6:\5T\12T\11T\5\364>P\15P\3\320E\240\36\240~\31\373\374\35\320m\240I\240i\240\31\240[@\17\200\346\200\26\200\236\20A$\223a w\240g\201^\2z\31\350=\240\237\2\375\34\350\277\201>\5\362\5\12\2\12\6"
	.ascii "2\2\375\1(\34h;P\"P\32\220\33@f\301\267\11\350\0\320!\240|\240B\240r\240\12\240*$\223|\210\215d\\;P\6\364\375\23\320\7\360\373,|\357\1z\27\250\32\350_\370qr~\14\261\21\361\372\304\37\342\257;\37"
	.ascii "7\17 \15\320"
	.ascii "5\21\266\30\327\14\344#\302%c\177\272\14\356\14\217\365\347p\211\355\316\260g\236\202}\233\317"
	.ascii "1\301\376\26\217q\16\276\177$\322\365\21\311"
	.ascii "7\351\343\307*\370q\215\320n\343sE\364\10\261\27\177\36\374\205"
	.ascii "1\306\374\230\247\305y\216\267\201`\222\271\327\16\375\335"
	.ascii "2\207\277s<\6\31vh\321\330\205\257\230#\314\217}Z\236\310\274vu\202M\326F\7\310\366\211l|\302\343\21\210\374E8\204\371U\363\215\371\361O\313"
	.ascii "9Yw_\326N\"+\343q\12\27\341\270;\301\21j\1\311I\7\262\273Ce\211m\342u)\376\220\32\360\372\"\254N\340\225\0m\342}\275\2\337+\340{\225\214\315UR\207\256!V\203\376\10\337\275@\247\210\375@\221\374\34\356G\254VmEl^_GK\353\331\257\200"
	.ascii "7\200X=3\300\367\20\320"
	.ascii "0\320\15\240\21\240Q\240\315@\343@c@\267\200\376\7"
	.ascii "1?\205Xiy\37\204\272Dj\24\251_\244^\221\265Bj\327,bu\214\324"
	.ascii "3R\327\236\360\371*\347\327\215iQLHM\374\226\223\230\\\225\261x\220\330\\\341\343 \216\313\34\320n\240g\277d|\204\330\10~\221u5\17\337\361\213|T\361"
	.ascii "6\245-\362\223\370\222(\362\247b\31\177^\376+\345X\234\273/\233\357\257\232\343\227E\276\13\271\25r\355,\307\230\237\367U\313\304dZ\216\232o\314\336\323\214\311\221\207\372\31\322\314\350\31\231\301\320\324\250\345\244\331\235\260s\304\23\313\21\374V\324>L\236BH\275\332\313+\206\343\302"
	.ascii "9k\30\247<\354!C\7\221\27:\204\274d\350(Z\215\216 (\347(\37X\5\300\312\345"
	.ascii "8.!\203"
	.ascii "3\251d\244\3\35FX\244;\235SQ\361t.\206\233\265\331\\i\3TF\365"
	.ascii "7\27\253\324\274\212\230?\247\2\6\14\36\335"
	.ascii "6\355B=\270Lm\236\351)\331'\247.|\227"
	.ascii "4\313\217\317\\t\247\335+I\363LRc\272\13\355U\220fJsY\277\232"
	.ascii "6W\220\346\341\7\35\345T9G\364\273"
	.ascii "5z@\7*\2]'@\227\14\235\244\272\277\343\205\212\231\352\230\272\304n\227\347\22\210"
	.ascii "4\374Y\31B\335<\16\342\205T\274\4='\14\"\322\223\373cG\24b\351c\313J\243S\350"
	.ascii "9\30q\254%mX\243\331Al\341\315\1\276\310\236RDf1\375\6\351\263\231\227\322"
	.ascii "0\365\264\210\6b(2/\326\215\372\266\232\32{g\317.w\332|\216"
	.ascii "4+\16\265"
	.ascii "6\270/\357\352\31\301\325r\346j]6w^\265\330\325\323 ^F\305+\250\361g\4W\207\323\246\212\361bW\235K\243J\352\352\236\335'J\\$\256VJ\\\255\342]\255\242\256V\36<\241\304/ \352\245"
	.ascii "9q\310\375\373GAS\14g\36\303\216\231\35v\260\"\316\25\374}_M\233\3\231s\271n\264IN\232\236\300\222\357\33i\250R\301\214\216qh\225\331U\242Z\230ld,2\3\347\34?\235\255\255\17\322^\344"
	.ascii "8\5\252\1\207\316\"\214\252\321\367\211YD\220\332\7|P\326\325]Z\352\201\375\251\201\307\262K\262\345\12\271\14\325\321\371\17\234S\13W#\225/\246\220\350X\302\270g\20\372\371\13\350\373^\350"
	.ascii "5/t\36)d\250\36\275\10@\237(\230pA\331\204\311C\22\30\350\27\5\246\201\17L\3\15L\361\201\274R7:\7\274\311\340\334\224\324\2%\315\271\212"
	.ascii "4w[\313\256\270a\3\22\207g\25\13\317\\\364\366H5m\332\204\17\21\223\227M\227\237EB\214\22\302\271g\303N|C\206\32A}\23\11R+\4\211 \240f\340\264\10AzT\233\372:\11\322E\10\322\5G\220V\11A\272H\203\324\230\277\367S\\\215hq\231j{T\256E^^\352\325\264\36\274\202\332\371\322`\36\263\331\376\304\33\264\313\225\262\351\234\265$r\370%\31\13\233\14u\200\31\355t\306\266\201\35\227\5;28\316[E:\320%I\355\1\345\255;\343J1\256\243\332\221\311z\302\252!)\352\24R\224\333"
	.ascii "3[\241\22\247\210\200\260\34u\221\34uKr4?`\231\306\216\34\275O\272E)\352\341S\324CS\264TYf\332\361)\245\232w+\346\251n\201\364\245\204\243\13*\311\204\270\212\304+\367\32\323\6\222"
	.ascii "7\357\16\326\272\201&\312#\306\2o\242"
	.ascii "1\342\260\233\323\271w\205\370\325G\375\352E\274c\326\7\25;\24b\307\372$\216\365\363\216\365S\307v\217\34\15\306\227YD\323\247\212vhp\17\12\343h\325M\314\271\236\341\216{\205\246\371\364\375B\327\327\16q&\316Z\35]\357I\246\12\230a\261\317\24{\226\366eN\336S0\301\270#\27^\341\5\7@p\20\275&\26<ps{\213\13N\245;\25\252\271T\226\212\250\337\37\11n\27$U$\253\4\326"
	.ascii "0\242\274\335\343)].\224\267J\215F\30/u8\321\246\241\274\17\324h\224\361&K\33g%\313\365\3~*\200\324\30\215\327M!^y\311Cq\32\234\317\314"
	.ascii "8~\311\372P\261r\37\30?\26\226\244\261B\321!\342h\234\237\212\366\37 \32\276\273\257U\15\242\226\"kL\363\320\373\303a\\\34g\261\331^\241\305\0]\7\177o0\177\321\20\31\204n\241\225\360\367"
	.ascii "6ZI\334\310\350\35\300\270S\316\307vxW\311C\17<\304LhJH\273\257$\270&Ke\352\273\346"
	.ascii "0\356\221\315\26\241\242\323\27M\210P\357\10"
	.ascii "6MR\310\322\342\322\24-\216\300B\366r\247\357\253p\22\246\220\15\265\246Q7\12i\272\220\305y\363\220tbL\211\20\255\2\342"
	.ascii "4E,\270~\372\277p\211\0X\\T6\350\211k\31`\375Xl\221\7\3\274\262\10\360\256\10\360\236\0"
	.ascii "8C\1OoKKQ\341\21\6"
	.ascii "1v\362\302I\25@\230M\246\353Y&\36\2\316\27\304\315\373\"\214\373\2\306\3\212q%z\276@\201\303\25\24#\245\242c\332\23\307\260\306\211\331\343Y.$u&.\236\373\224\203\332\303\311)\332C\21\332\254\200"
	.ascii "6G\321\262\332\"\23\334\360>\6\320\275\375\306"
	.ascii "1-\263\350\216\330\"\342\325\274\10c^\300X\240\30\341%ug1\256R\360qz\264o\356\256\2\327"
	.ascii "2\310\206\233\361\13\356"
	.ascii "4N\"\233\10\336#\21\336c\1\357\11\305\313"
	.ascii "1\245"
	.ascii "5jq/\3\30\334YV\252f6=Zl\223M\204a\23"
	.ascii "089\301h\214\317y\244\301\363"
	.ascii "\202M{\217\34"
	.ascii "4)1\247\244\220\247\36\264\\T:\263)L\356\300\13\227\363x\21\24oi\375\253n\235ou\247\213\256\337^\247\222\17u'b;o\233\234"
	.ascii "2-]\345\271luB)EQ\214\331\224"
	.ascii "3\34\255rZ\321\"A\0\305\310\311\12\215\226\363+4v*!G\203\323\225\274"
	.ascii "7\207\267EN\253\361"
	.ascii "1\346MYl\306M2\23ME\246\243\302L\304\4\0m\27\271\263Cp'\226\272\263t{\277r\270\"W!\224]\312i\252<]\355\341\324\304"
	.ascii "8bb<5q\247`bD\\D\257\33\276!\230Xk\231"
	.ascii "4+\360"
	.ascii "8311\267"
	.ascii "3ON'\246"
	.ascii "5&\366\226\243P<C@\320.\221\231\11\202\231\211\313\230y\266\254\351\27\324J\262\265\261\240\227o\267\356\366\264o\30\311,\276\275\11\347\316#\247\306'\21\343S\250\361\273\5\343-\227\253\266\273\342"
	.ascii "0\27\336\370\273gr[\224"
	.ascii "8\306\205\32\177\244\263\254\231\306\327d\232\253\305\351\234\331f{\217\214G\251\"\273\323\4\273\323\251\335-\255\17\17\311\261I\300\253\237\12\17\367\304\207\30^|d],\246xE1\371\371(\236\263p\334\23"
	.ascii "8\267 \32\214=\"\320\14\1"
	.ascii "4s\231`T\264\34)\224\323s\23'\27\337\32"
	.ascii "4\354\326P\30U6\244\306\325Lmv\334\371$\25\256c\215\307\235\205\243J\311n\334.\331\215s\344\302n\334\333"
	.ascii "26\211p3\33"
	.ascii "6p\321\266\23\341\313\254q7~dL\211\273X\243\275\240\247\6\226,k\24U\347og\307\271OI3\372\211\371\246;\36d}\302\315M\303nn\275U7^\304"
	.ascii "7Y\327\224\351\314\200\32[Y\243\"\255\350\226\6\317\322\206\366\310\271\350\5\27\264j\325\36$[\275j\325\352\347\237_\5\37\23"
	.ascii "9+\355\250\312\375 ,\211\313\375\6\331\336\216B\354J\344\317;\16\303\207\345\304\231F\342\222\214\210\233\252M\341\336u\230\310\36r.\373]\"\232\206H\27\271G@#\27vB\313\231\22\316\333L\271\310$\227\356\367\4"
	.ascii "8\334RQjV\230\1\31\2\207\366/\206\376\216\35\231\30a9[\314d\301\212<\247\242\7\345L1\310\236i\347\376]\205N\362z\211U\344\316E\277\340\223\310_U\274\215"
	.ascii "2\264W\356\205\366\301@T,_M1\301HT\10\277\213\344\253\320i\240R\240\23@\307\200\312\200\12\200N\1\201<\1=.\207\350:\5,\374\32\200"
	.ascii "48\27D\301\311w\36w\346"
	.ascii "2\221"
	.ascii "6U\261\34\21\341\\\247\341q\344\323R\351\10\345\1\247\262E\216\334"
	.ascii "7\332s\177\304\271\15L\26n\17E\226\346\2\5z~\265\323h\234\371\32\321\240)m\11Q\241r\0\310\266O$GBa\342\357o\230\37E\222\245Y.2\25n\241\366\245\31\276\353\311\244\226\326=\340\361\265\360\364\311\354<\215\263S\37\312\"e\257\212\226\275J\241\354\315\365\\{\240\301u\256t\305uf\325\247\320\235\232\254\252\262\37\300"
	.ascii "1\251\206\356%P\230`\30:\353\230\367\344"
	.ascii "7+L\325\264"
	.ascii "0U\345\326Z\335\360\5\6"
	.ascii "3R\272s\27"
	.ascii "9\237\"\263\234\257R\321\347\366D+\205\272\205\316\261\372\354\314\370\366s1\23\366-\10\325"
	.ascii "2\301\35\315\31\211r\247\36\325\20\217\316S\217\352\4\217\272ON%\270\342vW\276\360N\334\270\20\353J}2\355\274\24\261"
	.ascii "2\235\253\263\331\252"
	.ascii "5\263r2\14\325\213<\252\27<jXf\267wr:7\365>z\342\352t\213i$\226]\240\226"
	.ascii "5\11\226\225W%\327(\360\25\301\262\263\243w\323=q\277\320\254"
	.ascii "6wY\325\354\312\320Tm\371\"\202\363&h-\362%W\206=\27\252+\340\364\247\242\261>\330\235\233\306Rf\311.{\227\245\13S\315\250\31\206^\224\263}\244Up\356\322"
	.ascii "2\373H\254)cD\372\304\346\230d;h\263\317"
	.ascii "9G\30\336\27\266\337"
	.ascii "3s\333\16"
	.ascii "1\26\210\241v\226\265\310\323\303Av^\7\343\265Gf\316x:\215\327e\22\257.\32\257N!^=\375\243\341\36"
	.ascii "8\235"
	.ascii "9:S[T\354\301\346fS\333\254:\236\33d{&\35\205\272E\211\354\26|\355Y&\221\323\363\267\363\345\324\264\32\373\11\342v\303\345r\346\2\251:W\231\271c\227\243"
	.ascii "2$K\211\364\361\227Nbo/\265\367\232`or[}\217\13\36V\361\11\315\331\333U\245\305\23B\263q\272\260\1\263\374\216wX\274#Y~\373\227\346\367`A\314c9Np\243n\233\307.]sc\371\335\333\355\310/hF}0\364:\237\337\1\301g\13\365\371j\306\376<\325M9N\7#\7\227\311\370B\317\311J5\316gj\356\324V\36S\341\223\264!o\356\254\354GH\263z\271\303\1\32\205\242\307\237\17\350\343\212\35=e\376d\276\216@x\206\35"
	.ascii "5\355C\215\340\223<:\365R\257\22\255\326\320\362WeT\241"
	.ascii "1\20\35r\210\216\310y\331eu\336t\350$\327\364\307\23"
	.ascii "6\226\302"
	.ascii "1{\355\270vh[\205\207\275v\214\263\24\366\335\353\337\257\265\347\372\26c\36\216\356\253w\265'\373"
	.ascii "6c\26\214"
	.ascii "7\336uuZen\220\\\337\241\271\236\20r]7}/E\201\267\251i\364\242\272\372\213TB\335\34\363\311i\212"
	.ascii "0\321C\"z\205\14C\223\242\311"
	.ascii "9)$j\212M\316tK\246\33$j\17h\260.\223([C_\37\273<4\330o\31\375Ye\367\235\33;M\214\275G\215\275+\30\333\231r-\221\336v\22\212\12\256\26\275.Z; Ho\351\202y\327\355\227\325\277`\355\\\35\216\336\217\234/\223\373\304\232\207\324\232\7\202"
	.ascii "5\227\13\322"
	.ascii "2=p\217\232_\27wZw\246(q?\213\344Bk)\\\0i$\307;\306~=\32\226 <O\0\20"
	.ascii "4+\232\361sB \347\227\261\264\352I\332~\366\20\351\242\335\322\270\263\227N8\277\22,\20C\37SC\37\11\206\16\334\34,\224\343\31\301\320\223y\363;\20~\304\14\215\274P\22\343)<\11\212\372"
	.ascii "6\377\200\307\266t5g\345\365\224\302\275\302\235\216\352/o\263\252\331j\316*q\254f\320\213\236\300P\16"
	.ascii "3\337\302"
	.ascii "0\357[8v>%\262;\366\324(\304~\\\264?\345\213\300\340H$\26?\345\233j-\335\341\211"
	.ascii "3\334y?\256\246\237\237u\301&\241\371\350\322\315\\%\363\244\245\337\276\357D\341%\236d\327D\347x\342&\346I\343\343q+\237(\30\245\355\23\35\25@9\332\6\303\243yob\4o\266\343/?\247\222\252-\217\331"
	.ascii "5\372'\32\24\213)o\333\366\371s\236\302\6\34\307x\25\326\322\225\342@|$\314\274\35$\16\361"
	.ascii "4\16;1\37\210"
	.ascii "33\263\23.\270_\360\274n\250\320\252\300\203\314\241\241\342\262\377\343\267\227\352\334\337\15;&\36`\240]\330\261\225&\10\356$.\343\216\263\247\227\333\222\302G%G\230\32{\302\222\210\241\273\251\241\311\202\241Y5\341\201xA\260\263"
	.ascii "4/\262U\211m\314Nk\333\314\240\322\276B\374D+\4"
	.ascii "0P\12v\254\220T\301\320"
	.ascii "4jh\177S\\\7r\274\332"
	.ascii "0\12GN\224\216\237\263\347"
	.ascii "8\275\253oL-\26*w\"4\320\323\323\352&9+\354\301\342W\36\31X(\323\265\35G\216{\342T\15\357HU\202\271\26\277\232\303\231\302\241NNh\17\233\270\232H\250D\357\331"
	.ascii "0\31\203"
	.ascii "21-D\"\244L\346\2\312\302\257\302\360\33c\223"
	.ascii "748GC\343\260\273\353D\266'.b\215\241\316\355\26-\\)\351\6"
	.ascii "ARPn\276\240\2E\334~kLs\324;\11\240\221\343\310\245\235\226\246\275K\364\354#zP6\206}\306DU\235\252\313i\205\253"
	.ascii "2C\277P9[!\307WXcb\307\231_\23d\223"
	.ascii "9\313\304yG\362\27w(\277"
	.ascii "9KP\367S\324W\1\364\0\5\355N\236\37\306xZ\210F\374\311\311y9"
	.ascii "\266"
	.ascii "1X.\274\362\24\372\343\2\27\303\251\350"
	.ascii "3\242I\264\222\235\234K\206\275I\304\366[\262"
	.ascii "2~d\26\324\21\211\\L\37\23\210\364\345Q}\7\361\37e\350\20U\230T?\327\341\206"
	.ascii "3\265\274\302\366vn\233;>\242\245\12\353\26,aZ^!yR5\315+4\35\31\317QQ\215\246\275\"\7\211\310\341%\32\217P\215G\211\306|\252\261?>}\300\23\237\27"
	.ascii "4\226"
	.ascii "7?H\224\343\16\246"
	.ascii "1\245\363j\224X\343\14\257\261\353\\e\7f\32\367-\322X\260D\343"
	.ascii "1\252\361"
	.ascii "8\321XH5\336"
	.ascii "9\337:K\336\377\254Ps\302\7\375\11\370y\373z\273\265\224/\274\26\372\23Qv\261\247\357\230+\236\242\26\311\27\16\214\\\326\242\325j\366\356\347@7-\343%X\215\212\261\375d\262\202\177\367C\337r,}\217t\22\257\246\"\250\10\203\211\230\276\350\330e\355\250B\344\265H\330\227\34"
	.ascii "0ZX>\356\202\37\262"
	.ascii "0\265\25\14\314\271\341"
	.ascii "0\17\332\330?0n#\217w\300(\32\253\253\327\22\247\325\20\253\310\34k\314\355[\277N\11\347\352\302Ll\5\235\2\273K\301\356D\371J\273"
	.ascii "6\31:M\343UFfv9\215\327\231\313\35\255\32\234\307\340[\223,\341r\12g\262\35P\304D\230\331\223C\1*]\2u\306\1UA\241\352'n-\300\206\300\240\316'\337M\325P\250\242\230\333\371(\221"
	.ascii "3\305q\341V\333{\257\330\321"
	.ascii "2%h\225\16\264*\266\272\343\254\307\245\257\207HMpd\376,\253*\344\233\254\213\210\372d\265D\232\334P\35\322\325\274t5\225\356\314\356O\222J\237\227H\233yi3\225\36+\312"
	.ascii "9 \275\13\221\252\341\220>\307K\237\243\322\246\363\246_\211\337"
	.ascii "4]\220 \327\360\262"
	.ascii "5T\366\316\305\222\327\234\35?@\240V\262e\307"
	.ascii "4\16E\312\361\35\17~\35\235"
	.ascii "2\217\334\307\370\241\320\314H\15?\305_\25\275Tp\1\306\242w\204d\352\317\234\315s\307\13,/\365\325\251\21d\277"
	.ascii "0%r\361\11\276"
	.ascii "1\260\14\210*T\7\11\251\347"
	.ascii "7\350\6a\243h\244\33\305pU|\212\26\307z.\363\22\270"
	.ascii "0>\241\233\336\356\233"
	.ascii "0\271h\262m\370j\324D\224\363\213]3\331\336Z\260\344\"\\Y5\334\201\361>\246\241\270"
	.ascii "4yP\203\217\263\306~[\366"
	.ascii "6\262w\242V\314\253\353\332\373dP\205\317\263\356\256\311\250l\376uSS\365a\355\225,\316\34\226KN\35a\221\210(A\27\205\205\213.\21\275\227\211\211\360\207\177\357\324\306v\354\275u\307"
	.ascii "5\342\214\221j\352\310X;\237\261v\232\261\355\305\327\273]\305\302\375\22\341\16^\270\203\12\17'\237\262\330\221\303\227}\303\211:\251\364A\363\30\\\321[\250g\212\210}O8\214V{\271y\211^\0_\301n\250K\234\\\372\237O\200+\213&:,a\11\317\374\316\376\316\265\33\12\13\351\202{/T\226\253\260\260\322i\251%<\362\7"
	.ascii "4\226u\354\351S\212\235y,\231\253\327xg\256Q\363j\253\356\214I\337\337\223\205\354\220\356\345\245{\251\364\316CQ\333\244\217\223\311"
	.ascii "1\320!\335\307K\367Q\351\202\270\366A\211!\17%\206\364\363\302\375T\270\376XU\233V\2\335%\221\276\316K_\247\322\15U\267\372\244\206\334\223H\17\360\322\3T:\266j\264O\253\215\25I\177(N\257\5k\371"
	.ascii "55\221|n-=\323Q\26"
	.ascii "0\36\217Dv\270,\263\226o\320\351>(\234\346*s\233\316\273KL\272!\211\315\20o\322\20"
	.ascii "5)\354\236e\\Z}\306$\325g\230\227\36\246\322\223\373\362\37#\311\224s\372\30\37\215P\351=E'\313\260\4\373\216$8\243<\366(\225\316\312)HG\202\323\374A\366V\202\345\216\323'^\344*N\335\276)\270];1\230)-\272c\22\267\307ye\343T\331\355\314\226t\311\224\350\225Xv\213\27\276E\205\273\223OG\261\333\301\337{\261zY\260\13\256\343m\254J\364\230KrU\370\212'_-\35\302\257"
	.ascii "2\341\311cC\31\256\374h4\311\12X\275\351\370Qvh\277\3\345b\212"
	.ascii "1\333j\212"
	.ascii "7\220b4\1,+q\213\34~\217\232/\253\371\207\233\350"
	.ascii "6V\240i&\273g0b\320\335\376\210\363.c\36\36"
	.ascii "8\335\345\374\232~\217\224\247\31,y\246P\335"
	.ascii "2\323\255\305\3\202\335\205\3"
	.ascii "1\311\36x\\h6\330\342\223\350E\343\201P\32S+o\214\311\351KL8N?\362\231\226TC\300F\367\355\325\360!Qw\237T\303\373t4\232\245\245p~\"\263F+\16\372nI\206\346\370\240\317\321\240\267=\276g\222\224\302x\211\360</L\276]\267\372m\362\15\321\31\335\377\371\263-\376\1\306\327\375\3\377U\346b\360\377\203^gT\375\364\243_\255\374\361\367\276'\373\267\37\377\343\332_\30\341\337;k\336Y\363\306\332\377\14\12\12"
	.ascii "0\254\335\354\37\370\371\326u\357\276\245{\373\255\265\376\353\177\270\376\365\255\353\327\275N\231\204\21\350\27\260e\203~\255\216"
	.ascii "2\326l\222\271\351t~\33\364~\1:\235j\213\177\240q\375:\235\361\253\243\32\214\33\0\3P\25\304vw\235\16\30~\276\1\0\356\342k\324\177\341o\304~A\201\330`\374\355\267\375\203\376w\315\332"
	.ascii "5k\326\2\327\270\226\376\202\337\376\233\11\304ou\344\7\200<\13B\244\11c\14A\1\204\263B\367\311Go\3\353m`\255g\210>\241+t\272\317\277\370B\27\254\17"
	.ascii "1\4\5\372\6\370\33\177\257\13}\343\371Ec\375\202\203e\36\324\274`\335&\337\300\15\1\372\220WD`o\256\223\366\371\204z\277A\304\203\266\30\5\326\267\26\213\213\372|>\376\320\317{\35\31\240\17\11Yv\200\250\217\15\370\206H\342\235\317\365F\277MD\357\232`\337\20\343\232"
	.ascii "7\224\224\361"
	.ascii "7NE\276)\346\6\207@\314\31 \33\372\246\222\262^\\FH2\30l\12\12\21\17~KIY/.#\264\302\240"
	.ascii "7\12A\25\234"
	.ascii "1\254\23\11\277\365\206"
	.ascii "3\11\237\217\177\342\27\12\177B\1\304\347\227\353u\336o\276\345BM2\210\25\255g,\242\351\17\254;di75\304\217u\353\227v\353\351h\305O\376\343g>.:\377\240\317\266lT\350\202\215!\12\235_\240Q\251\373\314\327\240W\352"
	.ascii "6\6\370~\16\177\375\3\364*\35\231\250 \344\252\203?\260\272\334t\306\315\301\33\3}7\353\177\364\265VA\20\314V\345F\222"
	.ascii "0\327\300\240\300\300-\1\1\312\215\301[\214\6\305\306\20\275\36o\326o^\271t\5\0\227N\177\370\206\321\366\314Cs\35\31\345\363q\250\367:\225n\253\257\301\240\17\371\32\213\224\215\7\15\256!zX\233A~\12?\203"
	.ascii "1\344\233\22{\350\322\1\256n\213\321?\300\0\262^\274"
	.ascii "5\353\10\367\7\374@\237\217\375~\343\375C\327P_]\200\277\301\350\1\353"
	.ascii "0p\213\237\216o~u\3C}7\350"
	.ascii "7\22\245\200\270\331\240\13"
	.ascii "5\4\322\314n\374Zu)\300\377"
	.ascii "3\222\22j\367\13bg\336a\256\374\306{\235\353V_\177\243n\213AA\352\317K\202\14i\374\200\357\361\371\275\367\17\225!\33\214\6?\354\27\274\305^\304\14\306M\20\221\15\6\226F\350a\361\13\336\2\32\237\267\317\320\340-\357\320\241>\241xsP\350\337\212\322\373"
	.ascii "6\264!\273\37\177\30\372\33X\30"
	.ascii "8@\37(\261\360m`\260\325\247\326\371o\16\326\351\310\274\366"
	.ascii "0\350hT\310\274\335\250\17\1"
	.ascii "5?\203\"#\345I\233:\262y\274"
	.ascii "D\344\336u\322\241\245\305EX\260/\213k\327\333\222.\37-\33\353TR\322\345\243\245\205\303\271\244\244\313\307\225\337z`72\300\202\324ox\363U\335'\316\13\203\317\273O\223a\325\341\351"
	.ascii "2\372\305"
	.ascii "8nF}\10L\31\330P`o\332\340\251\373\344\227\306w\355\254\320\347`A\350C`g\11\200\215\305\337\340\377Y\200\336"
	.ascii "3\10v\33_cP\310\312\15\372\0\275Q\377\202N\267T\10"
	.ascii "6=\335'\33\2>\16U|\6"
	.ascii "3\325ecP\310f_#\253[\33\335\354\223\32\312\3\314\236\240\255\377\17\254C\265d"
	.text
	.section	.gnu.lto_.symtab.f43aea78,"dr0"
	.ascii "__ZN3stk3con14stdinp_handlerEv@0\0\0\0\0\0\0\0\0\0\0\0\0\356\0\0\0__ZN3stk3con14stdout_handlerEPKc@4\0\0\0\0\0\0\0\0\0\0\0\0\361\0\0\0__ZN3stk3con14stderr_handlerEPKc@4\0\0\0\0\0\0\0\0\0\0\0\0\364\0\0\0__ZN3stk3con6atexitEv\0\0\0\0\0\0\0\0\0\0\0\0\353\0\0\0__ZN3stk3con5getchEv@0\0\0\0\0\0\0\0\0\0\0\0\0\371\0\0\0__ZN3stk3con5printEPKc@4\0\0\0\0\0\0\0\0\0\0\0\0\376\0\0\0__ZN3stk3con5errorEPKc@4\0\0\0\0\0\0\0\0\0\0\0\0\3\1\0\0__ZN3stk3con20set_console_handlersEPFcvEPFvPKcES6_@12\0\0\0\0\0\0\0\0\0\0\0\0\13\1\0\0__ZN3stk3con13getch_handlerE\0\0\0\0\0\0\0\0\0\0\0\0\247\1\0\0__ZN3stk3con13print_handlerE\0\0\0\0\0\0\0\0\0\0\0\0\253\1\0\0__ZN3stk3con13error_handlerE\0\0\0\0\0\0\0\0\0\0\0\0\257\1\0\0__ZN3stk3con6printsEPKcz\0\0\0\0\0\0\0\0\0\0\0\0\21\1\0\0__ZN3stk3con6printrEPKcc\0\0\0\0\0\0\0\0\0\0\0\0\30\1\0\0__ZN3stk3con6printeEPKcz\0\0\0\0\0\0\0\0\0\0\0\0\33\1\0\0__imp___iob\0\0\2\0\0\0\0\0\0\0\0\0\234\1\0\0___gxx_personality_v0\0\0\2\0\0\0\0\0\0\0\0\0\352\0\0\0_fgetc\0\0\2\0\0\0\0\0\0\0\0\0?\1\0\0__ZN3stk3mem4freeEPv@4\0\0\2\0\0\0\0\0\0\0\0\0O\1\0\0__wassert\0\0\2\0\0\0\0\0\0\0\0\0W\1\0\0__ZN3stk4cstr7reallocEPcj@8\0\0\2\0\0\0\0\0\0\0\0\0`\1\0\0___ms_vsnprintf\0\0\2\0\0\0\0\0\0\0\0\0o\1\0\0_atexit\0\0\2\0\0\0\0\0\0\0\0\0t\1\0\0__ZN3stk4cstr5allocEj@4\0\0\2\0\0\0\0\0\0\0\0\0z\1\0\0__ZN3stk4time7wait_usEy@8\0\0\2\0\0\0\0\0\0\0\0\0\202\1\0\0__ZN3stk3cpu5rdtscEv\0\0\2\0\0\0\0\0\0\0\0\0\211\1\0\0__ZN3stk3mem3movEPvPKvj@12\0\0\2\0\0\0\0\0"
	.ascii "\0\0\0\0\221\1\0\0__ZN3stk4cstr3lenEPKc@4\0\0\2\0\0\0\0\0\0\0\0\0\227\1\0\0"
	.text
	.section	.gnu.lto_.opts,"dr0"
	.ascii "'-fno-trapv' '-dD' '-malign-double' '-momit-leaf-frame-pointer' '-m32' '-mfpmath=sse' '-mpreferred-stack-boundary=8' '-mmmx' '-msse' '-msse2' '-mthreads' '-mtune=generic' '-march=i686' '-g' '-g' '-O3' '-fno-use-linker-plugin' '-fverbose-asm' '-fstrict-aliasing' '-fwrapv' '-funroll-loops' '-flto' '-fexceptions'\0"
	.text
	.section	.text.unlikely,"x"
LCOLDB0:
	.text
LHOTB0:
	.p2align 4,,15
	.section	.text.unlikely,"x"
Ltext_cold0:
	.text
	.globl	__ZN3stk3con14stdinp_handlerEv@0
	.def	__ZN3stk3con14stdinp_handlerEv@0;	.scl	2;	.type	32;	.endef
__ZN3stk3con14stdinp_handlerEv@0:
LFB706:
	.file 1 "io/stk_console.cpp"
	.loc 1 29 0
	.cfi_startproc
	subl	$508, %esp	 #,
	.cfi_def_cfa_offset 512
	.loc 1 30 0
	movl	__imp___iob, %eax	 # _imp___iob, _imp___iob
	movl	%eax, (%esp)	 # _imp___iob,
	call	_fgetc	 #
LVL0:
	.loc 1 31 0
	addl	$508, %esp	 #,
	.cfi_def_cfa_offset 4
	ret
	.cfi_endproc
LFE706:
	.section	.text.unlikely,"x"
LCOLDE0:
	.text
LHOTE0:
	.section	.text.unlikely,"x"
LCOLDB1:
	.text
LHOTB1:
	.p2align 4,,15
	.globl	__ZN3stk3con14stdout_handlerEPKc@4
	.def	__ZN3stk3con14stdout_handlerEPKc@4;	.scl	2;	.type	32;	.endef
__ZN3stk3con14stdout_handlerEPKc@4:
LFB707:
	.loc 1 35 0
	.cfi_startproc
LVL1:
	subl	$508, %esp	 #,
	.cfi_def_cfa_offset 512
	.loc 1 36 0
	movl	__imp___iob, %eax	 # _imp___iob, tmp90
	movl	512(%esp), %edx	 # a_text, a_text
	addl	$32, %eax	 #, tmp88
	movl	%eax, 4(%esp)	 # tmp88,
	movl	%edx, (%esp)	 # a_text,
	call	_fputs	 #
LVL2:
	.loc 1 37 0
	addl	$508, %esp	 #,
	.cfi_def_cfa_offset 4
	ret	$4	 #
	.cfi_endproc
LFE707:
	.section	.text.unlikely,"x"
LCOLDE1:
	.text
LHOTE1:
	.section	.text.unlikely,"x"
LCOLDB2:
	.text
LHOTB2:
	.p2align 4,,15
	.globl	__ZN3stk3con14stderr_handlerEPKc@4
	.def	__ZN3stk3con14stderr_handlerEPKc@4;	.scl	2;	.type	32;	.endef
__ZN3stk3con14stderr_handlerEPKc@4:
LFB708:
	.loc 1 41 0
	.cfi_startproc
LVL3:
	subl	$508, %esp	 #,
	.cfi_def_cfa_offset 512
	.loc 1 42 0
	movl	__imp___iob, %eax	 # _imp___iob, tmp90
	movl	512(%esp), %edx	 # a_text, a_text
	addl	$64, %eax	 #, tmp88
	movl	%eax, 4(%esp)	 # tmp88,
	movl	%edx, (%esp)	 # a_text,
	call	_fputs	 #
LVL4:
	.loc 1 43 0
	addl	$508, %esp	 #,
	.cfi_def_cfa_offset 4
	ret	$4	 #
	.cfi_endproc
LFE708:
	.section	.text.unlikely,"x"
LCOLDE2:
	.text
LHOTE2:
	.section	.text.unlikely,"x"
LCOLDB3:
	.text
LHOTB3:
	.p2align 4,,15
	.globl	__ZN3stk3con6atexitEv
	.def	__ZN3stk3con6atexitEv;	.scl	2;	.type	32;	.endef
__ZN3stk3con6atexitEv:
LFB712:
	.loc 1 72 0
	.cfi_startproc
	.cfi_personality 0,___gxx_personality_v0
	.cfi_lsda 0,LLSDA712
	.loc 1 73 0
	movl	__ZL14s_print_buffer, %eax	 # s_print_buffer, D.30210
	testl	%eax, %eax	 # D.30210
	je	L14	 #,
	.loc 1 73 0 is_stmt 0 discriminator 1
	movl	__ZL19s_print_buffer_size, %edx	 # s_print_buffer_size,
	testl	%edx, %edx	 #
	jle	L14	 #,
LVL5:
	.loc 1 72 0 is_stmt 1
	subl	$508, %esp	 #,
	.cfi_def_cfa_offset 512
LBB24:
LBB25:
	.file 2 "io/./../text/./../mem/stk_mem.h"
	.loc 2 83 0
	movl	%eax, (%esp)	 # D.30210,
	call	__ZN3stk3mem4freeEPv@4	 #
	.cfi_def_cfa_offset 508
LVL6:
	subl	$4, %esp	 #,
	.cfi_def_cfa_offset 512
LBE25:
LBE24:
	.loc 1 74 0
	movl	$0, __ZL14s_print_buffer	 #, s_print_buffer
	movl	$0, __ZL19s_print_buffer_size	 #, s_print_buffer_size
	.loc 1 76 0
	addl	$508, %esp	 #,
	.cfi_def_cfa_offset 4
L14:
	rep ret
	.cfi_endproc
LFE712:
	.def	___gxx_personality_v0;	.scl	2;	.type	32;	.endef
	.section	.gcc_except_table,"w"
LLSDA712:
	.byte	0xff
	.byte	0xff
	.byte	0x1
	.uleb128 LLSDACSE712-LLSDACSB712
LLSDACSB712:
LLSDACSE712:
	.text
	.section	.text.unlikely,"x"
LCOLDE3:
	.text
LHOTE3:
	.section	.text.unlikely,"x"
LCOLDB4:
	.text
LHOTB4:
	.p2align 4,,15
	.globl	__ZN3stk3con20set_console_handlersEPFcvEPFvPKcES6_@12
	.def	__ZN3stk3con20set_console_handlersEPFcvEPFvPKcES6_@12;	.scl	2;	.type	32;	.endef
__ZN3stk3con20set_console_handlersEPFcvEPFvPKcES6_@12:
LFB705:
	.loc 1 21 0
	.cfi_startproc
LVL7:
	.loc 1 21 0
	movl	4(%esp), %ecx	 # a_getch_event_handler, a_getch_event_handler
	movl	8(%esp), %edx	 # a_print_event_handler, a_print_event_handler
	movl	12(%esp), %eax	 # a_error_event_handler, a_error_event_handler
	.loc 1 22 0
	testl	%ecx, %ecx	 # a_getch_event_handler
	je	L17	 #,
	.loc 1 22 0 is_stmt 0 discriminator 1
	movl	%ecx, __ZN3stk3con13getch_handlerE	 # a_getch_event_handler, getch_handler
LVL8:
L17:
	.loc 1 23 0 is_stmt 1
	testl	%edx, %edx	 # a_print_event_handler
	je	L18	 #,
	.loc 1 23 0 is_stmt 0 discriminator 1
	movl	%edx, __ZN3stk3con13print_handlerE	 # a_print_event_handler, print_handler
L18:
	.loc 1 24 0 is_stmt 1
	testl	%eax, %eax	 # a_error_event_handler
	je	L16	 #,
	.loc 1 24 0 is_stmt 0 discriminator 1
	movl	%eax, __ZN3stk3con13error_handlerE	 # a_error_event_handler, error_handler
L16:
	ret	$12	 #
	.cfi_endproc
LFE705:
	.section	.text.unlikely,"x"
LCOLDE4:
	.text
LHOTE4:
	.section	.text.unlikely,"x"
LCOLDB5:
	.text
LHOTB5:
	.p2align 4,,15
	.globl	__ZN3stk3con5getchEv@0
	.def	__ZN3stk3con5getchEv@0;	.scl	2;	.type	32;	.endef
__ZN3stk3con5getchEv@0:
LFB709:
	.loc 1 47 0 is_stmt 1
	.cfi_startproc
	.loc 1 48 0
	movl	__ZN3stk3con13getch_handlerE, %eax	 # getch_handler, D.30219
	testl	%eax, %eax	 # D.30219
	je	L30	 #,
	.loc 1 48 0 is_stmt 0 discriminator 1
	jmp	*%eax	 # D.30219
LVL9:
	.p2align 4,,10
L30:
	.loc 1 47 0 is_stmt 1
	subl	$508, %esp	 #,
	.cfi_def_cfa_offset 512
LBB30:
LBB31:
	.loc 1 30 0
	movl	__imp___iob, %edx	 # _imp___iob, _imp___iob
	movl	%edx, (%esp)	 # _imp___iob,
	call	_fgetc	 #
LVL10:
LBE31:
LBE30:
	.loc 1 50 0
	addl	$508, %esp	 #,
	.cfi_def_cfa_offset 4
	ret
	.cfi_endproc
LFE709:
	.section	.text.unlikely,"x"
LCOLDE5:
	.text
LHOTE5:
	.section	.text.unlikely,"x"
LCOLDB6:
	.text
LHOTB6:
	.p2align 4,,15
	.globl	__ZN3stk3con5printEPKc@4
	.def	__ZN3stk3con5printEPKc@4;	.scl	2;	.type	32;	.endef
__ZN3stk3con5printEPKc@4:
LFB710:
	.loc 1 54 0
	.cfi_startproc
LVL11:
	pushl	%ebp	 #
	.cfi_def_cfa_offset 8
	.cfi_offset 5, -8
	movl	%esp, %ebp	 #,
	.cfi_def_cfa_register 5
	subl	$504, %esp	 #,
	.loc 1 55 0
	movl	__ZN3stk3con13print_handlerE, %eax	 # print_handler, D.30231
	.loc 1 54 0
	movl	8(%ebp), %edx	 # a_text, a_text
	.loc 1 55 0
	testl	%eax, %eax	 # D.30231
	je	L33	 #,
	.loc 1 57 0 discriminator 1
	leave
	.cfi_remember_state
	.cfi_restore 5
	.cfi_def_cfa 4, 4
	.loc 1 55 0 discriminator 1
	jmp	*%eax	 # D.30231
	.cfi_def_cfa_offset 0
LVL12:
	.p2align 4,,10
L33:
	.cfi_restore_state
LBB36:
LBB37:
LBB38:
	.loc 1 36 0
	movl	__imp___iob, %ecx	 # _imp___iob, tmp91
	movl	%edx, (%esp)	 # a_text,
	addl	$32, %ecx	 #, tmp89
	movl	%ecx, 4(%esp)	 # tmp89,
	call	_fputs	 #
LVL13:
LBE38:
LBE37:
LBE36:
	.loc 1 57 0
	leave
	.cfi_restore 5
	.cfi_def_cfa 4, 4
LVL14:
	ret	$4	 #
	.cfi_endproc
LFE710:
	.section	.text.unlikely,"x"
LCOLDE6:
	.text
LHOTE6:
	.section	.text.unlikely,"x"
LCOLDB7:
	.text
LHOTB7:
	.p2align 4,,15
	.globl	__ZN3stk3con5errorEPKc@4
	.def	__ZN3stk3con5errorEPKc@4;	.scl	2;	.type	32;	.endef
__ZN3stk3con5errorEPKc@4:
LFB711:
	.loc 1 61 0
	.cfi_startproc
LVL15:
	pushl	%ebp	 #
	.cfi_def_cfa_offset 8
	.cfi_offset 5, -8
	movl	%esp, %ebp	 #,
	.cfi_def_cfa_register 5
	subl	$504, %esp	 #,
	.loc 1 62 0
	movl	__ZN3stk3con13error_handlerE, %eax	 # error_handler, D.30242
	.loc 1 61 0
	movl	8(%ebp), %edx	 # a_text, a_text
	.loc 1 62 0
	testl	%eax, %eax	 # D.30242
	je	L36	 #,
	.loc 1 64 0 discriminator 1
	leave
	.cfi_remember_state
	.cfi_restore 5
	.cfi_def_cfa 4, 4
	.loc 1 62 0 discriminator 1
	jmp	*%eax	 # D.30242
	.cfi_def_cfa_offset 0
LVL16:
	.p2align 4,,10
L36:
	.cfi_restore_state
LBB43:
LBB44:
LBB45:
	.loc 1 42 0
	movl	__imp___iob, %ecx	 # _imp___iob, tmp91
	movl	%edx, (%esp)	 # a_text,
	addl	$64, %ecx	 #, tmp89
	movl	%ecx, 4(%esp)	 # tmp89,
	call	_fputs	 #
LVL17:
LBE45:
LBE44:
LBE43:
	.loc 1 64 0
	leave
	.cfi_restore 5
	.cfi_def_cfa 4, 4
LVL18:
	ret	$4	 #
	.cfi_endproc
LFE711:
	.section	.text.unlikely,"x"
LCOLDE7:
	.text
LHOTE7:
	.section .rdata,"dr"
	.align 4
LC8:
	.ascii "i\0o\0\\\0s\0t\0k\0_\0c\0o\0n\0s\0o\0l\0e\0.\0c\0p\0p\0\0\0"
	.align 4
LC9:
	.ascii "s\0_\0p\0r\0i\0n\0t\0_\0b\0u\0f\0f\0e\0r\0!\0=\0N\0U\0L\0L\0\0\0"
	.section	.text.unlikely,"x"
LCOLDB10:
	.text
LHOTB10:
	.p2align 4,,15
	.globl	__ZN3stk3con6printsEPKcz
	.def	__ZN3stk3con6printsEPKcz;	.scl	2;	.type	32;	.endef
__ZN3stk3con6printsEPKcz:
LFB713:
	.loc 1 81 0
	.cfi_startproc
LVL19:
	pushl	%ebp	 #
	.cfi_def_cfa_offset 8
	.cfi_offset 5, -8
	pushl	%edi	 #
	.cfi_def_cfa_offset 12
	.cfi_offset 7, -12
	pushl	%esi	 #
	.cfi_def_cfa_offset 16
	.cfi_offset 6, -16
	pushl	%ebx	 #
	.cfi_def_cfa_offset 20
	.cfi_offset 3, -20
	subl	$748, %esp	 #,
	.cfi_def_cfa_offset 768
	movl	768(%esp), %esi	 # a_format, a_format
	jmp	L74	 #
	.p2align 4,,10
L64:
LBB56:
	.loc 1 84 0 discriminator 2
	movl	$0, (%esp)	 #,
	movl	$0, 4(%esp)	 #,
	call	__ZN3stk4time7wait_usEy@8	 #
	.cfi_def_cfa_offset 760
LVL20:
	subl	$8, %esp	 #,
	.cfi_def_cfa_offset 768
L74:
	.loc 1 84 0
	movl	__ZZN3stk3con6printsEPKczE9__shared1, %eax	 # __shared1, D.30253
	movl	__ZZN3stk3con6printsEPKczE9__shared1+4, %edx	 # __shared1, D.30253
	movl	%edx, %edi	 # D.30253, tmp134
	orl	%eax, %edi	 # D.30253, tmp134
	jne	L64	 #,
	call	__ZN3stk3cpu5rdtscEv	 #
LVL21:
	movl	%eax, __ZZN3stk3con6printsEPKczE9__shared1	 # __unique1, __shared1
	movl	%edx, __ZZN3stk3con6printsEPKczE9__shared1+4	 # __unique1, __shared1
/APP
 # 84 "io\stk_console.cpp" 1
	mfence
 # 0 "" 2
/NO_APP
	movl	__ZZN3stk3con6printsEPKczE9__shared1, %ecx	 # __shared1, D.30253
	movl	__ZZN3stk3con6printsEPKczE9__shared1+4, %ebx	 # __shared1, D.30253
	movl	%ebx, %ebp	 # D.30253, tmp135
	orl	%ecx, %ebp	 # D.30253, tmp135
	je	L41	 #,
LVL22:
	.p2align 4,,10
L40:
	movl	__ZZN3stk3con6printsEPKczE9__shared1, %edi	 # __shared1, D.30253
	movl	__ZZN3stk3con6printsEPKczE9__shared1+4, %ecx	 # __shared1, D.30253
	movl	%edi, %ebp	 # D.30253, tmp115
	movl	%ecx, %ebx	 # D.30253, tmp114
	xorl	%edx, %ebx	 # __unique1, tmp114
	xorl	%eax, %ebp	 # __unique1, tmp115
	orl	%ebp, %ebx	 # tmp115, tmp137
	je	L41	 #,
	.loc 1 84 0 is_stmt 0 discriminator 12
	movl	$0, (%esp)	 #,
	movl	$0, 4(%esp)	 #,
	movl	%eax, 504(%esp)	 # __unique1, %sfp
	movl	%edx, 508(%esp)	 # __unique1, %sfp
	call	__ZN3stk4time7wait_usEy@8	 #
	.cfi_def_cfa_offset 760
LVL23:
	movl	__ZZN3stk3con6printsEPKczE9__shared1, %edx	 # __shared1, D.30253
	movl	__ZZN3stk3con6printsEPKczE9__shared1+4, %eax	 # __shared1, D.30253
	subl	$8, %esp	 #,
	.cfi_def_cfa_offset 768
	movl	%eax, %edi	 # D.30253, tmp138
	movl	504(%esp), %eax	 # %sfp, __unique1
	orl	%edx, %edi	 # D.30253, tmp138
	movl	508(%esp), %edx	 # %sfp, __unique1
	jne	L40	 #,
L41:
	.loc 1 85 0 is_stmt 1
	movl	__ZL19s_print_buffer_size, %ebx	 # s_print_buffer_size, D.30255
	testl	%ebx, %ebx	 # D.30255
	je	L76	 #,
L54:
	movl	__ZL14s_print_buffer, %eax	 # s_print_buffer, D.30256
	leal	772(%esp), %ebp	 #, tmp133
	.p2align 4,,10
L50:
LVL24:
LBB57:
	.loc 1 95 0
	subl	$1, %ebx	 #, D.30255
LVL25:
LBB58:
LBB59:
	.file 3 "C:/Qt/Qt5.5.0/Tools/mingw492_32/i686-w64-mingw32/include/stdio.h"
	.loc 3 545 0
	movl	%ebp, 12(%esp)	 # tmp133,
	movl	%esi, 8(%esp)	 # a_format,
	movl	%ebx, 4(%esp)	 # D.30255,
	movl	%eax, (%esp)	 # D.30256,
	call	___ms_vsnprintf	 #
LVL26:
LBE59:
LBE58:
	.loc 1 98 0
	movl	__ZL19s_print_buffer_size, %ecx	 # s_print_buffer_size, D.30255
	.loc 1 95 0
	leal	1(%eax), %ebx	 #, needed_size
LVL27:
	.loc 1 98 0
	cmpl	%ecx, %ebx	 # D.30255, needed_size
	jg	L77	 #,
	.loc 1 105 0 discriminator 1
	cmpl	$4095, %ebx	 #, needed_size
	jg	L48	 #,
	cmpl	$4096, %ecx	 #, D.30255
	jle	L48	 #,
	.loc 1 106 0
	movl	__ZL14s_print_buffer, %edx	 # s_print_buffer, s_print_buffer
	movl	$4096, 4(%esp)	 #,
	movl	%edx, (%esp)	 # s_print_buffer,
	call	__ZN3stk4cstr7reallocEPcj@8	 #
	.cfi_def_cfa_offset 760
LVL28:
	subl	$8, %esp	 #,
	.cfi_def_cfa_offset 768
	.loc 1 107 0
	testl	%eax, %eax	 # D.30256
	.loc 1 106 0
	movl	%eax, __ZL14s_print_buffer	 # D.30256, s_print_buffer
	.loc 1 107 0
	je	L78	 #,
L49:
	.loc 1 108 0
	movl	$4096, __ZL19s_print_buffer_size	 #, s_print_buffer_size
	.loc 1 109 0
	movl	$4096, %ebx	 #, D.30255
LVL29:
LBE57:
	.loc 1 117 0
	jmp	L50	 #
LVL30:
	.p2align 4,,10
L77:
LBB60:
	.loc 1 99 0
	movl	__ZL14s_print_buffer, %ecx	 # s_print_buffer, s_print_buffer
	movl	%ebx, 4(%esp)	 # needed_size,
	movl	%ecx, (%esp)	 # s_print_buffer,
	call	__ZN3stk4cstr7reallocEPcj@8	 #
	.cfi_def_cfa_offset 760
LVL31:
	subl	$8, %esp	 #,
	.cfi_def_cfa_offset 768
	.loc 1 100 0
	testl	%eax, %eax	 # D.30256
	.loc 1 99 0
	movl	%eax, __ZL14s_print_buffer	 # D.30256, s_print_buffer
	.loc 1 100 0
	je	L79	 #,
L46:
	.loc 1 101 0
	movl	%ebx, __ZL19s_print_buffer_size	 # needed_size, s_print_buffer_size
	.loc 1 102 0
	jmp	L50	 #
	.p2align 4,,10
L48:
LBE60:
LBB61:
LBB62:
	.loc 1 55 0
	movl	__ZN3stk3con13print_handlerE, %eax	 # print_handler, D.30259
LBE62:
LBE61:
	.loc 1 116 0
	movl	__ZL14s_print_buffer, %esi	 # s_print_buffer, D.30256
LVL32:
LBB68:
LBB66:
	.loc 1 55 0
	testl	%eax, %eax	 # D.30259
	je	L51	 #,
	movl	%esi, (%esp)	 # D.30256,
	call	*%eax	 # D.30259
	.cfi_def_cfa_offset 764
LVL33:
	subl	$4, %esp	 #,
	.cfi_def_cfa_offset 768
L52:
LBE66:
LBE68:
	.loc 1 117 0
	movl	$0, __ZZN3stk3con6printsEPKczE9__shared1	 #, __shared1
	movl	$0, __ZZN3stk3con6printsEPKczE9__shared1+4	 #, __shared1
LBE56:
	.loc 1 118 0
	addl	$748, %esp	 #,
	.cfi_remember_state
	.cfi_def_cfa_offset 20
	popl	%ebx	 #
	.cfi_restore 3
	.cfi_def_cfa_offset 16
LVL34:
	popl	%esi	 #
	.cfi_restore 6
	.cfi_def_cfa_offset 12
LVL35:
	popl	%edi	 #
	.cfi_restore 7
	.cfi_def_cfa_offset 8
	popl	%ebp	 #
	.cfi_restore 5
	.cfi_def_cfa_offset 4
LVL36:
	ret
LVL37:
	.p2align 4,,10
L78:
	.cfi_restore_state
LBB71:
LBB69:
	.loc 1 107 0 discriminator 2
	movl	$107, 8(%esp)	 #,
	movl	$LC8, 4(%esp)	 #,
	movl	$LC9, (%esp)	 #,
	call	__wassert	 #
LVL38:
	movl	__ZL14s_print_buffer, %eax	 # s_print_buffer, D.30256
	jmp	L49	 #
	.p2align 4,,10
L79:
	.loc 1 100 0 discriminator 2
	movl	$100, 8(%esp)	 #,
	movl	$LC8, 4(%esp)	 #,
	movl	$LC9, (%esp)	 #,
	call	__wassert	 #
LVL39:
	movl	__ZL14s_print_buffer, %eax	 # s_print_buffer, D.30256
	jmp	L46	 #
LVL40:
	.p2align 4,,10
L76:
LBE69:
	.loc 1 86 0
	movl	$4096, (%esp)	 #,
	call	__ZN3stk4cstr5allocEj@4	 #
	.cfi_def_cfa_offset 764
LVL41:
	subl	$4, %esp	 #,
	.cfi_def_cfa_offset 768
	.loc 1 87 0
	testl	%eax, %eax	 # D.30256
	.loc 1 86 0
	movl	%eax, __ZL14s_print_buffer	 # D.30256, s_print_buffer
	.loc 1 87 0
	je	L80	 #,
L44:
	.loc 1 89 0
	movl	$__ZN3stk3con6atexitEv, (%esp)	 #,
	.loc 1 88 0
	movl	$4096, __ZL19s_print_buffer_size	 #, s_print_buffer_size
	.loc 1 89 0
	call	_atexit	 #
LVL42:
	movl	__ZL19s_print_buffer_size, %ebx	 # s_print_buffer_size, D.30255
	jmp	L54	 #
LVL43:
	.p2align 4,,10
L51:
LBB70:
LBB67:
LBB63:
LBB64:
LBB65:
	.loc 1 36 0
	movl	__imp___iob, %edi	 # _imp___iob, tmp146
	movl	%esi, (%esp)	 # D.30256,
	addl	$32, %edi	 #, tmp131
	movl	%edi, 4(%esp)	 # tmp131,
	call	_fputs	 #
LVL44:
	jmp	L52	 #
LVL45:
L80:
LBE65:
LBE64:
LBE63:
LBE67:
LBE70:
	.loc 1 87 0 discriminator 2
	movl	$87, 8(%esp)	 #,
	movl	$LC8, 4(%esp)	 #,
	movl	$LC9, (%esp)	 #,
	call	__wassert	 #
LVL46:
	jmp	L44	 #
LBE71:
	.cfi_endproc
LFE713:
	.section	.text.unlikely,"x"
LCOLDE10:
	.text
LHOTE10:
	.section	.text.unlikely,"x"
LCOLDB11:
	.text
LHOTB11:
	.p2align 4,,15
	.globl	__ZN3stk3con6printrEPKcc
	.def	__ZN3stk3con6printrEPKcc;	.scl	2;	.type	32;	.endef
__ZN3stk3con6printrEPKcc:
LFB714:
	.loc 1 122 0
	.cfi_startproc
LVL47:
	pushl	%ebp	 #
	.cfi_def_cfa_offset 8
	.cfi_offset 5, -8
	pushl	%edi	 #
	.cfi_def_cfa_offset 12
	.cfi_offset 7, -12
	pushl	%esi	 #
	.cfi_def_cfa_offset 16
	.cfi_offset 6, -16
	pushl	%ebx	 #
	.cfi_def_cfa_offset 20
	.cfi_offset 3, -20
	subl	$748, %esp	 #,
	.cfi_def_cfa_offset 768
LBB80:
	.loc 1 123 0
	movl	768(%esp), %eax	 # a_text, tmp163
LBE80:
	.loc 1 122 0
	movl	772(%esp), %ebx	 # an_times, an_times
LBB90:
	.loc 1 123 0
	movl	%eax, (%esp)	 # tmp163,
	call	__ZN3stk4cstr3lenEPKc@4	 #
	.cfi_def_cfa_offset 764
LVL48:
	subl	$4, %esp	 #,
	.cfi_def_cfa_offset 768
	.loc 1 124 0
	testl	%eax, %eax	 # D.30279
	.loc 1 123 0
	movl	%eax, %esi	 #, D.30279
LVL49:
	.loc 1 124 0
	je	L81	 #,
	testb	%bl, %bl	 # an_times
	je	L81	 #,
	.loc 1 128 0
	movl	__ZZN3stk3con6printrEPKccE9__shared1, %ebp	 # __shared1, D.30282
	.loc 1 126 0
	movsbl	%bl, %edi	 # an_times, D.30281
	.loc 1 128 0
	movl	__ZZN3stk3con6printrEPKccE9__shared1+4, %edx	 # __shared1, D.30282
	.loc 1 126 0
	imull	%eax, %edi	 # D.30279, D.30281
	.loc 1 128 0
	movl	%edx, %ecx	 # D.30282, tmp142
	.loc 1 126 0
	addl	$1, %edi	 #, f_buffer_needed
LVL50:
	.loc 1 128 0
	orl	%ebp, %ecx	 # D.30282, tmp142
	je	L86	 #,
LVL51:
	.p2align 4,,10
L102:
	.loc 1 128 0 is_stmt 0 discriminator 2
	movl	$0, (%esp)	 #,
	movl	$0, 4(%esp)	 #,
	call	__ZN3stk4time7wait_usEy@8	 #
	.cfi_def_cfa_offset 760
LVL52:
	movl	__ZZN3stk3con6printrEPKccE9__shared1, %eax	 # __shared1, D.30282
	movl	__ZZN3stk3con6printrEPKccE9__shared1+4, %ebx	 # __shared1, D.30282
	subl	$8, %esp	 #,
	.cfi_def_cfa_offset 768
	movl	%ebx, %ebp	 # D.30282, tmp144
	orl	%eax, %ebp	 # D.30282, tmp144
	jne	L102	 #,
L86:
	.loc 1 128 0
	call	__ZN3stk3cpu5rdtscEv	 #
LVL53:
	movl	%eax, __ZZN3stk3con6printrEPKccE9__shared1	 # __unique1, __shared1
	movl	%edx, __ZZN3stk3con6printrEPKccE9__shared1+4	 # __unique1, __shared1
/APP
 # 128 "io\stk_console.cpp" 1
	mfence
 # 0 "" 2
/NO_APP
	movl	__ZZN3stk3con6printrEPKccE9__shared1, %ecx	 # __shared1, D.30282
	movl	__ZZN3stk3con6printrEPKccE9__shared1+4, %ebx	 # __shared1, D.30282
	movl	%ebx, %ebp	 # D.30282, tmp143
	orl	%ecx, %ebp	 # D.30282, tmp143
	je	L85	 #,
LVL54:
	.p2align 4,,10
L84:
	movl	__ZZN3stk3con6printrEPKccE9__shared1, %ecx	 # __shared1, D.30282
	movl	__ZZN3stk3con6printrEPKccE9__shared1+4, %ebx	 # __shared1, D.30282
	movl	%ecx, 504(%esp)	 # D.30282, %sfp
	movl	504(%esp), %ebp	 # %sfp, tmp129
	movl	%ebx, 508(%esp)	 # D.30282, %sfp
	xorl	%edx, %ebx	 # __unique1, tmp128
	xorl	%eax, %ebp	 # __unique1, tmp129
	orl	%ebp, %ebx	 # tmp129, tmp145
	je	L85	 #,
	.loc 1 128 0 discriminator 12
	movl	$0, (%esp)	 #,
	movl	$0, 4(%esp)	 #,
	movl	%eax, 504(%esp)	 # __unique1, %sfp
	movl	%edx, 508(%esp)	 # __unique1, %sfp
	call	__ZN3stk4time7wait_usEy@8	 #
	.cfi_def_cfa_offset 760
LVL55:
	movl	__ZZN3stk3con6printrEPKccE9__shared1, %edx	 # __shared1, D.30282
	movl	__ZZN3stk3con6printrEPKccE9__shared1+4, %eax	 # __shared1, D.30282
	subl	$8, %esp	 #,
	.cfi_def_cfa_offset 768
	movl	%eax, %ecx	 # D.30282, tmp146
	movl	504(%esp), %eax	 # %sfp, __unique1
	orl	%edx, %ecx	 # D.30282, tmp146
	movl	508(%esp), %edx	 # %sfp, __unique1
	jne	L84	 #,
L85:
	.loc 1 129 0 is_stmt 1
	movl	__ZL19s_print_buffer_size, %ebx	 # s_print_buffer_size, D.30281
	cmpl	%ebx, %edi	 # D.30281, f_buffer_needed
	jle	L108	 #,
	.loc 1 130 0
	testl	%ebx, %ebx	 # D.30281
	je	L109	 #,
	.loc 1 135 0
	movl	__ZL14s_print_buffer, %ebp	 # s_print_buffer, s_print_buffer
	movl	%edi, 4(%esp)	 # f_buffer_needed,
	movl	%ebp, (%esp)	 # s_print_buffer,
	call	__ZN3stk4cstr7reallocEPcj@8	 #
	.cfi_def_cfa_offset 760
LVL56:
	subl	$8, %esp	 #,
	.cfi_def_cfa_offset 768
	movl	%eax, __ZL14s_print_buffer	 # D.30278, s_print_buffer
L89:
	.loc 1 137 0
	movl	%edi, __ZL19s_print_buffer_size	 # f_buffer_needed, s_print_buffer_size
	jmp	L96	 #
	.p2align 4,,10
L108:
	movl	__ZL14s_print_buffer, %eax	 # s_print_buffer, D.30278
L96:
LBB81:
	.loc 1 140 0
	testl	%edi, %edi	 # f_buffer_needed
LBE81:
	.loc 1 139 0
	movb	$0, (%eax)	 #, *_78
LVL57:
LBB82:
	.loc 1 140 0
	jle	L90	 #,
	.loc 1 140 0 is_stmt 0 discriminator 3
	xorl	%ebx, %ebx	 # i
LVL58:
	.p2align 4,,10
L92:
	movl	768(%esp), %edx	 # a_text, tmp156
	addl	%ebx, %eax	 # i, D.30278
	movl	%esi, 8(%esp)	 # D.30279,
	movl	%eax, (%esp)	 # D.30278,
	addl	%esi, %ebx	 # D.30279, i
LVL59:
	movl	%edx, 4(%esp)	 # tmp156,
	call	__ZN3stk3mem3movEPvPKvj@12	 #
	.cfi_def_cfa_offset 756
LVL60:
	subl	$12, %esp	 #,
	.cfi_def_cfa_offset 768
	cmpl	%ebx, %edi	 # i, f_buffer_needed
	movl	__ZL14s_print_buffer, %eax	 # s_print_buffer, D.30278
	jg	L92	 #,
LVL61:
L90:
LBE82:
	.loc 1 142 0 is_stmt 1
	movb	$0, -1(%eax,%edi)	 #, *_51
LVL62:
LBB83:
LBB84:
	.loc 1 55 0
	movl	__ZN3stk3con13print_handlerE, %esi	 # print_handler, D.30287
LVL63:
	testl	%esi, %esi	 # D.30287
	je	L93	 #,
	movl	%eax, (%esp)	 # D.30278,
	call	*%esi	 # D.30287
	.cfi_def_cfa_offset 764
LVL64:
	subl	$4, %esp	 #,
	.cfi_def_cfa_offset 768
LVL65:
L94:
LBE84:
LBE83:
	.loc 1 144 0
	movl	$0, __ZZN3stk3con6printrEPKccE9__shared1	 #, __shared1
	movl	$0, __ZZN3stk3con6printrEPKccE9__shared1+4	 #, __shared1
L81:
LBE90:
	.loc 1 145 0
	addl	$748, %esp	 #,
	.cfi_remember_state
	.cfi_def_cfa_offset 20
	popl	%ebx	 #
	.cfi_restore 3
	.cfi_def_cfa_offset 16
	popl	%esi	 #
	.cfi_restore 6
	.cfi_def_cfa_offset 12
	popl	%edi	 #
	.cfi_restore 7
	.cfi_def_cfa_offset 8
	popl	%ebp	 #
	.cfi_restore 5
	.cfi_def_cfa_offset 4
	ret
LVL66:
	.p2align 4,,10
L109:
	.cfi_restore_state
LBB91:
	.loc 1 131 0
	movl	%edi, (%esp)	 # f_buffer_needed,
	call	__ZN3stk4cstr5allocEj@4	 #
	.cfi_def_cfa_offset 764
LVL67:
	subl	$4, %esp	 #,
	.cfi_def_cfa_offset 768
	movl	%eax, __ZL14s_print_buffer	 # D.30278, s_print_buffer
	jmp	L89	 #
LVL68:
	.p2align 4,,10
L93:
LBB89:
LBB88:
LBB85:
LBB86:
LBB87:
	.loc 1 36 0
	movl	__imp___iob, %edi	 # _imp___iob, tmp154
LVL69:
	movl	%eax, (%esp)	 # D.30278,
	addl	$32, %edi	 #, tmp140
	movl	%edi, 4(%esp)	 # tmp140,
	call	_fputs	 #
LVL70:
	jmp	L94	 #
LBE87:
LBE86:
LBE85:
LBE88:
LBE89:
LBE91:
	.cfi_endproc
LFE714:
	.section	.text.unlikely,"x"
LCOLDE11:
	.text
LHOTE11:
	.section	.text.unlikely,"x"
LCOLDB12:
	.text
LHOTB12:
	.p2align 4,,15
	.globl	__ZN3stk3con6printeEPKcz
	.def	__ZN3stk3con6printeEPKcz;	.scl	2;	.type	32;	.endef
__ZN3stk3con6printeEPKcz:
LFB715:
	.loc 1 150 0
	.cfi_startproc
LVL71:
	pushl	%ebp	 #
	.cfi_def_cfa_offset 8
	.cfi_offset 5, -8
	pushl	%edi	 #
	.cfi_def_cfa_offset 12
	.cfi_offset 7, -12
	pushl	%esi	 #
	.cfi_def_cfa_offset 16
	.cfi_offset 6, -16
	pushl	%ebx	 #
	.cfi_def_cfa_offset 20
	.cfi_offset 3, -20
	subl	$748, %esp	 #,
	.cfi_def_cfa_offset 768
	movl	768(%esp), %esi	 # a_format, a_format
	jmp	L137	 #
	.p2align 4,,10
L129:
LBB102:
	.loc 1 153 0 discriminator 2
	movl	$0, (%esp)	 #,
	movl	$0, 4(%esp)	 #,
	call	__ZN3stk4time7wait_usEy@8	 #
	.cfi_def_cfa_offset 760
LVL72:
	subl	$8, %esp	 #,
	.cfi_def_cfa_offset 768
L137:
	.loc 1 153 0
	movl	__ZZN3stk3con6printeEPKczE9__shared1, %eax	 # __shared1, D.30297
	movl	__ZZN3stk3con6printeEPKczE9__shared1+4, %edx	 # __shared1, D.30297
	movl	%edx, %edi	 # D.30297, tmp122
	orl	%eax, %edi	 # D.30297, tmp122
	jne	L129	 #,
	call	__ZN3stk3cpu5rdtscEv	 #
LVL73:
	movl	%eax, __ZZN3stk3con6printeEPKczE9__shared1	 # __unique1, __shared1
	movl	%edx, __ZZN3stk3con6printeEPKczE9__shared1+4	 # __unique1, __shared1
/APP
 # 153 "io\stk_console.cpp" 1
	mfence
 # 0 "" 2
/NO_APP
	movl	__ZZN3stk3con6printeEPKczE9__shared1, %ecx	 # __shared1, D.30297
	movl	__ZZN3stk3con6printeEPKczE9__shared1+4, %ebx	 # __shared1, D.30297
	movl	%ebx, %ebp	 # D.30297, tmp123
	orl	%ecx, %ebp	 # D.30297, tmp123
	je	L113	 #,
LVL74:
	.p2align 4,,10
L112:
	movl	__ZZN3stk3con6printeEPKczE9__shared1, %edi	 # __shared1, D.30297
	movl	__ZZN3stk3con6printeEPKczE9__shared1+4, %ecx	 # __shared1, D.30297
	movl	%edi, %ebp	 # D.30297, tmp109
	movl	%ecx, %ebx	 # D.30297, tmp108
	xorl	%edx, %ebx	 # __unique1, tmp108
	xorl	%eax, %ebp	 # __unique1, tmp109
	orl	%ebp, %ebx	 # tmp109, tmp125
	je	L113	 #,
	.loc 1 153 0 is_stmt 0 discriminator 12
	movl	$0, (%esp)	 #,
	movl	$0, 4(%esp)	 #,
	movl	%eax, 504(%esp)	 # __unique1, %sfp
	movl	%edx, 508(%esp)	 # __unique1, %sfp
	call	__ZN3stk4time7wait_usEy@8	 #
	.cfi_def_cfa_offset 760
LVL75:
	movl	__ZZN3stk3con6printeEPKczE9__shared1, %edx	 # __shared1, D.30297
	movl	__ZZN3stk3con6printeEPKczE9__shared1+4, %eax	 # __shared1, D.30297
	subl	$8, %esp	 #,
	.cfi_def_cfa_offset 768
	movl	%eax, %edi	 # D.30297, tmp126
	movl	504(%esp), %eax	 # %sfp, __unique1
	orl	%edx, %edi	 # D.30297, tmp126
	movl	508(%esp), %edx	 # %sfp, __unique1
	jne	L112	 #,
L113:
	.loc 1 154 0 is_stmt 1
	movl	__ZL19s_print_buffer_size, %ebx	 # s_print_buffer_size, D.30298
	movl	__ZL14s_print_buffer, %eax	 # s_print_buffer, D.30301
	testl	%ebx, %ebx	 # D.30298
	je	L139	 #,
L123:
	leal	772(%esp), %ebp	 #, tmp121
	jmp	L119	 #
LVL76:
	.p2align 4,,10
L141:
LBB103:
	.loc 1 167 0
	movl	__ZL14s_print_buffer, %edi	 # s_print_buffer, s_print_buffer
	movl	%ecx, 4(%esp)	 # D.30298,
	movl	%edi, (%esp)	 # s_print_buffer,
	call	__ZN3stk4cstr7reallocEPcj@8	 #
	.cfi_def_cfa_offset 760
LVL77:
	subl	$8, %esp	 #,
	.cfi_def_cfa_offset 768
	.loc 1 168 0
	testl	%eax, %eax	 # D.30301
	.loc 1 167 0
	movl	%eax, __ZL14s_print_buffer	 # D.30301, s_print_buffer
	.loc 1 168 0
	je	L140	 #,
L118:
	.loc 1 169 0
	movl	%ebx, __ZL19s_print_buffer_size	 # needed_size, s_print_buffer_size
LVL78:
L119:
LBB104:
LBB105:
	.loc 3 545 0
	movl	%ebx, 4(%esp)	 # D.30298,
	movl	%ebp, 12(%esp)	 # tmp121,
	movl	%esi, 8(%esp)	 # a_format,
	movl	%eax, (%esp)	 # D.30301,
	call	___ms_vsnprintf	 #
LVL79:
LBE105:
LBE104:
	.loc 1 166 0
	movl	__ZL19s_print_buffer_size, %ecx	 # s_print_buffer_size, D.30298
	.loc 1 163 0
	leal	8(%eax), %ebx	 #, needed_size
LVL80:
	.loc 1 166 0
	cmpl	%ecx, %ebx	 # D.30298, needed_size
	jg	L141	 #,
LBE103:
LBB106:
LBB107:
	.loc 1 62 0
	movl	__ZN3stk3con13error_handlerE, %edx	 # error_handler, D.30303
LBE107:
LBE106:
	.loc 1 174 0
	movl	__ZL14s_print_buffer, %esi	 # s_print_buffer, D.30301
LVL81:
LBB113:
LBB111:
	.loc 1 62 0
	testl	%edx, %edx	 # D.30303
	je	L120	 #,
	movl	%esi, (%esp)	 # D.30301,
	call	*%edx	 # D.30303
	.cfi_def_cfa_offset 764
LVL82:
	subl	$4, %esp	 #,
	.cfi_def_cfa_offset 768
L121:
LBE111:
LBE113:
	.loc 1 175 0
	movl	$0, __ZZN3stk3con6printeEPKczE9__shared1	 #, __shared1
	movl	$0, __ZZN3stk3con6printeEPKczE9__shared1+4	 #, __shared1
LBE102:
	.loc 1 176 0
	addl	$748, %esp	 #,
	.cfi_remember_state
	.cfi_def_cfa_offset 20
	popl	%ebx	 #
	.cfi_restore 3
	.cfi_def_cfa_offset 16
LVL83:
	popl	%esi	 #
	.cfi_restore 6
	.cfi_def_cfa_offset 12
LVL84:
	popl	%edi	 #
	.cfi_restore 7
	.cfi_def_cfa_offset 8
	popl	%ebp	 #
	.cfi_restore 5
	.cfi_def_cfa_offset 4
LVL85:
	ret
LVL86:
	.p2align 4,,10
L140:
	.cfi_restore_state
LBB116:
LBB114:
	.loc 1 168 0 discriminator 2
	movl	$168, 8(%esp)	 #,
	movl	$LC8, 4(%esp)	 #,
	movl	$LC9, (%esp)	 #,
	call	__wassert	 #
LVL87:
	movl	__ZL14s_print_buffer, %eax	 # s_print_buffer, D.30301
	jmp	L118	 #
LVL88:
	.p2align 4,,10
L139:
LBE114:
	.loc 1 155 0
	movl	$__ZN3stk3con6atexitEv, (%esp)	 #,
	call	_atexit	 #
LVL89:
	.loc 1 156 0
	movl	$4096, (%esp)	 #,
	call	__ZN3stk4cstr5allocEj@4	 #
	.cfi_def_cfa_offset 764
LVL90:
	subl	$4, %esp	 #,
	.cfi_def_cfa_offset 768
	.loc 1 157 0
	testl	%eax, %eax	 # D.30301
	.loc 1 156 0
	movl	%eax, __ZL14s_print_buffer	 # D.30301, s_print_buffer
	.loc 1 157 0
	je	L142	 #,
L116:
	.loc 1 158 0
	movl	$4096, __ZL19s_print_buffer_size	 #, s_print_buffer_size
	movl	$4096, %ebx	 #, D.30298
	jmp	L123	 #
LVL91:
	.p2align 4,,10
L120:
LBB115:
LBB112:
LBB108:
LBB109:
LBB110:
	.loc 1 42 0
	movl	__imp___iob, %eax	 # _imp___iob, tmp134
	movl	%esi, (%esp)	 # D.30301,
	addl	$64, %eax	 #, tmp119
	movl	%eax, 4(%esp)	 # tmp119,
	call	_fputs	 #
LVL92:
	jmp	L121	 #
LVL93:
L142:
LBE110:
LBE109:
LBE108:
LBE112:
LBE115:
	.loc 1 157 0 discriminator 2
	movl	$157, 8(%esp)	 #,
	movl	$LC8, 4(%esp)	 #,
	movl	$LC9, (%esp)	 #,
	call	__wassert	 #
LVL94:
	movl	__ZL14s_print_buffer, %eax	 # s_print_buffer, D.30301
	jmp	L116	 #
LBE116:
	.cfi_endproc
LFE715:
	.section	.text.unlikely,"x"
LCOLDE12:
	.text
LHOTE12:
.lcomm __ZZN3stk3con6printeEPKczE9__shared1,8,8
.lcomm __ZZN3stk3con6printrEPKccE9__shared1,8,8
.lcomm __ZZN3stk3con6printsEPKczE9__shared1,8,8
	.globl	__ZN3stk3con13error_handlerE
	.data
	.align 4
__ZN3stk3con13error_handlerE:
	.long	__ZN3stk3con14stderr_handlerEPKc@4
	.globl	__ZN3stk3con13print_handlerE
	.align 4
__ZN3stk3con13print_handlerE:
	.long	__ZN3stk3con14stdout_handlerEPKc@4
	.globl	__ZN3stk3con13getch_handlerE
	.align 4
__ZN3stk3con13getch_handlerE:
	.long	__ZN3stk3con14stdinp_handlerEv@0
.lcomm __ZL14s_print_buffer,4,4
.lcomm __ZL19s_print_buffer_size,4,4
	.text
Letext0:
	.section	.text.unlikely,"x"
Letext_cold0:
	.file 4 "C:/Qt/Qt5.5.0/Tools/mingw492_32/i686-w64-mingw32/include/vadefs.h"
	.file 5 "C:/Qt/Qt5.5.0/Tools/mingw492_32/i686-w64-mingw32/include/_mingw.h"
	.file 6 "C:/Qt/Qt5.5.0/Tools/mingw492_32/i686-w64-mingw32/include/stdint.h"
	.file 7 "<built-in>"
	.file 8 "C:/Qt/Qt5.5.0/Tools/mingw492_32/i686-w64-mingw32/include/c++/bits/exception_ptr.h"
	.file 9 "C:/Qt/Qt5.5.0/Tools/mingw492_32/i686-w64-mingw32/include/c++/i686-w64-mingw32/bits/c++config.h"
	.file 10 "io/./../text/./.././time/stk_time.h"
	.file 11 "io/stk_console.h"
	.file 12 "io/./../text/stk_cstr_utils.h"
	.file 13 "C:/Qt/Qt5.5.0/Tools/mingw492_32/i686-w64-mingw32/include/assert.h"
	.file 14 "C:/Qt/Qt5.5.0/Tools/mingw492_32/i686-w64-mingw32/include/stdlib.h"
	.file 15 "io/./../sthreads/stk_threads.h"
	.file 16 "io/./../sthreads/./../cpu/stk_cpu.h"