	.file	"stk_cipher_pair.cpp"
 # GNU C++ (i686-posix-dwarf-rev1, Built by MinGW-W64 project) version 4.9.2 (i686-w64-mingw32)
 #	compiled by GNU C version 4.9.2, GMP version 6.0.0, MPFR version 3.1.2-p9, MPC version 1.0.2
 # warning: MPFR header version 3.1.2-p9 differs from library version 3.1.2-p10.
 # GGC heuristics: --param ggc-min-expand=100 --param ggc-min-heapsize=131072
 # options passed:  -fpreprocessed stk_cipher_pair.ii -malign-double
 # -momit-leaf-frame-pointer -m32 -mfpmath=sse -mpreferred-stack-boundary=8
 # -mmmx -msse -msse2 -mthreads -mtune=generic -march=i686
 # -auxbase-strip debug\stk_cipher_pair.o -g -g -O3 -Wno-write-strings
 # -Wno-multichar -Wno-unused-variable -Wno-unused-parameter
 # -Wno-unused-value -Wno-unused-label -Wno-unused-but-set-variable
 # -Wattributes -Winline -Wshadow -Wunknown-pragmas -Wall -Wextra
 # -std=gnu++11 -std=c++11 -fno-keep-inline-dllexport
 # -fno-use-linker-plugin -fverbose-asm -fstrict-aliasing -fwrapv
 # -funroll-loops -flto -fexceptions -frtti
 # options enabled:  -faggressive-loop-optimizations
 # -fasynchronous-unwind-tables -fauto-inc-dec -fbranch-count-reg
 # -fcaller-saves -fcombine-stack-adjustments -fcommon -fcompare-elim
 # -fcprop-registers -fcrossjumping -fcse-follow-jumps -fdefer-pop
 # -fdelete-null-pointer-checks -fdevirtualize -fdevirtualize-speculatively
 # -fdwarf2-cfi-asm -fearly-inlining -feliminate-unused-debug-types
 # -fexceptions -fexpensive-optimizations -fforward-propagate
 # -ffunction-cse -fgcse -fgcse-after-reload -fgcse-lm -fgnu-runtime
 # -fgnu-unique -fguess-branch-probability -fhoist-adjacent-loads -fident
 # -fif-conversion -fif-conversion2 -findirect-inlining -finline
 # -finline-atomics -finline-functions -finline-functions-called-once
 # -finline-small-functions -fipa-cp -fipa-cp-clone -fipa-profile
 # -fipa-pure-const -fipa-reference -fipa-sra -fira-hoist-pressure
 # -fira-share-save-slots -fira-share-spill-slots
 # -fisolate-erroneous-paths-dereference -fivopts -fkeep-static-consts
 # -fleading-underscore -fmath-errno -fmerge-constants
 # -fmerge-debug-strings -fmove-loop-invariants -fomit-frame-pointer
 # -foptimize-sibling-calls -foptimize-strlen -fpartial-inlining -fpeephole
 # -fpeephole2 -fpredictive-commoning -fprefetch-loop-arrays -free
 # -freg-struct-return -frename-registers -freorder-blocks
 # -freorder-blocks-and-partition -freorder-functions
 # -frerun-cse-after-loop -fsched-critical-path-heuristic
 # -fsched-dep-count-heuristic -fsched-group-heuristic -fsched-interblock
 # -fsched-last-insn-heuristic -fsched-rank-heuristic -fsched-spec
 # -fsched-spec-insn-heuristic -fsched-stalled-insns-dep -fschedule-insns2
 # -fset-stack-executable -fshow-column -fshrink-wrap -fsigned-zeros
 # -fsplit-ivs-in-unroller -fsplit-wide-types -fstrict-aliasing
 # -fstrict-overflow -fstrict-volatile-bitfields -fsync-libcalls
 # -fthread-jumps -ftoplevel-reorder -ftrapping-math -ftree-bit-ccp
 # -ftree-builtin-call-dce -ftree-ccp -ftree-ch -ftree-coalesce-vars
 # -ftree-copy-prop -ftree-copyrename -ftree-cselim -ftree-dce
 # -ftree-dominator-opts -ftree-dse -ftree-forwprop -ftree-fre
 # -ftree-loop-distribute-patterns -ftree-loop-if-convert -ftree-loop-im
 # -ftree-loop-ivcanon -ftree-loop-optimize -ftree-loop-vectorize
 # -ftree-parallelize-loops= -ftree-partial-pre -ftree-phiprop -ftree-pre
 # -ftree-pta -ftree-reassoc -ftree-scev-cprop -ftree-sink
 # -ftree-slp-vectorize -ftree-slsr -ftree-sra -ftree-switch-conversion
 # -ftree-tail-merge -ftree-ter -ftree-vrp -funit-at-a-time -funroll-loops
 # -funswitch-loops -funwind-tables -fvar-tracking
 # -fvar-tracking-assignments -fverbose-asm -fweb -fwrapv
 # -fzero-initialized-in-bss -m32 -m80387 -m96bit-long-double
 # -maccumulate-outgoing-args -malign-double -malign-stringops
 # -mavx256-split-unaligned-load -mavx256-split-unaligned-store
 # -mfancy-math-387 -mfp-ret-in-387 -mieee-fp -mlong-double-80 -mmmx
 # -mms-bitfields -mno-red-zone -mno-sse4 -mpush-args -msahf -msse -msse2
 # -mstack-arg-probe -mvzeroupper

	.text
Ltext0:
	.section	.gnu.lto_.profile.f4391c69,"dr0"
	.ascii "x\234cf```a\200\0F\206hM\0\1S\0\215"
	.text
	.section	.gnu.lto_.jmpfuncs.f4391c69,"dr0"
	.ascii "x\234cf\300\16\342\240"
	.ascii "4+\3##c=#\323G&\306\335gV\256gz\301\364\223\211\241\201\211\201q\31\243\24\3\23X\16\250\10D\263\1y\314\365\365L ]\314 \2\244\347\366\243\263"
	.ascii "3\301z\30Az\226\3\365\260#)c\0\0\271_\22Z"
	.text
	.section	.gnu.lto_.inline.f4391c69,"dr0"
	.ascii "x\234cf\300\16\316@iV\6\6\336g,\214\14L<?:\235\31"
	.ascii "8Vlac\2\11"
	.ascii "3\363"
	.ascii "00\0\5\31\330\370\30\31\201\14f\6\26\240 \333\2y&\6\306\27\354,\20\22\244\216\211\33\250n\202\37+\3\347M\220!\334\23\232\234\31\330\17\254\201\30\302\306\300'\317\310\4"
	.ascii "4\200\1b\4P\23\3{\207:X7\7\204\204\331\305"
	.ascii "4\301o\202\37\33?\220\3b0\260"
	.ascii "3p\12"
	.ascii "22\201u\201\264\263"
	.ascii "2]\340\307\260\35(\306\203\242\235\1\0\261/\32\227"
	.text
	.section	.gnu.lto_.pureconst.f4391c69,"dr0"
	.ascii "x\234cf``\340g\200\0v\6)F\11&)\26\11V)6IvI\0\7\204\0\343"
	.text
	.section	.gnu.lto__ZN3stk6cipher13__pair_cipherC2Ev.f4391c69,"dr0"
	.ascii "x\234mS\335K\24Q\24\277\347\336\273\263\343\316\232\322\343\6\25lbA\366\334C\17\275\367\322\37\20HH\340\322\313\242\276Jw\327\225\242\7\261\265@\266,\245\324\314\217"
	.ascii "5?\363#\35\337\244\262\20\265oLA+\241\250Ma\33\242\246s\356\14\344V\3"
	.ascii "3\367\234{\357"
	.ascii "9\277\217{G\260\177\237S\370\216\13\306\16\341\10\6\3\336\374\224\261\204\311Ax\201\340\201\15\306TH\366-\340\20\226\336\374\234\31\0\240\200\1\273\300\205\14\0~\31\270\240_|\266x\216C\263\335\333j\225w*\245\276\246;\325i\33\34\316\330"
	.ascii "6\367\200\241\13\312q\317\312\320\247\311\260\330\17\14\343\211\201\235\5\353#w8\34\244t2=\337jP\312%\245\335cS]\241\262\333\252"
	.ascii "9\271\226\231\231;iK\207\13\350\6\201\15\341.D\240\7\"\314!\26\367\240\214\366\347R?_XF\12\321K=P\350\5\3\311\1\256\355\\\314\276\11\212\250F}\327\330"
	.ascii "8kD;\224J\256=\232"
	.ascii "9n'\332\325/\327E\252\22\372\274\346G#p$\342\333\5\375\20\315\356\265\225\353~\350\341\305\2\1\3\22\10"
	.ascii "1\210\241a\352\365\"\14y\210rK\347\214m <\272\270\311"
	.ascii "9\16\342-\244\354\331i\361\27Eb\207\375\7\300\310sZ\273\271\324"
	.ascii "4\300\353\177\250K\312txp\233\23\363,\324\23\343\251'=YN\306\230\12\351\15B\304\341E\354"
	.ascii "5$\323\35'\250\236"
	.ascii "4m<[4iG\210Q\301\345\304\235/\301"
	.ascii "6\270\236(u\270\225Ge\367\321+ZhY\276z%\\\321\213\4\20\304\200!h\203o\372|`\30*\220\7{\16\334o\331\276"
	.ascii "0\262\\\202"
	.ascii "6\221\375\311\224\234W\251"
	.ascii "5\327=\360\237"
	.ascii "3\360\215\32\201(\"a\203\244}\255\37\12\304\332\213\203@\353Z\355"
	.ascii "6\232Rh\205\366\14F\265\35cxd\230\356\226$qz\\\343l\"A\274\204\2"
	.ascii "1J\265\323yn\222\17c\271\316\10U\346y\20\13G\277\337\372\\L\342\265\310\2\371"
	.ascii "7vZ^\225\374\221\377\300\227\257\261a\2*\250\331j\320kU\344"
	.ascii "5oh5\274<\204\335\363\276\357\353{hn7IC\367/\204\226X\4\223\4\15S\210D\375V \365\262a\330'kbE\323\343\314\234\240\6a\372\227\246=;\337\203I\212y\337\26\202Z\362"
	.ascii "0\12\227\14\377G\201t\322>\35\313\253_\314t5\224h\227\260\374!\226\323\1\372&\342&mZ\200.\341*$\354%\351]:\272\240\200\223(}_U,^}\256\346Lm\335\371J/\254\214\237\215\325\34\253\212\307\231\254\253\216\325B\354"
	.ascii "71 Qf"
	.text
	.section	.gnu.lto__ZN3stk6cipher13__pair_cipherD2Ev.f4391c69,"dr0"
	.ascii "x\234eQM\213\222Q\24>\317y\365U\322\205\264t \"\20W3K\327\375\204~\300\200\204\4#mD\335\212Wq!\263\30\354c!\224-j\322\312\31\35e\20\262\215F\213"
	.ascii "6}\221"
	.ascii "532T\13\373$jLA^\"f\316\31\27\305t\341r\317\271\347"
	.ascii "9\317\363\234{-\372\177\5e\17@tNNX\4.='\312y\31\320\200@YF\26_y\314(\365\352e_\370\256"
	.ascii "1\346\340v\315\\\350\301a\242\11\317yPEX0o\332\337\273~\353\14H\342\207\215\351"
	.ascii "3\337\27v\30g5\355^}Z\266"
	.ascii "5e\227\246\265\316\243\352\251\320\35S\312\177\330x\331?\337s9l\241\6K\10q\17A\334G\220\344\212\360\0!\305\217\13\177v|vA\324\3sQ\324a\213qj\236\356\231\303\303\317]\266\305\264\200-is\321"
	.ascii "7\6\323\17V\300\204\361\304M\32\321H\32u\256\217\314zZC\344;\343\233K'\350\225Y\370"
	.ascii "7`\317\330\222\332\373\321\213W^u\356&u\262\232[\377\351\251\340F.\340\260 \30\233bU\13\327\6\327\257\370\27\353\302\341\25\13h\240\202_\307\317\203&\26i\37\5\23UR\205\336z\275\326\340\314oST\250g\"v\10[\310\220\10:\354\375\304\331!\36\357\266*P\374\277\222%\305\377\25EK4\244n\372{3;\262m\212\362'6\241\215\10\275E>\240\203L\325\301;`>\224>\1tt\271]\210\305\23+\227\222\313\251\364\345\350<\214&.\306\223K\261D\202\\\351\225x\352\10\331\254\252\14"
	.text
	.section	.gnu.lto__ZN3stk6cipher13__pair_cipher10initializeEv@4.f4391c69,"dr0"
	.ascii "x\234eR]kSA\20\335\263{\357\315W\325\340\343\25D\210\245\12\326g\377\203\177A\250R\304\6_B\333w7\37E\360Ab\254\20*5\25m\252&m4\261\1+\350\315\223\242T\251\330*\12U!\25\13\212F\13"
	.ascii "1\17\32g\366F\250\270pwgfg\316"
	.ascii "93{\225\370\177\35\245\257*\205\330O'\34\1\231}&D2(\241|CI\273)\204\16[\345e:\372,?\336\10\332\0\33\2\342\214T\226\15\332\5\272"
	.ascii "0\37\255M\331\222\310z\245|d`Vk\375\355\305\243Sz\362x\207\210~H\237\30E\14P\316j\365\363R\237\332\13A\366\275\205\255\345\310'\331\221\330\307\356R\356q\336aWZ\354\316\325\357\27\303\375\327t6\245\263\331\31\12+\314A\21\34n\300\305M\270\242\303\32n\241\237\263[\231_\257\"N\206\270\243>%JpH\32\350n\353l\345m@\305\14\347\273\211\211\207N\354\252\326\251\367O\36\34\361\222"
	.ascii "3\372w\267\213\216\264P\366\301\17\271"
	.ascii "8\350\366\206\205y\304*\273=\335\355\326\12\215+\10\303D,0\251M\364\266C\233\14\260\25"
	.ascii "2WB4\211\233\6\270!%\35j\15)\357\322<\376\325g\22Y\36\21,\220HrYX\363\371J\220\273\267(\\\1K\330\240\376h\350\214\22"
	.ascii "5\360m\11\361\6\251zk\326\345\312\266\264\267\27\22\36\271\347\222\327\277\6\246q9\31\355\310@\233\372\272\315Xtq\361\345\344\205\276\301\22)\10\222^\334\301"
	.ascii "4\276\233\267A\25\203\14\273\36\360A\35\237&\235w|\237Pl\212rJ\356\303N\216mg\265\15\370\342\317\302\227\35\314\252\265\347R\17T\205\32\23\343.\361"
	.ascii "0\340*2\257\323\265\236n\236\310\371\247S\15\305\10A\376\215\26M\307\342#\300\315\313\362f\270-C\326\1\232\201%\350WT\244'\327\323\23\362\353W\246\212\351]f`T^\247\362"
	.ascii "5\310\277\363\244$3?\233\37a\35I\257`\373\3\347\7\2\5\251\361=\303\361\304\310\311\321cc\343\247\207|s(q\">zx8\221\20\326\370H|\14\361?\327\354\367\371"
	.text
	.section	.gnu.lto__ZN3stk6cipher13__pair_cipher6encodeEc@8.f4391c69,"dr0"
	.ascii "x\234\225\222\337K\24Q\24\307\357\367\314\354\356\270\256&=\325\6\21,bE\372\336[\357\375\13\201\211\5\212=l\352\213\17\342\354bd\277d-\211\312\224\262\374\325\346\217\254,\327\207&\202\10JC*\15\13\215\262((\315VZ\206~l\347\334"
	.ascii "1\262|j`\346\236{\356\367\236\363"
	.ascii "9\347\214\241\326>a~\367\31J\225\360\12C\201\22\23J\305,\2\304PP\15\204\6|\240%\302B\313\344\230U\324e\333\366\347\316dUs\353^\227\224J\223\302\216"
	.ascii "0\266I\34t\243\210u\317\206?\246B\306f(\266G\7\226\307s\337\223K\330\"\333\324\311\7g\374\262%S\266=#c\335\301\302Kv\"n'\22\27\330m\240\7\206\204\354E\30}\10+v)\\A!\213\273:\336L\370\215\210\16\273\260\334\336\344\227\213\266\323w\317\330\340\222\211\244w\321cq\311\247p\25\205\242]j\374"
	.ascii "1\235\353od\354\2\241e\314~\370\301\213\360|J9dl\325"
	.ascii "1\37\276;7\24\210\\\264\355\370\253\271\341\235N\254\323\376\231\315\302%?\6V\207\366\36\14\"2\270\336\261\263\331t\377\335)\344\1\222\216$\261\11\1\366\261\31\10\360\307\262\264"
	.ascii "8\207\315\234\240"
	.ascii "8CJ\372\246\346\371#-~K$\253"
	.ascii "1\205\270s\247_\372|lzi1\337\330\256\241\216\237\370\336\24\324PN\362\274\275k\25\324\320Z\250\277\213\305"
	.ascii "5D$\263\256\227\211\207\271jv\261\250m\274\367\210Y\227a\221\263\233Cex\330|\250p\35uj\6\361\331\303\217"
	.ascii "6\212#C\304G\342\31\201\267\367\361\345\271\371\307\223\226\214"
	.ascii "0\250\23\36\215]^\14\264\243-V\340Rn\206\347p\203\247&\7\247\236\266\266\204\212\223\234\304\342\242q\23\355\370B\272u#(V/\31F\207\14\260\264\343I\363\0\325\177\263\233D\32J\223\14\347\26\352\25'd\6\26\274x=~\226$g\236\315%\337F\330\245|\341z\36\360\202X\34GM\201t\215\\2{\274B\356\177\365y\212\234\25\327\357J\202\377\201>\372\7=\245\321\17\331\7u\303\376E_\227\346Y*\214i\364 'u\251\300\343\230"
	.ascii "8mxyCB:\213\25\212\220\376\17 \363\347\213\233\312+\243\25\373\253\367\324\324V\225zfi\264\254\262\272\244<\32UfmEe\215YVZ^\201j\363\0/\277\0s\35"
	.ascii "0i"
	.text
	.section	.gnu.lto__ZN3stk6cipher13__pair_cipher6decodeEc@8.f4391c69,"dr0"
	.ascii "x\234eQ\357KSa\24~\237s\267{\357~\10\322\247X\20\301\30&d\237\373[\"X2\202\15\277\254\351W\361\335"
	.ascii "2\222>\310,!)f?\325\314\234f\271p\22,\372\22D\206T\6\21\26eR\220\313"
	.ascii "5i]$\327"
	.ascii "9\367\366a\321\13\367\276\347\234\367<\317y\336\347"
	.ascii "5\324\377+\302\337\22)\325\311;\14\5\312\257(\225\265\11\220@A\15\20\6\360\225j\204\352\310\352\262\335"
	.ascii "1\241\265\336\376"
	.ascii "8\333"
	.ascii "3<z\322a\\\235\24\216D\320)<\230D\7\367\275^\370V\16\33\7\241"
	.ascii "8^*\356<\17}!\207pH\322\362\205\247c\246\244\344\223t\252\264<\31\214\335\324\371\234\316\347\257q\331\300\24\14\241\274\215\10\246\21Q\\R\270\203\30"
	.ascii "7O\214\177Z1\215\250K[\335)\14\231\2\324\225\351'\306~\207|\230\361\200\236\26\207\374\12w\21\223\336\332\340\357"
	.ascii "7!s\220e\267\213Z\226"
	.ascii "9\13\23\274\211\236\255r\205\214\303.\347\263\315\313\363V\364\272\326\271\17\273k\307*\331\33z\257\331\204C&\212\255\324\336\302\34\242s\373*\272\331\254?|\274\207"
	.ascii "0\373\305*\15\36l\371 \223\375\34\332&\377\310\222\242\355\"\2\34\6BJ|S\33\374\23\213?\23\311n\274E\256T{t\374_\301\2r\365\362\304y\230\15"
	.ascii "2\370\374\375\306\213U[L\14*\321}>{\353\273U\300\225l\273C\241\6\21\356\261orp\361\325\350H\270k\206ylV\200\5\24\360\203\\\361\367\321\245x\336\272\345\221\372\33\374\34-\271\224"
	.ascii "8?3fz\271\305s\271*-?\203^\311n\325a\271\343\26\177]\335jc\35b\31c\360@d`\221\247\252"
	.ascii "5\220\300\344"
	.ascii "6\14uG\235\333l\370=\252\200\224\336\341\254>-\271"
	.ascii "0\215\277\34.R\377\256\36\22\341\341:\311c\225\320\257\\\31\1\207\332<\206\352%\303c\10\11\303:\360"
	.ascii "7s\315\205\230\312\267=\220H\245\223\247"
	.ascii "2'z\373z\342^\30Ow\247"
	.ascii "2G\23\351\264\362\365%S\275\276\356x\"\211\314\37\206"
	.ascii "4\366\313"
	.text
	.section	.gnu.lto_.symbol_nodes.f4391c69,"dr0"
	.ascii "x\234U\214=\16\202@\24\204gw\35`\227\306\33\17&\204X\31O\240\30\361\337cX{\6\354mm\211\20%Y^\365\276/3\343\0|\360?[S\300\372\11H\330\324\31\354\216"
	.ascii "2\243\250\12\17\273\247l\234"
	.ascii "0W\312\375\4\212e\337h\250\331\244q\240"
	.ascii "8\212\325\260y\244\222\211"
	.ascii "8Qi,\314\231\312\306\315\242\347\13\345c\276S!\346\33\225G\354\220\241i\273\205q\326\343\321v\306%9\312\327 \222\200\246zo\347.\15(\207\7_\350\227D\345"
	.text
	.section	.gnu.lto_.refs.f4391c69,"dr0"
	.ascii "x\234cf``\20`\200\0FFf \301\304\304\314\300\310\302\314\304\300\0\0\2\256\0+"
	.text
	.section	.gnu.lto_.decls.f4391c69,"dr0"
	.ascii "x\234\235W}P\24W\22\237\236\267,\260,\20O\17\15I]\320\252P\361\242\342\7Zze]Q\347\221\263\222*\223\324\235\377XW\265G\226\275\270\36_\265\254\304\313?\16\250\11\6\224\17\25PD\327\12j\24\242\242\202 \2+*\242\210\250\10\306\240\270\212(J@PD\364\200\275~\357\315\354\16\210\306\273)zg\272\247\337\257\273\177\257\337\233\7\21\4a\241(\10N\274\26\372\12\302\22\"\10Z\264}\212\202fa1J\241\300/=\312\31\224Z\224F\224+(\315(7P:P:Q\236\240<\247\316 \10\376 \274t\321\361\276"
	.ascii "2\276\237\214\371\26\372\225\340}\11J)\312"
	.ascii "8\340q\273Q\354('P\2"
	.ascii "8\244P\211Bd\234'r\354\321\27\315\315{\214\30\245*\274\337\240\336?\12\223\216\233\4<\177j\177{T\376"
	.ascii "7^\201[\"\214\304V\347\12\257\310\221\362"
	.ascii "5\16\305"
	.ascii "1\12+\20\345c\301\215"
	.ascii "9A\340\\(\330\357\0\237\17=\336\337E\31\32U\3\305e\274\217\301}\247\34\353\327b\6\214\212"
	.ascii "9:\216(c\215\25\243W\204\262\3}\365>\35\"\370\351\202\250z<\263"
	.ascii "6G\213\252^\247\241\352\211=E\36D\4\372\330f\317h\363\231\266_\222\244d\311^\13n\204\304=\345\251\236"
	.ascii "8d\261\216\251\267r\237\347{3\225v\251?\232\304\35\355g+\274@\27\234,II\364\317\273\326O\200=\20\10{!P\200\37!\230\215\205\375h)@K>\306\350\331\337\237=Q\222"
	.ascii "4P\10:\370\1\10\354\203i\264\6\352\310\212A;\6+\276s\364\212\27Y\312\22\374\371RG\265H\214\211\22+$cW\353"
	.ascii "6\37\262B\326\354\307\236\36\364\234\272W\262I=\255kj\374)\360\247\1p\310\205\353*fm\327\335\203:\356\230\267\373\233\367e\307\203\350X\4S\325\216\331\227\177:\246!{\1\324\24\4p\12"
	.ascii "6\326m;I\230\352\244\257\305\226\275\16\304\221\353wdHd\222\0\323\2a*\26\177\14\213\247\243\340(\26_\254\24\177k]#+\276\4\213?\342.>@\347\12\177\273\257\361{\320\177\347&\224\371*\234\12P\12z\331\263&;\267\211\220\307,Q\355\375\274\276]\32\10\36?>x\312V\340\261\362\332k\2\244\14\15\224\303x8\200\261N\300x\32\213\337\360\312\220\354\222\224n\227\302\254\252"
	.ascii "9;\216i\243\7\34\206\251P\201\317\225"
	.ascii "0\205\332\350\300*@\344"
	.ascii "1\7U\374\312\240|d\335\236-%\351Yt\226\314a\25\351\202M\222\252\35;\256\332"
	.ascii "5\366\323\204\26\10e<]w\204\17h\351\277\307\37!;1\210\225\300L\224\206\341\27))\336#\10S\217\24\300\356\"\254.\375|\243\257F\344"
	.ascii "6X\306\326Asw\315a\337IY\310\227\344H\224\336\2\332\24|\6\5\250\206I\370{\22"
	.ascii "4\234"
	.ascii "4\272\4n\355\15%\3\274"
	.ascii "5\36\365\235\276\355I\326\361"
	.ascii "5T\265\353~\273O\320\16\311f\353i8\367\321F\311\226h\37vb\217P\14"
	.ascii "8\345\"_\200\323@x\233\237\201 \34w\366X]\237?9\305Az\317"
	.ascii "5\26x\222K\\\251/\373\241[\307\20%\204\3\233\323\271\232\201\325\250\300\316*`\265\14\354z[v\201\347\33\327r\241\273.\311\233<\346\321Rj*~\321\22'W\252\33J\263\200\361\264D\241\251"
	.ascii "0\263|\223\227b\272\0\314\266\371\301\226&-\263M\321A=\267e\335\315p\352\231\355c\35\\\344\266\356\222\332\1\217\211[\334i\341+%\255K0\21\177\33\320\221\315\320\356Mm\251z\262\213\260"
	.ascii "4\16"
	.ascii "4\364<\323P\6\244\216\304L}\17n9\324\35.+E+\17\264\362\255\311\327\275\250\353![\341v),IB\362\11\234C\272\316\253\350\252\243\3\340\12\4\341o#c\354YE\327f-)\341\361\356lo\255\324\221S\\95\320\325\352\313\20\31\375vJ?\305\273\252\302kR2if`\27"
	.ascii "7\244\226\20\322\316\307\333z\212z(\21p\215"
	.ascii "9\241%\371n\311\225"
	.ascii "1;\15~\242\263r\375\245\11\272\267A\272\4\244\227\343\245\367\177{\236\220A\256\244\235\34\272\246\305\344\34\207\34\25Y\13\354I\322\240\323\271\306\213a\300\317\252\4[\224\4o\260\4k\13\362\376A\366k(\204\346\321\345\301"
	.ascii "2_\10\14\324\5\347\340\266?\360\36"
	.ascii "8@'\320G{\7\226\352\344W\232'3'\263\234G\354n\267q\225\323W\2\334\302\205\326\352\332\336fI\351\32\372\2n\312\241]\373\332\313\204T\226\236\373\234\265\12\365\347mV\367\260\300\341\355Z\241m\274\177\352\33\357\364\353\325\304Q\177\316\334\35JW;c\356\256\212\271}\247\217<\327\220rV)\254\267\25\337\324\223j\256\\h\37J\24\225u\332\374>]\250\22_\250\210\2\367T\334\335W\270\353`\334\345=km\327\223N\216\"5\331\17\341\316\313\225"
	.ascii "3\375\373:\11\203\264u\263\336\33\244\275G\341\36\250\340\36*p\235\14\356e6z_t\26\210\254\364B\27\35?V;N\203z\345\340\342\343\205\377B\253\355f\213\247KY<\227\12\263s\375H\256\207\374e\254\274\367"
	.ascii "8\307\237\354R\324*{S\217\374\375\253/v\254Z#\205\321\6\354y\371\373\267\341Yz\251\27\261{\360J\357\37K\363\247\235&9\362\216/\250Nd\305\261\310\360\10\207\366\362\241\360X\251\356\311+\252\33cK\261\265\14\16{\252\213s\255\207>Z\\?+\356\251R\\Y\305\246j\15iV\252\331z\276\252\\CZx\222{\232\363\263}x\222;K\335I\"\2<S%9\240$\371\374\177\230\202\314*\307\20Q\22\377\17o\310-\255\266\26\237"
	.ascii "1\247\345\5\315|\210e>\250d~/\177g\231'\351U2/J\275V\341C\236\362\314o4w\364y\363\314+T\364\"\2\14\253"
	.ascii "2w*\231K\"\315\374\360\367\273K\274\331\311.\214\202\344o\311*\364`';/\366]\252\177r\334\213\244hY\200\256"
	.ascii "3\27\7t\370n\202NR.XM7\332\35-\315\276\314./u\347jz\236\31:j{\340\307\317"
	.ascii "3\370\225O\222\306%\26\275+@\242\30\10I\"\256\372o\305`\34\201y\254E\313:\321u\246i[\274\26\333\351\33Q\7kD\327\231f\202\373L\363fT\237\252\30~\342\341\332\20\326\213\334\230k\277\253a\306\217\364\360\35\267\365\14\335\224\274\324\374\323\310|\2\222\321\3RE:\1)\242<\1\355'K\322<\310f\255<\1\17\232\32\36\22\222\303\371\271W\226s\234O\0\256\12\233\345~bz\252\344p:\337c \260At\317\301FQ\236\203"
	.ascii "46\7\316\347\233\2\225CG\362+\17\35\220.\352\351!\243uG\207\217\373\210\262\230\255\37\267s\206\310\235"
	.ascii "3\230\263\355\214m\251\332\267\177\204o\246\354\233\311|\273\352\217N\35k\11\241\303&F\302"
	.ascii "2\231\203\344\332\266\265\")R8(\266\267?%\244\\Q\267e%\25\313{\3\356\340\22R\270ETm\337\264_\372*w\373\220*NZMU\326\32\17\272\343eH\33\323#\222\351\247\21\243\301fd+K\344le+l\345"
	.ascii "0\266\34Gj\207\275&\357\244\335\322\260>%\224\206`\237`\356\263U\234\214>\271\331\7\36y\350\344oM\362k\277"
	.ascii "5\260M\244\377#\34\274\332T\356\247\246\212\316\231\233\252\\\231\252\\FU\273\375Z\232V\355<4\202\327\355\262"
	.ascii "3\275k\343\315_\233\14"
	.ascii "V\257\277,Y\32\264\350\303\17\205?-\372C\310\347V\374\233;c\356\214\231!\177\213\215\215\212\17\211"
	.ascii "6\307|\371U\350\202\331\206"
	.ascii "9\263C\314\363\346\317\233\376\325\274\320\351\314H\15"
	.ascii "1\306\250\225\221\246\20\3"
	.ascii "3\314X.\370\32\14q\21f\213\301h\216[n\262h\371\215\304[\377\365;\376\370\367\31!3\360/\304j\216"
	.ascii "6\205\240\331@\37p\334\333\362kj\342\217\14\7\337x\256"
	.ascii "4\307X\347\33\254\377\177r\361\326H\204@(\217XK\244\311\242"
	.ascii "7\30\276\210\210"
	.ascii "7\31\214\326XK\320d\303\262%s0\350<\36t\326\234\21\371/\232\35\236\360\316+23\306\305\11\10e\214\215\216{#\250Y\341\11J\344\310_w\377"
	.ascii "3F\236`0|\271j\225!\316d\211\217\215\211\210"
	.ascii "2[\377mH\230\251\204|\23\14\14\351c0`\371\306\210\250(\203Ag\216"
	.ascii "1[\315\10\364\265i\372k\7\316\232\351\366\14O\10\13\325\30\227GX|\26~\261\322\34e\235n\216\371\243\240"
	.ascii "5\305\30c#M\37\274\26e\36w\12"
	.ascii "7\206\315\327F\232\336\300\237;Q\177\17\314"
	.ascii "7\326H\242M\321\201\352\266A\235\365\14\336q6\177+\243\315Au.\33\20\276\2s\375\247\305dR\277\12\245\206\360\317\260\14b\211\265\250\337\314A\35_\254\10\233\357\205\375\21\35\261\312`%\306\345\226Ij\27\324\303?\373$\301\270\"l\326lo\253\311\202\275\25a5aCG\372\33\226\375\325\272\300eJ\370/E\341o\226"
	.text
	.section	.gnu.lto_.symtab.f4391c69,"dr0"
	.ascii "__ZN3stk6cipher13__pair_cipherC2Ev\0\0\0\0\0\0\0\0\0\0\0\0\305\0\0\0__ZN3stk6cipher13__pair_cipherC1Ev\0\0\0\0\0\0\0\0\0\0\0\0\310\0\0\0__ZN3stk6cipher13__pair_cipherD2Ev\0\0\0\0\0\0\0\0\0\0\0\0\323\0\0\0__ZN3stk6cipher13__pair_cipherD1Ev\0\0\0\0\0\0\0\0\0\0\0\0\326\0\0\0__ZN3stk6cipher13__pair_cipher10initializeEv@4\0\0\0\0\0\0\0\0\0\0\0\0\334\0\0\0__ZN3stk6cipher13__pair_cipher6encodeEc@8\0\0\0\0\0\0\0\0\0\0\0\0\350\0\0\0__ZN3stk6cipher13__pair_cipher6decodeEc@8\0\0\0\0\0\0\0\0\0\0\0\0\353\0\0\0___gxx_personality_v0\0\0\2\0\0\0\0\0\0\0\0\0\322\0\0\0__ZN3stk3mem5allocEj@4\0\0\2\0\0\0\0\0\0\0\0\0\363\0\0\0__ZN3stk3mem4freeEPv@4\0\0\2\0\0\0\0\0\0\0\0\0\371\0\0\0__ZN3stk3mem3rorEPvj@8\0\0\2\0\0\0\0\0\0\0\0\0\0\1\0\0__ZN3stk3mem3chrEPKvcj@12\0\0\2\0\0\0\0\0\0\0\0\0\17\1\0\0"
	.text
	.section	.gnu.lto_.opts,"dr0"
	.ascii "'-fno-trapv' '-dD' '-malign-double' '-momit-leaf-frame-pointer' '-m32' '-mfpmath=sse' '-mpreferred-stack-boundary=8' '-mmmx' '-msse' '-msse2' '-mthreads' '-mtune=generic' '-march=i686' '-g' '-g' '-O3' '-fno-use-linker-plugin' '-fverbose-asm' '-fstrict-aliasing' '-fwrapv' '-funroll-loops' '-flto' '-fexceptions'\0"
	.text
	.section	.text.unlikely,"x"
	.align 2
LCOLDB0:
	.text
LHOTB0:
	.align 2
	.p2align 4,,15
	.section	.text.unlikely,"x"
Ltext_cold0:
	.text
	.globl	__ZN3stk6cipher13__pair_cipherC2Ev
	.def	__ZN3stk6cipher13__pair_cipherC2Ev;	.scl	2;	.type	32;	.endef
__ZN3stk6cipher13__pair_cipherC2Ev:
LFB703:
	.file 1 "cipher/stk_cipher_pair.cpp"
	.loc 1 10 0
	.cfi_startproc
LVL0:
	pushl	%esi	 #
	.cfi_def_cfa_offset 8
	.cfi_offset 6, -8
	pushl	%ebx	 #
	.cfi_def_cfa_offset 12
	.cfi_offset 3, -12
	movl	%ecx, %ebx	 # this, this
	subl	$500, %esp	 #,
	.cfi_def_cfa_offset 512
LBB6:
	.loc 1 15 0
	movl	$256, (%esp)	 #,
	call	__ZN3stk3mem5allocEj@4	 #
	.cfi_def_cfa_offset 508
LVL1:
	movl	%eax, (%ebx)	 # D.29578, this_4(D)->order
LVL2:
LBB7:
LBB8:
	.loc 1 35 0
	movb	$0, (%eax)	 #, MEM[(uint8_t *)_3]
LBE8:
LBE7:
	.loc 1 15 0
	subl	$4, %esp	 #,
	.cfi_def_cfa_offset 512
LBB10:
LBB9:
	.loc 1 35 0
	movl	(%ebx), %eax	 # this_4(D)->order, this_4(D)->order
	movb	$1, 1(%eax)	 #, *_10
	movl	(%ebx), %edx	 # this_4(D)->order, this_4(D)->order
	.loc 1 34 0
	movl	$3, %eax	 #, i
	.loc 1 35 0
	movb	$2, 2(%edx)	 #, *_10
	movl	(%ebx), %ecx	 # this_4(D)->order, this_4(D)->order
	movb	$3, 3(%ecx)	 #, *_10
	.p2align 4,,10
L2:
	movl	(%ebx), %esi	 # this_4(D)->order, tmp128
	.loc 1 34 0
	leal	1(%eax), %edx	 #, tmp94
	.loc 1 35 0
	movzbl	%dl, %ecx	 # tmp94, D.29580
	movb	%dl, (%esi,%ecx)	 # tmp94, *_10
	.loc 1 34 0
	leal	2(%eax), %edx	 #, i
	.loc 1 35 0
	movl	(%ebx), %esi	 # this_4(D)->order, tmp129
	movzbl	%dl, %ecx	 # i, D.29580
	movb	%dl, (%esi,%ecx)	 # i, *_10
	.loc 1 34 0
	leal	3(%eax), %edx	 #, i
	.loc 1 35 0
	movl	(%ebx), %esi	 # this_4(D)->order, tmp130
	movzbl	%dl, %ecx	 # i, D.29580
	movb	%dl, (%esi,%ecx)	 # i, *_10
	.loc 1 34 0
	leal	4(%eax), %edx	 #, i
	.loc 1 35 0
	movl	(%ebx), %esi	 # this_4(D)->order, tmp131
	movzbl	%dl, %ecx	 # i, D.29580
	movb	%dl, (%esi,%ecx)	 # i, *_10
	.loc 1 34 0
	leal	5(%eax), %edx	 #, i
	.loc 1 35 0
	movl	(%ebx), %esi	 # this_4(D)->order, tmp132
	movzbl	%dl, %ecx	 # i, D.29580
	movb	%dl, (%esi,%ecx)	 # i, *_10
	.loc 1 34 0
	leal	6(%eax), %edx	 #, i
	.loc 1 35 0
	movl	(%ebx), %esi	 # this_4(D)->order, tmp133
	movzbl	%dl, %ecx	 # i, D.29580
	movb	%dl, (%esi,%ecx)	 # i, *_10
	.loc 1 34 0
	leal	7(%eax), %edx	 #, i
	.loc 1 35 0
	movl	(%ebx), %esi	 # this_4(D)->order, tmp134
	movzbl	%dl, %ecx	 # i, D.29580
	movb	%dl, (%esi,%ecx)	 # i, *_10
	.loc 1 34 0
	leal	8(%eax), %edx	 #, i
	.loc 1 35 0
	movl	(%ebx), %esi	 # this_4(D)->order, tmp135
	.loc 1 34 0
	addl	$9, %eax	 #, i
	.loc 1 35 0
	movzbl	%dl, %ecx	 # i, D.29580
	.loc 1 36 0
	cmpb	$-1, %al	 #, i
	.loc 1 35 0
	movb	%dl, (%esi,%ecx)	 # i, *_10
	movl	(%ebx), %ecx	 # this_4(D)->order, this_4(D)->order
	movzbl	%al, %edx	 # i, D.29580
	movb	%al, (%ecx,%edx)	 # i, *_10
	.loc 1 36 0
	jne	L2	 #,
LBE9:
LBE10:
LBE6:
	.loc 1 17 0
	addl	$500, %esp	 #,
	.cfi_def_cfa_offset 12
	popl	%ebx	 #
	.cfi_restore 3
	.cfi_def_cfa_offset 8
LVL3:
	popl	%esi	 #
	.cfi_restore 6
	.cfi_def_cfa_offset 4
	ret
	.cfi_endproc
LFE703:
	.section	.text.unlikely,"x"
LCOLDE0:
	.text
LHOTE0:
	.globl	__ZN3stk6cipher13__pair_cipherC1Ev
	.def	__ZN3stk6cipher13__pair_cipherC1Ev;	.scl	2;	.type	32;	.endef
	.set	__ZN3stk6cipher13__pair_cipherC1Ev,__ZN3stk6cipher13__pair_cipherC2Ev
	.section	.text.unlikely,"x"
	.align 2
LCOLDB1:
	.text
LHOTB1:
	.align 2
	.p2align 4,,15
	.globl	__ZN3stk6cipher13__pair_cipherD2Ev
	.def	__ZN3stk6cipher13__pair_cipherD2Ev;	.scl	2;	.type	32;	.endef
__ZN3stk6cipher13__pair_cipherD2Ev:
LFB706:
	.loc 1 20 0
	.cfi_startproc
	.cfi_personality 0,___gxx_personality_v0
	.cfi_lsda 0,LLSDA706
LVL4:
	subl	$508, %esp	 #,
	.cfi_def_cfa_offset 512
LBB11:
	.loc 1 25 0
	movl	(%ecx), %eax	 # this_2(D)->order, this_2(D)->order
	movl	%eax, (%esp)	 # this_2(D)->order,
	call	__ZN3stk3mem4freeEPv@4	 #
	.cfi_def_cfa_offset 508
LVL5:
	subl	$4, %esp	 #,
	.cfi_def_cfa_offset 512
LBE11:
	.loc 1 26 0
	addl	$508, %esp	 #,
	.cfi_def_cfa_offset 4
	ret
	.cfi_endproc
LFE706:
	.def	___gxx_personality_v0;	.scl	2;	.type	32;	.endef
	.section	.gcc_except_table,"w"
LLSDA706:
	.byte	0xff
	.byte	0xff
	.byte	0x1
	.uleb128 LLSDACSE706-LLSDACSB706
LLSDACSB706:
LLSDACSE706:
	.text
	.section	.text.unlikely,"x"
LCOLDE1:
	.text
LHOTE1:
	.globl	__ZN3stk6cipher13__pair_cipherD1Ev
	.def	__ZN3stk6cipher13__pair_cipherD1Ev;	.scl	2;	.type	32;	.endef
	.set	__ZN3stk6cipher13__pair_cipherD1Ev,__ZN3stk6cipher13__pair_cipherD2Ev
	.section	.text.unlikely,"x"
	.align 2
LCOLDB2:
	.text
LHOTB2:
	.align 2
	.p2align 4,,15
	.globl	__ZN3stk6cipher13__pair_cipher10initializeEv@4
	.def	__ZN3stk6cipher13__pair_cipher10initializeEv@4;	.scl	2;	.type	32;	.endef
__ZN3stk6cipher13__pair_cipher10initializeEv@4:
LFB708:
	.loc 1 30 0
	.cfi_startproc
LVL6:
	pushl	%esi	 #
	.cfi_def_cfa_offset 8
	.cfi_offset 6, -8
	pushl	%ebx	 #
	.cfi_def_cfa_offset 12
	.cfi_offset 3, -12
	.loc 1 30 0
	movl	12(%esp), %edx	 # this, this
LBB12:
	.loc 1 35 0
	movl	(%edx), %eax	 # this_4(D)->order, D.29592
	movb	$0, (%eax)	 #, *_12
	movl	(%edx), %ecx	 # this_4(D)->order, this_4(D)->order
	.loc 1 34 0
	movl	$3, %eax	 #, i
	.loc 1 35 0
	movb	$1, 1(%ecx)	 #, *_7
	movl	(%edx), %ebx	 # this_4(D)->order, this_4(D)->order
	movb	$2, 2(%ebx)	 #, *_7
	movl	(%edx), %esi	 # this_4(D)->order, this_4(D)->order
	movb	$3, 3(%esi)	 #, *_7
	.p2align 4,,10
L20:
	movl	(%edx), %esi	 # this_4(D)->order, tmp128
	.loc 1 34 0
	leal	1(%eax), %ecx	 #, tmp94
	.loc 1 35 0
	movzbl	%cl, %ebx	 # tmp94, D.29593
	movb	%cl, (%esi,%ebx)	 # tmp94, *_7
	.loc 1 34 0
	leal	2(%eax), %ecx	 #, i
	.loc 1 35 0
	movl	(%edx), %esi	 # this_4(D)->order, tmp129
	movzbl	%cl, %ebx	 # i, D.29593
	movb	%cl, (%esi,%ebx)	 # i, *_7
	.loc 1 34 0
	leal	3(%eax), %ecx	 #, i
	.loc 1 35 0
	movl	(%edx), %esi	 # this_4(D)->order, tmp130
	movzbl	%cl, %ebx	 # i, D.29593
	movb	%cl, (%esi,%ebx)	 # i, *_7
	.loc 1 34 0
	leal	4(%eax), %ecx	 #, i
	.loc 1 35 0
	movl	(%edx), %esi	 # this_4(D)->order, tmp131
	movzbl	%cl, %ebx	 # i, D.29593
	movb	%cl, (%esi,%ebx)	 # i, *_7
	.loc 1 34 0
	leal	5(%eax), %ecx	 #, i
	.loc 1 35 0
	movl	(%edx), %esi	 # this_4(D)->order, tmp132
	movzbl	%cl, %ebx	 # i, D.29593
	movb	%cl, (%esi,%ebx)	 # i, *_7
	.loc 1 34 0
	leal	6(%eax), %ecx	 #, i
	.loc 1 35 0
	movl	(%edx), %esi	 # this_4(D)->order, tmp133
	movzbl	%cl, %ebx	 # i, D.29593
	movb	%cl, (%esi,%ebx)	 # i, *_7
	.loc 1 34 0
	leal	7(%eax), %ecx	 #, i
	.loc 1 35 0
	movl	(%edx), %esi	 # this_4(D)->order, tmp134
	movzbl	%cl, %ebx	 # i, D.29593
	movb	%cl, (%esi,%ebx)	 # i, *_7
	.loc 1 34 0
	leal	8(%eax), %ecx	 #, i
	.loc 1 35 0
	movl	(%edx), %esi	 # this_4(D)->order, tmp135
	.loc 1 34 0
	addl	$9, %eax	 #, i
	.loc 1 35 0
	movzbl	%cl, %ebx	 # i, D.29593
	.loc 1 36 0
	cmpb	$-1, %al	 #, i
	.loc 1 35 0
	movb	%cl, (%esi,%ebx)	 # i, *_7
	movl	(%edx), %ebx	 # this_4(D)->order, tmp136
	movzbl	%al, %ecx	 # i, D.29593
	movb	%al, (%ebx,%ecx)	 # i, *_7
	.loc 1 36 0
	jne	L20	 #,
LBE12:
	.loc 1 39 0
	popl	%ebx	 #
	.cfi_restore 3
	.cfi_def_cfa_offset 8
	popl	%esi	 #
	.cfi_restore 6
	.cfi_def_cfa_offset 4
	ret	$4	 #
	.cfi_endproc
LFE708:
	.section	.text.unlikely,"x"
LCOLDE2:
	.text
LHOTE2:
	.section	.text.unlikely,"x"
	.align 2
LCOLDB3:
	.text
LHOTB3:
	.align 2
	.p2align 4,,15
	.globl	__ZN3stk6cipher13__pair_cipher6encodeEc@8
	.def	__ZN3stk6cipher13__pair_cipher6encodeEc@8;	.scl	2;	.type	32;	.endef
__ZN3stk6cipher13__pair_cipher6encodeEc@8:
LFB709:
	.loc 1 43 0
	.cfi_startproc
LVL7:
	pushl	%esi	 #
	.cfi_def_cfa_offset 8
	.cfi_offset 6, -8
	pushl	%ebx	 #
	.cfi_def_cfa_offset 12
	.cfi_offset 3, -12
	subl	$500, %esp	 #,
	.cfi_def_cfa_offset 512
LVL8:
LBB13:
	.loc 1 47 0
	movsbl	516(%esp), %eax	 # a_ch, a_ch
LBE13:
	.loc 1 43 0
	movl	512(%esp), %esi	 # this, this
LBB14:
	.loc 1 47 0
	movl	$256, 8(%esp)	 #,
	movl	%eax, 4(%esp)	 # a_ch,
	movl	(%esi), %edx	 # this_4(D)->order, this_4(D)->order
	movl	%edx, (%esp)	 # this_4(D)->order,
	call	__ZN3stk3mem3chrEPKvcj@12	 #
	.cfi_def_cfa_offset 500
LVL9:
	subl	$12, %esp	 #,
	.cfi_def_cfa_offset 512
	.loc 1 48 0
	movzbl	%al, %ecx	 # D.29598, D.29598
	.loc 1 47 0
	movl	%eax, %ebx	 #, D.29598
LVL10:
	.loc 1 48 0
	movl	%ecx, 4(%esp)	 # D.29598,
	movl	(%esi), %esi	 # this_4(D)->order, this_4(D)->order
	movl	%esi, (%esp)	 # this_4(D)->order,
	call	__ZN3stk3mem3rorEPvj@8	 #
	.cfi_def_cfa_offset 504
LVL11:
	subl	$8, %esp	 #,
	.cfi_def_cfa_offset 512
LBE14:
	.loc 1 51 0
	movl	%ebx, %eax	 # D.29598,
	addl	$500, %esp	 #,
	.cfi_def_cfa_offset 12
	popl	%ebx	 #
	.cfi_restore 3
	.cfi_def_cfa_offset 8
	popl	%esi	 #
	.cfi_restore 6
	.cfi_def_cfa_offset 4
	ret	$8	 #
	.cfi_endproc
LFE709:
	.section	.text.unlikely,"x"
LCOLDE3:
	.text
LHOTE3:
	.section	.text.unlikely,"x"
	.align 2
LCOLDB4:
	.text
LHOTB4:
	.align 2
	.p2align 4,,15
	.globl	__ZN3stk6cipher13__pair_cipher6decodeEc@8
	.def	__ZN3stk6cipher13__pair_cipher6decodeEc@8;	.scl	2;	.type	32;	.endef
__ZN3stk6cipher13__pair_cipher6decodeEc@8:
LFB710:
	.loc 1 55 0
	.cfi_startproc
LVL12:
	pushl	%ebx	 #
	.cfi_def_cfa_offset 8
	.cfi_offset 3, -8
	subl	$504, %esp	 #,
	.cfi_def_cfa_offset 512
LBB15:
	.loc 1 59 0
	movl	512(%esp), %eax	 # this, this
	movzbl	516(%esp), %edx	 # a_ch, D.29606
	movl	(%eax), %ecx	 # this_2(D)->order, D.29604
	movzbl	(%ecx,%edx), %eax	 # *_7,
	.loc 1 60 0
	movl	%ecx, (%esp)	 # D.29604,
	movl	%eax, 4(%esp)	 # r,
	.loc 1 59 0
	movl	%eax, %ebx	 #,
LVL13:
	.loc 1 60 0
	call	__ZN3stk3mem3rorEPvj@8	 #
	.cfi_def_cfa_offset 504
LVL14:
	subl	$8, %esp	 #,
	.cfi_def_cfa_offset 512
LBE15:
	.loc 1 63 0
	movl	%ebx, %eax	 # r,
	addl	$504, %esp	 #,
	.cfi_def_cfa_offset 8
	popl	%ebx	 #
	.cfi_restore 3
	.cfi_def_cfa_offset 4
LVL15:
	ret	$8	 #
	.cfi_endproc
LFE710:
	.section	.text.unlikely,"x"
LCOLDE4:
	.text
LHOTE4:
Letext0:
	.section	.text.unlikely,"x"
Letext_cold0:
	.file 2 "C:/Qt/Qt5.5.0/Tools/mingw492_32/i686-w64-mingw32/include/_mingw.h"
	.file 3 "C:/Qt/Qt5.5.0/Tools/mingw492_32/i686-w64-mingw32/include/stdint.h"
	.file 4 "C:/Qt/Qt5.5.0/Tools/mingw492_32/i686-w64-mingw32/include/stdio.h"
	.file 5 "cipher/./.././time/stk_time.h"
	.file 6 "cipher/stk_cipher_pair.h"
	.file 7 "cipher/./../mem/stk_mem.h"
	.file 8 "<built-in>"
	.file 9 "C:/Qt/Qt5.5.0/Tools/mingw492_32/i686-w64-mingw32/include/c++/bits/exception_ptr.h"
	.file 10 "C:/Qt/Qt5.5.0/Tools/mingw492_32/i686-w64-mingw32/include/c++/i686-w64-mingw32/bits/c++config.h"