	.file	"stk_file_io.cpp"
 # GNU C++ (i686-posix-dwarf-rev1, Built by MinGW-W64 project) version 4.9.2 (i686-w64-mingw32)
 #	compiled by GNU C version 4.9.2, GMP version 6.0.0, MPFR version 3.1.2-p9, MPC version 1.0.2
 # warning: MPFR header version 3.1.2-p9 differs from library version 3.1.2-p10.
 # GGC heuristics: --param ggc-min-expand=100 --param ggc-min-heapsize=131072
 # options passed:  -fpreprocessed stk_file_io.ii -malign-double
 # -momit-leaf-frame-pointer -m32 -mfpmath=sse -mpreferred-stack-boundary=8
 # -mmmx -msse -msse2 -mthreads -mtune=generic -march=i686
 # -auxbase-strip debug\stk_file_io.o -g -g -O3 -Wno-write-strings
 # -Wno-multichar -Wno-unused-variable -Wno-unused-parameter
 # -Wno-unused-value -Wno-unused-label -Wno-unused-but-set-variable
 # -Wattributes -Winline -Wshadow -Wunknown-pragmas -Wall -Wextra
 # -std=gnu++11 -std=c++11 -fno-keep-inline-dllexport
 # -fno-use-linker-plugin -fverbose-asm -fstrict-aliasing -fwrapv
 # -funroll-loops -flto -fexceptions -frtti
 # options enabled:  -faggressive-loop-optimizations
 # -fasynchronous-unwind-tables -fauto-inc-dec -fbranch-count-reg
 # -fcaller-saves -fcombine-stack-adjustments -fcommon -fcompare-elim
 # -fcprop-registers -fcrossjumping -fcse-follow-jumps -fdefer-pop
 # -fdelete-null-pointer-checks -fdevirtualize -fdevirtualize-speculatively
 # -fdwarf2-cfi-asm -fearly-inlining -feliminate-unused-debug-types
 # -fexceptions -fexpensive-optimizations -fforward-propagate
 # -ffunction-cse -fgcse -fgcse-after-reload -fgcse-lm -fgnu-runtime
 # -fgnu-unique -fguess-branch-probability -fhoist-adjacent-loads -fident
 # -fif-conversion -fif-conversion2 -findirect-inlining -finline
 # -finline-atomics -finline-functions -finline-functions-called-once
 # -finline-small-functions -fipa-cp -fipa-cp-clone -fipa-profile
 # -fipa-pure-const -fipa-reference -fipa-sra -fira-hoist-pressure
 # -fira-share-save-slots -fira-share-spill-slots
 # -fisolate-erroneous-paths-dereference -fivopts -fkeep-static-consts
 # -fleading-underscore -fmath-errno -fmerge-constants
 # -fmerge-debug-strings -fmove-loop-invariants -fomit-frame-pointer
 # -foptimize-sibling-calls -foptimize-strlen -fpartial-inlining -fpeephole
 # -fpeephole2 -fpredictive-commoning -fprefetch-loop-arrays -free
 # -freg-struct-return -frename-registers -freorder-blocks
 # -freorder-blocks-and-partition -freorder-functions
 # -frerun-cse-after-loop -fsched-critical-path-heuristic
 # -fsched-dep-count-heuristic -fsched-group-heuristic -fsched-interblock
 # -fsched-last-insn-heuristic -fsched-rank-heuristic -fsched-spec
 # -fsched-spec-insn-heuristic -fsched-stalled-insns-dep -fschedule-insns2
 # -fset-stack-executable -fshow-column -fshrink-wrap -fsigned-zeros
 # -fsplit-ivs-in-unroller -fsplit-wide-types -fstrict-aliasing
 # -fstrict-overflow -fstrict-volatile-bitfields -fsync-libcalls
 # -fthread-jumps -ftoplevel-reorder -ftrapping-math -ftree-bit-ccp
 # -ftree-builtin-call-dce -ftree-ccp -ftree-ch -ftree-coalesce-vars
 # -ftree-copy-prop -ftree-copyrename -ftree-cselim -ftree-dce
 # -ftree-dominator-opts -ftree-dse -ftree-forwprop -ftree-fre
 # -ftree-loop-distribute-patterns -ftree-loop-if-convert -ftree-loop-im
 # -ftree-loop-ivcanon -ftree-loop-optimize -ftree-loop-vectorize
 # -ftree-parallelize-loops= -ftree-partial-pre -ftree-phiprop -ftree-pre
 # -ftree-pta -ftree-reassoc -ftree-scev-cprop -ftree-sink
 # -ftree-slp-vectorize -ftree-slsr -ftree-sra -ftree-switch-conversion
 # -ftree-tail-merge -ftree-ter -ftree-vrp -funit-at-a-time -funroll-loops
 # -funswitch-loops -funwind-tables -fvar-tracking
 # -fvar-tracking-assignments -fverbose-asm -fweb -fwrapv
 # -fzero-initialized-in-bss -m32 -m80387 -m96bit-long-double
 # -maccumulate-outgoing-args -malign-double -malign-stringops
 # -mavx256-split-unaligned-load -mavx256-split-unaligned-store
 # -mfancy-math-387 -mfp-ret-in-387 -mieee-fp -mlong-double-80 -mmmx
 # -mms-bitfields -mno-red-zone -mno-sse4 -mpush-args -msahf -msse -msse2
 # -mstack-arg-probe -mvzeroupper

	.text
Ltext0:
	.section	.gnu.lto_.profile.f43ac16f,"dr0"
	.ascii "x\234cf```e\200\0F\206Y\214v\0\2\230\0\343"
	.text
	.section	.gnu.lto_.jmpfuncs.f43ac16f,"dr0"
	.ascii "x\234\215\220\313\15\300 \14CmB\240\237!\30\245cq\354\352\5R\212\372"
	.ascii "94\7\333\221^\22\204\340\273\22\315WDZ\355\247G\311 $\27@\262\253\"\265\365"
	.ascii "5i\225@P\33\232\232j\37\340}\200p\377"
	.ascii "0\11vy3\13o\20\327\3\10\377\271\24OV\35)\244\33\200]i}\34q\32q.|\373\226\245\7\34\"\332\22'"
	.text
	.section	.gnu.lto_.inline.f43ac16f,"dr0"
	.ascii "x\234\205\215M\22@0\14F_\33Z\365\257\354\35\303-\234\315\21\34\25cA\6#Y\344\233\274"
	.ascii "7\211\360^\223"
	.ascii "9g\1\345`\260{t\353x\14B\4\277\314\367"
	.ascii "6\344QK\276\205\364\22\354\237 \24\275\26\262n\317\367'\311\337\215\24\337h!\251\300\36\310\341j\215\244\4\263\314\376\13d_  V\203\374\261a\3V\217'\220"
	.text
	.section	.gnu.lto_.pureconst.f43ac16f,"dr0"
	.ascii "x\234cf``\20g\200\0n\6\11F\11&\11f\11\26\11V\11"
	.ascii "6\11v\11\16\11N\6.\6\0\21\2\1"
	.ascii "5"
	.text
	.section	.gnu.lto__ZN3stk4file6createEPKcmmP20_SECURITY_ATTRIBUTESmmPv@28.f43ac16f,"dr0"
	.ascii "x\234m\222\317k\23A\24\307\347\275\331\374 \241Q\264z\350I\17\241"
	.ascii "7\301?@h\260\364\246\24\353I\204\22\263\243]L\233\220\335\22<\204n$J\253\265\330\342!V-\201\324\244\255"
	.ascii "6m\255\277\342\317x\221\200\255\24=\10\"\245\7\5\5\221"
	.ascii "6U\227 Zgf-J\314\302"
	.ascii "0\363]\336\347}\337\274"
	.ascii "7\224\374\377"
	.ascii "5\361\225AB\316\361\35(\1\274\370\222\220\244\33\1\304\201\0\351C\350\203O\270\206P,|]\364~\304*\222]\204\313\7#\345\264SHP\204\314\215\177>\343j\276n\232\247W+\331R{I\251\"\222u$\220\203&\310\203\360\201\11h\346\221\375\217\6\362\36\272\23\4\265"
	.ascii "4\225\32\360\372\263\234ZI/\265\10\210\302$\320\177"
	.ascii "9\376\213\300\24\370y\364\340dy\32\351nIf\227\277?\367\331\344\345'\222T\340F-\251\20\270)\311\334je\30\350^I\276\30\264\212"
	.ascii "6\231\31\315\230-\222\234\256C\26$\231_\371r\326G\367I\362\341\343\205r\203\355y\345\227\364t\300L-\351 0+\311\13\331\312\242\203\36\222\344\332\360"
	.ascii "7\315\6\257n\26;W\307\362\226\4\307\263\263%\37\355\222\340\334\320\333\244b\27{m\263\330\371:\344mI\276\32I>u\323\204$\213\305\211v\333r\314\356,\302\235Z\220\213\273\340\227\5\246~\276\361:S\246in\25S\343\303\272\7N\340\373\314\266\222\271\261"
	.ascii "1\177\351\331\21/\177\24|\16\24DO\25\20\375q\200\270\253\23D\341.\20E\270Ad\364\310\334\344=_\342\31}\340\202\357\364\35\214\232\351\363\13(r[\350\341\266c\257\207\12\230\370a\366\233\356*:\327\221;\302}H\20\13\321Bj\241b\241\303B\36\354\262\220G\270\310"
	.ascii "2\300\37\232\210\374 \362r\227\355Z\344\250n\234\354<\256\205Y\247\26\331\23\212F\211'\34m\343\362`\260\233mQ\343\255L\327bL\15\204BL\327\275j\274\243+\30c\7\"*k\14G;X\250"
	.ascii "7\246\31\247\2\206\21\323\216\365\32L\337\241\306\367\307X\320\320\"=\255\232\36\215\350\232"
	.ascii "86\252\361\266p\360\204\36\350Q\377\206"
	.ascii "6t\35f\335\321p\320`\302\355"
	.ascii "7\312&\22K"
	.text
	.section	.gnu.lto__ZN3stk4file5writeEPvPKvmPmP11_OVERLAPPED@20.f43ac16f,"dr0"
	.ascii "x\234e\221\317K\24a\30\307\237\357\363\316\314\316fQ\24y\20\17]\26o\375\3]\302C\307\214\10\272D\322\217YZ\232\334a]\203\16\342\233\31x1b\205\330\223\36\254\254\254\265\254CnV\333%j\241\262\4\353\240!b\240\320!\331`\\\242\354}f\10j\33xy\346\373\360|\236\357\314\367U\364\377\323bN+\23\35"
	.ascii "7\25\212\300W\337\22]t\31\220\27\2\365"
	.ascii "1\372\260\306\353\214\351\322\367"
	.ascii "7M\253\\g\332CF\226\13\257\212\216HX\"\207G\302\307\211\266\33Z\353o\313\343\225C\25\253\316L5&\334D\13\306!>\270\205"
	.ascii "63\271"
	.ascii "6um\16\252\31B\315\314\376\332\236\32\323\272\177izv\277"
	.ascii "0\12\267\241\376\306L\213p\7)3\374\374\323\312\304"
	.ascii "6\325\32\201\327\313\205\325-1Y\376\20\221\26&\32I\213p7\"\307\212\357\206]\225\212\310\371\245\302\313dL>y\26\221"
	.ascii "6\356"
	.ascii "5\222"
	.ascii "6\241\24\221\227\347\27/%\324\276\330\363\353h\325\215\311\231\330\323\301d#\351\20\356G\344\320\353r\25\352pDV\337o,#&\237.Dd\2\17\32\311\4a\12)\31_\37\370\371\261\311\31"
	.ascii "0Y\356\220\10Mr\17\341\300\324\311\235\25\275\271Y\33}QD\322\\\221\211EA~\321\202|\256\15\261v k\\\222\374i\305\34\271\310/F\230\252\26P\324\33\205E\310\302\220]\343"
	.ascii "52w\245\304\275?\364\240v\353\354\326\330\330\340\21z)d\16Y\205l\205l\207\354\324"
	.ascii "9I\237\361\207#\331\14\331h\366\357\312d\217u\347\317v\246"
	.ascii "3\276\327\231\311\356=\25\4d\237"
	.ascii "9`\224\353\7\355=\351\264\227\333\335u\260\347\334I/\327\221n\277\220\367\272\217d\217\346"
	.ascii "2y\257\331\17\376iK3\357um\365\203\216\363^\316?\21\4\336\351\337;\311\331v"
	.text
	.section	.gnu.lto__ZN3stk4file4readEPvS1_mPmP11_OVERLAPPED@20.f43ac16f,"dr0"
	.ascii "x\234e\221OHTQ\24\306\317w\356\233"
	.ascii "7\317\246"
	.ascii "42ZX\213"
	.ascii "6\203\273"
	.ascii "6\355Z\211\213\226\32\321*\2\261|CCS\363\30"
	.ascii "5h!\336B$\210\"\14\302\225\10\375oj\246\264E\15Q\23mR(L\303&\33\242\322`\334%\12\317!\312\316\275CP\323\203\313y\337\341\374\316\367\336w\25\375\377\264\310\331\311D\207\245B\21\370\362\33\242\263\36\3\346\205@\203\214A,\363\12\343In\355u\254\302U\246\335$\262"
	.ascii "0\362j\324"
	.ascii "5\22\216\221W\306\302\307\321\326\33Z\353\357\263\331\342\201\242Se\246U&\334D\13n\301\370\340"
	.ascii "6Zery\342\352\34\324\16\30\352\351\314\257\246\370"
	.ascii "5\255\317}.\315\264\31F\341\16\324\337\230\264\10w\21\227\341\347\245\245\354\26\265\313\202\327\13#\225M\226\34\377"
	.ascii "0\256\333\204t\220\255'\35\302=K\26\26\247\366\252\270\5/T\364\313X\315r\341\231\265\214\340~=\30!\344,X\\[\327\215j\237%\313_\206\337"
	.ascii "5\326\310\217\263\226t\221\257']\302\3K^\234*LCuXr\372\355\372W\324\310r\331\222Q<\254'\243\204\11\304\315\370\312\320\317\367"
	.ascii "1wH\242\334j\22\224\340&\341Bj~[QolL\346_\314\243AnHRQ0\177\350\300|n\4\306\332\205Y\343\221\211\237\226\344\230{\374&B\252*cT\227\26\346a\26\206\354\211\327\330\334\245\34\17\374\320\347\265Weo\225\305\6\217"
	.ascii "0@!s\310*d'\344H\310n\225\33\350\23\376pd6\303l\224\375\315\311\364\221\336\276\23]\211d\312\357J\246\367\34\13\2\212\34\337/\312K\5\355\375\211\204\237\331~\252\243\377\344Q?\323\231h?\323\347\367\36J\37\364\273{\232S\301?]\323\333\234\12:O\373\231Tw\20\370=\277\1l\3\327\256"
	.text
	.section	.gnu.lto__ZN3stk4file10create_mapEPvP20_SECURITY_ATTRIBUTESmmmPKw@24.f43ac16f,"dr0"
	.ascii "x\234m\322\337K\24Q\24\7\360\373=wf\326\315l\255\240\7\361\241\227Ez\351\245\177\300\36\212\36*\204\240'a1[sh\227]t\304\10\304\333\262A\204D\30HB\224Pm\331\217\335\324\12\372Am\24(\205%\353C\5b\261T(\204\255\32\214\323\246v\357\335\202\332\34\270\334"
	.ascii "9\303\375\234s\346\314p\366\377U#W\210\30k\224;8\3\235}\315\330\211\12\2\324\15\3\353&tc\226\346\11\17\322\337\307+g\310#\266\225\311\360a\357\330yK\205"
	.ascii "0T\230\272\362\365\244\257\356\252\20\211B.\223m\310\32\36\21[$\206\24jp\15\252\16\256\243N\236\234\35\356\233\4\337\2\245\36O\254\4\202\227%\372\370m\242^\33\14\202\377\315T\32\334@P\36\356\271\220\230"
	.ascii "3y\255\206\371s\243\243U%\271\264\242%\307\315r)\337\347\226\226\37\336\24NW\361mZ\16\275x\324o\224\244\367DK\3\267\313\245\301\220\326r\241"
	.ascii "0\235\10\360\35Z\26\226^\15n\320r\340\307\200\250\327"
	.ascii "2\263\206\274\243\345\245\227\343\317\301wi\371\276"
	.ascii "7\237DI\26\377\310\241"
	.ascii "5\344\260\226_r\305\205\0?\250\345rO&\345/u\373"
	.ascii "3\247\273"
	.ascii "51R.M\206\273\10\252\343\363\311\345\267\225VR\10Q\255\206/g~\17\26\344\236\331\224\25\253\253#O\237\365Y\353\344\307\225\3\345P\303"
	.ascii "1\240^\324\204j\332\202j\300\7\225\314\257\7\317>\311\245~\204\317"
	.ascii "2\220;\237B\277x\227\37\253Ui]\362\313\212\27'\317\244\251\253(N\211\12\217\254E\222\305p\37]\314%r\211\273d\270d\272$\17\373<\362\261i\340"
	.ascii "7e*9TRYb\263\35klw\216\206Z\354H8d\307\266"
	.ascii "7\307\343\314l\335-\243\365\221\370N\307i\263\17u8\341v\177K\244\241-\346\204\233\235\215\207;\367"
	.ascii "5\35\263\243\35\321\3\366\361\360\36\373Hk\365?O\366\306:\255H|\177S4\374\13\245\25\357\212"
	.text
	.section	.gnu.lto__ZN3stk4file15create_map_viewEPvmmmm@20.f43ac16f,"dr0"
	.ascii "x\234m\221MHTQ\24\307\317"
	.ascii "9\367\275\347\223\201\24\213\26B\324f\220Z\264oY\204\210T\263i\25\202\344\314\33}}8\203obp!\336t\244\10\351\13\27SAH\226e\351Li\213\262\215(\324\264H\202\201>0L\312 \305\205"
	.ascii "6\341c\210\260s\357\314B\314\13\227s\377\227\363\373\237{\317\21\360\377\252\345\275\227\0\332"
	.ascii "9\242\0\244\353\263\0\27mBT\7@\350&\354\306%Z#|\231\371\375.\360\223\212\4\373\200\345\344\315\\\332R\22\15%\207\357\257\364U\324=\220\262guz\"e\367"
	.ascii "5\24\211\240@\200\303X\213\17Q\325\301GX\307\231\203\371\354"
	.ascii "7S\354FE}\270\367\352\215\31\34bj\341Z\357\25[2%p\4\305f\220\257\0\37c\220\323\373Grc$\366kth~\375\365\216\22\232\376~I\243\6>\331\212\32\200\243\32\375\272\364\376\255%\16itfq\262\337\322\350\340\255^C\203c\333\200\31\15\216/g~U\212F\15\346G\347V\2%\360v\31\314n\3>\325\340\314\247\271)C\234\322\340\347\365\351\1\243\364\330;\345\177\232\370l+j\2\216cP\345\257\245\376~\14X))e\265j\"\367n\2-\344\230\255\231\222\33\33\205\331\33\271\3X\311S\342\276\10T_4P\275\327DU\334B\345c\203\32\1,\362V\263\374\301\202\243\370\202i\371byu\217r\364\311\346bw\363W3\324\365G^\226v\221\254\2q\35|\216]\340\23\371$|2|2}\262\212T\1\363\210e\16\224"
	.ascii "3*G\366\337\351\306\232\274\304\331\346\250{\316ivc\7\303\361"
	.ascii "8\324\264\325\263:~:\36w\333[C-g\234p\242*\222<\352xn\207\23"
	.ascii "9\34\16;\236W\35I\252\234P4\352"
	.ascii "9\211\6\267\265\255j\363\305\261XrW$y\342\302\371\26\247#\24=\322\231p\274\223"
	.ascii "1\366\373\7+d\336r"
	.text
	.section	.gnu.lto__ZN3stk4file14flush_map_viewEPKvm@8.f43ac16f,"dr0"
	.ascii "x\234e\220M(\204Q\24\206\317{\356"
	.ascii "7\237)\221\250YXY\230\354\330[(\26\262b#+%\314'\223\321L\363\221,\344bH\26\362\263\261\262\221\177\306\322\337\302\354\260\30%\305f\222\5\205R44M\322"
	.ascii "8\27\13q\353t\356{;\317{\316\271\212\376\237R\211\26\20UK\206\"\360\314\31\321\210\227\1s!\320"
	.ascii "0c\30\17\374\302\330\217\277&\363\357"
	.ascii "9\313TF\"\17\346N\26l#a\31"
	.ascii "9\277\230\331\313\253X\326Z?\217\356\306\274\343\15YfJ3a\5\245X\205\351\203"
	.ascii "5TH\345\333\341\343\252\245|0\324\\r?\235\347_\322z\364&\276"
	.ascii "4\345\325B)\254C\375\6\345\211\260\1\277\224_\236\217<Y\252\374\13\315\35\37\235\26~\243;c\337\250\205\315\277\250E\330\202\337\324\277\304>\256\362\355\230\14Xd\346\222q\266a\313\346\264S\234\320\271\\:5{_\5[\26\227V\12\206\362\220\331\201n%\314g\334\211\220\254R\30O\274O\324\30<\303\36q^\274\230\216\363\320\273\236\324\336,{\322,\246\210c\210"
	.ascii "2\314\31VY\266\351\32\370)'\343\7\343#\256%\301p\253\333\327\323\326\25\14"
	.ascii "9m\301peg$B\5\241H]\273\353\324\6\2Q\307u}\201\201\306\376\336\16'\332\324U7\330\347\270\315\341\372P\277\333\375\11j\315\213"
	.ascii "1"
	.text
	.section	.gnu.lto__ZN3stk4file14close_map_viewEPKv@4.f43ac16f,"dr0"
	.ascii "x\234e\217"
	.ascii "1K\3A\20\205\347\315^.\7A\220\10\26\251\4\211\351,\355\265\362G\10A\314\11\301@\202g\33\262\312\11b!\32\33\253"
	.ascii "4A\243Qba\343i\23l\14Hl,lD,T\324\312pJ\10\"q\26,\4\27\206\331\267\274\367\315\254\242\377'!\25\7\321\250t(\2o^\23-;\14\230\13\201J\214\22^\271\303\10\32\37\355\330\13\367\230FH\344Y\271\265c\33\11\313\310\355J\367"
	.ascii "4\232\332\325Z\277_\4\276\263:\335c\246\220\11{H\240\6"
	.ascii "3\7\373H\211\363\363\374\255f\251a\230T\271\35\204\321dU\353\225\207\253\352\272\243%\245p\0\365"
	.ascii "7(O\204:\222\306\337\361\277oc\266/S\6\15\\\230\207\260e}:\216"
	.ascii "7u\277\37>o\265&\20\221\355\305o\221Y\201\36\245\314_\236DHWw\360\233'\227c&\330eK\230\225\233\215\6\27\277\364\232vzl\205,8\34\241H]\226\317E\350\36\370\365\222\201\301@\4"
	.ascii "9\224\315\317xK\13\351\371l\316Mg\363\343s\205\2\15\344\12S\263\236;\231\311,\272\236\367\3t\202l\24"
	.text
	.section	.gnu.lto__ZN3stk4file5closeEPv@4.f43ac16f,"dr0"
	.ascii "x\234cf\300\4R@,\304\310\300 \13\244\31\231\31\30\231&\234c`h\344`bd\4"
	.ascii "1\30\30\31\352\231\30\353\31_2}db\334\271\356\313Y\356\27L?\231\30\24\30\200\334]\223N\314`\3q\31Y@\334\311\363\276\357`W_\332\320\320\360\341\323\356\26\216V\217\237LL\14\237\231\30\30\227"
	.ascii "1J1.g\4\331\303\270\202Q\35\250\362X_\323\32\16f1F\220\256\213\323\327M\347S]\334\320\320\364\340^s\27G\3P\27"
	.ascii "3\343JFfd\215@!\6\306U\214\252 \365\37[\376^\347fk\1\332\"\0"
	.ascii "2\34h\346jF6\240\363\31\326\13\35h\370\377\177\363\227\211+\254\31Y\201\256\7\252ga\0"
	.ascii "9\201\341\11\20\203\374\362\24\310\1\322\314w\30[\16\334<.\13\322\370\235\211\5h\346\274\313}\353\230j\177"
	.ascii "7t4p\374db\371\314\4"
	.ascii "4\216q\15c-\303w&\240\347X\31\356"
	.ascii "12B\325"
	.ascii "2\200\14c\4\31\2"
	.ascii "4R83?\246\270$;>-3'5>3_/\271\240\200\201=\303?)+5\271\4\0\11\23h\215"
	.text
	.section	.gnu.lto__ZN3stk4file9close_mapEPv@4.f43ac16f,"dr0"
	.ascii "x\234e\217\275K\3A\20\305\347\315^.\7\1\221\10\26\201\200\10!\235\177\207\235\377\200\20"
	.ascii "0D<\25\22"
	.ascii "0m\310\32O\10\26\301\217\"V)\24\277\303\331\252\215\251\324FA,lD,\24\264"
	.ascii "3\234p\34\22\316Y\260\20\\\30f\337\362\336of\25\375?\31\251"
	.ascii "4\210\262\322\241\10\274~G\264\354"
	.ascii "0`.\4\252"
	.ascii "3\352\370\340>\343\334\377\272M\275s\304"
	.ascii "4F\"/6o\266m#a\31\271\325\11\317\222\371=\255\365\347\316\245\347\254NF\314\24"
	.ascii "0a\37\31\34\300\314\301!\362\342\274j5\272\216\32\205I\335\267\375\366PnW\353\306K\264\262\346hI)\34A\375\15\312\23\341\30"
	.ascii "9\343\357{\203\307\224\355\311\224a\3\27\346\11lY\237N\323=\35\307\301`\243"
	.ascii "9\316\11\331^\374\26\231\25\350U\312\374\345M\204t\365\4\257\27_gM0dK\230\235\207\226\317\265o\335\324N\304V\300\202C\27"
	.ascii "5\12Y>\227\240g\340\327K\6\6\3\21\344\210[\236^\252.\24f\335\305R\301-O\24+\25J\316M\315\314\227\212\325\37\351\344h\223"
	.text
	.section	.gnu.lto__ZN3stk4file4sendEiPvm.f43ac16f,"dr0"
	.ascii "x\234e\221\315K\2Q\24\305\337yo4A\213(h\341\246\300\304\332\364"
	.ascii "7\364\207\4\21e \231\6\331\332Q\204\302E\205\264((R\"\323>\374\\\31\25\263)B\250p\223AP-\14l\21$\5\345\242\246\373\306M\37\17\36o\316\314\375\335s\356\33\301\376/;\355"
	.ascii "2\30\33\244\23\202\201/_2\26\262p@>0\260 G\20O\274\301Q\312\274]X\353\274\311Y\37#y\30;_5K\11E\312\350{~\335\346\332VU\365\245PI\331\226W\342\364\211\263W\316\220\204\35;\220NH\301E\265\317z\362Y\210\36H\256vZ\277"
	.ascii "3;\267\210\323JquX!\10i\210\237\234\354\203]8\251:Q]L\265\211^\203\314?}<@\222a\355\246E\12\354\375%i\244}\203L/$\13V\321o\220K\271\243\23\336\"\365\26\251\340\340/\251"
	.ascii "0d\340\224\345\215\310g\325j\216P\304N9\17\215\221\205\231\356\214e\273"
	.ascii "4U\327\213g\261\272\213\"\262\32myk\217$\350\24\327\10k\371r\7ux\233\317\336\266\211\1\303|c3\275gr$\244\371\32\231G\342\352\227\256\243\311M\310\375\216\320Z\277\375\221\207\303\260\247\20\5\12A\222\12\356kW\25\213\374\25&z]$\364\16!\355"
	.ascii "8\332n\224"
	.ascii "8d\247\32\207\214D\1\273=\376\221\331\300\324\350\244\307\353\36\365\370\207\306gf\230\305\20\276\271ieb,0&\274n\37<\337\264:\255\264"
	.text
	.section	.gnu.lto__ZN3stk4file4recvEiPvm.f43ac16f,"dr0"
	.ascii "x\234e\221\313K\2Q\24\306\357w\357\370\0-\242\240E\233\2\223jS\377B\177H R\6\222= [;\211P\270\250\210\26\5EZd\332\303W\253\"b6A\10\25-\314 \260\26\6\265\20\22\203\212\250\351\334q\223v\341r\347\233"
	.ascii "9\277\363}\347\216`\377W\7\355\34\30\353\243\23\202\201/]16k\345\200|``\1\216\0^x\205\343"
	.ascii "8\371vi{\346\237\234u1\222'\313\27\253f)\241H\31~\317\254\333{vTU}\335\312\307\355K+\21\372\304Y\225"
	.ascii "3\304\320\201]H'\304\321C\265e=V\26\242\35\222+\235?\27\315\316m\342\264\343\210:\250\20\204\4\304_N\366\301\36\234T\35-,\304-\242\323 3/\37\217\220dP\273\253\221\2\373\215$\215t`\220\211\371X\326&\272\15r1}z\306k\244^#\25\34"
	.ascii "6\222\12C\22NY^\11}\27l\346\20El\221\363\320\30)\230\351\316X\252USu\275\232_\276\30\240\210\254D[\336\332\23\11:\305-\202\332C\256\231:\274\315\245\356-\242\327"
	.ascii "0\337\330L\354\233\34Qi\276F\346\241\210\372\243\353\370\344&\244\353#\324V\275?2p\30\366\24\"K!HR\301C\351\372\306*\177\205\211^\37\21Z\304\254\366\25n2J\34\262S\211CF\242\200m\336\311\241i\377\230k\324\353\363\270\274\223\375\303SS\314j\210\211\231qe\304\355w\13\237g\2\336_\375\245\256K"
	.text
	.section	.gnu.lto_.symbol_nodes.f43ac16f,"dr0"
	.ascii "x\234U\310\331\21\202@\24D\321"
	.ascii "7\14-(;\11"
	.ascii "7&@\371\353\206\250\270\347b\14Fb\251\305X\365\246\277n\37+\"\255\221q\301\22\24Y<EHi\373X\202\25h<X\203\201\7\33\320z\260\5C\17:\20\36\354\300\211\7=\30y\260\7c\17\16\340\364\17\335\17\216\340L\203\31\300d\4i\232\357?\201\251\376g0\323\377\2\346\372_\301B\377\33X\352\177\7+\375\37`\255\276\225D\206\327{n\254I]\4\231\13\233\273\10\13\27(]L*\27Q\355\"v!\37\30Vq\245"
	.text
	.section	.gnu.lto_.refs.f43ac16f,"dr0"
	.ascii "x\234cf```d\200\2\0\0=\0\5"
	.text
	.section	.gnu.lto_.decls.f43ac16f,"dr0"
	.ascii "x\234\245X\13P\224\307\226\236\376\33\230af\200d5q\313\255\255X\356^\356\272I4Q\223"
	.ascii "5\273[{1\212Q\343\12W1\326Z7E\14`$\13\310\12\321\275w+{\177\20\25\4\37<E\5\35\25|\360V\20\20\20\207\247\240\202/\24\20\321\21E\361\11*\12*\302\236\356\376_3\376s\343\232\277\350\232\277O\237>\375\235\357t\237\323?X\243\321\370c\215f\4\236\337\214\323h~p\322h\214 \363\322\310\317(hw\240M@\32\315\24h\336\320\276\205\346\17\355Gh\241\320\302\240\375\11\332\317\320\"\241m\204\226\12-\3\332\1h\5\320J\240U\"\315k\17\261\255\203\346\252akgA;\12\355"
	.ascii "8\264v\362\13s\272\4]N\320\217T\261C\360\351\25v\356\11\266\372\4[O\240\215\3\35"
	.ascii "3\264\30$\333\233 \340\265}\246\330\261Woc\257\12Z\222\302\336\24\301w\333\207\360f\353g\273`k\26\214UC3)\354x\13\374\331>\337\332\330\251\27l\21;>0V\3m\211\302\316\267B\14l\37\22?\255\215\177}\202\215Zh9\12\33\376B\14m\37\22\177'\25\33u /T\314\377Q\210\277\355\23\252"
	.ascii "2\237r\14\362"
	.ascii "2\305\374P;{'\354\15\347\207\331\231\377'\233\371s\241\315\327"
	.ascii "0^\216\13:H\320\263}~~\303\271?\253\314}\304\241\243y\375M\206\36\16\271\352\307\221nYBC\252\23t\215z\7\322}\261y\273\27\346\20y\275a\216\277a\370(\213\347\371h\336\334\200$\13\334`b\367e\3"
	.ascii "2\272o\340\371H\362\347\334\340\212\274\336G\373\320X\264\37\215\325\240l\344\216\346\23d\232\14\230\334\227"
	.ascii "5\330:\232\347\35P\26"
	.ascii "2\242\3\10\243\203\350#\202\220iPH\315\33\343\212"
	.ascii "1\366\241\253\232\372\16\365\31\35"
	.ascii "8\15\312A\230\215"
	.ascii "6d\247\177\207\277#\203\16\275\347\206\216\272\240\261c\365\356\251\0j\360\3t\10\351"
	.ascii "5\344\325\334"
	.ascii "32\362\347\21\366l\326Rq4\254\315[\342y\374\327\32\364\321X4\1\200\35\6`dH\203\12\0k>`\245\0\233p\24\"r\224G\227Tp\25Y\327\376H\217\377\213\254\315\225\230\13\267\350\220\273\236\371\224\232@}:\2\263\12e\237\250q\362\250,^\364\332\342\260\300\335\326\356\24'\275\240\35\375K\332]G\357\366\270\342U\224\247;||\203\316\250\14A1`\21c\240A\245\310(\204+gW{\225\233M\270\224\272\250\14\326\22\324\231s\375\27\306\20\347\216B\300Jd\347\4\25J\314\375\226'\217\14\370g\212$b_y\234\26v\220VO\207\256\355x\236\341L\273$\30n\4A\373\372\247\275\6\221\272\330\265#\263\327\360\36\350"
	.ascii "8@(\227\255ke\346D\224\32\31b%@$\32\250\2$\307\30\33\5\307\263c\234\351F\376\216t\7\326\366\305\350\351F6\222\356\355\354\247\251\6\334\210(\304\350\330G\247\\\360U\326\251+\214Y\347\202o\321\16\327\277>\357\242\23r7\22h\226\324L=\217P=\270]\373\372>\265\267\333\353\244\335\16\266\267\345wwp\370\1[h\335\311\375\227\365"
	.ascii "8\222\235\246\274\316\232\325\200n\256\236\304z\220P\203\376\14\342\306\13g\316:R9\21i\11\244\355\333z.\350\5\266,W\367j\1\322i\340\252A\206"
	.ascii "4W\271\313^\343\352\24\0\"\32\250\21$'\31W\33\36\234\251r\303\33\30\224\303{3\213\31q\36\320\325\275\330~7\3\243mH3j\224\373\370\361\343\335\267\"t\16\215\322\240\177\200m\244\211'+l\341y\217p\15"
	.ascii "2\203\275*\262\302yX\1T\10\34t\11\336/\240\361\250\5\332Eh0F \236!\6U'_z\303\311t\263\34=x\342\267|\274\3:\13\23\252\201\0\2\14\24\330\17<&p\337\262\263\330\354`\256\305tG\325"
	.ascii "0%\231\15\342\5\372\307\261\242\356\256R\246K\202|BUw\37\22\224y\313\201"
	.ascii "2\246L\350oRUn\246\312\31\274\211\267\244\267\360\36fJ\35E\312B%\247\222\23Q\347^\270`\13\213\300S>\373\252\336\352\360*MkP\233txO\367wwq6\207\327\12\306e\240\260M>\274\226\203-H\207\332\301\273Vy\277\264)N\356pJr\14\7\371UC\363\361\22\232\364ot\226\337v\244"
	.ascii "2Ba\7\242\302\250\246\206\36$\11\257"
	.ascii "0a\327\301\246\16=\25\222%:\231\260t\240\244\320I\322\274\312\204w\333\212\362e\233\327\230p0ud-\233Nr\213\205\11;K\"\252uc\222i\16\214\340\337A\24\30M\203(\27"
	.ascii "4P\27\32\3\23\256\303+u\340\364\315\372"
	.ascii "2G\374\214\213\340i\375\272\222\366"
	.ascii "4\306\1\277\22\273\361\273\257n7\340H,t\315%O\363\265\23\366C|\372"
	.ascii "6m\254w#Y\15\316n\267M|@1\371nI\221+Sl|\260\233\23\24o\202\342-4A\251\270\367\352\236\"'\\\210i\34K\322o\245"
	.ascii "8\216\333\311\233Lg;\362\23\265|*o\36\31\371\35\205\214n\300\334\333l.\352\21\12\13\272\203\306\21\217\37\17\237q\306#\324\6W9\234\334\345\202\364\356\352\207\371\276\355af9\264\356\305\177G@\16\275\7\324\336}=/\250\226\321\312\262\234\22\16G9\320E[3\236\334w\25\323\336\216n\3\344\230>`\375\241lk\226J\332\373J\221\366z\1\330,1\355\245\233\273:\234q\34\265\215\362\233\253\316#\253\315}\334\252"
	.ascii "2=\226"
	.ascii "6\267\351\352\232\33\310fs+uQ?,\362X\261\271"
	.ascii "7\327\221\4\375\4\220>\222\221>V\354\356\332s\35\331N4\265\231(\226\344S\245\235\254(\214&\335\7\33\212\323\215"
	.ascii "8\211\341l\315\273|\335\31\233\30!O\266T\347\30\305\22u\371P\305\327\244D\275\0,\203oZ\242\236\253\224\250\215\15[\353t\370![\257#g\343\37\360\0{\317HN\311q\244\270t49\244u\317\305Q\216thMlJ\253\13\216\25:-yN8\205\276s\373Gv\307;\12"
	.ascii "1\353\313*=C/ \221\234\21\361\334\33\27\253\10NQ\254\216'\306t;\343"
	.ascii "4\266RY\303\355\363\6\234\301:\247\272\6\237\30)\274w\240;\246\247"
	.ascii "3\362!B\343\335!+\263?\250\23\243\340qww\37?z\364xR4Hr\205l\275\311\270%\302\324\205h\24G\200\271\315\234zz\245\321\314\257\340g\352\320&\16j\15\350\21\370\354\7\36\250A\344\235\325 \350\244p\243\345N\274"
	.ascii "4B\315\344=&f\266\22\15\242\246\21\177\204,n\316\336\23\351\1I\234\232\200\251$g\243W6\31\234\326\206r!\335\23N\327pt\206Z\35aU-\222V5\311\326z \226"
	.ascii "8K\346$\302\373"
	.ascii "6n<Z\7\15\344\4Q4'\225C\233\211\211o<\221\325\321\247"
	.ascii "0\361\31\231\230\4\312\304\35RG\323\340};LJ\206\26\7m\7"
	.ascii "42\236\300\214l\260k$\355\377i\204V: \234T:\221P\271\314\321Q\210*\31\245\341\223\2!\235\340\354!\22\254-\260\344\0l\17"
	.ascii "6[6B\303\220[\311\302@N\337\20SR\335C\11jt\2XJ%\231D\336S\301\211\215\320b\341=\221"
	.ascii "9\22C\34Q\235\34\373\206\223\351\345 ?\357\357\33\246In\332\354*\371\302QZ _N\206UO\204\254\233\243\360\374\245\252\347\262\356"
	.ascii "1\341\"C\212e\24g\243\273\226\223\224iL\262\331\335$^\240\335\366n"
	.ascii "\222\233\332X\242\303\331\354\354\367\36\212\274\340l\225\276\225\246"
	.ascii "5h''\246\357\352\264\276\7\342\335\331T\311\363:\15"
	.ascii "2\301\321I\227\323\221\240k\235\217\254\220\356\2j%\213hGbt\236\226\336\17\210!v9I\\\223p\322@e$\357\357\346\330E\242\274\357\236\253t\273\330\303\204\235w\216e\261\333\5\251e{\231\360XB\345\21\371\276\223\301\204k\317\346\326;*\257\34\244\220\262+\307\3r\345\330\307\221+G&'\\9Z\316\367\362\30\227"
	.ascii "2~\332\242b\332\334p\245\220"
	.ascii "5\333\253\12\234\350\5\240\257cs\363o6\361\26\236\37\206\253=5\201\366s\362\25\340\0'\\\1\16r\343T\353\363/\373\236\255\346{\16\23\336y\360\360)\363\235\334ls\231\360\352\372\347\26\243\344{\36\23vu\267\374\217\272\353Y\240\200\12\250\353\371\242\353q\31i\367\14\370\36\363\366x\325\232"
	.ascii "8W\334\307:)W\332\223\235\251\353\246"
	.ascii "3i\274G\4?4\2"
	.ascii "7\32\230\216\16)\334>,\272]h\307m\261\324\270\322R\203\266\267v\367cZy8\322\275\264ec\267\33Ns\242_\377"
	.ascii "5\3\211\275\10nJc\307\322\12\334\27\301;\36\200\12|\204\33\213\212a\303\243\243\260\227J9R\202\313@T\316)?\357A\216J8\345\347}*\257\243\332\364?\11\360\351E;\344~\271\336br\303\31tI\256\250"
	.ascii "0\351\251V\372\350\257"
	.ascii "8\377\36\251\271\225`\253B\336\344tI\351^\360\32\252c\257\241\"\341jOjCzaB\364\33L\350\276\320\337\256\305Y\24\25:\271-\267\\\213\17\263Ng\347\332\303\256\326\327-Ny\335\252\226\316k\226ys\277\213x\351\313\213q\205\253T-l\265*\331\225j\265\363\252"
	.ascii "4\207j\0\234l\261\274)2\301(]I\212R\376\226\320S\17"
	.ascii "6\315\262\315\332_\264Y\247\264\211\342\343N\374\236md\351\30\344_\36\256v\221v\374\11\266\217\371\204\246\26\371\30"
	.ascii "40\341\311\227go\313\232\215Lx\252\240\266\321M\372h9\311\204\267\23\326\236F\322\331"
	.ascii "8\305\204\205\11\321u.\352\237\"E\344p4\321\303qZ<\34i\231%[0.s\22>6^\245o<\354\214\353XXz\223#O\353\205\314p\246\303]\221\31\300\10jV\34\221"
	.ascii "3\342\21"
	.ascii "9k\347\210\14\276\212\337\351\200#\264tG^)\270\36c\220/\252"
	.ascii "9\357\235\202\304\213Z\200\317\363"
	.ascii "2\347/\320_\274\252^\340^\277\252\16\224\266\307\261<Il1\336\357\27\306\275+\221y\221Q\364\"k\350\246\314\360%&\354ik\331\201%a+\23\246wwow\223\30nc\302\243\245\271\21\234\222\341z\211\341s\204\341\313\224\341v\221\341\333\321\211\207\335p\264V`\270\372R\363\200\16\247R&\320\313\242\350a\243\310\360\215\345"
	.ascii "7#\370"
	.ascii "8\336"
	.ascii "22\362\1"
	.ascii "5\202:\24\14_\21\31\356\264\303\260\232\363\207\267\232\366\270I\325\344\32\203\337a\272g\266S8\256\22\370\327)|\213\10\277\370yb\205\16\233E\370\255\27_%b|\206\301o\273|\267\226\301\267\344\336H\220\277\35\301\4\352R\200\277!\202\277i\7|E\315\346\203\6\11(\3\377\"\265%J\253\216\263\233\340\274Mq\336\22q\346"
	.ascii "4\365V\32\361\23\21\347\310\375\352:\27\34\251\243"
	.ascii "8\343\272\367\304\260o\\\323\311\32\314P\222\371\250G\1\362\216\10\362\256\35\220j\377v(\211_\333\203\325A\336# \37P\220\367E\220Y\367\372n\31q&C\225\331Y\372\277"
	.ascii "8\233\275W5n\35\340\30\302N\11!LF\17\25\10{E\204}\24a\237e(\3\343\32\235\340qrre=\306M\314\336\305\302\272\32vtM\203V\366\36)\354=\26\355=\241\366\252\317\224\246\260t\242\25"
	.ascii "7PNBy\242\216\212\346\33Q?\333?Iw\222/\262\177\225\314\325\243\247L\326v\275\242\312\352H\314\25X\0\255\1J\301"
	.ascii "3\221\202\346\246\250\225\370\16C\231W\336\373#~\310\336M\215Y\353"
	.ascii "1 .(\260\304f~af\265\230\316F\203\12\314\317E\314/(\346\226\323\347\267rx\255"
	.ascii "3\373\"\275\273\351\200\26o`\235\243\273_E8S{\246\254:\221\1b\355\245\302\332\220h\355\25\265V\233a\331\343\210w3\3gw\364:\342\\\366\336\23Q\233I\376\23\204F8a3lK\276\337\344\200K\330pjtl\213+\254e\341\373"
	.ascii "6\265\366/HM\343\253\253L\200\37!\372o\224a1\253!\36\303\236\210\300\302\242\221\370m\257QQX\345\32\265\26\253\\!\327a\225+\344z&ln\272\337bu\302NK\233w\15\1\32\203I\344\242\261\230\11\206\323\333\234\360\6\275\35F\326]xV\204q\22\33>\27{\257\30\213\214\14\276\37[\263\306\224\32]\13\214|@\254\242\15Xd$\226,\24'2\262\361\255\31\331\254\306\310\26\254r\261\214\307*\27\313\4&\334_{6\27\253"
	.ascii "3\262\211\0M\242\214$\212\214\234O?7\14\373\305\36#/3\267[0\316b\303\365O\317\356\346(#\246\346\272"
	.ascii "5\343(\33\277#\6Q\262DF\12Yc\253HF\252\35"
	.ascii "2\272\216u\275d\310k%2n\237zpS\376\377\345v\346MDW\333MN\22\356`\302z\323\365\4\271\370\245"
	.ascii "1\341\272\264\375f\203t\275Hg\302\307\333\6\253\34%\206v2\341\311\23\211&\275\372\365b\33Ao\242\14\355\22\31\212:\220\331\352\212\213\355"
	.ascii "1t\240\341\240/nd\243\315\273F\222]\330\226"
	.ascii "9\336"
	.ascii "1\264Py\210\300(\332-\261\264\207\254\263Wd)\203\262\264+\361H\204\13\316"
	.ascii "4\330Y\347\305\245\375\305Z\\\310\206\267\224\235\237\303\2\21S#\5\202\324\333Li\211}d\211\375\342\22\7\354\4\342\227Kn\26#mx\250~\310\240\276\255\16\222\225r(i\331\"i=\327"
	.ascii "3vjq\255=g\22wg\37\324\342\26"
	.ascii "6\\x'm\253^d\255b\211\222"
	.ascii "5\260\212r%\227\362\310B\371\242K\5v\\R+\304\273\256U\234\266\223&\16\21\243\205\24\375a\21}\343\272\207\327\214\370\226=\364\27\216\\Jw\302\317\330\360\376\214{g\265,\26mi\374\227\24"
	.ascii "9&\6Q\221\4\374\10Y\243X\4^b\7\270Zq\276\31\337~A\247\16\274\224\30-\243\300\217\212\300w\247D\316\301\321F;\270#\372\33\6\264"
	.ascii "8\211\15\357\332\261f\223\3\305]p\362Q\16\332\304_7ma7c\260\211\312%\354\25d\231c\"\366J\212=\276\372\364}\7\371cg6-\21\362\267\316qL\277\"\310/\211\365\320\326:\244T&\331SV6\13\312f\252\374xOJ\221^\251\234d\245\\%(WQ\345h\313\246\26\255R\331d\245\\-(WS\345W\21\11\203:\245"
	.ascii "29.\262r\215\240\\C\225\207*\16$9+\225s\254,\327\12\312\265Ty\340yA\253\225\203\205V\312u\202r\35\303\274\267\371\260\213R\271\314J\271^P&\277N\263\247\317\237"
	.ascii "9\317S\367\325\374E\343f|\370\241f\372\214\177\236\364\373p\370\373l\342g\23?\231\344\263bEP\330\244\340\300\220\37VO\375b\262\357\224\311\223\2?\237\366\371\307\253?\237\372"
	.ascii "1\25\22A\210_\320O\376\1\223V\7\206\204\204O\\\256"
	.ascii "1\370\372\206\205\373\373-\15\12\362\365u\360[\276t\245\341_\277\377)0(\374\343\300\220\177\323"
	.ascii "8\314\230=}\201\323<\357"
	.ascii "\31\13}\26"
	.ascii "8\316\\\354\265`\246\347[/\10}X\323?`\31,:\332w\241\347\214E\13\346\370\374\207\357t\37\237\5s\276\\\344\343\271P\33"
	.ascii "2/ \344\207\360\345\260\336"
	.ascii "7^sf\216\16\12]\30\340\367\323\312\300\360?\316\14\10\363[\31\30\32\276b\245v\361\234\371_zy\315s\375~N\310"
	.ascii "\362\0\30\233\275"
	.ascii "4\304?(`\326\257D\365\375\322\260\0\200\365\336<o\25\\N~+\3\226\206\7"
	.ascii "8,\13\14\12\300a\341\377"
	.ascii "96p\305\37&N\232\10\177\223\302\3\203\3&\201\310\227\274\200\201wa\210t\211\252o\340\12\220\374\223\357\222\371S@4\225\210>g\226<\275\277\366\13\16\366\236\374\211\32\13"
	.ascii "0\260\312c\362\264Q6\226\374BC5\16\304s-D\203\320\3\277"
	.ascii "4 \6_\257o<\27\314\233\356\355\355"
	.ascii "9\323y\321<\257\371_\371z\373,\230\361\326\204\20*\302\303\374\1\272nNHx\300\312\220\245AF\361ev\340\17\313\235\274\226-\3\15=\373!\22G\32.\255\367\212@\242\346\264\334sU@H\270q\236\267\214\313q5D*\340#%\25\237Q\221\247\367*\357\257W\5{\7{\177\372\251\302\17\217\311\237"
	.ascii "8\0S\376\37*gL%\22\230\260\360S_\265\11\332\325d\363\372\206;.&{\226\260\344\3\233\226\374.\206_=c\336"
	.ascii "7xi\350\277(\215~\372\211<@\300\330\213I\260\367\327\253=&OuZ8g\211\247\257\217\233<\311wU`\300\352\337Z\231\374\314f\24\354\202\201`\300\350\272,\350\247\260\345\322\300\337YM\233j=\350I\210\361\230\346\352\27\264\"L\266"
	.ascii "5\336z\212\365 \231\342"
	.ascii "1\325\221\12\307X\221ME\200\303c\252\263"
	.ascii "4\345o\224\32_Hb\252\345\20\26\20\342\377\276\25\373D\342\31\10\256@d\374V\275o\23\31\277Ut\314"
	.ascii "0\203\272>\13\204\323\235\375\203\202\2\203CW\254\14wUHak\277\375\336$\213-\15\15\204\275\351\274\230l\37b\321(\275\1\301\272\5\260G\310\273A|\1\341_\311\313\377\373\322\320P\260\271\370\275\327E\20\335_\221\333\2\202W\254\374#\203\346\2\26\277\201hx-#\346\337\261\352\1\32\267Y$\314\262\350]\233\276\307"
	.ascii "4\267E!\301\312I\357\332\364=\246\32f\220h\261\324\347\242x\367\370\25.,\247\26\230\13\377\7s\25\247\252"
	.text
	.section	.gnu.lto_.symtab.f43ac16f,"dr0"
	.ascii "__ZN3stk4file6createEPKcmmP20_SECURITY_ATTRIBUTESmmPv@28\0\0\0\0\0\0\0\0\0\0\0\0\351\0\0\0__ZN3stk4file5writeEPvPKvmPmP11_OVERLAPPED@20\0\0\0\0\0\0\0\0\0\0\0\0)\1\0\0__ZN3stk4file4readEPvS1_mPmP11_OVERLAPPED@20\0\0\0\0\0\0\0\0\0\0\0\0"
	.ascii "3\1\0\0__ZN3stk4file10create_mapEPvP20_SECURITY_ATTRIBUTESmmmPKw@24\0\0\0\0\0\0\0\0\0\0\0\0P\1\0\0__ZN3stk4file15create_map_viewEPvmmmm@20\0\0\0\0\0\0\0\0\0\0\0\0]\1\0\0__ZN3stk4file14flush_map_viewEPKvm@8\0\0\0\0\0\0\0\0\0\0\0\0d\1\0\0__ZN3stk4file14close_map_viewEPKv@4\0\0\0\0\0\0\0\0\0\0\0\0j\1\0\0__ZN3stk4file5closeEPv@4\0\0\0\0\0\0\0\0\0\0\0\0p\1\0\0__ZN3stk4file9close_mapEPv@4\0\0\0\0\0\0\0\0\0\0\0\0s\1\0\0__ZN3stk4file4sendEiPvm\0\0\0\0\0\0\0\0\0\0\0\0z\1\0\0__ZN3stk4file4recvEiPvm\0\0\0\0\0\0\0\0\0\0\0\0}\1\0\0_CreateFileA@28\0\0\2\0\0\0\0\0\0\0\0\0\202\1\0\0_WriteFile@20\0\0\2\0\0\0\0\0\0\0\0\0\215\1\0\0_ReadFile@20\0\0\2\0\0\0\0\0\0\0\0\0\230\1\0\0_CreateFileMappingW@24\0\0\2\0\0\0\0\0\0\0\0\0\244\1\0\0_MapViewOfFile@20\0\0\2\0\0\0\0\0\0\0\0\0\250\1\0\0_FlushViewOfFile@8\0\0\2\0\0\0\0\0\0\0\0\0\260\1\0\0_UnmapViewOfFile@4\0\0\2\0\0\0\0\0\0\0\0\0\267\1\0\0_CloseHandle@4\0\0\2\0\0\0\0\0\0\0\0\0\276\1\0\0"
	.text
	.section	.gnu.lto_.opts,"dr0"
	.ascii "'-fno-trapv' '-dD' '-malign-double' '-momit-leaf-frame-pointer' '-m32' '-mfpmath=sse' '-mpreferred-stack-boundary=8' '-mmmx' '-msse' '-msse2' '-mthreads' '-mtune=generic' '-march=i686' '-g' '-g' '-O3' '-fno-use-linker-plugin' '-fverbose-asm' '-fstrict-aliasing' '-fwrapv' '-funroll-loops' '-flto' '-fexceptions'\0"
	.text
	.section	.text.unlikely,"x"
LCOLDB0:
	.text
LHOTB0:
	.p2align 4,,15
	.section	.text.unlikely,"x"
Ltext_cold0:
	.text
	.globl	__ZN3stk4file6createEPKcmmP20_SECURITY_ATTRIBUTESmmPv@28
	.def	__ZN3stk4file6createEPKcmmP20_SECURITY_ATTRIBUTESmmPv@28;	.scl	2;	.type	32;	.endef
__ZN3stk4file6createEPKcmmP20_SECURITY_ATTRIBUTESmmPv@28:
LFB696:
	.file 1 "io/stk_file_io.cpp"
	.loc 1 16 0
	.cfi_startproc
LVL0:
	pushl	%ebp	 #
	.cfi_def_cfa_offset 8
	.cfi_offset 5, -8
	.loc 1 20 0
	movl	__imp__CreateFileA@28, %eax	 #, tmp92
	.loc 1 16 0
	movl	%esp, %ebp	 #,
	.cfi_def_cfa_register 5
	.loc 1 21 0
	leave
	.cfi_restore 5
	.cfi_def_cfa 4, 4
	.loc 1 20 0
	jmp	*%eax	 # tmp92
	.cfi_def_cfa_offset -24
LVL1:
	.cfi_endproc
LFE696:
	.section	.text.unlikely,"x"
LCOLDE0:
	.text
LHOTE0:
	.section	.text.unlikely,"x"
LCOLDB1:
	.text
LHOTB1:
	.p2align 4,,15
	.globl	__ZN3stk4file5writeEPvPKvmPmP11_OVERLAPPED@20
	.def	__ZN3stk4file5writeEPvPKvmPmP11_OVERLAPPED@20;	.scl	2;	.type	32;	.endef
__ZN3stk4file5writeEPvPKvmPmP11_OVERLAPPED@20:
LFB697:
	.loc 1 31 0
	.cfi_startproc
LVL2:
	pushl	%ebp	 #
	.cfi_def_cfa_offset 8
	.cfi_offset 5, -8
	.loc 1 35 0
	movl	__imp__WriteFile@20, %eax	 #, tmp90
	.loc 1 31 0
	movl	%esp, %ebp	 #,
	.cfi_def_cfa_register 5
	.loc 1 36 0
	leave
	.cfi_restore 5
	.cfi_def_cfa 4, 4
	.loc 1 35 0
	jmp	*%eax	 # tmp90
	.cfi_def_cfa_offset -16
LVL3:
	.cfi_endproc
LFE697:
	.section	.text.unlikely,"x"
LCOLDE1:
	.text
LHOTE1:
	.section	.text.unlikely,"x"
LCOLDB2:
	.text
LHOTB2:
	.p2align 4,,15
	.globl	__ZN3stk4file4readEPvS1_mPmP11_OVERLAPPED@20
	.def	__ZN3stk4file4readEPvS1_mPmP11_OVERLAPPED@20;	.scl	2;	.type	32;	.endef
__ZN3stk4file4readEPvS1_mPmP11_OVERLAPPED@20:
LFB698:
	.loc 1 46 0
	.cfi_startproc
LVL4:
	pushl	%ebp	 #
	.cfi_def_cfa_offset 8
	.cfi_offset 5, -8
	.loc 1 50 0
	movl	__imp__ReadFile@20, %eax	 #, tmp90
	.loc 1 46 0
	movl	%esp, %ebp	 #,
	.cfi_def_cfa_register 5
	.loc 1 51 0
	leave
	.cfi_restore 5
	.cfi_def_cfa 4, 4
	.loc 1 50 0
	jmp	*%eax	 # tmp90
	.cfi_def_cfa_offset -16
LVL5:
	.cfi_endproc
LFE698:
	.section	.text.unlikely,"x"
LCOLDE2:
	.text
LHOTE2:
	.section	.text.unlikely,"x"
LCOLDB3:
	.text
LHOTB3:
	.p2align 4,,15
	.globl	__ZN3stk4file10create_mapEPvP20_SECURITY_ATTRIBUTESmmmPKw@24
	.def	__ZN3stk4file10create_mapEPvP20_SECURITY_ATTRIBUTESmmmPKw@24;	.scl	2;	.type	32;	.endef
__ZN3stk4file10create_mapEPvP20_SECURITY_ATTRIBUTESmmmPKw@24:
LFB699:
	.loc 1 62 0
	.cfi_startproc
LVL6:
	pushl	%ebp	 #
	.cfi_def_cfa_offset 8
	.cfi_offset 5, -8
	.loc 1 66 0
	movl	__imp__CreateFileMappingW@24, %eax	 #, tmp91
	.loc 1 62 0
	movl	%esp, %ebp	 #,
	.cfi_def_cfa_register 5
	.loc 1 67 0
	leave
	.cfi_restore 5
	.cfi_def_cfa 4, 4
	.loc 1 66 0
	jmp	*%eax	 # tmp91
	.cfi_def_cfa_offset -20
LVL7:
	.cfi_endproc
LFE699:
	.section	.text.unlikely,"x"
LCOLDE3:
	.text
LHOTE3:
	.section	.text.unlikely,"x"
LCOLDB4:
	.text
LHOTB4:
	.p2align 4,,15
	.globl	__ZN3stk4file15create_map_viewEPvmmmm@20
	.def	__ZN3stk4file15create_map_viewEPvmmmm@20;	.scl	2;	.type	32;	.endef
__ZN3stk4file15create_map_viewEPvmmmm@20:
LFB700:
	.loc 1 77 0
	.cfi_startproc
LVL8:
	pushl	%ebp	 #
	.cfi_def_cfa_offset 8
	.cfi_offset 5, -8
	.loc 1 81 0
	movl	__imp__MapViewOfFile@20, %eax	 #, tmp90
	.loc 1 77 0
	movl	%esp, %ebp	 #,
	.cfi_def_cfa_register 5
	.loc 1 82 0
	leave
	.cfi_restore 5
	.cfi_def_cfa 4, 4
	.loc 1 81 0
	jmp	*%eax	 # tmp90
	.cfi_def_cfa_offset -16
LVL9:
	.cfi_endproc
LFE700:
	.section	.text.unlikely,"x"
LCOLDE4:
	.text
LHOTE4:
	.section	.text.unlikely,"x"
LCOLDB5:
	.text
LHOTB5:
	.p2align 4,,15
	.globl	__ZN3stk4file14flush_map_viewEPKvm@8
	.def	__ZN3stk4file14flush_map_viewEPKvm@8;	.scl	2;	.type	32;	.endef
__ZN3stk4file14flush_map_viewEPKvm@8:
LFB701:
	.loc 1 89 0
	.cfi_startproc
LVL10:
	pushl	%ebp	 #
	.cfi_def_cfa_offset 8
	.cfi_offset 5, -8
	.loc 1 93 0
	movl	__imp__FlushViewOfFile@8, %eax	 #, tmp87
	.loc 1 89 0
	movl	%esp, %ebp	 #,
	.cfi_def_cfa_register 5
	.loc 1 95 0
	leave
	.cfi_restore 5
	.cfi_def_cfa 4, 4
	.loc 1 93 0
	jmp	*%eax	 # tmp87
	.cfi_def_cfa_offset -4
LVL11:
	.cfi_endproc
LFE701:
	.section	.text.unlikely,"x"
LCOLDE5:
	.text
LHOTE5:
	.section	.text.unlikely,"x"
LCOLDB6:
	.text
LHOTB6:
	.p2align 4,,15
	.globl	__ZN3stk4file14close_map_viewEPKv@4
	.def	__ZN3stk4file14close_map_viewEPKv@4;	.scl	2;	.type	32;	.endef
__ZN3stk4file14close_map_viewEPKv@4:
LFB702:
	.loc 1 101 0
	.cfi_startproc
LVL12:
	pushl	%ebp	 #
	.cfi_def_cfa_offset 8
	.cfi_offset 5, -8
	.loc 1 105 0
	movl	__imp__UnmapViewOfFile@4, %eax	 #, tmp86
	.loc 1 101 0
	movl	%esp, %ebp	 #,
	.cfi_def_cfa_register 5
	.loc 1 106 0
	leave
	.cfi_restore 5
	.cfi_def_cfa 4, 4
	.loc 1 105 0
	jmp	*%eax	 # tmp86
	.cfi_def_cfa_offset 0
LVL13:
	.cfi_endproc
LFE702:
	.section	.text.unlikely,"x"
LCOLDE6:
	.text
LHOTE6:
	.section	.text.unlikely,"x"
LCOLDB7:
	.text
LHOTB7:
	.p2align 4,,15
	.globl	__ZN3stk4file5closeEPv@4
	.def	__ZN3stk4file5closeEPv@4;	.scl	2;	.type	32;	.endef
__ZN3stk4file5closeEPv@4:
LFB703:
	.loc 1 112 0
	.cfi_startproc
LVL14:
	pushl	%ebp	 #
	.cfi_def_cfa_offset 8
	.cfi_offset 5, -8
	.loc 1 116 0
	movl	__imp__CloseHandle@4, %eax	 #, tmp86
	.loc 1 112 0
	movl	%esp, %ebp	 #,
	.cfi_def_cfa_register 5
	.loc 1 117 0
	leave
	.cfi_restore 5
	.cfi_def_cfa 4, 4
	.loc 1 116 0
	jmp	*%eax	 # tmp86
	.cfi_def_cfa_offset 0
LVL15:
	.cfi_endproc
LFE703:
	.section	.text.unlikely,"x"
LCOLDE7:
	.text
LHOTE7:
	.section	.text.unlikely,"x"
LCOLDB8:
	.text
LHOTB8:
	.p2align 4,,15
	.globl	__ZN3stk4file9close_mapEPv@4
	.def	__ZN3stk4file9close_mapEPv@4;	.scl	2;	.type	32;	.endef
__ZN3stk4file9close_mapEPv@4:
LFB704:
	.loc 1 123 0
	.cfi_startproc
LVL16:
	pushl	%ebp	 #
	.cfi_def_cfa_offset 8
	.cfi_offset 5, -8
	.loc 1 127 0
	movl	__imp__CloseHandle@4, %eax	 #, tmp86
	.loc 1 123 0
	movl	%esp, %ebp	 #,
	.cfi_def_cfa_register 5
	.loc 1 128 0
	leave
	.cfi_restore 5
	.cfi_def_cfa 4, 4
	.loc 1 127 0
	jmp	*%eax	 # tmp86
	.cfi_def_cfa_offset 0
LVL17:
	.cfi_endproc
LFE704:
	.section	.text.unlikely,"x"
LCOLDE8:
	.text
LHOTE8:
	.section	.text.unlikely,"x"
LCOLDB9:
	.text
LHOTB9:
	.p2align 4,,15
	.globl	__ZN3stk4file4sendEiPvm
	.def	__ZN3stk4file4sendEiPvm;	.scl	2;	.type	32;	.endef
__ZN3stk4file4sendEiPvm:
LFB705:
	.loc 1 132 0
	.cfi_startproc
LVL18:
	.loc 1 143 0
	xorl	%eax, %eax	 #
	ret
	.cfi_endproc
LFE705:
	.section	.text.unlikely,"x"
LCOLDE9:
	.text
LHOTE9:
	.section	.text.unlikely,"x"
LCOLDB10:
	.text
LHOTB10:
	.p2align 4,,15
	.globl	__ZN3stk4file4recvEiPvm
	.def	__ZN3stk4file4recvEiPvm;	.scl	2;	.type	32;	.endef
__ZN3stk4file4recvEiPvm:
LFB706:
	.loc 1 147 0
	.cfi_startproc
LVL19:
	.loc 1 158 0
	xorl	%eax, %eax	 #
	ret
	.cfi_endproc
LFE706:
	.section	.text.unlikely,"x"
LCOLDE10:
	.text
LHOTE10:
Letext0:
	.section	.text.unlikely,"x"
Letext_cold0:
	.file 2 "C:/Qt/Qt5.5.0/Tools/mingw492_32/i686-w64-mingw32/include/minwindef.h"
	.file 3 "C:/Qt/Qt5.5.0/Tools/mingw492_32/i686-w64-mingw32/include/basetsd.h"
	.file 4 "C:/Qt/Qt5.5.0/Tools/mingw492_32/i686-w64-mingw32/include/winnt.h"
	.file 5 "C:/Qt/Qt5.5.0/Tools/mingw492_32/i686-w64-mingw32/include/minwinbase.h"
	.file 6 "C:/Qt/Qt5.5.0/Tools/mingw492_32/i686-w64-mingw32/include/stdio.h"
	.file 7 "io/./.././time/stk_time.h"
	.file 8 "<built-in>"
	.file 9 "C:/Qt/Qt5.5.0/Tools/mingw492_32/i686-w64-mingw32/include/c++/bits/exception_ptr.h"
	.file 10 "C:/Qt/Qt5.5.0/Tools/mingw492_32/i686-w64-mingw32/include/c++/i686-w64-mingw32/bits/c++config.h"
	.file 11 "io/stk_file_io.h"