	.file	"stk_file_mime_types.cpp"
 # GNU C++ (i686-posix-dwarf-rev1, Built by MinGW-W64 project) version 4.9.2 (i686-w64-mingw32)
 #	compiled by GNU C version 4.9.2, GMP version 6.0.0, MPFR version 3.1.2-p9, MPC version 1.0.2
 # warning: MPFR header version 3.1.2-p9 differs from library version 3.1.2-p10.
 # GGC heuristics: --param ggc-min-expand=100 --param ggc-min-heapsize=131072
 # options passed:  -fpreprocessed stk_file_mime_types.ii -malign-double
 # -momit-leaf-frame-pointer -m32 -mfpmath=sse -mpreferred-stack-boundary=8
 # -mmmx -msse -msse2 -mthreads -mtune=generic -march=i686
 # -auxbase-strip debug\stk_file_mime_types.o -g -g -O3 -Wno-write-strings
 # -Wno-multichar -Wno-unused-variable -Wno-unused-parameter
 # -Wno-unused-value -Wno-unused-label -Wno-unused-but-set-variable
 # -Wattributes -Winline -Wshadow -Wunknown-pragmas -Wall -Wextra
 # -std=gnu++11 -std=c++11 -fno-keep-inline-dllexport
 # -fno-use-linker-plugin -fverbose-asm -fstrict-aliasing -fwrapv
 # -funroll-loops -flto -fexceptions -frtti
 # options enabled:  -faggressive-loop-optimizations
 # -fasynchronous-unwind-tables -fauto-inc-dec -fbranch-count-reg
 # -fcaller-saves -fcombine-stack-adjustments -fcommon -fcompare-elim
 # -fcprop-registers -fcrossjumping -fcse-follow-jumps -fdefer-pop
 # -fdelete-null-pointer-checks -fdevirtualize -fdevirtualize-speculatively
 # -fdwarf2-cfi-asm -fearly-inlining -feliminate-unused-debug-types
 # -fexceptions -fexpensive-optimizations -fforward-propagate
 # -ffunction-cse -fgcse -fgcse-after-reload -fgcse-lm -fgnu-runtime
 # -fgnu-unique -fguess-branch-probability -fhoist-adjacent-loads -fident
 # -fif-conversion -fif-conversion2 -findirect-inlining -finline
 # -finline-atomics -finline-functions -finline-functions-called-once
 # -finline-small-functions -fipa-cp -fipa-cp-clone -fipa-profile
 # -fipa-pure-const -fipa-reference -fipa-sra -fira-hoist-pressure
 # -fira-share-save-slots -fira-share-spill-slots
 # -fisolate-erroneous-paths-dereference -fivopts -fkeep-static-consts
 # -fleading-underscore -fmath-errno -fmerge-constants
 # -fmerge-debug-strings -fmove-loop-invariants -fomit-frame-pointer
 # -foptimize-sibling-calls -foptimize-strlen -fpartial-inlining -fpeephole
 # -fpeephole2 -fpredictive-commoning -fprefetch-loop-arrays -free
 # -freg-struct-return -frename-registers -freorder-blocks
 # -freorder-blocks-and-partition -freorder-functions
 # -frerun-cse-after-loop -fsched-critical-path-heuristic
 # -fsched-dep-count-heuristic -fsched-group-heuristic -fsched-interblock
 # -fsched-last-insn-heuristic -fsched-rank-heuristic -fsched-spec
 # -fsched-spec-insn-heuristic -fsched-stalled-insns-dep -fschedule-insns2
 # -fset-stack-executable -fshow-column -fshrink-wrap -fsigned-zeros
 # -fsplit-ivs-in-unroller -fsplit-wide-types -fstrict-aliasing
 # -fstrict-overflow -fstrict-volatile-bitfields -fsync-libcalls
 # -fthread-jumps -ftoplevel-reorder -ftrapping-math -ftree-bit-ccp
 # -ftree-builtin-call-dce -ftree-ccp -ftree-ch -ftree-coalesce-vars
 # -ftree-copy-prop -ftree-copyrename -ftree-cselim -ftree-dce
 # -ftree-dominator-opts -ftree-dse -ftree-forwprop -ftree-fre
 # -ftree-loop-distribute-patterns -ftree-loop-if-convert -ftree-loop-im
 # -ftree-loop-ivcanon -ftree-loop-optimize -ftree-loop-vectorize
 # -ftree-parallelize-loops= -ftree-partial-pre -ftree-phiprop -ftree-pre
 # -ftree-pta -ftree-reassoc -ftree-scev-cprop -ftree-sink
 # -ftree-slp-vectorize -ftree-slsr -ftree-sra -ftree-switch-conversion
 # -ftree-tail-merge -ftree-ter -ftree-vrp -funit-at-a-time -funroll-loops
 # -funswitch-loops -funwind-tables -fvar-tracking
 # -fvar-tracking-assignments -fverbose-asm -fweb -fwrapv
 # -fzero-initialized-in-bss -m32 -m80387 -m96bit-long-double
 # -maccumulate-outgoing-args -malign-double -malign-stringops
 # -mavx256-split-unaligned-load -mavx256-split-unaligned-store
 # -mfancy-math-387 -mfp-ret-in-387 -mieee-fp -mlong-double-80 -mmmx
 # -mms-bitfields -mno-red-zone -mno-sse4 -mpush-args -msahf -msse -msse2
 # -mstack-arg-probe -mvzeroupper

	.text
Ltext0:
	.section	.gnu.lto_.profile.f43a1ae9,"dr0"
	.ascii "x\234cf```c\200\0F\206\311L\215\214\0\3\367\1\""
	.text
	.section	.gnu.lto_.jmpfuncs.f43a1ae9,"dr0"
	.ascii "x\234cf\300\16\246"
	.ascii "120\10\1i& \6"
	.ascii "2\231\31A\0\314e\372\310\304xj\333\331?\274/\230~2144\260"
	.ascii "00.c\224b`\6\211\317\273\334\267\216\251\366wCG\3\307O&\306\277`\315\313\31k\301&\262\202\10\220\242\373O\316_\344\0k\6\312\256\0j\305\320\311\364\227\11h\27\343J\260Nf\210\203@\252A.a\204"
	.ascii "2\231@\272\346"
	.ascii "4l\375\314)\317"
	.ascii "8\267a\206\302O&f\6\240H\373\334\336\5l@sf\200\314aa\\\305(\17\324\262\32h\20H\371\337\313}\37\270A6\263"
	.ascii "64010\256\1\332\315\210a9\333g\260\303\326\2\365"
	.ascii "02\201\275\206\251\6\352\300u@5\230\376\206J\256\7Y\12\367\337\312\11{\36s\312\13@\\\312\16r\351\231\211\17\16r\300\\\312\301\270\1\354\322\215 M\270L\334\4\262\256\34\24\2|\271\231\271\251\361%\225\5\251z%\25%\14Lz\14\0"
	.ascii "3\345{l"
	.text
	.section	.gnu.lto_.inline.f43a1ae9,"dr0"
	.ascii "x\234cf\300\16\326@i&\6\6N~F\6&\216\3v\14l\13\344\231\300b\334\14\14\214\23\374\230U\376"
	.ascii "0\354f\4\312\265"
	.ascii "1v\314\342A\227e\341\5"
	.ascii "2'\370"
	.ascii "1\200hf\206\11~\23\374"
	.ascii "8\4\31\30XA\14\6 \227\225\17(\14\342\300UN\360\203\352\304b\0\23\324X\6f\36\4\11"
	.ascii "1\231\1\314c\2\32\311\0\0\355q\26\325"
	.text
	.section	.gnu.lto_.pureconst.f43a1ae9,"dr0"
	.ascii "x\234cf```e\200\0&\6\11fK\0\1\26\0_"
	.text
	.section	.gnu.lto__ZN3stk4file4mime6atexitEv.f43a1ae9,"dr0"
	.ascii "x\234mPMKBA\24\275\347\316\363!\331BZE\20.mS\233\326\376\223\300E\30H\11\202\22\264\20\307zA\253\220V\202\332\316\262,\25\372\3\366\7\212\210\210>(\10\203\332)\22\"!v\347I%\326\300"
	.ascii "03\347\236/F\321\337\265(;\7\242\200\234\360\20"
	.ascii "8{A\224\361"
	.ascii "2\253|\210\364\204\365\341'=\251`\15a\13"
	.ascii "0\27\2\245YYH\343\235\333\214l\243\222\363\5KZ\353\326K)\260=\335c\242\16\17\375q\200 \11\247\355\364o}\266#\34\377p\206C\330\222K\265\251\206\36\14\316\12\347\353\266\242\36\13\324\224\261Iye6\247\272\307\346^\273"
	.ascii "0g\4]V\342\265\177\275[\345\324\247\336\321\336\36s\337\270\11\372\334\274\274\362\276\261 \356\263\234q\12(\"\237\321\206\5\224\221\302\21f$\370X`\272\201s\267e\377z\376\250\245\0*\206G\246\201\242|H=\302\321\17"
	.ascii "0\\\32OW\35Wp\202\24\211O\217-We}\367n\325\213\363F7.\363\364\215l4\326\363Oi\33\247R\272\352\226\256\11<\312\267\5\253\313\344\11\231F\327r\273\221\371:\230h\371\201\331\225\350Zd)\221\\\15\233K8\26\215E\302\311\215x$\261\260\34\217\323\27\230\273\236\204"
	.text
	.section	.gnu.lto__ZN3stk4file4mime6decodeEPc@4.f43a1ae9,"dr0"
	.ascii "x\234\235X{PT\327\31?\337\331e\237, \10.X\224\372B\255\200\365Y\307G46j\22':\216cgL\246\216\265\230\330F\353\214d\246I\207\311\25\20\254"
	.ascii "1F\255\17|\20\361\205o\5\15\246\211\6\27\213JU\260\24\25"
	.ascii "5\210\20\321&\215ZpU\262\211\13\375\276s\356\275\302\262k\266\345\217\303\275\337\371\316\357\373}\257s\316]\3\353\374"
	.ascii "7\35\30\313\214al)>C\34\3\276\272\22_,\234\33\362C\230b36\225"
	.ascii "3\246\204\32\300(\345F\36[\36\217\362\220\362\301(\16\341\246\315f|3?9KZ&\210\225Zfn\331\30\201r\253g,\212-\232\330\312m\227cPl?9\22\305"
	.ascii "6\260K\261\235\207f\215Bq\314\312h\24\207B\270\24;x\304i\3\212\303*\317\23x\230\224\227Z\302\271CHlb:4\2\242\244~\27\336U\350GJ\375H)/\265D\361.R_L\207v\345\321\202D\214 \21\15"
	.ascii "1ru\14\357&\304N!\356\6N)vj\334c\1\350\201\1{\237\33\214!&\263\305j\263\207:\302\302#\272DFu\215\216\351\346\214\205\367\15\341"
	.ascii "2\250Q\362\337"
	.ascii "7\274\231\303g\207\37U\330\277\346\36\316\22\30\276~\276\266<\327D\257`\244\327\202]\367\226\231\23w+JF\323W{\336\\\275.\37g8ss\6\5\20\7{0#hr/$\242\352\267G\313"
	.ascii "6\231\14\11@\313\224\242\273S\373\356\304U\256\25\231\306)\270\4\366\201\241\375*B\201\375\320\227\224\233\263\274"
	.ascii "5vS\226\242(\21\204\214\200\7\300\204i\267y9\363r\360r\356\345\6/7zy\10j\357\254z\340\261\33\6\11"
	.ascii "3g+\252\32Ap\317\347\364\276\375\366\371\13\302\27\350C\257e\227\266\207\366\336\256\270\224\372\272Z\243++_imk\3\17"
	.ascii "7\300AI\346\20\222"
	.ascii "9,\\\240?8\2\275q\321\311\246\212\372p\303"
	.ascii "0\201\377\360x\341\227\6DP\224\372[\217\306\273\262v\250\10F(\354\350\216\212P$\20"
	.ascii "6\264\36\354a\30-\0v\254\257\331g\24\0\256\363\371\312\370v\0G\375\2\34\223\0"
	.ascii "5\367\275f\303/\5\302\323}\367\252%\5WmG\204O\374\"\24C\357#\221.\245\255\315\275\255\364\206\351u+P\224\35\30\357\220"
	.ascii "0\34L\21\24\371\30\241\346\244\367"
	.ascii "8a\263;>\232\343I\251\7\11\23H\251\27\16\226>\364\324O8\226H3\375Ig\0\15\3if\20\16\326$\232H\241a0\15Ch\30J\263\303p\200\341\364"
	.ascii "4\2\7\333H\232\30E\303h\32\306\320\304XR\31GO/\220\312x\34\354\23hx\221\206\211\244\367\22\15\223h\230L\303\24"
	.ascii "2\376"
	.ascii "2\255x\205^_%\200\251"
	.ascii "8\204\276F\257\323h\230N\303\14\322\233Iz\263\310\221\331"
	.ascii "40\326\210\345\265,\232\335\301\352[\26m\250\205e\256-\273\15\35KP\24\235\311\247\356\274\334L\345Aq\240xQ\370D\225b\300\217\343\210\10\37W\257:\314\323\177P\226+\26\17w\270"
	.ascii "9\326/|\12\351\235\246\302\20\223\221\364V\343\245*\13\325j\230x\335\273"
	.ascii "4k+\344\301\226\245\12i\205\303_!\35>\243\264\342\334\315\306\357\177\245\257\207\317QMX\205\23\220\336\302\255\36\36\301j!\333\225w\237\373%\323\305\215\336"
	.ascii "28\371<2\276\326\277\10h\275D\267~\12\322\333\273\21\211"
	.ascii "6\\\20\207\242}\253O\336\266\366\234\226\247\344&xx\24A\\\\S_jA\214\\\302\350\12\245\320SB\234\206t\17\217F\366Y\256m\36\1\333\302\35\276$c\334D\22\376\366\277\360/\353\314_\260?\243\263?K\246\273\261\33\220Q\227\363\324 M\207\241u\222\254\25:\276\306\234X\12\35"
	.ascii "3\347\364c\333\10\347\320v9\331\206\277\243\30Q\5d\363\301_H#\21\276\270\261^\252\314\366\270\261~p9\234G\334\13\2\367\"\212\331\25\310\272\226"
	.ascii "9\377\31\246\276\232\222]\241n\10w0>\305`@\2M\205\207^\367\347U\234\227[;Z\217\363c=\22*\321\372%a\375\37(F\205\363\307+\236:D\342\25\305\310\240\12\347\256B\206\353\323\6\203jf\323\7\325OC\14"
	.ascii "3\304.\266^\271\373&nb\253"
	.ascii "3\352Kr'<\333\211\273\303?\375nb\325\330b\4\210\205Q\377"
	.ascii "8\373R\221\265C\213\326\337\331"
	.ascii "0\206TD\357\271\271\321\367\14\201\313\242"
	.ascii "1\257Pdf\373\372\373\23"
	.ascii "7\17\21\12p\25\13\212\254xx\274\310P\303\30\177\361\321\263\343\233\216\32=\35\327D\232g\23\333\275\271"
	.ascii "5\303\375"
	.ascii "6a\17"
	.ascii "7'N\327}\213\330\365;\17\357\351\306\335E\24\345\15*\312\4\221"
	.ascii "7\243\266A\235z\354\220I\216\361\305\374\251\233\250\301\227\22s\253R\354\266\366\\\"\273\256\27Ir\362>\314"
	.ascii "7i]\327\33j\265\256\273)\32\327[\275\252I\234\225&E\301\14\324Q \372`\12\305&B\33\34Z\224E\266\363\202\332\232"
	.ascii "1\320O+\253\20\266\302!\350]i\340r\322\351K\257\257\233*\13n!=I\376\243\33\27w\31\322\377\344\341\375\304^*\270\324\223\307\211\35\212\331\371\314\212\211m\6\3\355\16"
	.ascii "5\207\374\357m\375\335\334\206"
	.ascii "6\32\244\15\17\37 \226\231Y\223\235j\376\370\232\221\22\222v%\367\311\35U\220t@\21\351\33H\14\36rQl_A\222\356\366"
	.ascii "1r;N\356\12\255\5f\271\272;\211\220a\245\306\260;\302\235"
	.ascii "9Z\334\312)|fD\244\6\270\255\267\234\205\235\340\202u\363\363Y7vdme\305V\203\330*\276H\226v\342\3"
	.ascii "6\253ow\336\321\273\363.\355\15\304_%\337\3a\210\374E\215|\17\362F\22\265\261\233\\X,*y\343\271{\203\257\271\177\351\346\276\26\265\337]nq%\7\325\215"
	.ascii "4!\350.\372F\357\242\177\23\361Z\10\221\10\275|\21~\346\346v\324\372V\304,\1Mz\360\366!\332\366\252\337\335:\240\305{\272\305\373\202{/\21\12\273\36\374S\357J\6}\202F|\240#\376G\372\220\255<V;\246\237/H\222\233\207\242b\223L=Z\21\236$\353\5XD\5\330O\206\263\254"
	.ascii "9\\\242$\6<\212|\317\236f\375\354y\350S\7\375\21\246\375\373\0\315\214\312t`\320\356\272uw\37Iw\235\22a\220/B\212\33\217S\6\217\205\257\3\321\244z?\10\356\10\177\22\340\10o\321\217\360\357\350\372\323\337\303\7\223\37\327r\312T\36I-je\4:\305C\374\206\316\243\207\356{Q\27I\262\345\17\254\214Ua\241\267\326"
	.ascii "7\241\254\311$\213\345L\203\32\316\224\240S\364\203n\347\251LQ\346Z\223\304\30,\270\247\10\356\333\373\6 \17~A\275:h\253 ?X\360t0\374\260\224\15~\266\310.\215\14\15:\317mz\236\25\336\261\226\206\265\360!D<W%>\34aQJ*OV4\252\35<\2!\213\277\333v\337\201\220x\324\333PM^K`)\227\327\227\353\231w\341\231\356\265\362\215\303i?\375\271\225A\206\276E\205\261\374s\344B\346\332\354\272\334\31R{$\232\307\5U\233\13"
	.ascii "2\303i\205\21\30d\312];`\316\375\207-\213ka[\306)l#\205\315p\206_\322\"l\15\211\322\342\220\240\21\263u\304\34\325\313\312\314\2m3\240\260I\267\"\324\12*Y\361$\367=9;J\6"
	.ascii "5\260\13\334\257\301\345\272\301?\13\27F\11\374.z\346\233\317i\231\37\23t\346Wp"
	.ascii "-\363\37\370d~l\13\37\335>\363\343\20\26\245\"\363"
	.ascii "6)z\241S\336\307\251y_)\301"
	.ascii "2\13sj\325\345\343\245z\306\205\262jq\226\332l\14>\24\231\314,T-N\220*\225'\12o\213\333\212\315\301`\225Ty\224}Q=o^\24P\23DQi\242\366WZ:9>\322k*\362YM=\321jj\":\366\243E\344?\3\253\365\14\254\21\31\230(\214D\351E$[\31\361\203F\\\253#\376\305_\21\215V\375\350\252\27Q\345\246_\313\331\227d~2J\324dLR;u\235\32\360\311Be\22AV\350\220\223\221B\336\321c\373E|\215Q\14\326\351\241\212fm\342\353\241.\347\352\246VU}\12\256h\177r\274\34t]\255\327\353j\203ZW\32\317W\324\342\327\352\354U\24\265\257\263\251h\6\245\342l]c\362{\251\32\342\246/i\330\310;\177&\16\365\322M\257}A\14\365\303o\30\344\"\277M\274\363W\357P\330\314\265Cg\13O\27t\246x\370pyLWT\251\244_\13:\301[\365\4\347\251\201\320\202"
	.ascii "9-\350\235\346c\35c\233\332WZ\222\247#\25D\"\330\246\374D\177\265\254\7\304"
	.ascii "7\2\371\355\"\260\247\355\301CK\312!\372\345\11\235\265\301vQ\335\323\305\235y\207"
	.ascii "8\360\364p\322mv\247(\232;\370\321\240\335\244.i\207\343\214\240/\226\273\270v\261\334\255W\276zo\235!\276\10eYvS/\256M\205\227\345\356\26\264\201\2\335\300\36J)A\12\256\227K\207K33\203\256\346\275z5\357\343\355\257\256\263\2\\]\367s\272\7\315\224\237\234\377\337\335\365\200n\362\240H\306,\21\15'E\\|%e\307\7\372\336\10\307"
	.ascii "5\207x\207\357\215X\372\302\274\1\247\257\11\336\352\257\237J\351\365\26\323\210O\224\345\364;)\203\303|\4\253\203\245\21\201[\312\267\202\216\4\354\241B\212\22\203\"dA?\304\1\232G\214\370\371\13\336N}cI\332\357\347\320\303\234\205\13\26\246\316I{wq\352\222\344y\213\27"
	.ascii "3\373\\)^4wa\252yI\332\334\264\337\274"
	.ascii "3\337$$\363,\364o\311\202\367Rm\364\360\326\334E\277};\25/\322\346\271s\346\375\341\235EiN\201\233\234\222\234\234\262"
	.ascii "0ua\12\31\300\377\311o\261"
	.ascii "0\335Dr\332\37\323\330\177\1\355\235(\337"
	.text
	.section	.gnu.lto_.symbol_nodes.f43a1ae9,"dr0"
	.ascii "x\234M\214\273J\304P\24E\367\315\235=\23\347\31\337\237{F\11Z\10b+\26\23"
	.ascii "5j|\277\13\301"
	.ascii "23\312\24\12\343\17X\4,\224\321J,D\315M@\316i\326Z\260"
	.ascii "9\26\300\310\240<o\223\2\254=\0\"XM|\260G/\362\304"
	.ascii "2\242u\364\266(\346\177\20\345\203\35\232b\220\260R\360\234,x\301j\301K\326\12\36\22\216f\233\342\225\17\320\355\372"
	.ascii "0\327\24\253\373\204R\321}E\241\356"
	.ascii "3JU\367)\245\246\373\230\342\353>\242L\350>\240\324u\357S\32\272o(M\335{\224\226\356]J[wL\351\250\266\250#\373\316\26\214\265\363\210\237\177\234\314!-e\26Y)3H\7}'\323\10\357\372"
	.ascii "9\247\20/\277\365\2k'\21\16\307\353\271\4H\207\267\276c\266\362\351\246M\304\217\351b.\35\204\243\337\245\\\332H\237\12i!~\371\330\10\334&}\275Ori \34\177\275\7\370\3K\351\203'"
	.text
	.section	.gnu.lto_.refs.f43a1ae9,"dr0"
	.ascii "x\234%\215\321\12AQ\24D\327\314=\347\236s\343\3\24QB\22O\24\377\347\313x\363\200\210\224\257\261\313\274\314\324\252Y\15p\344\37\203$\247Y\343\24e\247F9\243V\256R\317\364\361@\36\242\221"
	.ascii "4F\23\362\24\315\235\26j\227\344\225\312\32mT\266\224\235\352\36\35TOP\317\361{\301\335"
	.ascii "5\366\15\312\35u\217\320=\221_\301\336\241\375\4\377\302\17"
	.ascii "68\15\302"
	.text
	.section	.gnu.lto_.decls.f43a1ae9,"dr0"
	.ascii "x\234\255Y\13TTG\232\356\272\325\335"
	.ascii "4M78&\223\314\262\311\221c\262n\262\223H|\304Mv\367L\330\315"
	.ascii "8\343fw\23gv\263g\327\335\234\216b\233\301 8\322\211\223\311\236\311\345\245\240\"/Q\4\204F\1\345\375\220\367\263\345-\10\202<\24\361\321<T\20\24\24P\202@\357_U\367\366C`\334"
	.ascii "1\333\307\337\276U\365\335\277\276\377QU\177"
	.ascii "5X\"\221\374\7'\221\230\340s\303E\"\351\225K$\30\372>\1\261\7\311\0)\6\251\4\251\3\251\7\371\10\244\11\344\"H\233\204}\226\201\364\200\364\201\14\203\334\7\231\2\231\3qD\22\311\313 \316 \237\202|\6\262\25\344\13\20o\220\275 \177\0Q\0\326\17\276\3A\202AB@\242@\242AbA\342\221\304\346C\346\263\23\270^\5I\200q=\310 <'\"\306\235|8\1;,<\213\272\255?\204\367\6\302\25D%\350\373\27\300\204\203l\22l\336\14\362"
	.ascii "1\310\213 \271 \311"
	.ascii "0\366\13\370>\215\230\177*@\276\205\347"
	.ascii "3\302\334\242\177t\320N\5\331\11\222\206\30O\302/\235\340@\266\203d\"\346\323\317\341;\13Y|\275\5\236\263A>\1\371"
	.ascii "5H\16\310(\364\277\13\337\271 \17\341"
	.ascii "9\17\276_\0"
	.ascii "9\13\342\0\362#\350\313G,nE 3 \304\334\17\21\213\23\261\365\17\202\337\211\377\15B,HL\210\237>\23\342D\342EbHbGb8'\304U)\304I\214I\240U\234j@\352\321\342>~\300\241\222\254\311\26\207!\16"
	.ascii "9*]H\263"
	.ascii "4\242"
	.ascii "1Z\16M\225RJ\232\345)\271"
	.ascii "2\314!\362"
	.ascii "8`\10\37px+\215\347\371 \336\320\210,\32|S\312\16\331\301+\233\224\264y3\366\373${\332$\31\354\4]\\\374\255\206\12\5R\256\12\342y?\362\317\276\321Q\202R\220"
	.ascii "3:\215\234%(\23\255\242\357\242"
	.ascii "4\350I\207\236$\230c<\355\321\261\227y^\212"
	.ascii "2\220\22\235A\30\245\242\267\210\323\10\220|H?L\326\230~\342s\374)\341'\35k\237-Q#gg\345\252h`8\275\2\345\"\245\204<\32\206L\246\357L\354\23jG\273\201\10\317\33\303y\374\23\11z\313\31\275\11,\362\200\5\31\222\240\34\240\221-\322(\305\1\210\364\243,\204m\35"
	.ascii "7\23\330\261\217\243\216"
	.ascii "3p\244}\246\277"
	.ascii "5BM=\367\6i\236"
	.ascii "5\244\363\34m\376%i\6\367\350CTJ:/s\0\14\230] A\205t\346"
	.ascii "7\234Q\1"
	.ascii "4\1\36\323\325v\220[\36F\320\360\237\13\243p\26\340\371\24^\204\226\213/\21tlV\202\275\352\200\305\271d\334Jy1RQ\227\301"
	.ascii "7\200k\333{\323\345\224\267\236\306"
	.ascii "5\252\271\370\272\222\22}\221"
	.ascii "4\217"
	.ascii "7\37kq\244\315\27H3\354\361\376"
	.ascii "0ni\336\345\"\357"
	.ascii "2\306\373x\367\235d\305\323\274K\0^J\341\25\224w\271\310{\260\366\326\1;\33\342\25"
	.ascii "6\304+\5\342\225\224x\354\261\254"
	.ascii "1\231R\10]\320\37\15\35\240\23\16\347}\317\314\334M\232\271\211\275\217"
	.ascii "15\313\221"
	.ascii "4G\363\364\365\12\332T\223\346]\337\334Y\331\322V\326\210VV3\335\306\360\371F\365\323V\32\0~\216\302k\251\225"
	.ascii "5\242\225\241\323\3\361"
	.ascii "6\261\254Z\22\215\352\320rxc\372R\373U\245\215_\352l\374R/\370\245\236\372\245\253\273\260\320\21\357\240\301\314L\310O\340\244\234\4"
	.ascii "5\320t\205\236\202'=\1\262\227\243\250\327|\371e\10}\362\22\363\33jDR\11:\217^\6E[\244\14\234Q<\252w\264\231\30\306\255&n\22&n\242\23"
	.ascii "7\367OO\250\250\213\227\321\234\275|k\222\271\230\256\7SJe\252bi\237\266\210>}\223\272\264\311p\361=\346\243q_\321\243\315\0\276@\301\255\324G-\242G\23og<\301\326\350\252%\321\350\"\365\350\341\330\234l\333%r\321\306\243m\202am\324\260#\267\322v\343\335\324\241\7\357O?\264\307{a\26\322\272\26"
	.ascii "7\25,\305\377#\264\302\23o\304"
	.ascii "8`_$4\15ES\331vo\236\346\365\374xH`\275\23\331\274\300\327\235\346\275\313\274sD\335-\312wd\300\336[\211\234\0\354\0`\27z\323\32\330\340{\342\236\212\2\15\303<\257\220\20\330%\200u\333\302\32\213\233Z\21n@\224\360\330\334\325 '\227x\336\250\37ojh~\375"
	.ascii "0o\344\371y\223\11\321P\243vx\373"
	.ascii "2{\33]\21v4\324\203\\\340\305\271\316\354\333"
	.ascii "2\33\27\221\30X\\t\225\271\10\220\255!\207\12"
	.ascii "1\346\331\261\240\37\317\35W\221\214\353\25"
	.ascii "3n\274\347I\211\2z\350+$\265\210\343&\3\333\325\326YH\206X\32^#ix\203\246\341u$\344\341`a\367\204\14\37\342\4\317\326\217\244\14(q$\233\320\24\271\257\17\203\201z\275\261"
	.ascii "2\372}\203/?k2a\252\1\335\264\262\316(Z\327G\255[H\263\372b\361QDi~,\262\324\367\316\316\333-\272V\372\11\311AJr@$YR\21Y-\305\271\"\311\312\333\17\243\235p\241\330\254"
	.ascii "2t\215+Y\220g\202\353W\10A\276\275"
	.ascii "0\310\307\233\252\312\244\270\203\31\227\322\235t\314\201D\217"
	.ascii "7&\24\277_-\32\7"
	.ascii "3\243[\360\352\35\301\270!\321\270aj\334\302Uo1\356#\245`\\_\307\351 {k\343`\204\31w\227\30"
	.ascii "7J\215\33\21\215K\33\31\277\255\302\303\214U_\301\374\254\202\262\32\277\231^\371\353A\337\260C\274\321dZA\337B\367,\31N\236\31\261\373Kx\375\301\314H:G\211\221\203\235"
	.ascii "1\213\250"
	.ascii "2\316a1\22\343\210\366E\335\320\367:X\263\375X\314\227"
	.ascii "1\302\366!e\373@d\33\331^\177Y\216\263\260\340\373\254\374\221}\34.\304\224|\343Hi\250=#?s\276a\365a\276O\\\20\240\4MXyuR$?\365\\\344\177\241B\217\31\371\300\340\231sN\242A\323\254\257l\274\320eQ{\36\21{f\250=\337\213\366\224NN\217\312q\233hO\355@\366\270\24w2{\6\362\212\277e\31\222\32g\311\20P\200\236X\331"
	.ascii "2+\332"
	.ascii "2Gm\311;\225\\hO\267j7\242#)\352h\206\214n\325\12\272g\264L\224*\360}\246\377^]\353"
	.ascii "4\251\7^T\362\342\7}\7\375\311\361\275\335j\332/\324R\246\357Hm7\227\257\37vd\265\35\234o~\374\217|s_\221\240y\330"
	.ascii "6L\244\270\13\340V\301\33\300\303\227sF~\234PU\215\205\16l\12\340\335\220?\247D<g.\356^T\232W\305s8\177\37G\373\246z\7|\355\315\270\375\254\323"
	.ascii "74\377\270\223\271"
	.ascii "3\210u\32*\353\276\25_\16f]\23\7L\225*\353"
	.ascii "0\21\206,N\201\200@\7"
	.ascii "9\22\247\3\234\20\247\350\304\314H5.\225\12q\12h\276\334\243\302\225R\352\307\30\343X\244\\\310\273\341\210\17\254\362\16\224\240C\234%V!\234\20\253\303\334\263V\363&\321\362\214\210\262H\205\230ba\214\374\221\341\250.\271\270\350\303Y\337\350\1c\277|\321U\37J\354\211\244\366D\210\366t<\10lQ\341^f@\313dC\242\14\367\261\206\361\340\375\21\342i\24\305\11\244\322\215A7\355\304Ma\340W\321q|\365"
	.ascii "9=$#BD+:\"\206\25\35%\23\35\21m<Fml,\254mCxl)\335\203\246\232\273R\252[\177\257\316\337%:\250\326d\372\200n6\321f\265\307\211\332hQm\314\22\256\253oi\37D\254\332\245UI"
	.ascii "\342@S\263\3\315\374\327i^\24\24"
	.ascii "7\251\360#\306#\342zW\261\22\317\322\6\327Y\320\373\373%\257,\211\334bW\226\203\5\31>~\220\325z\310\231\4n\301\225\205\354\365\235\345\277\304\347et\266\307\255\235\5\10\267\261\206x\207raw\250c#\323\371\12\332$\213\33\330\264\372\5\267\253\320*%\231\307\330\273[\201N\303\34\247,s\270\10sP\272P\23\311\316\0]\261\"B)@\227 P\22,\302d\216\26\\G\7'\222\354\361e6}T\250o\256\32\337`\215\233\217oV\333Q\227\275C\13\351\204Q\177'|\233\215\25\225\357"
	.ascii "7qx\214"
	.ascii "5\356T\216\362\354\6\264\231\236]\311\271\271J\374\210\215\345T\245\7\263\15\347s\322\234\13\251\363W\343"
	.ascii "96&\326\215*V7\366]\343\347\20\16\224\323\261\254\353"
	.ascii "5{aHN7\237i\262\313\320\315\347|\307\305"
	.ascii "6\31\355']v\304%7\252\12\374\324\342\306\263 B\205`\262\234\230|\26L\316\27\367\235\270\222#/\222\223\270\0\274\227g\361\236\334\22\241\340\331\251l\204\273\30\231\220\372\230L%\276N\33\\\366\361!\177\7!\4\343iW\342i\201W\12\212\212\27*Z\234S\311\323\234`\212\316\324\244"
	.ascii "2{<\304\346\213\211\315"
	.ascii "38\341\7\254Q{\371\\\263\14\317\260\206xKW\321[\372\262\272\334\223\277E+W\256:\216$+\341\263\212\374\267\362\205\27\364"
	.ascii "4\13+\6\377\363A8\177\344\25\264\34n\255\300\255\205{\301\222\12o\220R.\33\346\226H\10\332X\321f\220\32j15\244\\\0\233\11\347r\26t\22T2\306\364|\336\315\200((\236\263\255k%\307h?\233\201\351.+f\272\211\267\213\26\327\235\202\4\264\237>C\357\347\6`\262xN>\15\246\254\377\312\254\270\322\212t\305\323\330J\316\32\354g\314\272R.5TcX\0(uQo\244\11\366\201\342\364"
	.ascii "6\376\347\12\324*\230G\314!\27\11\372%\252\313,d\352\310\2<\263\250>\263M\274\276"
	.ascii "8\336\317\15\260\20\210\214E\241\231\226@\224[\331T\266\270\263\346\315\212\215\331\2\13\320\234\276\250f3\326\317X*\204\201x6gq\315\324[\341\302\15\325M'Aq\220\241'`\10\235\203\234%/@\250\351s-\267\22"
	.ascii "5\202\324\203"
	.ascii "4\203\234\7\251\2\271\0R\3\322\4b\0\251\3i\340V\21\377Us\220\246\213*o\370\177RNN\342\360\300Yls{\261"
	.ascii "6\23\256\201\234x{\11l\11\32Q\323S\22\372\204\323\364^\300\335\36\231xr\266\261\223"
	.ascii "3\260\277\241P\261\350\311\31KN\236K\364\344l\27O\316\301\344\211\33\12\334b\267\304\201\26|?\267X\315\16\313\214\252|\325\201\32\177==\324\320\12\242\10u\230O\265N\242\273C<\325\272\226"
	.ascii "8\325.\206\245=Q\330X[esW\273l\266\266;\262h\37\26,\243\35!\247\213:X\341\0 t\205\331\32}\367^\262\323\242\266v\23>W\251\255=\242\255O\202&\272\20>\256X\302\326\232\330\231Xv\207\311\271y0\235\203\302G\37\306\12\37\320\203z\315\246^#\252{ES\257/a\252\251\341\332"
	.ascii "5\25\345\333d\276M^\217+\236\262[\224\356\15\242\323H\351\336\24\351vF]\15\227\21>a\343U\355"
	.ascii "9o7A\241B\253f(T\0I\257\304\342\365\245\335|i\344\376\357"
	.ascii "7\200\314jc-Z\264\264\357'l\6)\233\1\221M[\306\261XG\334\257\20J\306\220\307a\305\12<\304|\311\337)\12u\22J\306T\233\253\12(A\267\254J\306\333\242\333\356,A\364\316\303\276\32{s\230\31\321\300\10\277\333\234"
	.ascii "5Qb\3c:D\230\336\245L\207E\246q\325~^x^$\232x\242\253B\215\375\354\205f\343\203\354\6\314\256\267\241]F7R\314\303\365v\224[p\275-L\16h\225\341"
	.ascii "3\366\324\300\361\366\311>\31\273\274\314\\\261\\^`b4\2\257\336\343\230u\367E\353\306\376\4\353.\214w\365\313\314\241y\300\22;\254\257\347\276\223\371\267\210\207\254"
	.ascii "3 a\310\350\260\370\217\21\343\304\17\223\324\17\23\242\37\356?\272}\313\16W\211\226\327\204v\264\"\\\317\14\212\233\352\177\205\331S\336m\261\7\24\240)+{\36\211\366<\376\23\354\321\317\364~\257"
	.ascii "6S\377\236Q\17"
	.ascii "9\33\343+]\234\372"
	.ascii "4\241\376\204R\237\21\251\327\265\234\200BtP\244\236\230V\320i\217\37"
	.ascii "2\352\375\246\253\31l\231\352\343j\240\306\346\15\244\306\6\5h\326\212\372\234H}\236RO\210H\202\222\342\250\222i\10\276[!\303\321\254\221xc\346\204bE\261\362\4\37\355B\177\237&fu\244\374\355k\211\274A?\336t\372\322K\276\274>\211\367\33"
	.ascii "7}\260\202\376>\15u$\371m\306\352Wm\36crQ\304+$\310\17\277\6\357_\253xP\253\304\365l\202\274\226s\17"
	.ascii "1nd\215\354\261\366N\216\252\326"
	.ascii "7C\311\355\253\247\353\204\376|\354\217\231^\313\257\316\1\230\332\200\2\251\322S\1\3\357\340!\246f\370\270\261B\211'Yc\240"
	.ascii "3\330H.\270\364\207.\262g\327"
	.ascii "7\304(`\16\376\244\361L\271\233!\200\255E\352\361}\230\356\31V;\356~\312=\10\303\251\26\314\246\31\271r\311\11\7:P\325S\363\255\363N\370(kd\265g\366\222\262"
	.ascii "9\3\261\35\371vd\342\220"
	.ascii "0Oj\245e\36\222\305\7\26\314s\220\316s\210\314\23B\347)\273\343\327c\207"
	.ascii "3\34\254\253\347\217\226\250\236?\262T\317SS\245i\212%\253\347\10\274\212\236\27(\24;\243"
	.ascii "0,\336\332\307:\34I\321\33\216\225\350"
	.ascii "06\27\275\37Y\252\347\232\371\240\1"
	.ascii "9\316gdJ\36\226\214\"\\\304\32'+'\22\235\210\221\220\13\373#_\11\343\365~a<I8\252-R\210\231\305\316#B\314\242\250\221\263\376\327\3\35\361\25\246j$\371h\266\24\367\262\306\275\311\221\263\230\352"
	.ascii "5\224\353y\267\0!\21\210\322\243\13\224\36\23\224FS\245w\242\3\263\341\272\307\364\14\\\230\35R`\23k\234\250I\31\224S\245\306\246\210\277"
	.ascii "7X+=\276@i\214\240"
	.ascii "4\226*\255\31\311\310\345\260^E\365L^\251<m\207O\261FRDy\210\222"
	.ascii "1\275\360\24\323\270\5JO\10J\343\251\322\241\234\304S*\233\343\236$\241\5\235\200\331\257\327\360M6\216:\375\247\26\360&\372\343\241\5\253\27\260z\212\255:9\33 \267\321\234aSH$\12\350D\212N1\14"
	.ascii "5s\270\226\332#\365\217\237\347"
	.ascii "1Z\345l\357l\371CY2\266G'\261\365\37\312\242y\5\351\225\354'\372\215\276a\313~k\376\263\315)H22\4\327R\310\262\24\310"
	.ascii "2\362\327:\6'\377\301\204A!s\11v\326\266\220\355\311\302\356\264\300\356"
	.ascii "4eWR}\245Ai\15\236\264\1\237\21\300g(xf4\266Zm\15\276k\3N\25\300\251\24\334\334"
	.ascii "4\23\243\266\361\22\211\232\5\235&\240\323(zj\246d\302I)\374p\20\364\214\277u\242tL\376\216\331}#~\310\301&h6t2\204\11"
	.ascii "2\350\4\15\25w\257\331\376Ro\264Ag\12\350L\212\356\251\270"
	.ascii "7a\213\276j\203\316\22\320Y\24m\352\365\257v\260A_\262Ag\13\350l\212\276\226\20\275\306\6<j\223k9\2"
	.ascii "8\207\202o\31.\207\312\255m|h\3\316\25\300\271\24\334\324\24s\316\366O`\221"
	.ascii "6<\362\4t\36E\373u\37\10\260"
	.ascii "\267V}\320\6|V\0\237\245\340\366\271\11\275MR\315\330\360\310\27\300\371\24\334\221\241\37p\304\347\331\22\266\24\323\257;\263\252\277\342p\224\32w\262\321\230$\375\260\222\34\353EX8\326\247\373\3\357\221c\35\25\300\2/\304RT\214\351)\36\327\326\273R,rQ\11\353\233\330\27}V\266h\25Y"
	.ascii "\12\0T\206m\252\310\203A\306\24\214\357\260\211\363\12#\373T\370"
	.ascii "1k\234"
	.ascii "4%\4\322"
	.ascii "9+D\26\231\3U\21\12|XM\207\303\232\37\374;\373\353\320L\352\235M\267|\371C\372~\223i\5lX0\3*\27wuTI&\255\2\25\364?\350"
	.ascii "0`r\376\237\365{\24f\207\217"
	.ascii "0]\263\203Y\376\10\37c\215\342\264\226\213ja\203o\210xz\203?\267`\207\253\246\7Y2\2\246"
	.ascii "5t\223;g\272xP\205\213\231\266\234\312*\250\222\313X#\261\301\224!l\307\27\346\335l\266\343\332\5z\353\204\235\263\36\277&\221\373x\374^\253\321)~\371\361\247.\37\376\364\247\222\177\370\360o\\\177\245\203\177\357\256~w\365;\256\377\346\355\355\351\343\272\313\303\353\213\275\353\337_\253Y\267\326\325c\303{\33\336\336\273a\375\333\264\223tx\271{~\265]\353\252\241\35\253\177#\221\272\377f\353\36\207\277\333\366\225\207\247\356m\17\257\237I\354"
	.ascii "5\32\367\355ZwO\215F\276U\247\375\235\207N\272\313c\227V\272\303\303S\213}t_\376\5y\370\357\325\256\253W\273\356\322\356r\245\17\253]u\0q\205Q\15y\0\255\177NQ\244\203<h\210\6\215\356\233\335Z\37\30s\326l\371x\35\14\255'C\353\311\320\6"
	.ascii "6\321\306\257_]\362"
	.ascii "5\367\335\273%\16\32\215\217n\273\373VO\302\15(zo\327\276\272P\27\33\330\270\331\335m\275t\307\36\255\26\3\315\237\330\222&\23\300"
	.ascii "7p\371\261\360\376:h\256'\350\215\233\277v[/s\367\364\366\321\376\354\271\235\353\341\15\252\355\366h\201\251\267\373\237YM\361\327B\37\314\262\323\355=\274\313\373k\353\321u\320\206\221\315\377\4\203k\326*<\274t\273\266\376N\243{\376 \203\267@\11p\301\273\275}^\261\236\11\332\33\311<;\377u\255f\247\333\332wd\32`\266]\255\321l\367\364\364\330\265\333{\217\16\\\254\241n\220\201\323\267\352\344\232\355\332\257"
	.ascii "5\272\215\317\317\345\33\37W1\3\344>:\242N\256\361\360\362\326\350H\13\36\354\340k\27DN\1\337^\236\36^_\222\376\257<\266\223\257/<\266\223\341=\364%\357\35;4\272M?0\363\231\26\22&\320KV\225RCsw\335ZX^\320\265\225"
	.ascii "4\310\303.\361\301\235<\374\343\17\235\226\370r\303z\342\3\315\16\362\374\363\37\344P\242\1t\311"
	.ascii "4\336\273\265^?(O<=\266\21E4;\255\27\305\273,_w\272\255\307\236Z/\251\273\217n\217\213e1\301\262\325\321\325D\372"
	.ascii "5_\351<<Ix_\22\27%\351]\7\257A\252\301j\224{x\371h\367\350^\265\36\335\300\372`\265\356$\230"
	.ascii "5k\325_hul\361\203j\335k\326\330"
	.ascii "5\353l\306\340\35\362\312{H\267B\263e\351]`\343\32\235\232t\273~\345\365\245\227\367^/\11\322>\3\257u \335\356\336^:\255\227n\231f\313?\257Yc\335a\365L\23\347\307\4\261\341\351^;Xx$\227"
	.ascii "8\255\247\313\37\235n\255\326\223\323n{\26f\33\247{\26F\7\30\355\263"
	.ascii "0Z\351"
	.ascii "6H\13%\15*\345\271\34\\\251\335\343\5\35\337h\276\366\360\361\330\346\251u\202d\332\263U\347\275\307\305K\273\327\345\277>{I\243Y\10\322hd\232-^[wr\272g\331\247\3\373\236\305K\253\375_\360\25\241#"
	.text
	.section	.gnu.lto_.symtab.f43a1ae9,"dr0"
	.ascii "__ZN3stk4file4mime6atexitEv\0\0\0\0\0\0\0\0\0\0\0\0\331\0\0\0__ZN3stk4file4mime6decodeEPc@4\0\0\0\0\0\0\0\0\0\0\0\0\341\0\0\0__ZN3stk3mem4freeEPv@4\0\0\2\0\0\0\0\0\0\0\0\0\351\0\0\0_close\0\0\2\0\0\0\0\0\0\0\0\0\356\0\0\0__ZN3stk3mem7reallocEPvj@8\0\0\2\0\0\0\0\0\0\0\0\0\365\0\0\0__ZN3stk3mem3movEPvPKvj@12\0\0\2\0\0\0\0\0\0\0\0\0\375\0\0\0__ZN3stk3mem3posEPKvjjS2_j@20\0\0\2\0\0\0\0\0\0\0\0\0\16\1\0\0__read\0\0\2\0\0\0\0\0\0\0\0\0\27\1\0\0__close\0\0\2\0\0\0\0\0\0\0\0\0\32\1\0\0__fstat\0\0\2\0\0\0\0\0\0\0\0\0U\1\0\0__open\0\0\2\0\0\0\0\0\0\0\0\0]\1\0\0_atexit\0\0\2\0\0\0\0\0\0\0\0\0a\1\0\0__ZN3stk3mem5allocEj@4\0\0\2\0\0\0\0\0\0\0\0\0g\1\0\0__ZN3stk4cstr3lenEPKc@4\0\0\2\0\0\0\0\0\0\0\0\0o\1\0\0__ZN3stk4cstr6insertEPcjPKc@12\0\0\2\0\0\0\0\0\0\0\0\0w\1\0\0__ZN3stk4cstr13get_file_exttEPcPKc@8\0\0\2\0\0\0\0\0\0\0\0\0~\1\0\0"
	.text
	.section	.gnu.lto_.opts,"dr0"
	.ascii "'-fno-trapv' '-dD' '-malign-double' '-momit-leaf-frame-pointer' '-m32' '-mfpmath=sse' '-mpreferred-stack-boundary=8' '-mmmx' '-msse' '-msse2' '-mthreads' '-mtune=generic' '-march=i686' '-g' '-g' '-O3' '-fno-use-linker-plugin' '-fverbose-asm' '-fstrict-aliasing' '-fwrapv' '-funroll-loops' '-flto' '-fexceptions'\0"
	.text
	.section	.text.unlikely,"x"
LCOLDB0:
	.text
LHOTB0:
	.p2align 4,,15
	.section	.text.unlikely,"x"
Ltext_cold0:
	.text
	.globl	__ZN3stk4file4mime6atexitEv
	.def	__ZN3stk4file4mime6atexitEv;	.scl	2;	.type	32;	.endef
__ZN3stk4file4mime6atexitEv:
LFB702:
	.file 1 "file/stk_file_mime_types.cpp"
	.loc 1 24 0
	.cfi_startproc
	.loc 1 25 0
	movl	__ZL11filecontent, %eax	 # filecontent, D.29763
	testl	%eax, %eax	 # D.29763
	je	L7	 #,
	.loc 1 24 0 discriminator 1
	subl	$508, %esp	 #,
	.cfi_def_cfa_offset 512
	.loc 1 25 0 discriminator 1
	movl	%eax, (%esp)	 # D.29763,
	call	__ZN3stk3mem4freeEPv@4	 #
	.cfi_def_cfa_offset 508
LVL0:
	subl	$4, %esp	 #,
	.cfi_def_cfa_offset 512
	.loc 1 26 0 discriminator 1
	movl	$0, __ZL16filecontent_size	 #, filecontent_size
	.loc 1 27 0 discriminator 1
	addl	$508, %esp	 #,
	.cfi_def_cfa_offset 4
	ret
	.p2align 4,,10
L7:
	.loc 1 26 0
	movl	$0, __ZL16filecontent_size	 #, filecontent_size
	ret
	.cfi_endproc
LFE702:
	.section	.text.unlikely,"x"
LCOLDE0:
	.text
LHOTE0:
	.section .rdata,"dr"
LC1:
	.ascii ".\0"
LC2:
	.ascii "mime_type.txt\0"
	.section	.text.unlikely,"x"
LCOLDB3:
	.text
LHOTB3:
	.p2align 4,,15
	.globl	__ZN3stk4file4mime6decodeEPc@4
	.def	__ZN3stk4file4mime6decodeEPc@4;	.scl	2;	.type	32;	.endef
__ZN3stk4file4mime6decodeEPc@4:
LFB703:
	.loc 1 31 0
	.cfi_startproc
LVL1:
	pushl	%ebp	 #
	.cfi_def_cfa_offset 8
	.cfi_offset 5, -8
	pushl	%edi	 #
	.cfi_def_cfa_offset 12
	.cfi_offset 7, -12
	pushl	%esi	 #
	.cfi_def_cfa_offset 16
	.cfi_offset 6, -16
	pushl	%ebx	 #
	.cfi_def_cfa_offset 20
	.cfi_offset 3, -20
	subl	$1004, %esp	 #,
	.cfi_def_cfa_offset 1024
LBB5:
	.loc 1 37 0
	movl	1024(%esp), %eax	 # a_file_name, a_file_name
	movl	$__ZZN3stk4file4mime6decodeEPcE1e, (%esp)	 #,
	movl	%eax, 4(%esp)	 # a_file_name,
	call	__ZN3stk4cstr13get_file_exttEPcPKc@8	 #
	.cfi_def_cfa_offset 1016
LVL2:
	subl	$8, %esp	 #,
	.cfi_def_cfa_offset 1024
	.loc 1 38 0
	movl	$LC1, 8(%esp)	 #,
	movl	$0, 4(%esp)	 #,
	movl	$__ZZN3stk4file4mime6decodeEPcE1e, (%esp)	 #,
	call	__ZN3stk4cstr6insertEPcjPKc@12	 #
	.cfi_def_cfa_offset 1012
LVL3:
	subl	$12, %esp	 #,
	.cfi_def_cfa_offset 1024
	.loc 1 39 0
	movl	$__ZZN3stk4file4mime6decodeEPcE1e, (%esp)	 #,
	call	__ZN3stk4cstr3lenEPKc@4	 #
	.cfi_def_cfa_offset 1020
LVL4:
	.loc 1 41 0
	movl	__ZL11filecontent, %edx	 # filecontent,
	.loc 1 39 0
	subl	$4, %esp	 #,
	.cfi_def_cfa_offset 1024
	movl	%eax, __ZZN3stk4file4mime6decodeEPcE2el	 # D.29780, el
	.loc 1 41 0
	testl	%edx, %edx	 #
	je	L145	 #,
L10:
	.loc 1 47 0
	movl	$32768, 4(%esp)	 #,
	movl	$LC2, (%esp)	 #,
	call	*__imp___open	 #
LVL5:
	.loc 1 48 0
	cmpl	$-1, %eax	 #, filehandle
	.loc 1 47 0
	movl	%eax, %edi	 #, filehandle
LVL6:
	.loc 1 48 0
	je	L37	 #,
	.loc 1 50 0
	leal	732(%esp), %ecx	 #, tmp149
	movl	%eax, (%esp)	 # filehandle,
	movl	%ecx, 4(%esp)	 # tmp149,
	call	*__imp___fstat	 #
LVL7:
	cmpl	$-1, %eax	 #, D.29781
	je	L144	 #,
	.loc 1 54 0
	movl	752(%esp), %ebx	 # statbuf.st_size, D.29783
	.loc 1 55 0
	cmpl	$1073741824, %ebx	 #, D.29783
	ja	L144	 #,
	.loc 1 59 0
	cmpl	__ZL16filecontent_size, %ebx	 # filecontent_size, D.29783
	movl	__ZL11filecontent, %eax	 # filecontent, D.29782
	jg	L146	 #,
L15:
	.loc 1 63 0
	movl	%ebx, 8(%esp)	 # D.29783,
	movl	%eax, 4(%esp)	 # D.29782,
	movl	%edi, (%esp)	 # filehandle,
	call	*__imp___read	 #
LVL8:
	.loc 1 65 0
	movl	__ZZN3stk4file4mime6decodeEPcE2el, %ebp	 # el, el
	movl	__ZL11filecontent, %edx	 # filecontent, filecontent
	.loc 1 63 0
	movl	%eax, %ebx	 #, D.29780
	.loc 1 65 0
	movl	$__ZZN3stk4file4mime6decodeEPcE1e, 12(%esp)	 #,
	movl	$0, 8(%esp)	 #,
	movl	%eax, 4(%esp)	 # D.29780,
	.loc 1 63 0
	movl	%eax, 504(%esp)	 # D.29780, %sfp
	.loc 1 65 0
	movl	%ebp, 16(%esp)	 # el,
	movl	%edx, (%esp)	 # filecontent,
	call	__ZN3stk3mem3posEPKvjjS2_j@20	 #
	.cfi_def_cfa_offset 1004
LVL9:
	subl	$20, %esp	 #,
	.cfi_def_cfa_offset 1024
	.loc 1 66 0
	testl	%eax, %eax	 # D.29785
	.loc 1 65 0
	movl	%eax, __ZZN3stk4file4mime6decodeEPcE2eb	 # D.29785, eb
	.loc 1 66 0
	jle	L17	 #,
	.loc 1 67 0
	addl	__ZZN3stk4file4mime6decodeEPcE2el, %eax	 # el, D.29781
	cmpl	%eax, %ebx	 # D.29781, D.29780
	movl	%eax, %esi	 # D.29781, D.29781
	movl	%eax, __ZZN3stk4file4mime6decodeEPcE2tb	 # D.29781, tb
	jle	L18	 #,
	.loc 1 68 0
	movl	__ZL11filecontent, %ecx	 # filecontent, filecontent
	leal	(%ecx,%eax), %ebp	 #, D.29782
	cmpb	$9, 0(%ebp)	 #, *_106
	jne	L19	 #,
	movl	%ebx, %esi	 # D.29780, D.29780
	leal	1(%ecx,%eax), %eax	 #, ivtmp.44
	addl	%ecx, %esi	 # filecontent, D.29783
	movl	%esi, %ebx	 # D.29783, tmp179
	subl	%eax, %ebx	 # ivtmp.44, tmp179
	andl	$7, %ebx	 #, tmp180
	je	L20	 #,
	movl	%eax, %edx	 # ivtmp.44, D.29781
	movl	%eax, %ebp	 # ivtmp.44, D.29782
	addl	$1, %eax	 #, ivtmp.44
	subl	%ecx, %edx	 # filecontent, D.29781
	cmpb	$9, -1(%eax)	 #, MEM[base: _101, offset: 4294967295B]
	jne	L124	 #,
	cmpl	$1, %ebx	 #, tmp180
	je	L20	 #,
	cmpl	$2, %ebx	 #, tmp180
	je	L97	 #,
	cmpl	$3, %ebx	 #, tmp180
	je	L98	 #,
	cmpl	$4, %ebx	 #, tmp180
	je	L99	 #,
	cmpl	$5, %ebx	 #, tmp180
	je	L100	 #,
	cmpl	$6, %ebx	 #, tmp180
	je	L101	 #,
	movl	%eax, %edx	 # ivtmp.44, D.29781
	movl	%eax, %ebp	 # ivtmp.44, D.29782
	addl	$1, %eax	 #, ivtmp.44
	subl	%ecx, %edx	 # filecontent, D.29781
	cmpb	$9, -1(%eax)	 #, MEM[base: _101, offset: 4294967295B]
	jne	L124	 #,
L101:
	movl	%eax, %edx	 # ivtmp.44, D.29781
	movl	%eax, %ebp	 # ivtmp.44, D.29782
	addl	$1, %eax	 #, ivtmp.44
	subl	%ecx, %edx	 # filecontent, D.29781
	cmpb	$9, -1(%eax)	 #, MEM[base: _101, offset: 4294967295B]
	jne	L124	 #,
L100:
	movl	%eax, %edx	 # ivtmp.44, D.29781
	movl	%eax, %ebp	 # ivtmp.44, D.29782
	addl	$1, %eax	 #, ivtmp.44
	subl	%ecx, %edx	 # filecontent, D.29781
	cmpb	$9, -1(%eax)	 #, MEM[base: _101, offset: 4294967295B]
	jne	L124	 #,
L99:
	movl	%eax, %edx	 # ivtmp.44, D.29781
	movl	%eax, %ebp	 # ivtmp.44, D.29782
	addl	$1, %eax	 #, ivtmp.44
	subl	%ecx, %edx	 # filecontent, D.29781
	cmpb	$9, -1(%eax)	 #, MEM[base: _101, offset: 4294967295B]
	jne	L124	 #,
L98:
	movl	%eax, %edx	 # ivtmp.44, D.29781
	movl	%eax, %ebp	 # ivtmp.44, D.29782
	addl	$1, %eax	 #, ivtmp.44
	subl	%ecx, %edx	 # filecontent, D.29781
	cmpb	$9, -1(%eax)	 #, MEM[base: _101, offset: 4294967295B]
	jne	L124	 #,
L97:
	movl	%eax, %edx	 # ivtmp.44, D.29781
	movl	%eax, %ebp	 # ivtmp.44, D.29782
	addl	$1, %eax	 #, ivtmp.44
	subl	%ecx, %edx	 # filecontent, D.29781
	cmpb	$9, -1(%eax)	 #, MEM[base: _101, offset: 4294967295B]
	jne	L124	 #,
L20:
	movl	%eax, %edx	 # ivtmp.44, D.29781
	subl	%ecx, %edx	 # filecontent, D.29781
	.loc 1 67 0 discriminator 2
	cmpl	%esi, %eax	 # D.29783, ivtmp.44
	je	L147	 #,
	leal	1(%eax), %ebx	 #, tmp181
	.loc 1 68 0
	cmpb	$9, -1(%ebx)	 #, MEM[base: _101, offset: 4294967295B]
	movl	%eax, %ebp	 # ivtmp.44, D.29782
	jne	L124	 #,
	movl	%ebx, %edx	 # tmp181, D.29781
	movl	%ebx, %ebp	 # tmp181, D.29782
	leal	2(%eax), %ebx	 #, ivtmp.44
	subl	%ecx, %edx	 # filecontent, D.29781
	cmpb	$9, 1(%eax)	 #, MEM[base: _101, offset: 4294967295B]
	jne	L124	 #,
	movl	%ebx, %edx	 # ivtmp.44, D.29781
	movl	%ebx, %ebp	 # ivtmp.44, D.29782
	leal	3(%eax), %ebx	 #, ivtmp.44
	subl	%ecx, %edx	 # filecontent, D.29781
	cmpb	$9, 2(%eax)	 #, MEM[base: _101, offset: 4294967295B]
	jne	L124	 #,
	movl	%ebx, %edx	 # ivtmp.44, D.29781
	movl	%ebx, %ebp	 # ivtmp.44, D.29782
	leal	4(%eax), %ebx	 #, ivtmp.44
	subl	%ecx, %edx	 # filecontent, D.29781
	cmpb	$9, 3(%eax)	 #, MEM[base: _101, offset: 4294967295B]
	jne	L124	 #,
	movl	%ebx, %edx	 # ivtmp.44, D.29781
	movl	%ebx, %ebp	 # ivtmp.44, D.29782
	leal	5(%eax), %ebx	 #, ivtmp.44
	subl	%ecx, %edx	 # filecontent, D.29781
	cmpb	$9, 4(%eax)	 #, MEM[base: _101, offset: 4294967295B]
	jne	L124	 #,
	movl	%ebx, %edx	 # ivtmp.44, D.29781
	movl	%ebx, %ebp	 # ivtmp.44, D.29782
	leal	6(%eax), %ebx	 #, ivtmp.44
	subl	%ecx, %edx	 # filecontent, D.29781
	cmpb	$9, 5(%eax)	 #, MEM[base: _101, offset: 4294967295B]
	jne	L124	 #,
	movl	%ebx, %edx	 # ivtmp.44, D.29781
	movl	%ebx, %ebp	 # ivtmp.44, D.29782
	leal	7(%eax), %ebx	 #, ivtmp.44
	subl	%ecx, %edx	 # filecontent, D.29781
	cmpb	$9, 6(%eax)	 #, MEM[base: _101, offset: 4294967295B]
	jne	L124	 #,
	movl	%ebx, %edx	 # ivtmp.44, D.29781
	addl	$8, %eax	 #, ivtmp.44
	movl	%ebx, %ebp	 # ivtmp.44, D.29782
	subl	%ecx, %edx	 # filecontent, D.29781
	cmpb	$9, -1(%eax)	 #, MEM[base: _101, offset: 4294967295B]
	je	L20	 #,
	.p2align 4,,10
L124:
	movl	%edx, __ZZN3stk4file4mime6decodeEPcE2tb	 # D.29781, tb
	movl	%edx, %esi	 # D.29781, D.29781
L21:
	.loc 1 70 0
	cmpl	%edx, 504(%esp)	 # D.29781, %sfp
	movl	%edx, __ZZN3stk4file4mime6decodeEPcE2te	 # D.29781, te
	jle	L33	 #,
L31:
	.loc 1 71 0
	movzbl	0(%ebp), %eax	 # *_141, D.29786
	cmpb	$13, %al	 #, D.29786
	je	L33	 #,
	cmpb	$10, %al	 #, D.29786
	je	L33	 #,
	movl	504(%esp), %ebx	 # %sfp, tmp176
	leal	1(%esi), %edx	 #, ivtmp.36
	subl	%edx, %ebx	 # ivtmp.36, tmp176
	andl	$3, %ebx	 #, tmp177
	movl	%ebx, 508(%esp)	 # tmp177, %sfp
	je	L24	 #,
	movzbl	(%ecx,%edx), %ebp	 # MEM[base: _104, index: ivtmp.36_4, offset: 0B], D.29786
	.loc 1 70 0
	movl	%edx, %ebx	 # ivtmp.36, D.29781
	leal	2(%esi), %edx	 #, ivtmp.36
	.loc 1 71 0
	movl	%ebp, %eax	 # D.29786, D.29786
	cmpb	$13, %al	 #, D.29786
	je	L34	 #,
	cmpb	$10, %al	 #, D.29786
	je	L34	 #,
	movl	508(%esp), %ebx	 # %sfp, tmp177
	cmpl	$1, %ebx	 #, tmp177
	je	L24	 #,
	cmpl	$2, %ebx	 #, tmp177
	je	L93	 #,
	movzbl	(%ecx,%edx), %eax	 # MEM[base: _104, index: ivtmp.36_4, offset: 0B], D.29786
	.loc 1 70 0
	movl	%edx, %ebx	 # ivtmp.36, D.29781
	leal	3(%esi), %edx	 #, ivtmp.36
	.loc 1 71 0
	cmpb	$13, %al	 #, D.29786
	je	L34	 #,
	cmpb	$10, %al	 #, D.29786
	je	L34	 #,
L93:
	movzbl	(%ecx,%edx), %eax	 # MEM[base: _104, index: ivtmp.36_4, offset: 0B], D.29786
	.loc 1 70 0
	movl	%edx, %ebx	 # ivtmp.36, D.29781
	addl	$1, %edx	 #, ivtmp.36
	.loc 1 71 0
	cmpb	$13, %al	 #, D.29786
	je	L34	 #,
L143:
	cmpb	$10, %al	 #, D.29786
	je	L34	 #,
L24:
	.loc 1 70 0 discriminator 2
	cmpl	504(%esp), %edx	 # %sfp, ivtmp.36
	movl	%edx, %ebx	 # ivtmp.36, D.29781
	je	L148	 #,
	.loc 1 71 0
	movzbl	(%ecx,%edx), %eax	 # MEM[base: _104, index: ivtmp.36_4, offset: 0B], D.29786
	leal	1(%edx), %ebp	 #, tmp178
	cmpb	$13, %al	 #, D.29786
	je	L34	 #,
	cmpb	$10, %al	 #, D.29786
	je	L34	 #,
	movzbl	(%ecx,%ebp), %eax	 # MEM[base: _104, index: ivtmp.36_4, offset: 0B], D.29786
	.loc 1 70 0
	movl	%ebp, %ebx	 # tmp178, D.29781
	leal	2(%edx), %ebp	 #, ivtmp.36
	.loc 1 71 0
	cmpb	$13, %al	 #, D.29786
	je	L34	 #,
	cmpb	$10, %al	 #, D.29786
	je	L34	 #,
	movzbl	(%ecx,%ebp), %eax	 # MEM[base: _104, index: ivtmp.36_4, offset: 0B], D.29786
	.loc 1 70 0
	movl	%ebp, %ebx	 # ivtmp.36, D.29781
	leal	3(%edx), %ebp	 #, ivtmp.36
	.loc 1 71 0
	cmpb	$13, %al	 #, D.29786
	je	L34	 #,
	cmpb	$10, %al	 #, D.29786
	je	L34	 #,
	movzbl	(%ecx,%ebp), %eax	 # MEM[base: _104, index: ivtmp.36_4, offset: 0B], D.29786
	addl	$4, %edx	 #, ivtmp.36
	.loc 1 70 0
	movl	%ebp, %ebx	 # ivtmp.36, D.29781
	.loc 1 71 0
	cmpb	$13, %al	 #, D.29786
	jne	L143	 #,
	.p2align 4,,10
L34:
	movl	%ebx, __ZZN3stk4file4mime6decodeEPcE2te	 # D.29781, te
	subl	%esi, %ebx	 # D.29781, D.29781
	movl	%ebx, %edx	 # D.29781, D.29781
L26:
	.loc 1 73 0
	cmpl	$19, %edx	 #, D.29781
	jg	L17	 #,
L30:
	leal	(%ecx,%esi), %ebp	 #, D.29782
L23:
	.loc 1 74 0
	movl	%edx, 8(%esp)	 # D.29780,
	movl	%ebp, 4(%esp)	 # D.29782,
	movl	$__ZZN3stk4file4mime6decodeEPcE1t, (%esp)	 #,
	call	__ZN3stk3mem3movEPvPKvj@12	 #
	.cfi_def_cfa_offset 1012
LVL10:
	.loc 1 75 0
	movl	__ZZN3stk4file4mime6decodeEPcE2te, %ecx	 # te, te
	subl	__ZZN3stk4file4mime6decodeEPcE2tb, %ecx	 # tb, D.29781
	.loc 1 74 0
	subl	$12, %esp	 #,
	.cfi_def_cfa_offset 1024
	.loc 1 75 0
	movb	$0, __ZZN3stk4file4mime6decodeEPcE1t(%ecx)	 #, t
L17:
	.loc 1 79 0
	cmpl	$65536, __ZL16filecontent_size	 #, filecontent_size
	ja	L149	 #,
L29:
	.loc 1 83 0
	movl	%edi, (%esp)	 # filehandle,
	call	_close	 #
LVL11:
L37:
LBE5:
	.loc 1 85 0
	addl	$1004, %esp	 #,
	.cfi_remember_state
	.cfi_def_cfa_offset 20
	movl	$__ZZN3stk4file4mime6decodeEPcE1t, %eax	 #,
	popl	%ebx	 #
	.cfi_restore 3
	.cfi_def_cfa_offset 16
	popl	%esi	 #
	.cfi_restore 6
	.cfi_def_cfa_offset 12
	popl	%edi	 #
	.cfi_restore 7
	.cfi_def_cfa_offset 8
LVL12:
	popl	%ebp	 #
	.cfi_restore 5
	.cfi_def_cfa_offset 4
	ret	$4	 #
LVL13:
	.p2align 4,,10
L144:
	.cfi_restore_state
LBB10:
	.loc 1 56 0
	movl	%edi, (%esp)	 # filehandle,
	call	*__imp___close	 #
LVL14:
	jmp	L37	 #
	.p2align 4,,10
L148:
	movl	%edx, __ZZN3stk4file4mime6decodeEPcE2te	 # ivtmp.36, te
	subl	%esi, %edx	 # D.29781, D.29781
	jmp	L26	 #
	.p2align 4,,10
L147:
	movl	%edx, %esi	 # D.29781, D.29781
	movl	%edx, __ZZN3stk4file4mime6decodeEPcE2tb	 # D.29781, tb
	leal	(%ecx,%edx), %ebp	 #, D.29782
	jmp	L21	 #
	.p2align 4,,10
L149:
	.loc 1 81 0
	movl	__ZL11filecontent, %esi	 # filecontent, filecontent
	movl	$65536, 4(%esp)	 #,
	.loc 1 80 0
	movl	$65536, __ZL16filecontent_size	 #, filecontent_size
	.loc 1 81 0
	movl	%esi, (%esp)	 # filecontent,
	call	__ZN3stk3mem7reallocEPvj@8	 #
	.cfi_def_cfa_offset 1016
LVL15:
	subl	$8, %esp	 #,
	.cfi_def_cfa_offset 1024
	movl	%eax, __ZL11filecontent	 # D.29784, filecontent
	jmp	L29	 #
	.p2align 4,,10
L146:
	.loc 1 61 0
	movl	__ZL11filecontent, %esi	 # filecontent, filecontent
	movl	%ebx, 4(%esp)	 # D.29783,
	.loc 1 60 0
	movl	%ebx, __ZL16filecontent_size	 # D.29783, filecontent_size
	.loc 1 61 0
	movl	%esi, (%esp)	 # filecontent,
	call	__ZN3stk3mem7reallocEPvj@8	 #
	.cfi_def_cfa_offset 1016
LVL16:
	subl	$8, %esp	 #,
	.cfi_def_cfa_offset 1024
	movl	%eax, __ZL11filecontent	 # D.29784, filecontent
	jmp	L15	 #
LVL17:
	.p2align 4,,10
L145:
LBB6:
LBB7:
	.file 2 "file/./../mem/stk_mem.h"
	.loc 2 78 0
	movl	$65536, (%esp)	 #,
LBE7:
LBE6:
	.loc 1 42 0
	movl	$65536, __ZL16filecontent_size	 #, filecontent_size
LVL18:
LBB9:
LBB8:
	.loc 2 78 0
	call	__ZN3stk3mem5allocEj@4	 #
	.cfi_def_cfa_offset 1020
LVL19:
	subl	$4, %esp	 #,
	.cfi_def_cfa_offset 1024
LBE8:
LBE9:
	.loc 1 43 0
	movl	%eax, __ZL11filecontent	 # D.29784, filecontent
	.loc 1 44 0
	movl	$__ZN3stk4file4mime6atexitEv, (%esp)	 #,
	call	_atexit	 #
LVL20:
	jmp	L10	 #
LVL21:
	.p2align 4,,10
L18:
	.loc 1 70 0
	movl	%eax, __ZZN3stk4file4mime6decodeEPcE2te	 # D.29781, te
	xorl	%edx, %edx	 # D.29781
	movl	__ZL11filecontent, %ecx	 # filecontent, filecontent
	jmp	L30	 #
	.p2align 4,,10
L33:
	.loc 1 71 0
	xorl	%edx, %edx	 # D.29780
	jmp	L23	 #
	.p2align 4,,10
L19:
	.loc 1 70 0
	movl	%eax, __ZZN3stk4file4mime6decodeEPcE2te	 # D.29781, te
	jmp	L31	 #
LBE10:
	.cfi_endproc
LFE703:
	.section	.text.unlikely,"x"
LCOLDE3:
	.text
LHOTE3:
.lcomm __ZZN3stk4file4mime6decodeEPcE2te,4,4
.lcomm __ZZN3stk4file4mime6decodeEPcE2tb,4,4
.lcomm __ZZN3stk4file4mime6decodeEPcE2eb,4,4
	.data
	.align 32
__ZZN3stk4file4mime6decodeEPcE1t:
	.ascii "file/unknown\0"
	.space 27
.lcomm __ZZN3stk4file4mime6decodeEPcE2el,4,4
.lcomm __ZZN3stk4file4mime6decodeEPcE1e,20,1
.lcomm __ZL16filecontent_size,4,4
.lcomm __ZL11filecontent,4,4
	.text
Letext0:
	.section	.text.unlikely,"x"
Letext_cold0:
	.file 3 "C:/Qt/Qt5.5.0/Tools/mingw492_32/i686-w64-mingw32/include/_mingw.h"
	.file 4 "C:/Qt/Qt5.5.0/Tools/mingw492_32/i686-w64-mingw32/include/_mingw_off_t.h"
	.file 5 "C:/Qt/Qt5.5.0/Tools/mingw492_32/i686-w64-mingw32/include/stdint.h"
	.file 6 "C:/Qt/Qt5.5.0/Tools/mingw492_32/i686-w64-mingw32/include/stdio.h"
	.file 7 "C:/Qt/Qt5.5.0/Tools/mingw492_32/i686-w64-mingw32/include/sys/types.h"
	.file 8 "C:/Qt/Qt5.5.0/Tools/mingw492_32/i686-w64-mingw32/include/_mingw_stat64.h"
	.file 9 "<built-in>"
	.file 10 "C:/Qt/Qt5.5.0/Tools/mingw492_32/i686-w64-mingw32/include/c++/bits/exception_ptr.h"
	.file 11 "C:/Qt/Qt5.5.0/Tools/mingw492_32/i686-w64-mingw32/include/c++/i686-w64-mingw32/bits/c++config.h"
	.file 12 "file/./../mem/./.././time/stk_time.h"
	.file 13 "file/stk_file_mime_types.h"
	.file 14 "file/./../text/stk_cstr_utils.h"
	.file 15 "C:/Qt/Qt5.5.0/Tools/mingw492_32/i686-w64-mingw32/include/io.h"
	.file 16 "C:/Qt/Qt5.5.0/Tools/mingw492_32/i686-w64-mingw32/include/stdlib.h"