	.file	"stk_threads.cpp"
 # GNU C++ (i686-posix-dwarf-rev1, Built by MinGW-W64 project) version 4.9.2 (i686-w64-mingw32)
 #	compiled by GNU C version 4.9.2, GMP version 6.0.0, MPFR version 3.1.2-p9, MPC version 1.0.2
 # warning: MPFR header version 3.1.2-p9 differs from library version 3.1.2-p10.
 # GGC heuristics: --param ggc-min-expand=100 --param ggc-min-heapsize=131072
 # options passed:  -fpreprocessed stk_threads.ii -malign-double
 # -momit-leaf-frame-pointer -m32 -mfpmath=sse -mpreferred-stack-boundary=8
 # -mmmx -msse -msse2 -mthreads -mtune=generic -march=i686
 # -auxbase-strip debug\stk_threads.o -g -g -O3 -Wno-write-strings
 # -Wno-multichar -Wno-unused-variable -Wno-unused-parameter
 # -Wno-unused-value -Wno-unused-label -Wno-unused-but-set-variable
 # -Wattributes -Winline -Wshadow -Wunknown-pragmas -Wall -Wextra
 # -std=gnu++11 -std=c++11 -fno-keep-inline-dllexport
 # -fno-use-linker-plugin -fverbose-asm -fstrict-aliasing -fwrapv
 # -funroll-loops -flto -fexceptions -frtti
 # options enabled:  -faggressive-loop-optimizations
 # -fasynchronous-unwind-tables -fauto-inc-dec -fbranch-count-reg
 # -fcaller-saves -fcombine-stack-adjustments -fcommon -fcompare-elim
 # -fcprop-registers -fcrossjumping -fcse-follow-jumps -fdefer-pop
 # -fdelete-null-pointer-checks -fdevirtualize -fdevirtualize-speculatively
 # -fdwarf2-cfi-asm -fearly-inlining -feliminate-unused-debug-types
 # -fexceptions -fexpensive-optimizations -fforward-propagate
 # -ffunction-cse -fgcse -fgcse-after-reload -fgcse-lm -fgnu-runtime
 # -fgnu-unique -fguess-branch-probability -fhoist-adjacent-loads -fident
 # -fif-conversion -fif-conversion2 -findirect-inlining -finline
 # -finline-atomics -finline-functions -finline-functions-called-once
 # -finline-small-functions -fipa-cp -fipa-cp-clone -fipa-profile
 # -fipa-pure-const -fipa-reference -fipa-sra -fira-hoist-pressure
 # -fira-share-save-slots -fira-share-spill-slots
 # -fisolate-erroneous-paths-dereference -fivopts -fkeep-static-consts
 # -fleading-underscore -fmath-errno -fmerge-constants
 # -fmerge-debug-strings -fmove-loop-invariants -fomit-frame-pointer
 # -foptimize-sibling-calls -foptimize-strlen -fpartial-inlining -fpeephole
 # -fpeephole2 -fpredictive-commoning -fprefetch-loop-arrays -free
 # -freg-struct-return -frename-registers -freorder-blocks
 # -freorder-blocks-and-partition -freorder-functions
 # -frerun-cse-after-loop -fsched-critical-path-heuristic
 # -fsched-dep-count-heuristic -fsched-group-heuristic -fsched-interblock
 # -fsched-last-insn-heuristic -fsched-rank-heuristic -fsched-spec
 # -fsched-spec-insn-heuristic -fsched-stalled-insns-dep -fschedule-insns2
 # -fset-stack-executable -fshow-column -fshrink-wrap -fsigned-zeros
 # -fsplit-ivs-in-unroller -fsplit-wide-types -fstrict-aliasing
 # -fstrict-overflow -fstrict-volatile-bitfields -fsync-libcalls
 # -fthread-jumps -ftoplevel-reorder -ftrapping-math -ftree-bit-ccp
 # -ftree-builtin-call-dce -ftree-ccp -ftree-ch -ftree-coalesce-vars
 # -ftree-copy-prop -ftree-copyrename -ftree-cselim -ftree-dce
 # -ftree-dominator-opts -ftree-dse -ftree-forwprop -ftree-fre
 # -ftree-loop-distribute-patterns -ftree-loop-if-convert -ftree-loop-im
 # -ftree-loop-ivcanon -ftree-loop-optimize -ftree-loop-vectorize
 # -ftree-parallelize-loops= -ftree-partial-pre -ftree-phiprop -ftree-pre
 # -ftree-pta -ftree-reassoc -ftree-scev-cprop -ftree-sink
 # -ftree-slp-vectorize -ftree-slsr -ftree-sra -ftree-switch-conversion
 # -ftree-tail-merge -ftree-ter -ftree-vrp -funit-at-a-time -funroll-loops
 # -funswitch-loops -funwind-tables -fvar-tracking
 # -fvar-tracking-assignments -fverbose-asm -fweb -fwrapv
 # -fzero-initialized-in-bss -m32 -m80387 -m96bit-long-double
 # -maccumulate-outgoing-args -malign-double -malign-stringops
 # -mavx256-split-unaligned-load -mavx256-split-unaligned-store
 # -mfancy-math-387 -mfp-ret-in-387 -mieee-fp -mlong-double-80 -mmmx
 # -mms-bitfields -mno-red-zone -mno-sse4 -mpush-args -msahf -msse -msse2
 # -mstack-arg-probe -mvzeroupper

	.text
Ltext0:
	.section	.gnu.lto_.profile.f43c6987,"dr0"
	.ascii "x\234cf```c\200\0F\206\335\314\17\30\1\5X\1\252"
	.text
	.section	.gnu.lto_.jmpfuncs.f43c6987,"dr0"
	.ascii "x\234mP=K\304@\20}\263\233Kr\236z\326\26\346\374\3\26\366\376\3\261\20\354\4"
	.ascii "9TP\4\25O\210\315\221\200\215\202\265\\s6~\335\351\371\1\202\370\17,%\234\245p\10\26ZZ\10\6E\235\331$E\300\335$3y\363\336\233\235\325\370\177\35\22"
	.ascii "0\315q\10\232\210\234 \10H\223R\222(\206\5$\322>\247\26\277\205\354\227`g|[\275+\352\275<D\356\253\212EC'4\214\34\310=\350\224A\355s\246}&I\371(\352EZ\312\312\2\265\270\14"
	.ascii "8\354\31"
	.ascii "0\307McQq\267@\262T\363\263\335\275%\243\371\345U\6\265\245\227\14\242\220\330\363\23\0}bP\222\217)\366\33?3\6\6Roq4\362D1(p9\33JK\263\235\307\373O\307\243f\330\250\304J\203\221\335\316\301\261]\377\12\33\241\33+\213\316\310\343\206\347T7g{n\335}\227\274JB/\10\375f\357m\337\312\350"
	.ascii "6u\14\375\"\245"
	.ascii "7\237>\256\213"
	.ascii "2\212\323%\320\245\34$wi.s\257\344VH%q\244\212"
	.ascii "9\254a\25\213\330\302"
	.ascii "261\212\11La\6\223\274\201\361\32CK\330\340r\25\13\250a\26\202\254\260(\217\217a\36\353\274\201?Q\22p\331"
	.text
	.section	.gnu.lto_.inline.f43c6987,"dr0"
	.ascii "x\234\245\224"
	.ascii "1o\323P\20\307\377\367\336\263\375\22;\261\203\324%\10\305\2\241"
	.ascii "0Ub\350\356O\20e\314\322\275|\13\203\30\20S\4L\25C\7\4\22\22\33;\33#\24\6\206\16\320\201\241c\221X`\342\356\236m\322\342R$2\334\335\273\234\337\375\337\357\235m\321\377\333\211\202/\200$\"\3\202\5\21\20\321O\203d\377:gN\22\27,\334\301,\223b\302 \331\254"
	.ascii "5\337#\370'7\15\314a\356\202\355j\15\342"
	.ascii "1\301p\16\361\301\314h*ec\341R\316s\344\320ei\275p\27\324G\210F\241~3\315\17\304\330\272\306*X\207\311\216w1>\336\325\177\375\204+\201\365b\275`\223`<\242\30{4\237\332\22w\32\367\315\320\227\257\357?\370\23\363\303\14x\263\347"
	.ascii "4\265K.\12\236\217W\212Y\372\266)C\250\14\242\7\363\12t/\251\311\363\342\341\15\366\260\373\276\364\240\317\246\364\332\335f\220\365z\341\221\367"
	.ascii "4\376\217N\321\247Q\177\247\1n\347"
	.ascii "4\274\244SX\257\232\365\352wg1+\271\314tCBmTCmT\204kD8n\367\314\325^\4D\257\267$\200yi\353\242&I\315\336M$@\362\226B\"\\\225\346X&\353\325\320\360\275\270Qo\314CPt\365C$1\271s\307je\313\15wj\13\25[\210Vi\253N\232\247n\232Qvn\207\0\240j\200T\35\220\263\200\226\35\300\266c\245\240\24\331x\223\224\17\244\274\222*\32RE U\266\244J9\322#SW\225f\216\206\32!}\345j#\1=u\252\\\34(\321\244\362\23"
	.ascii "8Z!\244"
	.ascii "2\344W\377B$>\335\376\23\311\307X7\26\327\14\215\260\325\27k\204\351\25\32\364\342\271\34G 1\374\347\231)\332\231a4\366\215\253d\235<N\331"
	.ascii "7c\"Q\230\22\211t0\212"
	.ascii "69\226Q\260=\7\277`\12\302\20\350\316"
	.ascii "9\346kK\226\316\274\362,\233^\320\24\264\27\34O\277\275u\377\356\4\376t\333\310\7\254h\330\263V\205&_\31A\327\204\370\5\365\14\255\""
	.text
	.section	.gnu.lto_.pureconst.f43c6987,"dr0"
	.ascii "x\234cf``Pd\200\0\1\6)F)&\11f\11\26\11V\11"
	.ascii "6)v)\16)N).Vn)\36I^I>)~+\0%\312\2N"
	.text
	.section	.gnu.lto__ZN3stk6thread8cmpxchg4EPiii@12.f43c6987,"dr0"
	.ascii "x\234u\221KhSA\24\206\317?3\271\15\215Rqg\261\240\304PW\"\270t\343\322\255{E\202\21\4\301\226\246\340\262\223\7E\12\205b\213\10!\232\326\267\325>\214\5\265 \327M\251\342\253\305GqQ\13i\301\7\212\265\342"
	.ascii "5\240\275\236"
	.ascii "3\211`}\14\\\316\234"
	.ascii "9\347\373\347?w4\375\275v\361w@\21m\347\210\10A\365=&\312D\225\322S-d\33\315\203\235d\327i\230\332\261\1dC\240.\245\15\272\360V-+\334\36\371\362(\366FU\25m!N\357\234\234>\355I\12#i\377\231\340VC\353\5k\355\247\241J[\337@\211+\212V\24\341\"\232q\11\315\242w\31\255\334\232\235\14>7\352\315\20l\374^9\214%\316Y\233\365{sfoUi\\\201\376\35\343#\302U$\270\371\373\303\360\274\326[\35\270\332_\374\250\4\264\376\260\3\25\206\377\4"
	.ascii "9\271\346\300gs\225n\243\343\16\254V\336\215"
	.ascii "5\325\300\273u\360\372?\300\21$\244{9\377\343e\314\313s\367\6\31\206g\30\205\7\16\\\353.\14\315Fu\302\251\236\230y\377\264)>\310}\13\205\331=~\276dW\303\20\">\266V\274\266"
	.ascii "0\216\370\350F\337\206a\271\367~n\367\276\250\206\314h\\!\2\261\355\301y\240E\276U^c\211]q\324\257\220\375\332"
	.ascii "3\237iXkN8\347\215\265o\300\13\224\341\372\353\305'3Qy\"M\342q\342\333\331\17\353\213(\210\255\200\177tY\354\340&\212\240\27P\202\211\12\243\364\34\371\271\334\312"
	.ascii "4\352R\201\212"
	.ascii "8\327K,4\325\"\16N\15n\223\332\177E'X4P\236c\214\263=\217\214?Y\372\245H2\27\244\300\323mJw\36\351"
	.ascii "8\234L\245\367\247;\217\36\254\357w\34jo'\223L\245:\320\206c\372x2\375\23Q\356\334\220"
	.text
	.section	.gnu.lto__ZN3stk6thread8cmpxchg8EPxxx@20.f43c6987,"dr0"
	.ascii "x\234u\221MHTQ\24\307\317\377\336;\257\227c\20\356\222\244b\32l\25A\213\266-Z\264\256E\233 \206&\10\202\24Gh\321\302"
	.ascii "7\37H\24E\212\212 \222"
	.ascii "6\332\207\332Lj\243}\200L\20\226QIRf-J\312\201Z\4\231\341"
	.ascii "4P\274\316\271\343,\244\272\360"
	.ascii "8\367\334s\376\277\373?\367i\372{\355\345\357\254\"\332\305\21\1\202\272\374\202(\356*\245\247\353\310\253"
	.ascii "2O\367\220W\255a\312\307\6\220\15\201Z\224"
	.ascii "6h\301\27\265\254"
	.ascii "0\226\36\234\330\370Y\225\24\355'N\7:\273F\2\222\302\225\364\343\245\273\223\252~\320\363\274o\355\205\206\266\216\276\352\222R\264\242\10\327P\213\353\250\25\336\15\324sk\342A\361{\225\336\12\221\335\313\374x\36\264\320\355\222\336o\177\322\355X\250\221t\364\341\270\37\14\247=/\221\277\230"
	.ascii "4\7KJ\343&\264@\207\30:\314P>\"\214 \314\315\277\236\371\3Z\357\260\330\370\354\352a\321y\371\341\264"
	.ascii "9\247\331\12n\225\205\25"
	.ascii "7\342\16\31+|\265\360\251\325\350\220\25>\312=>R\26NU\204\331\177\10o#,\335\313\251\337o\202N\212\333"
	.ascii "7\313\250<\341(\34p\340Zk\317\325"
	.ascii "9W\207-\365Bgf\312\204\372\271oqh\356@\276\333K-\372\376"
	.ascii "6\201\217\255\207\227\27\306\21\312\326\344=\337_\351\230I\356;\344j\310\214\306\26\2\20\333\16\254\7Z\342[\345_\25\330\25G\375\16\211\325\363\363\211\15\353\315\211\316zc\366\35"
	.ascii "8Ee\270\376ai\366\245+o\255I<\346~^\371\272\251\27=`[E~\350\234\330\301\4zA\363P\"\23\12K\351"
	.ascii "5R\13\311\354\14\326PE\25\260\256\13\14\232\256\23\7]\375;\245\366_\350$C\213\312\261\32cm\277G<\377\266\257B$\231\13R\340\351\266\304\232O6\235\210DcGc\315\247\216\255\355w\37ol$\23\211F\233\320\200\323\372L$\366\7\0\206\346\364"
	.text
	.section	.gnu.lto__ZN3stk11this_thread2idEv@0.f43c6987,"dr0"
	.ascii "x\234eP\317+\204Q\24\275\347\276\357\373\250I\211\25Q\312\302\316\277\300\37\242\244\241\224\215ffI\336\314"
	.ascii "75\26BXXH,\374f\24Y\30\322,m\330(j\232\246YP,\224i\374h\22\237{gXLn\335\356=\357\236{\336y\317\320\377h\227\234\0Q\247T\30\2\317_\23\305\33\31\320\206@S\214)<q\211q\232~\275\12=r\205\251\213\4f\26.\227=\205p\24\372"
	.ascii "7\357'n\317\206\265\211\227\304Vx~iM&Le&l\242\35[\320\213\260\215\36\345\226\222_w!/i\255mV\206\14v\340\211\11\250\354s&\313\246\3\312\213\237\277\274"
	.ascii "6u\257\213f1s\321\237M\256\331\357 \200\350b\27\246^Z\3{\350>l\311\332 8^\231\363\373Z=S=r\250\302\306%\265C\367\222\372\260\7\1RM\36~\366\255\310\365\236t\251jI$\367\341}\260\221\371\352\315l\232'?\355\264m\254\260Sf\265{\200I\221u\351\26\254D\335\23"
	.ascii "2\345\340\37\245\12\213\246\266\354\324\366\343\233g3\15\217\325O!\244\305s\16\211B*\217\32\311\25\36\25\360\207H\235B\35\12\273-\32\33\215\214\14\15G\7\242\261\261\301\337\276"
	.ascii "7<>N\210\374\0RC\214"
	.ascii "4"
	.text
	.section	.gnu.lto__ZN3stk11this_thread4quitEm@4.f43c6987,"dr0"
	.ascii "x\234cf\300\4\"@\374\15\210\325\200\230\221\231\201\221i\302"
	.ascii "9\6\206F\16&\6F\206z&\306z\306\227L\37\231\30'\34X=\203[}iCC\303\207E'\263\32\246$\374db`\370\314\4"
	.ascii "1\201q\31\243:P\315\334\273\373"
	.ascii "7\263"
	.ascii "2\313"
	.ascii "02\0\331;\327}9\313\375\202\351'\23\243\2\210\273k\322\211\31l .\23\13\210{\367\316\347i\354\252\213\33\32\232\16\314hf\361\370\311\304\314\270\234\221\31h\34\343\12F)\306\225\214R\14@!\6\306U\214\252 \325\37[\376^\347fk\1\332-\0\261\222q5#\33#\220^/t\240\341\377\377\305\327\16ndeab\4+gx\2T\0\362\300S&&\20\315|\207\261\245\243u\363)f\220\36\220a\363.\367\255c\252\375\335\320\321\300\361\223\211\345"
	.ascii "3\23\320\34\306"
	.ascii "5\214\265\14\337\231\200\256ce\0\31\300\10\366\224dqIFQjbJqLqIv<\224\255\227\\P\300\300\225\30\237Z\221Y\222\234\237\222\12\0J:c\375"
	.text
	.section	.gnu.lto__ZN3stk11this_thread4yeldEv@0.f43c6987,"dr0"
	.ascii "x\234ePMKBA\24\275\347\216>\5\11\242U=\12\2\27\22D\277\241\37\22D\224\20\264\21\25\302\205"
	.ascii "8~D\255\"Z\325&\15\351\273\224\204\26Y\213\27\265\20\242"
	.ascii "6QAT\233\12j\21(J\361\212z\315\230\233h`\346~\237{\316\10\372\177Lu\203 \352Q\26\202\300s\347DI/\3\332!P\202\221\300\13\327\30\305\217\207\234+\260\"e\252Z:\315z\246:m&\252"
	.ascii "3\241\337D\237\306\301*\2\244\32k\231\257k\237\221\221R\266\353\272*\254\301P;\250\330aI\307\311\237\34]\272\335\202l\206\213"
	.ascii "4\6=\252G\257{b\326V\334\"m\35\354\352\235\345\327\262\305\242\33\32v\277\320"
	.ascii "8\363=\263\315\334\253\303\362|e\301\320\241p\351"
	.ascii "0yXm\264\371\227\25;+\233\223\203\231\234\374v\34\330\354\302:\204f\271\1\23\233"
	.ascii "0[\272\377\322\304\26\374M\226\212\353"
	.ascii "6\214w\26\252\276t1[\340\370\247\234\221^\233\335uV\12\260\203\270\242l\320\25Rr\21\272W\217\252\346\273\343J\336\23\233T\373\324\260\316\23\12\210\321\15\322\245\351\267=\361\213\332\254\371M\272\7Z\211\246xh\321\352\13\272\"\321\361ppd,2\24\211N\14\267\374\201\321P\210\20\376\1\251\371\205\334"
	.text
	.section	.gnu.lto__ZN3stk6thread13onexit_commonEPv@4.f43c6987,"dr0"
	.ascii "x\234eO\273J\3Q\20\235"
	.ascii "3w7\6\323\210\235\301B\213\220\316\357\360#\204\260\250(\332\204$m\310]\223\302B$\212\205\215\"\210\361\35\13\21_\205k'B\4Ma#V\21b!\30\326\30\26\15qn\260\20\274"
	.ascii "0\314\343\236s\346\214\242\377/*1\10\242a\311P\4.\336\21\271a\6LA\240\34#\207Wn0\316\313\37\225H\235\3\246!\222\366b\371f5dZX\246\315W?O\354\370\226\326s\357\17\225\231\342\312\206\374"
	.ascii "0\371L(!\212m\230E\330A\\\240\267g\255\267^%[\245n_-\335\253\330\246\320\274\265\274"
	.ascii "5\32\260\302.\324_\232\214\10{\210\31t\243\320~\214\204\12Z\353>#-\212\373\10\211{:\352\367t\247s|z\375\15K\274\33"
	.ascii "8\325\4`\216x\21\37\222\325\23\12\236\337\204\241\30\255\365\352b\231\263_z^\207\3\266|\26\31\34 K-\26\347"
	.ascii "6=\303\365\232\216\1\13\326-].\364\324\273\27\21\16\273\267\324\204 \252"
	.ascii "2\30Hg\246S\223\316Dz,\235\231M\374\326#\343\311$\331N\302IM\375\0$\203q,"
	.text
	.section	.gnu.lto__ZN3stk6thread6createEPNS0_10ssthread_tEPFmPvES3_@12.f43c6987,"dr0"
	.ascii "x\234\225\224[O\23Q\20\307\317\377\234\355\266PJ\301"
	.ascii "7\33\37|i\210\211\365\311\370\31\374\20&\320xML\214\1|2\204\255\20\301D\210A\203\212W\254"
	.ascii "7Tn\"*\305\13\327\202\310ERE%D\202\202\321(\241(\1\252\1\234\331\5E4h7i\316\236"
	.ascii "93\377\337\314t\316*\361\347\263\231~\5"
	.ascii "6!\266\320\12\233\200<\326+D\300!\245"
	.ascii "6m\27F\242*\13\13a$)h\226]\3\370E@\344J\245!\27\37\345\244D\365\267w\27\265\264+\206q(ZR;\353.>\221\21\223B|\225\2\33=\330\340a\377\253H#\307\211\347=\245J\255\203\240\367\206\252\251\36\347\7\31\223X\317\333PI\347)\235\267R\343md\240\365\255\346\15\222dSY\236\266"
	.ascii "5&\25\256A\261\344uxP\1\217 \223\300\15x\311y\260\371aXW^S6\24\254"
	.ascii "8\342\262\2\373\314@\15"
	.ascii "7W\6j\2\267\254\300\306\206\10\324F3\360p(Z\351\264\2?\233\201"
	.ascii "6T\256\14\244\6U\301\313\336\223\371s/\235z\276a\30)\\(UX\15\35\264V\257i2\26\26\202m-\21\35\251\240\30\241\300iR\347\210\251\203\5\\d\326\335\246\236\30\245`n\351\230\224\274\252A\34*\235l\17\330Y\217"
	.ascii "8\303\243}\375\16n\213\22\214\255\237\275"
	.ascii "0\356:\207"
	.ascii "3\210I\373\14\365\244\206\322b\373\331\251\343\257\335\276\233\224\216#&\35\250\305"
	.ascii "9|\341\254\370l\256h\"\210\245"
	.ascii "3\15\267\341\373\"9S\324\301"
	.ascii "7C\275`bm8\220\260H\374/D\2\356\230\10i!\346\233{\203?\317l\250g\204b\304]F\350\214\210F\303\345\366x\20\32\356\231\10\215u\356\303\267\274\31dC\3\5\261nM\307H\\\272\211\10\231\272\266\277\246\336\310\251\353\214|\0\37\322,D\264#\276\356"
	.ascii "8\361\320D\330\377\362\7\10<b\204\203\21\217\177\257\212MMKUu\227\307\211l^\5\331\302\310\4\326o\245\252\226\30\321\356\370:\347D\333*\214vf$2#\374\213"
	.ascii "1]0p:\252"
	.ascii "3dF\272V\341\214\277;9\225\314Z\205\244\225\204\16\223\343\264"
	.ascii "8\267\212\272\346\365\234\203te\320\11\37\351?A\216\30\302ZK\325M\36\347#\305U2\347\273Q\310\231\270\276\362t\243\213\234\226"
	.ascii "77\231lO\341Ynr\223\251\33\36\272\3"
	.ascii "4\243tp\271\177\270_\361A\12} z\370\300\25\223\251\\F\311\310\20\376\321\251K\237\332\336&\377\232\243^\263\202$nG\37\337\1\267x\201\374Wy\23G\261\230"
	.ascii "6\317\26?\243tQ\350#\253\306h\250\371\376\277A E\314p\11\357\1n\243\354\256\313 \375\376\262\253ynsJ \360\14\36"
	.ascii "5T\227M\301\340 \232\234\265Y\331{2w\372wdm\313\312\336\233\276\370\276i\373\376\375\302\341_\334\352\376\364]\7\366mO\264\226t\177\346\356\37\271|\0\203"
	.text
	.section	.gnu.lto__ZN3stk6thread3runEPNS0_10ssthread_tE@4.f43c6987,"dr0"
	.ascii "x\234\215R\337K\24Q\24\276\337\275"
	.ascii "3\263\263\255\246\364\326\26\31\210I\320\326\223\364\7\364\322?\320[\220RA\320\213\250\20>\210w\327%{\311\302\"\"\263\262\265\237\326nZkj=l\31\341\213\205h\232f)\376\210\"DW\227jK\331\316\231Y+\13\242\13"
	.ascii "3\367\234{\277\363}\347;3J\374\275\366\320\263O\11\261\215vX\2\362\364\13!\202\266\224\346g\217\320\353\324\205\347B\350\34%\315\341]\224\32=[(3`\272(\23\340@@\324Je\230\250\305G\231\224\210}\233\276b\24_\323:\264\360"
	.ascii "4\276\234\323p\266"
	.ascii "4-\205X\222\2;\374\330\356\347\202\353(&\340\374P\377"
	.ascii "9\245"
	.ascii "6CP\334\35M\365\373>\310\264\304VN{\32\373\316[\234J\203\323\301\341\336)\243(B\224\211Su\306\336\264T\270\1\305\224"
	.ascii "7\341\307-\370\5\35\11\334F\21\243\223\341\225\21\237\25\326Z\347\263,\351\265\301\2\355\261\15\11\235\311L\17=Y\261\340\3\325\10\3\\dRhX\234\333\364"
	.ascii "2\275\34\11"
	.ascii "1C/\366"
	.ascii "7+%\357j\14\241\316\366\221\1\223\333\233\353IHU\344t\36|\274\220\312-l\241\336&\273\246\353m\335\247\303\223\231L\1\361\340\316\332\36\335\265\266A\334E\241\323\37u\31\205\365E2\375\304\314\313\1\233\335+\7\36\377zy.\267\31MA\255'\243\21_Z\22\314@\214\31\351\366\352\247gS\353\3mDf\223\13\334C3\26\271}\201v\4\304+\204_\327YYj\24\273M\314\22"
	.ascii "1}Y\307QK\201{i\375&\204?$.\246\316\214\346\255Jx\320\341H\300\365\262rr>\202\325;\201\373\10,Jg\346\17\\\365Q\365\213\377\247/\276\217c\265\31C\304"
	.ascii "6\251q\204\23\311\343%.\330&\360\245\301\206\250\254\371\256O0\261\275\304z\350D\215 \37i\351\25c\250\353\250\37\317:\363\272%\23M\351V/\363\233\31Zy\2\17Ic\30!\375\6\214\343Y\23\352mo_\304S}\214PT\310\347\2]\250&\302Pcr\274\305\303'\377?\213\356\177\314\242\207g\241\330\353#\4H\313"
	.ascii "1k:\377\322;\4\363\311\11\325\275\7x\24j9^J\20\243u7g2UB\277\37\30J\263\332XYu\244\342p\331\241\312\375\225UG\17d\343\235\7\313\313\205]\226MQ\361\3v\343:`"
	.text
	.section	.gnu.lto__ZN3stk6thread7suspendEPNS0_10ssthread_tE@4.f43c6987,"dr0"
	.ascii "x\234\215R\337KTA\24\236of\356\365\256\333\246\364\326\366\303@L\202\266z\351\301\347^\372#\202\224\12\202^D}L\274\352\302\366P\22\26\21\255Vf\331\17\315"
	.ascii "5Kk\327\36\26\222\362!\13\261,-\324t7\212\20\177-\326-d;\347\336\265\220@\32\270w\316\231\371\346\373\316\371f\224\370w\34\242\357\264\22b7\315"
	.ascii "0\5\344\371WB\324[R\32+y\302\316WW\236\13aoR\322\30\333O\251N\354\244L\303\360P\6\300\201\200\250\223J\33\250\303W\271(\21\373"
	.ascii "9{]\227\336\262\355\206\205\346xW\240\351b\271#\205X\226\2{\203\330\23\344\3\35(%\340\374\233\341KJm\207\240"
	.ascii "8\336\235\31\366\177\221\216\304.N\23\315C\227MN\245\346tt\354\331\214.i'\312d\264Q\37v\244\302m(\246\274\203 \356\"(hI\340\36J\30\275\30^}\347"
	.ascii "7\303\266m\27\262,\351u\302\4ML<\227HJU\342j\326?]\310\4\212\333\210uzx6b\331Cvx:\233-r\244F\327zvo\340>\212c[\222v6\273\234\32\351;\360\241"
	.ascii "8\0\322\25\32,lPh\230\234[\364\323>\216\362\335#~\16\205H\321\217\355JK\311\263\232@C\377bz\304X_0\37p\353%\271n\230\337%\357O\245^\217X\354\6\335\24\245}?\256\315\5Z\21\205#\11\240\21\343\12i\375\306\267\301\231\315\241N\242\261\250\26\364\240\25K\322-\374\1B\342-\302\357\33\315\34)J\275\246\322DIw\354\26\323V\344m\232\33H\264d.\214\27\254I\344\241\327\225 kyo\365\334|;\326\366\4\36\"\264$]\367\37y\352\343\352/\377\237\216x\277\17k\305h\21\333\246>\"\234\214\276"
	.ascii "8\350\201-\2_\35m\352\226\265\277\354"
	.ascii "3Ll-\263\36\372Q+\250\17G\372\304\4\32{#\251\\g>\357\310T\324\271\351c~\235\245Q \360\230"
	.ascii "4\250\311\311H&\7\314'\254\30\203\344\214M\247\25f\352\211\254\264\324x\10?-\361+\351\30"
	.ascii "8\233\347R\221\354\23\217\246\371\323\16\306\374\277Q\361\15\214J\260Q\212\215\30@\210d]'\14\367\215L\242\276\220\332\244s\237\1\366I\275\214\227S\341:S\306\231\34,\243g\5\206\222\221[\253kNV\235\250"
	.ascii "8^}\244\272\346\324\321\\\274\357Xe\245\260*r)\252~\3\305!C7"
	.text
	.section	.gnu.lto__ZN3stk6thread9terminateEPNS0_10ssthread_tEm@8.f43c6987,"dr0"
	.ascii "x\234\225U]L\34U\24\276\347\316\377\354\356,,\26pc\254\11\241\304\37\264\361\301\352C\337}\365\335\4HK\324\370`\3<\230\30\322\201\305\330\244\261\25\255\215\251\240Pj\265\266B)\226R~\312V\260\320\26h\221\237\226F\372\203`l*aai\351\332\302z\316\235Y\376"
	.ascii "4\270n\262"
	.ascii "3\367\314\271\367|\337w\316\231"
	.ascii "9\22\373\347\257\15\377o\350\214m\303;\370\31\360O\6\30+\323"
	.ascii "9\267\36h\314"
	.ascii "6\245C\27\30\263\275\22\267\332\237FS\36~\11-\231[\243x7\225V|\346U\270:\234\216\226\257}\33Z*\327\366\344\240\245\323\325\253q#\262\211\254\232W\321\322\301p\242\33\334\244\243\246\10\343"
	.ascii "5\271\247\347\25\264\274\27"
	.ascii "3\320\362\200\327\331\344\5\237\263\360\201\345,,\0Z0`\273\271$+\252\246\33\246\307\353\263`7\334\345\263\34\32\376\372\255F\316\371\306\266\313#\23m\17\255}\7\362c\234\261(g\360B\20\236\15\322\311\243\220\203\33g\206\373\17J\322S\300p}\266~\276\337\363\7\217qx\206\314\326O{\277P\311\344"
	.ascii "2\231C\243]\23rv\35\206\14W\207\344\327c\\\202oA\242\220\337A\20\216A\220\341#\6\337C6n\256\36\357lR\244l\21\366\316\325\266{\32\36\14\227\207\373\304A\31\216\257?(38\1\331\264{\266b\361\232G\255\260m;\205\370\"\321\37@\5\274\21\243\351\326"
	.ascii "0\227\266\212\250{#U\225\220U\213tnOw\275\26.\253\261\227\342q@\225P\357\4O\10\245\37"
	.ascii "4@VC l\307\343M3e\35[\367f\243`\334\312\351\242\1q\326q\251\30d\233t\361\20'\37^TK\34\366\223;\225\354\0y\322\310\314\300\213\226I+R\240"
	.ascii "06\211t\251*S\234\323]\272\1\345\315\263\363\203\312ZU\24N\210BZ'A]\340:\372oM^\31\324)\327\22#q\247\37~=\355\253\206/Q\217\276\300"
	.ascii "5h\304$\321\363\303\367\272'\254\334\343\30FGD8\5\325"
	.ascii "0\307\205\300&\310e#Pq=\244\272A!\307\21?\205!\261s\5\231\332\315\216\323\330\0\242j\376\263"
	.ascii "1\177\2\302\200\37\5\4\346\237|\213\37\317\324A\302\307\340"
	.ascii "4\344\316qQ\242f\7}LZ\211\277\254\210\374g AFfw\237s\22s?\325\331l&O\246e\3"
	.ascii "2g\211\214D`\255k\311\230\253\320\25"
	.ascii "6\226B\350\7g\37\224\371\35\267G4\336\257\240"
	.ascii "8\246\17#\177"
	.ascii "5\264\257\236\227>\262\367Pd3J\200\320\6\245l\201\310yb\334\303n@\350\224\346\34\260\360\14d\5\331(pz@\325\305\207\202@\250m?\270\233VqP\331\237\262\223\201\205J\227\203\377?K\376<\225\273}\245\334\35\250q\231s\352z\316\336(\225\5\316\11\316\24\274\365\360x\213\247\364\203\30RE\265t\212A'\224\306\22D\323\335@$\304a\251\261f.2u\247\307\325\20\20\211\22=\346n\17`\344\221\350\376v\361\221\360\207\260\10aW\345$\327\331\347\262"
	.ascii "4\305\15\22\273\252\30<\221\210\337\201>S\203\207\216\206\374\242I\200\301y\10j\242Ut\"`\262"
	.ascii "9\20ij|\334\350\246)-\271"
	.ascii "4\375\264\222\246.\221\246\17\355\230\320\300\326\347)%J\35\3\335\"O\24})4\324\14BM\34\177"
	.ascii "8\3~\206`\214\247b\275\313#'\27\7\15\212\222|\273^\330\240]{\226\333\265\27rI\272\300\210,\326\376O\214\213\33`\\\"\14\231"
	.ascii "0.#\306\31\7\243\271q\251\322m\335\214da\2\320'`\24\212\325\357\276^\211.\310X\375\262\7p\303\300r\253{\330"
	.ascii "1\247\206\265}n\23e&\13\231\6W\4\244\352([:?P\347w\312{\225Ti\304dPT\267\302n\22\337<,a\6\376"
	.ascii "3c\374\11\1\356M4\320\354R\243\341\240\7\223k\240_V\32h\10!\334"
	.ascii "7\33\367\\jY\230"
	.ascii "6\245\227\305\374"
	.ascii "9\20\31\35W\304\374\251\271\31\222{\355\212\333\361\370f:=\274v\266\271\3h\204>\13A\242\33\216\336\207"
	.ascii "5\23!\374\350\243-\344\27\343 \352\14\333\325S\20F\305\254\270\366/\15\274)\212\200\344\206\353\242\207\261Y\323\205x\37\273\345\223ha\211It\23\312R\320\15\364\336\1u\202t\242#\237\272N\356\336N\246Q\325y\4\360"
	.ascii "3\345{\334\231O6?\262\35\337a\240\263\230\207'\213K\336.*,\330Y\374fq\311\273y\356\372\305\35\273v1\275\300"
	.ascii "5\315\202\274\302\367\337)\331\361\336\316B(R\12\362\12\212\336\372\33\364\200\357\332"
	.text
	.section	.gnu.lto__ZN3stk6thread2idEPNS0_10ssthread_tE@4.f43c6987,"dr0"
	.ascii "x\234\215QK+\204Q\30~\237s\316"
	.ascii "7&\267dg\262\260\240Y\261\362#\374\10%\241\224\215\214\275o\314,-$I.\21\31\227q]\220\333\202H\26.\361\271%Q\343\22I\14\232"
	.ascii "1\13\361\276\237Y(\33_\235\316\373\274\347<\317s\236\367\323\364\367+\347\345\200\250\230wX\4\325\276G\24\364*e\22\31dg\352\236-\";[\303\374\364\15 \5\201Z\224"
	.ascii "6h\301\203\212+,M\277\357f\335\253\224\242\"b\270\334\261\335\355\21\10#0\344$\346-\377\210m\267\276\304\16Vs\332;\7\371H\321\233\"D\340\303(|\"8\6?\337}>\332\355\322\272\20\302sN6b\246d\230yk\3!S\221R\32\343\320\277i\334\"L\240Dn\307\303\237\247Y\236\260m\333y\"\315\212Qx8\30\315\344\257\331__\327\27\353+\231\322`k\15!\31.\215%\230\350\206\227\344\272e\300\273>G\353\302\334\316\241%\32IeX\376\352f\377\300+\231"
	.ascii "4\211\333\374\307\300SN?z\221RV\222\5'%\4\367\207\36"
	.ascii "7c\271\245Q~\205\227\325"
	.ascii "1\205~\274\312c\10\323(\245c\204\317B\236\264(\374>\367\17\334\262$O\331\365\214\357\14\245=\255\377\232(\314\270&\22\25\263l\"\212\306Mq\211`\36%\345\344\16`^0\262\322\226q\357\16\237"
	.ascii "0\7\237js\26\25[\351>g\14<\3\10\213\317\12\2\315\365Mu\325\265\201\312@sCU\272.\253il$ou\32~\3\370\344\261\275"
	.text
	.section	.gnu.lto__ZN3stk6thread6activeEPNS0_10ssthread_tE@4.f43c6987,"dr0"
	.ascii "x\234\215\224\333KTQ\24\306\327Z\347~fL\11\12\222\250@L\212\246\"\242\336z\356\37\350-\310\250 \350%\324\267\220\216\227\310\2+*\"\354nt\263\322nv\261\251&\265\262\213\211:\343\15\313"
	.ascii "0'\272\20"
	.ascii "9\31\325Tbk\235sF\264`\360\300\354\275\327^{\177\277o\357\263\316(\360\377\263\213\177\313"
	.ascii "4\200\371\334c\0\220\366\275\4(1\211\354\357\6"
	.ascii "8\266R\365\30\300\11*d\207\347p\257F\227\360\244JZE\36G\226\264\266Fzt\246D\341\225\34\351d\270\263n.h\220\371$S\242\247\253"
	.ascii "82\321\366\324\255\324\300F\224\1 l'E\325t\303\264l\334\216\37(AX\367\353\355I5\357\214\343\224\16\227\306\316g\354"
	.ascii "9\230\237$\200\21\2\\\224\215\13\262e\327Y\314\343\205_\242\255\207\24e6\2\217\357\324~k\15\274\247$\341<\11\33\366\267\34\326%$U\302\316\256\246A5\367"
	.ascii "4KF\252\312\324\325IR\360\34*\"y\36\263\361\2f\3O\1\326`\256\254N\224\217v\7\364r\307q\262\4\313\274\213\250#w\"\374\271!BJ\256\313\354\333;\360\321\316"
	.ascii "9\345DJ\337\324\304w\232N\213S\376flln\222T\274"
	.ascii "4Y\335{\360"
	.ascii "2\346\324M\217"
	.ascii "8cc\327\243\215\365K\237\347f!sAC\1\353<\324\14\211Mi,i\2\334\350AnT\200!6\"W\26'\222^\351\303\322\233\211X\207"
	.ascii "6\331\257 \\\273L\253E\375\7\351\234\37\30jk7\345"
	.ascii "2\24\20\333\365?O|\316"
	.ascii "8\206G0I\306\17\322\260N\14\362|\365\247\346\301i\241\213,c\262\25\274\202\307\360+\271\276\257b\10bX\336S\246\373\242\230\347\235)\316\222\\(\236\231\256j\303K\33i G\277\35\350\315LAL\274\346B\370n%7Z\371\345"
	.ascii "4\246r\200\327"
	.ascii "1\364\225\334\353\277\341\361{S|c\342\241dA=\246\374\250\360a\241g\247{\320\267cN\335\316\315"
	.ascii "4vn\211\35Eh\267\377\261cN\340kP?\303\345\237jF/kM\35\177'\15\276A\360\252\340\357\246\360\15\344\23&\360u8\242+\375\270#\222\330\275\334\313\6X\353x\347\236Z*\376\355T\210\226"
	.ascii "5\"\10\14c1x\365\321\366\361r\322(\336\226$[\312Gv\1\336\303\342$\5<\316L_\10sR\24\3*\25"
	.ascii "9\345\376D\177\265\342e\203n\351\271U\342\257\17\262tldo\330\375\16\203e|\206\373\343"
	.ascii "6Mhs\253f\370\312\253\16K\226O\375\222\36\244\271\244\310x\311<\304\20\247\333\253\316\226e\272E\202\200\215.=N\26T\271%2<<\344\225\310\324\331Mi\330\315\343\354G\30\362\337H\234l\377cm\354\321\4%\227\304[\243\317\376"
	.ascii "4k+n8\25(\337"
	.ascii "6>\306\25\360\32K\262\370}\260\366;D\331N/b\371\322+Ck\304\272\31\356>\351\316[\227z\363\371\337\0E\230q\263\12\213"
	.ascii "6\27lZ\277\261pma\321\226u\376x\361\206\255[\301\\\357\207X\360\27q\322\335@"
	.text
	.section	.gnu.lto__ZN3stk6thread8joinableEPNS0_10ssthread_tE@4.f43c6987,"dr0"
	.ascii "x\234\225R]KTQ\24=\353\334s\357\334q4$zi(\12d\224 \303\237\320c/\375\203 \245\202\240\27Q_\305"
	.ascii "3\316\200\205\"a\"AZfd\226\345\267\246c\304`>\314\203\32"
	.ascii "5iY\303$\243\366AH\332\30"
	.ascii "6EM{\337;\17"
	.ascii "9\365\322\205{\316\331_k\355\275\316"
	.ascii "1\304\337\337I\372g\15!Ji\207G@^^\20\"hK\251\22>\241\13\214\261\31!t\241\1\345\372\225"
	.ascii "4c\25\344\267b\7\311m\302r\335\26\300\7\1\321 \15eZh\300G\271%1\370}\265[\225\335\326\272q3\265<T\324\332^\231\221B\244\245\300Q?\216\370\271\242\27e\224\370\371\305|\207a\34\200\240\363\324\300\366\274\357\203\314H\34f3\322\26\273j\261)\25\233\361\245')\25\270E\220\321\316\220:\221\221\6\356\300`\310>\370q\27~A.\201{\10p\366V\370\347K\237\25\326Z\27"
	.ascii "3-\361\365\303\2m\14\274\21\211J#\340p\6\37mn\27\225\334$\324\225\310\343\343\321p\267\376\225\315\"#\25\356\357\6w?<@\311\340\336\250\316fG\337\247\306+\222\201= Z\241\300\274\26\37=\264\230"
	.ascii "6-\312\313K\201S\342\343H!\333B\254Q7\254\331\272\224\274\33Kh,\346N\26g/\315\344:YXo\263uL\207W\262\331C\377\230"
	.ascii "3\327\312\0Jv\10\360"
	.ascii "5\32'\206\347\236\233\273\206\216\16"
	.ascii "7\357\343\4g\354\264D\276$\30\204E\20C\260v\244\207bo\327\236>\263Ykz\21d\216\177\273\261Q\324\205kA\255\355\214\244\34\205a&\246P\317\247\331\324\236\362~\355DL\214\240\13_h\"\7\20\243(\27\213\10\277\12\255\266#\7\216"
	.ascii "2\267\341u\202\246"
	.ascii "7ep\273[s=\246\33\266\377\203La\314!C\216l\234\310\30W92&\20\212~]\221\371*\224\347\24\220y\12\360\255\10L8*<\344N\12(~=\336: \353\177\350\213L\347I\223\362\234\200I\324\323\325\331\202n\212)8\237\313\251\206\304\17\215"
	.ascii "4%\257\30.\206\317\205\11\366N\267xXL\272mL\321(4s\262)\1"
	.ascii "7\251\220\362X\244\345\320j\7\270\271\35\351%/k\364\16^\316\227-\361II\332\30\235\361>\320\200\246\210U\320|\341\350hs\251[`\345"
	.ascii "7\353M;d\21\352\224\364\313Pg\254\214\345(\223D\260\230\274`|P\255)\376\274p~I\323\360\253\304\233Jz\232\340\12\362\355\257\255;_s\256\352l\355\251\332\272\13\247s\347cg\252\253\205]\225"
	.ascii "3Q\363\33E:a\250"
	.text
	.section	.gnu.lto__ZN3stk6thread4joinEPNS0_10ssthread_tE@4.f43c6987,"dr0"
	.ascii "x\234\215T\353KTQ\20?s\356s\37\272\322\207\242%,\20\21\254\255o}\353{\320\277\20\330RQ\340\27Q\277\212W\335 \210B6\11\251\254l\351i\255\231i\272Y]S\312\36\32\245nm\270%\242\220\204\370X\37-\251\333\314\271w}T\230\27\316kf\316\374~3s\346J\354\357\257\20GXf,\37Wp0\340\325}\214U\350\234\353\363\32"
	.ascii "3\234\322\305\227\214\31n\211\313\3\373p\325;\262Q(s%\222M\247(\312\234\12W_\355\307U{\275\15e*h\226\7\15tk\243\3\320\206\1+\347\222\254\250\232\16\345"
	.ascii "0\316\247"
	.ascii "9T\233\15\265\256\274\33\206aL\5\343\327"
	.ascii "2\214\232#I\316X\202[\314\340&\344\241\321\344@\357\5I\332\1\14\367\355\341\331^\327w\236\344\260\213\216\221`O\255JG.\323\261?\332"
	.ascii "5\"\347\206\14\243\322\254\255\222\17&\271\4\267@Bwp\33\274p\7\274\14E\14\356B.YO\7\226>\271\324\0\202gY\220\320\0*\340\332\270\305"
	.ascii "4R\251\320`\347\222\13"
	.ascii "2e {\5o\312*N\212F\223\3'\325I27M\214\215\342}\212q\214sZ\245/P\331:=\367Q!\227\13\\A\264o\243\357?\350DUb\4\336\362\363\352DF\35\\\202$\327\26\270\14\367\220\34\311\257\377\350\36\311\364"
	.ascii "5 )\35\35\303}\250\203\31\221\16\10\203\217\15B\340s\225j;\205<\257H\323\30\272\304\"Y\230\363#\232\245V7\0\271<{>\346I\203\350\320(@(r\324-\235\235\14AZ\247\300\3\360\315p\221\234&\13?\226\306W\327\6\245\240\301CH\363\221\331x\276\240S\337\15\226\261\266y6\315\33\260yDl$b\323\222f\23\341"
	.ascii "6\302\32|\205\305\262\244!8e\306\337\36 -y\272\322\177.\314\313~\31\247\311\223#A\0\320\12e\314\252\316rU\177+P \316\24~\36\6\217\301\233\344.FA4-\6\355\234:6\33\205\33\332D\24"
	.ascii "2QmOS\335\272\352e%qn4\210\254\20W\331\200\313J\334;;q\316\315Bf\300\23\1\251X\211[\356\354\13y|\273\351\15uP\322Tb\362\24\231\14A\300h\26%\304\320\35"
	.ascii "8\234I\236)\300"
	.ascii "5\312\232xD\213"
	.ascii "3\16\13\335\375\337\227*\20\236\255\276\322\347\10\21\5Q\23\264y\323\266"
	.ascii "0\341\224rE\353\326LE\343JN=6\347\360\370XP7z\214\300p*\265\223\356\233\353\233\324\356\376N\310A\6D\330L\314\301\272\206"
	.ascii "5\23g\366\220^\264l\2\337\347\37\355\14/0<\6]\377(\275'\201\177\5RC\267\250\276;\311\263D\370\272h\334\257Pa\306\16\211\364"
	.ascii "0jk )\206\266\275\244\364d\361q\377\261\222\303%\245\205\5\366~\357\321\242\"\246\373\355\243\342/\360\27\237\370\15 \363\266\35"
	.text
	.section	.gnu.lto__ZN3stk6thread6detachEPNS0_10ssthread_tE@4.f43c6987,"dr0"
	.ascii "x\234}\220KK[Q\20\307\347?\347\344&4U\213;C\27.\224\254\342\312\17\321U?\201\240\242\202\340F\32\367\36M\266\202X\21I\25\241\301W\343\263P\301\256RZ\324E\243\210o\27-H\204\26\21\215\212"
	.ascii "6\13\261"
	.ascii "37q%x\341r\346\371\377\315\214\241\247_\243\374"
	.ascii "9\20\325\311\213\0\201\7"
	.ascii "7\211\372B\314\366"
	.ascii "6H\356\205I\255\21\271\227\6\266\24\267\200\32\4\352ec\321\213\277\\`\14f3\243\341\350\244s\356r\250"
	.ascii "0S\341\206[\212Lt\315%\4\246\20\225\242\213\335\334\210"
	.ascii "1\257Ab\257.\334\344\302\177\270\310\250U\367\353\320\306\250\247.[uw\366\277\237\330\372\264s\375\331T\302\276)\262\301"
	.ascii "4\214\310a\6\21\314\"B\22\"|B\275V\27\222\367\7a/)\360W%$2\360d#Z\254\316\272\207\207\364\376\267\325Jx\6Zo\245\323\22\345\245L\327"
	.ascii "8e\326\327\34\243\177ey}'\240\235wlE\364w~k;\244\23\31R\306\227\177\23\347\25\343\370\200\"\7\356d\234"
	.ascii "9\231A\343\37\317~\234T\306"
	.ascii "2\302\16\211"
	.ascii "0\346"
	.ascii "1\216+\177k, F{H\36&\274\262(\242\21\377\32\247\")GU\346\345\322\317\353\240\246\237!\214\335\274?\252z$xX\364\11\272\235\344\356\7.\322x\314\5\261\204\330\25\373\7XFL\322\333\251\251D\225\356\20\4\341\263\352\11\334\372\13\377B_v\342\255\242u\244\274\10JTZk\342=\235\357:Z\333\343M\361\236\256\346\262\335\320\326\335M\241\326\262\373\37\355\326\260\271"
	.text
	.section	.gnu.lto__ZN3stk6thread6atexitEPNS0_10ssthread_tEPFmPvES3_@12.f43c6987,"dr0"
	.ascii "x\234\225T]L\34U\24>\347\316\356\374\354\314\260\245\224j\211\221\232\206\360\4\321\306\7\23c\342\213\211\17\332"
	.ascii "7\337\232 \241\253%\255\224\2M\372B:t\211\305\204\324\246*\222V\320J\371Q\20\12\330\37\250?Ki\201V~D(\246-im\205*\211D`K\312\306V<\347\316\260\2U\203\263\331;\367\234\373\335s\316\367\335"
	.ascii "3W\201G\237"
	.ascii "6\372\327\253\0\325\364\306\4@qd\20\240D\27\350s'\212;\351\322}B)\357\5p\2\376R\15\34\313\217\232\13P\335I\227\256\11\275,\235\326\15\36-]\4>y\216\255\231d\262\14\14\270\350\200P\335(\246\214b\12\373x\17\233\326<\233\26\332.\314F\344\11 \34\20\212\317\257j\272\21"
	.ascii "0-\33\17(>\267l\315}M\211Y\201G\"\215\225fz\255\343"
	.ascii "83s\321\223\33\234\367_\217\11\200\250p!X\207\351\4\372}t\240BQ\236@\240yG\363\275\1\363W\21\23\270\231\315\316\243}\225*\233\302\307\346\310X\367\35_Z\215\343\34\214\34\13\373^\216\11\5\353Q\241p\330\200)\370\31\246\0\271\0?\307"
	.ascii "4\2\267\314M\205m%M\206\355k\253y\327p7\16\312\215>l\\\275\321\7\330$7~\330\273p\331T2\345\306O\247/\325x\31\247\345F?~\261z\243\37\260\31\323\30=[\372\360GS-%\272\353\\\222\330\202*\2\260\24\207~9\333a*\317\313\250m5\265g\14\311\362E6O~P\321\344\227,u6o_l\273jm9AQ~j\250\357\321\235\262p\304y\260\270\250\304\204\212\247\334\344\255\224\274\215\222{:\266\343\226\207\2Z\326G\234\305\305\350P\373\360\323\235\351\33\221*\323T\32t\203\6# Q\26\333"
	.ascii "6\17Ad\266\211\310b%\241$\0\23T2\235\375\204\20\364R&IJj\10e\34K##\207\237]I\317K)\11\322\370%\215\4\250\36"
	.ascii "9\334,\212\377p\312\34=&\2QA\324\361"
	.ascii "4\26\363\322\255\211\241a\235"
	.ascii "9\232\344;\203)1aQ\345\223\244:u\223r\35/\34=\221\314a\356\13uu \233\23\255\210aK\363\216S\27\323\252\360x\211SB\250\4<\213\305x\216E\301\16\254B\270\212\245\327\302\352\337"
	.ascii "1K\352\316\227k\274['D\247'\336$\235\36q\35\307\260"
	.ascii "3\354a\215\325\371\203Q\301L\317\23\221\230X\7\327\361\340\315C\375).8@x\30C\301\26kB\36\220d~Cv\375+\225\325\265\177\25\257\375k\252\235\243\334@'|K\223\312\322\363\222\254U]:\20\247"
	.ascii "5\341\277"
	.ascii "4\377\206J].\262\26\27\371v\277p\13\267\326\\\332\267\361\322\"qY\357\6\275(\313\204\324\241,\335\315"
	.ascii "1\356\345\260\327\234\243+\236\343\302#9lV\203\237\11\222\332\331J}\31\220t\30\244\270\20\\\336\34t\377`\267[\325]\344\225\341cu\341\240\\A\300\213\230\242\313u\203k6\371\360e\266\226\252~/Xpy0\272\323\360R\234\242\5"
	.ascii "7X\376\267\235E\365\37\345O\214\322"
	.ascii "7\3\330\343\266|\331h\357\202\226\372j\225S\271"
	.ascii "9&\326\263\347\235\246\352Z\225\300\225\14N\302^L\225a\260\17\213\371\273o8\367\300L\335\355\342"
	.ascii "70\276\275|\252\302\267\204O\306\313K\370+\22_5>\177J\336\"\33G\210\330w|\334\217\311"
	.ascii "2mfEmZ\321:\326\255ym\30g\244\310\3"
	.ascii "8\275\360\361\264M\7\200"
	.ascii "1\361\370}\221\210\375\314\221\374\37\335{\357Z0\243\221>q\235/\311\1:\215"
	.ascii "9y[\343 f\220"
	.ascii "6\334\375\25\263c\335\206\27vMq6\341\220\214\203\356\341\377\331"
	.ascii "5X\23_\363\343\367\230"
	.ascii "1'\344e9\314)\222\370\373\231\231\31\377Y\371_\37\320\17\361\16\32\241\\\313\11\363\375"
	.ascii "4J+7\261$2\277\315\275\260\270\231\220T\242`\233\12\213v\26\204\262w\24n/,\332\225\345\315"
	.ascii "3s\362\363A\317\366L\232\354\311\13\355\317-\262\226&Y\331\5o\32YY\373\362r\367\356\13=\243\275\365F(/'\4OfC\26\354\201<\10\301~\310\205\"x\12^\200m\360\32\274B?\200\255\205\344\332\11\5\264\234\15;\240\20\266\3{v\321\246\225\376L\310\201|\372\1\374\5\321\224\211"
	.ascii "0"
	.text
	.section	.gnu.lto_.symbol_nodes.f43c6987,"dr0"
	.ascii "x\234U\215I/CQ\30\206\277{\316}\271\325VK\265\325\232~\352k(\26\222\262\260\221\324T\327<\17%\212\330\310\225X\260\221\256\21\261\22"
	.ascii "66\22\301\255"
	.ascii "6q\316\331\274\337\363\234o\320\"RU\322xj\16\24\231\272\25!\245\270\340\211\232\7\35K,\200\312\22\213\240\376\27\256\250"
	.ascii "2\350Z\35K ,\341\203-\226X\6[-\261\2z\226X\5#\226X\3\333,\261\16F-\261\1\306,\261\11\306-\261\5\266[b\33L\230\2UHYQc\26\316\222\242\240\4UOg\7L6\32ep\320\23g\27\354"
	.ascii "0y\17\354"
	.ascii "4y\37L\231|\0v\231|\10\246M>\2"
	.ascii "3&\237\200Y\223\217\301n\223+`\316\344s0o\362)\330c\362\31\330k\260V)\361\37\276\207\34\255\273\232\205\233n\26\310"
	.ascii "4\213\226\254\370c\257\363I\335\332-\376\347\266\247\275\\##\275R\10j#\216\216\364\210?~\31\212\274\24&Ja\206\243\223%\317\215\310}q:\274\22\15\377\203\273pU,%W\217\365\235\261\250<\5o3I\35\317\313se\326\323\361\214\\]\207\273\334\270|\4\265aGt\242_\374\257\367\315\244N\14H\341o\250n\202\237\213Q\245\23}\342\337\274\14"
	.ascii "9\362\13\323Z\307\321"
	.text
	.section	.gnu.lto_.refs.f43c6987,"dr0"
	.ascii "x\234cf``\20b\200\0V~\6\1&F\1v\6\1.\6\1\36F\1\21\6\0\7\243\0\257"
	.text
	.section	.gnu.lto_.decls.f43c6987,"dr0"
	.ascii "x\234\255:iXTW\226u\337-\250\242( Q\263\264\223t\374\350\36\323\235\316jL\332\364\364L\223"
	.ascii "6$\232\266\325Q3\371:3\337\320\10\325\221\216\202\15eL\276\371\321\217E6\25\27d\21Y\212 \250\200\12\242\10*\262\251l\12n\270\3\205\200\200\13\240\242\202\12\314\271\367\276\367\352\275\342\225\246\223\256\217C\275{\357\331\317\271\347.\365\260F\243\31r\326h\306\340\363\315{\32\315\6\203F\363,\364\315\3p\5\250\1h\4(\0\270\2\320\2\320\1\320\11"
	.ascii "0\13\240\27\240\17\340\241\206}^\6\320!\215\346"
	.ascii "9\200\227\0<\1^\5x\15`\17@\11\300A\200*\200\32\200:\200\343\0\247\1\232\1Z\0:\1n\1\334\5\30\1x\201\323h~\12\340\11\360\32\300"
	.ascii "4\200\337\0\314\4\370\3\300\2\0\14r?\207\357\377\6\370_N\243\370\20}\264\360\355\16`\4\30!\235\210\215!a\334\376\363\234\35\215\21\332\356"
	.ascii "2\232\347Th\210\275\316"
	.ascii "2\32\235\340\33\37\320\247M\300\347\4\274N\25zO\201~\236\35\217?\3Q\267\214\336S\360\217\375\207\370Y\224\371\251\35\17_ \354\227\361xU\360\257\375\347"
	.ascii "5\25\33\346\2,\6\242a\31\375kBl\354?$\306\23\4\35D\36y\210\345\7\341\343\7\304;\240\235\14\220\0\220\4\360GAo\177N\231o\23\241\355\6\337[`|\15@&\200\5 \22 \33 \7 \12\340\17\0\363\0\274\1r\1\262\20\323q\217\220;\366\37\222\203\6\25\35\347\12\366\356\20t2\1\355d\216\345A\226L\226\267\300\237\360\371\251\12\377\203\16\370\213\276\374\276\374\11\37O\25\376d\356\274\360\4\376$\366\303"
	.ascii "29\177\1\36\357\3|\311"
	.ascii "1\377\277\311"
	.ascii "1\377.\201\357\251\34\213\15\211\303]Y\234\365v:\211\376\225\373\336Y\320\345"
	.ascii "7\302\234$s\323Q^\324\250\344\225\350\363\35\202\275YB\374\220\200o\377!\265\302\355)v\213"
	.ascii "6\333\333\352$\263\307[\260\347\17\202\\\302w\232\212\237I]r}J\34\305\271\35\0\337\373\354\354p\22x\324 \333\234\257S\261\213\324>\261\346\332\347c\237],\227\10\366"
	.ascii "8\212\233Nf\247h\243<fZA\336\223b\325,\304_M\37Q\17\242\27\266\313\21$\320\332\177HM\237\254\302O\254\11F\201\337$\0O\200\277rl]\371\30\276\277\2X\10\260\24\340\217\0\313"
	.ascii "8\365u\350C\241\256\20\177\20\275\354m&:\210k\5Y7\210\232\237\333\305\374"
	.ascii "6\207\12\312\363b\\z8\344n\370"
	.ascii "3i>X5\20c\200\246\321`$\315\356\274{\311\256\230C\344\271\243bC\207\353\353\271<\317G\363\25C\234\215E\351\256\301\23\256\224\305\24\322<\260\261"
	.ascii "6\331\231\262\320\222\346\315\263wo\273\342)\224Eh\316\301"
	.ascii "5:\30\322\31(a\333\226\341\255.\264I\26c\17\350\342.F\335\353wES\15[A\314@\343P\315K<\257E\5\310\200\362\21F;\320\353 \221R\223O4\317\207\221?\227Zw\15\312E\223Q\36\232\254A\273\321T\212\201vB\317.\350\1A\321\253o7\270\341\245T\207\243E1\221n\330L\236\271\301\250]\315\316h\252\221H\263&g\33x\204\366\"#\332c\223"
	.ascii "5\327\310d\305\332d\241y\317\333\244\25\201"
	.ascii "4\206\3\254"
	.ascii "7\357\356\272\314\341\377\243b\"\353\267]2\340\365\210"
	.ascii "6v\265T\257\4;?5\200\34~\210\30\213\376\16\335ug\232N:\321~\322\245#\32\245l\356"
	.ascii "9c\20\354\267\266f\351@\243\3`}\261M\243Om\326\363\343\255/\5}\10\6\332\17=%\314\372\330[M\225\36"
	.ascii "8\231\251\262'+\273\230\305\333\13\232\372\207)\327\267b\264\31i&N\234\352\351\351"
	.ascii "95\11\241r4Q\203~A\322w\3\221\260\236\347\275\314\32\224\3\374\266\21\11\25 \1P\210:\350\10<W\"OT\5P\15\0cD\305"
	.ascii "2\302P\225\370\310\367$\246\341o\312\256y\225\337\240E\207\201`;8\200(\6\10\354\13>\26"
	.ascii "0\337\232^\\\241\255"
	.ascii "8\202i\216\24"
	.ascii "2$\233"
	.ascii "7\210\25\350\265\311\"nF\11\303%1\336\247\212\13-\206\314[\267\37`\310\304\375\7U\221\17Q\344\255\274\205\267\246\235\345\275*\250\353\250\246,T\266\31R\23q\352\241\33\356c\21\270\307\347\265\32\214\362\204\222\263\326\240cH\310'\356\370`\327U\230GS\35\341\242Zp\241\200N\23f\307Y\244G5`\335Q[\276\10\343\360\4\3 ~hdC\272\26G\260"
	.ascii "9}~\327\245v\27\274\232"
	.ascii "6\270\273\353\253\362\215\342\334\333\331{\231\316\275\343`~\375\367\235{\15\343\347\36w\245\240=\306\325\306"
	.ascii "5\367O\21\274\27j\4\256u6\256 \344IlO\330\263%\364\240}\303\325\241\273F\232\313\317\20cR\316w\15bZx8\322<\267~m\227\7\276Hm\323V?\210\357G\310"
	.ascii "0u\362d*b \224w\332\16\"\232\200\341I\302\360\14\210"
	.ascii "8M\264@g\241\253\31\272\250\276u\256\21\210\364\243S\10\313\352f2\257\247\330\311P\12a:\353h\203L\372\226\206=z\203 !\372i\22\200\340\304f\353^wj\301\0\215\307\272\370\221\"\216\232\360S\322,\314\274\374\200Y\344N-\212\337\322\354l\220M|\30\220%\316%\312\375\27\223\321E\306\274\355Bo\265\307\204\365\302<\234\22L\15"
	.ascii "9\17\350\27(\372e4A$\242\242\217\34\357r\222c\237s\210\215\256\240\11d\255\330\264\343\210\263\"\221\241_\246O\13\313<\362\15\330w\267\334-\363\240\246\256\307D\336\266\375\235\347\20\265m\32\255\235\17\216\37\363\240\315\27i\263\246u\233\253cS\333ES\255\314\324\322\343\305u\330\336\324V@o\243\350W\251\362\355\242\251\345\345W\37\215"
	.ascii "3U\35\33uPS\313\22z\233]\24\246v(L\355\24L\355\244\246nMH\314w\242\266\350\211\270M\3%\27\\\360-N\261\4z\262%p8*&\302@\233c\342\207\316\305\222\333\245\207I\276\322\\Z\37\306?\33Z\370\22\255"
	.ascii "8\250\213$\323uH&\302\1uCO\217\230\255}\15\211o\220"
	.ascii "9\333\13\346\\\263\315.Oar\221~\20\231S\321\323\300\341RL\347Ex\372(\217\321\324\311.\223m\371\336\207\\\320\215q\371\16\275\232(\242\215"
	.ascii "5t\375"
	.ascii "3\177\323\240\327'\243_\202&7A\23"
	.ascii "2\244A\267@\225~P\205L\12\206N\376\201\300\306\265k\212"
	.ascii "1>L\5\"\313@\341\200Q\313i\320\0\225\0=UM%\211H\313\321\305\26}A\367\14\226\313\217Gu/$\220\0YC\371g\20\314~&\17\335FZ\15\272\213\340"
	.ascii "0\200\356 -c0\26\276k-\207\353\31\377\35\326\341\271\270\5\207\362t/\262!\263"
	.ascii "5\305\25w\212\315\212\375\367v\353~\271\15*\366\300\205u\307<\210\257`1\277oW\261\1\261\250\266\245J\313\20"
	.ascii "7\27\336\234OJ\26 \336\3\304\7\350\227rD\313Q\313g\266\274\230ET\223\245\305\260T\312\267\225l\215"
	.ascii "6\310K\271\22\25=\2"
	.ascii "7\16\333*9H-0\366\361\340\307\207P\315\7A\356\20\225+\342\300\323C\232j\7\273\303.\352p\246\226&\315\275{\7r\365,iT\266\6\243\366[\3\226"
	.ascii "37\316\270\23?\214@\316<\36\277\313P\215XC\375\303\24"
	.ascii "7\305l \324"
	.ascii "6\263yN\334\21\35\312;\275AOcK0XpS\242V\345{H}\241\34"
	.ascii "\355<\331\232t\34\323N Fa\254\263\256oU\231\273<\15\10\1\313\203"
	.ascii "1\222\7\21\34\311\203pN\310\203\275\373\23W;\343\35Z!\330\261\347{\"\364x\17u\15\332\310oj\323NI\347-\5\3\271E=\313;C\371"
	.ascii "5\274ul\354\25\312\4\255\342D\7kP$\307"
	.ascii "2\37EqSH\205>\177e\247\16\337d\\n\35m\34\"\263u\22\335\310\321\17\335\310e\247_>\347F\373\305I\374w\22\217GY]'\335\304\245\257/\357\334\317\211\243\327p\6\24\315I\216\236$\337\316\215\237\350\253\271\251\24\5\305p\223Q,7Y= {k\333\233\335\25\1!Rl\1\211\223\2Rii-w\246~&\30, =\217\256\246!\251o\35\363\375\341\264k\245,J@\214\326\263\316\253\353\316"
	.ascii "79\311\3B\10X@\326\2\6\332H\3\262A\14\310\365\336\324\30\17<(\6\244\260\241~\203\7\36a\256|\274\252w\247\253\30\220\255\177\223\5\4\230\240xY@6\211\1I\240\1\31o}_\355\272h\203j\265H$J%Q\245\276\20t\32\36J\255\306"
	.ascii "8\315I\320\251\271ig?\302\26\261Y\301?\\ N\373\275\223\232\310\4\204y\277\231\33"
	.ascii "7\357O\266\37\353\326\341|'jKn\372@\257\23\330b\265\200-V\337.\321\226)D6J\6\352\24\216\331\262E\264%\325\201-\266b\250"
	.ascii "38*\206\240\21"
	.ascii "3/\215\230\227A\315K\27}\276"
	.ascii "1b\365\33\270V\264':\205Os\301'\230\232Q\267\22*u\304\345\231\326\372\304\17*B\371\307cc\230"
	.ascii "2@\26\231\216\231\242\216\337"
	.ascii "9\320\361^A\346"
	.ascii "5\205Bd\301`\32e\21\215\266*\34\276\273f\254_\213o\210\32%e\27\205\272\340\1\246QAO\314ug\242\221\305r9\225\367b\32\21z\224-S(GTh\33U(\361AE\275"
	.ascii "3\216s\26\30\26"
	.ascii "4o\337\344\204S\235)\303\226\312\334.g\32\11\353\255\22\301\304p=]1\320vYN\355\20Y\346:\260"
	.ascii "1\242\364\326v\266\265\254\240A(-\\?\354N\227\364Y\244YR\270\246\230\303\345Lh\365@[\266\1\327\263\306p|L\202"
	.ascii "3%\344\351"
	.ascii "6\247\355A[\225\216\22\276M\275\321\232_\250\303\247\30\356\305SYk]p\273hI\374\315\261j\204{\330\30L\324"
	.ascii "5\6|\213"
	.ascii "5V\235\274\336\205\360}\326\20wJ\356l\247\224\35u\377\30\207Cut\254\347\\s2\306\353XC\334\36\33\331\366\330\262\257\222\367\300\233\331XNJ\24\204!\233"
	.ascii "5\304\3\274\221\35\340\313\17\17\35"
	.ascii "3\340]:\305~e\226\362\310>\313vd_w\354X\212tl\350[\235\370\34\251rUP\30\16\333\252\334\254'\356\357+\241\310\21\14T\16E\256\202\25\271\272\242\232J\35\336O\225p\317\272X\326\7{$O8\31\222C\252';\254\222"
	.ascii "3\35\314\323\36\267tK\30"
	.ascii "9\251\21\231\325 \363\4';\"\225q\266\243\32=\4\226TG~\302'\317\240I[$`\13{\31\333q\21\216\301\320/\34\203)YiV\323,>:\\G7W\245\2\235T\246\17p\312\223fIu\254$d\257\212\220\327m|\303\317\331\370\36T\347+;h\356\16w\216x\221\342\354\261\245"
	.ascii "3\373"
	.ascii "0\301\341q\222\340}*\202\233\220\342`\237\14a(\0\247\27r\344P\5a \370\300\25\325\303\363Q\316\23\325\2"
	.ascii "4\0"
	.ascii "4\1\234\2\250\1\250\3"
	.ascii "8\11p\4\0hH|\217q\362\23\277\202k\375\217\344J\322\312\262;\334\242E\350\270`6\11\15\14\263/\233\313"
	.ascii "7J\226\27\253X\276\237\223\305\362\262\315\347\207\354}^\246\214eE\372wa^\300\227\340\226\330\343\312\356\1\350\316&\"\306\35W\262\211Ss4%_\207\217\351\34\354zk\363\322\376\214\33\350\250\266\377\324\343R74y\262a*=P\276\202.p\354lY\321\3;\11aG\1\223\232t\323}\202u\3\217_\224\266\340\27\301\253dH\203\316\203\323\317q\362\263+\364\243fN\276\227\7\331#gw_sRl\27.(\266\13\227\244\355\302\300\305G\245l\377\6}\302z\224\260\375f!R]n\317\222\352\177\205V\377\313\342zTw\340Q\264\36\237\24\312\323\331\301JN\276]\6d\231\334VQ.w9\251rL\274\230#K1\333\13[A\207\26)\355Et\331\345\234\222!j\3\307H<\221\365\342\375\233\34\356q\24\220-I\273\372\235\14\202{\243\237\350^\300nZ\237\373H\257<\20*\\\330)\211\355\276\323^\355B]\330)\271\360fm\370v\27U\27^%.\274F]\330%\272\260\262\364N\224+\356g\212\17\334?\30\253\225\273\360\232\302\205=\222\13\7O\354\373\255\362\300!\307D\327\301*\1\231\316\260"
	.ascii "8\214P/(\330m\363o\217\350_r\365"
	.ascii "0\332z\333\200\327\352\331\15\326\241\370"
	.ascii "0\27\234\300\32\227"
	.ascii "2\223\367\271\340L\326\30\332\22\13g\313|\326\250.\330\237\200\360~\326H8\224\272\221\335;\362\264}?\177\327Op\5\33\33-L8\251\307\347Y#\274$&O\351Y8\26\332\14\274+96i\370B\3\302W\30UlV\337\35"
	.ascii "7\334\316\32\253\356\357kF\370&m\270\24\246\16\334\321\261\33N\262vL\365\204\332>\304\251]q\16@xI\301E#\340\233!\241d\221\347"
	.ascii "1(I\17\1\36\3<\2\30e\345\351\1gw\315)1\30\375\7\30\320\212\224\22\36"
	.ascii "5\213\257\235A\254C\203$\2\234\303\233\311"
	.ascii "0kjG$E\6\277\334W\305\315\221p-[\302\177\316"
	.ascii "0\357\251b\312V\226d\272\262\20\224\333\366+\13I\220\212r\376;\330H\15\213\343\254\4\17\311J0o\335\234\305\24\373\324\200\356\250\212{M(\224wko\246+c,\307\205"
	.ascii "3 \26\203\334\262\243\276\323\11\17\260\270\246\327D\\u\302\217\364\212\213l#\275\310F\11\203\353\367y\340"
	.ascii "0\27:\306gl\330\240\307\353h\343_\357\360w\216\353\21\11=\275\341&\233\10\351o\352$\372\21\306\330\7\362\204\272\371Jx\34\265\206\234\300\303"
	.ascii "0le\260\314\234p,_$xkmx\223\27]R\310\362p\232c\330\322\32\250\360"
	.ascii "5`\267tDzAqN\304\223\340x\202\311\257@\302\227"
	.ascii "8\33\33\351z\267\231\214'\260\361\4\305x\35\35O!\343\311l<Y\34\247\272"
	.ascii "7e\255\246\272\223\222\3E\217P;\274\25\257\17\337(\331y\6p\223\237\200{\261#JL\275>\307li>\225\321|\"n\330\245\272Si\265\261\212\0\357&\251\263\202\311J,g\223\25\32\300\317\326H\226\217$I\15\352\342\262\216X\342\342\355\202|BG\366\375X\310\327\215\302\25\11\231\266\222\330t<\225\232D\224&\317\253\261'\332\6\260\26\300\2\260\25 \6\323\251\273\36C\366\250"
	.ascii "2\211\6\302$\201I*<\257\3\242\34\200hF\30\357\220"
	.ascii "0\365\207\22\246\1r\262@H\236\327\0\321w\0\31\0\261\214x\243C\342\230\177\206\315\261\337S\3:U\352\262*\351\17+4z\212IUh\277\333m\351 9\224$ \312\13\222\205\314\1^\373\242\304\305n\260\221\16&\214\33\244\251w\274#\221\246\36Y\357n<-\343\303\327\211i\332\377\304\211\304[\33\5\303\22\34\30f+\313\326\206\254x\312\225\354h\332\237\242A\271\255\334\357\346\354\312\220\375\322p)\234Y\6\5\24\205\342'\253\333\""
	.ascii "\250\233"
	.ascii "4N]V\334dl[\253%'\254r<W)\352\5aZ\223\375\342-\307\16S\234\25\362\241N\356$ur\23\344\16\321\204\254\233q\360\234\13\371\223\5\20\5\260\5 \23 \22 \33\200\340\222\\#I\233\312rl\3\266?\205H\234\343\376\11\234\251}\207;b\251}\260cKV\215\206\270"
	.ascii "\306\245\355\214[\305)\326"
	.ascii "89\256\6\345Ik\234\312\5\370\231\203\245\35\354:\224T\345|L;k\"ZS\330f\34h\321N\326\31S\\Y\206\324/c\362\310^r7&{\311]X\330K\36\357<v\300\11\247\270\10W\16W\232SG\335p&[5\37\37\36\14w\23\257\261\266\32\33Ryv\201\202\20\341\202\12\260\355\376\244\20\13\367'{\260\372\375\311\331\242\366\243FIWfT\326\205\255Q\316\352\252\26\201~h\37Uu\257\250\352X\334\350F#>'\252\332Z_T\206\360%\246\352\271\223W.\272\261\213\243\374j\234\314W\214\215\375\216\320\243b\231\222\373E%K\250\222q9\243\236"
	.ascii "8\314 \260\333Yz\370e\34k\240\334\22\37\236>\216\31\267:\5\267R\31\267\3\"\267\203\16LV\271\272;\231W\226\240\225\274P\306\"\266'<2\313C\335\15\207\210\33\312\251\33\16\213n\210\256\355\210\340p\261\250wn\357\272~\35\256`\212_\216\255\311\26\334\320*)\16\364\250B\246x\245\250x\325?\20\253\201uy=z\325\23J5\321\361(\325\361\210\250c]\177\332.\17\334\317\224:0\234"
	.ascii "1\207dQ\201"
	.ascii "5nU\222\216\247Z\225\363HO\210\350\234\21\25;&*VC\25\213\351-\272d\304\211\256,\27\17\35(pg\27y\333\273"
	.ascii "6\12\\~Gs\204\336\332\210<jE\36u\224G\336\266\323c.\270\322Up\326\31~\350\216\23\256g,\307*j\316\33\231\263\32\217\312\243\\/sV\203\310\357\370\217q\226tC{\202"
	.ascii "8\253\211:\253Qt\326\251\243Gn`\374@\322\361\352\341\33\6\374\230\351x\346p\356C\35\323\261W\322\21\350\321I\231\216\247D\35OS\35\353+\356\265"
	.ascii "8\343l\243\300o,\255n\265+\316"
	.ascii "7R~[\23CCi\202\24Xbj\344\374\316\310\370\235\25\371"
	.ascii "5?5\263\35\24\250\363j\5\352\2\353\34\355\357\276\213T\235s\216"
	.ascii "8\347\22u\316E\321"
	.ascii "9\233\272r\227\343\363L\371\261#\341\247\264\270\225"
	.ascii "5Z\366n\36F\314"
	.ascii "3\31\222%@\214.\313,\271\"Z\322\342\300\222\204}\345\307\215re\12\244_\224Z\211"
	.ascii "6mX~umI\250Kr\306\361nT\201\223[\372\235p\16{\356\11=\222\355D\30\267c\201\361\203\376\212PW\\\300\206;F\372\322i\362\362\3k\37\34z>\246:\334\222\34}\4\12\351+D\0\262b\341^\24]%2;D\245;\35(\235c\335\237\317\334_ \375\210\366(\254"
	.ascii "8\325E\325\253]\204g7\265\343\232\350\325\232\236"
	.ascii "5\327\334p\274;\273un\357=\253\303\351\356\16,I\317\257\355\325\221\236^\350A\327Y\20"
	.ascii "7\25wo\302x\33\243\261tW\361$I\255\241`\336M\267\3"
	.ascii "2\363@.\352\221\314\273AT\271)\232w\313\201y\5g\17<V$\310\1)&}\204A\277\"&\371\267\273\306\334\360^G\332\207\336H\334\341\216\253\331\360\372\203u\31.4\16\326\274\216\305q|\273e\375(\371}\235\260D\3\222\232\267\211\224;\242\232w\35\250\371p]\312<|\226"
	.ascii "2\346\206\342\273.\271\332\275\230#\177+\354\1\26\337\12\243\27X\7\37\15\274\265\203\\`\335\207iq\17\217{\271\214\314\222\304\204\30\216\306\370\276TV:7\\<\243Ww\314 Qy\230:fH\14rfb\330l\234\346\341\310"
	.ascii "1\203\265\17tx\7\33\316\330\22\36\247e\11\332?\222\377\247\344T\276\252\322\302Vz`\212\36J\256yD\344<\26]3\342\300"
	.ascii "5\343{\272\303\232z\231"
	.ascii "9\344]+f\316\216=wN;\230{cDL\250\226\230\303k\5s\372\217G{\341\21\246o\373\351\336\177\303\233\236\241\317M\21\241g\25\27`@'\333VEh\305\13\260\334\221\341\12W\361\16\261\251\353\332\207\221\274\27\212\324\32Q\270V\212\200\200\255\270B\224\363C\253\264Se,\323\"G/9\211\357\13\246n\233\300#\24\15\14\303l\14#\237\306"
	.ascii "0J\316\20\245U\\\275\354\202s\231e\273\33+O#\305\216\261@\361\263z\254\244\207\245"
	.ascii "5\274\3\331\345\237\34\27\255\1)\2:{\223"
	.ascii "2=\226\376,\263\32\264\215\261i\33\253\265e`s\304\243\22\366\203/Ab!\13}PY\351!U\236\265ZV\13\16\225G\32\244\330\306\261\316\373\271"
	.ascii "5E,\340\304!\353X\347\306\15\221q\354\352\223\274\357\265\236u&\244g\305\271\323N\362\242\332\6\326y4\332:\202\345\271Af\1\313\215Q\222\33\361"
	.ascii "476\212\271\221f9\231n\304{\236q\220\353\21#\31\7u\270\234\15\267\236\216\32\321\213\305\270\300-VV\255\200+\332$z\3\301NM\203\22\265B\256'i\325s]m\242f\26\235ht\220\331\311\204i\12\325~\263\250}\324\301\323\361z\334\344H\373\274\33i\205F|\205\15[\33\33J<X\11+\317\222\227"
	.ascii "0\340\211\266H\272\247\22"
	.ascii "1i\242\356\351T\367\315c\355i\256\370\206#1\215Y;\37{\340a6\274\272"
	.ascii "8\343"
	.ascii "1\375\335\224\267\34\256\16\237B\35\364;*#C\222a!22E\31\337"
	.ascii "9\360\217\332bu\357\336\303^\243\344\263\255,\344ay\245Q\256\352N\313\"\222r\250\323\262E\247\335\313K\270\352\206c\236u`Mb\367\205\325F\234\306\206\243z\6s\14\324\232\202\33\11;=d^\3\246h\233d\321v\"g\207hQ\256\3\213\324&F\361\266;9z\311\242|fQ\377\343\355\243n\352\365:\217H\332E-\332)Z\24\335\27\337\340\206\207\34Yt\277\252q\263\21\307N`?\345\236y|\314UL\342A\267\325\262$\6\256h\267dR\1\21T(\232\264\347\7\7i/3ixKF\276N\335\244\"\"\251\230\232\264O4i\377\245\301\333z\234>\301\201I\233j\36<r\307\273\330p\363pb\257\33K\271C\266\224\3\206h\277dM\11\221Q*Zs\200Z\323|\256\270\330\35W0&;3\366f\220\331\210\16j\5\31\253-)]FE\21=\247(\242e\332\361\307\356Y\242\17\16\14\257\332\306\272\0\15\35f>\210\330\337\31$\365\225\263\276\323\21[\6=T\267_\207\210\312\225\324-\25\242[\316\267\\\13s\307\365L\345\301\352\202=\302\346"
	.ascii "0o\313\260\1\222\223\347Yr\2\25\252\222\212\263\206<3\303\253\35\204\261l4\351;V_{\245"
	.ascii "0\256"
	.ascii "9\334T\250\276\335>B4;F5;*j\326\326\335\276\233\303\211\23\205\263CQ\366\303X\204\323'RE#\352\367F{\210/\313E\376\\xY\256V;\356]\230\324\354\363\305:\234\305\250ZJO\15\260\271gM\335\373A\225\370\222\11\310E5@Z\247e;\365z\321\266\6j\333\370"
	.ascii "8f\234\331\\\245\225\333\321+e\336qb\310\11\255|W\330\337X\34\353\201\17\211v\\L>:\344\214\253\304\346\343\246\356\255N\314\222\270\214\366o\302\331\333|M\343-\311\250\212\312\364\300\35\314\222\332\221\336\1\304\2\5TnW`\223$^\207\200p\324\10\344'\5kN\211\326\234\246\326\254\33"
	.ascii "8S\206\310O\211\241\337\363\215\256k\273K{\235\361\3&wMk~\225+\16\235D\33\337\265\365\216\221\27\202\327p\354\375\213\264\334sG]~\226\311Gd\16\344\26Y^\276\374\35_\221\314GX\177\7S\347\214\326\200\316\202Rp\366\221\244\301\231\216\250\206\316i"
	.ascii "A\362y\355\317\200C|AE\22f\312=\375\25A\300Oi\216Hr\301\345\223\4_\26\367m:\350\216\233\230vm\25u\247\364\240\315\326L\353\371\325\332Z\236\276\365\204.\200\"\27\265\364T&\377Q\231*\362"
	.ascii "3\220r\231\352q7\177s\271\16\17\210|C\333\266\344\270\340a\306"
	.ascii "7\347\320\220\25Q\276\25\271\26\336+\202\315\20\312\370\312"
	.ascii "8\306-\22\343V\312"
	.ascii "8n\264\361\256\342Gfr\346\262\241\267\261\2@\276I\222"
	.ascii "7u\326b9r\267\2\331* [)r\346\365;\327\235\344\310\375\12\344v\1\271\235\"Gg5\356q\223#\17+\220\257\12\310W)\362\370\37=u\362\242\325! wP\344\266\362\244\26\17"
	.ascii "9\347x\305\16\270S@\356\244\310\331\271\15g\15r\344\24\5r\227\200\334E\221"
	.ascii "7\245mKp\221#\27+\220\257\11\310\327(\362\261\363"
	.ascii "99\12\327\355R w\13\310\335\24\371T\315i\213^\216\234\243@\356\21\220{(\362\335\374\266:W9\362>\205\353z\5\344^\212\\rf\363\25EP\216)8_\27\220\257S\344\352\262[=\312\27%\311\254\261a\337\20\260oP\354\265\333\"W)\337\223"
	.ascii "8\241\340}S\300\276\311\374\261\263\354\224\362\255\330J\5\366-\1\233|O\362Y\350=\363\263\5\263\27\375\311\347\303E\213\26\314\376\375g\213\274\27\352?\231\373\331\224\231\277\372\225\306\351\243\317\347-\370\310{\346o\336\372O3\374\275\367\346{o\276\375\326\242\240\240\245!o-\13\10\374r\345\364\17\246\371\274;\355\255\200\367g\274\377\306\312\367\247\277A;IG\240\337\322\25\376&\202\264"
	.ascii "2 \320\337\364\227"
	.ascii "7\227ht\201sL\201_\232\227"
	.ascii "8\317\231\377_\363f\177"
	.ascii "4i\351\362\205&\277\25\301\1\346o?2\205\370\5\7,7\7\5\353>\237=\367\367\363\346\315q_<;p\211\11\306f\371\6\372/5}\374#\25X\354\33b\2\15\236\233"
	.ascii "3_\305X\347\205\263\277\360\366Y\344\362\331\234ys?\361\231\277h\301\314\37,\215\310"
	.ascii "1\207\370\23cW\372-\361\15\366"
	.ascii "1\273\376v\361\212\200\245\346"
	.ascii "7\2\2\377C\243_\21\20h~\177\272\217\371\367?X@\210\331\37x\0\177\355b r\365\361\201\16?\337\245K}|&\204\204\230\227\4\233|\375}\202\203V\230\3\2M>fg\326\201C\314_M\21\6C\376\347\315\267\336\204\277\267\314\1\313\10\267\257|\310\3\360{AB\240\235\354\231\330\1\342\336\235\346c\326\373-[\376\215\337\222/\247\277\342\363\305\334w\1\347}\206"
	.ascii "3C\354\367\236\37\20\20\340\365\316\264\237\250"
	.ascii "2\362[\276\234\262\"\326\213\254f8`5\303{\376"
	.ascii "7\337|\343"
	.ascii "5\355m.\300\337\325\274$ D\340\362/\2\372;\357\310:\247\5\370{\177\355\365\266\366o+\2\314/\253!L'#\336\313\274\246k\277"
	.ascii "5-\365WG!#\204\213[P\240\351\233\0\263\217_\320\262eA\201\236J\365\336yW1\352=\377k\257\351\6\311\351f\347%4S=\244\36_\263\31\342\357\354\353g\16\370\332\244\15\200"
	.ascii "1\275\277\311\354\353\267\304\344o0\233\202!\262\276f\223\277\233\37 \233\3\202\2i \\V\204\230\202\351\223k\310\267!f\323"
	.ascii "2\372\254"
	.ascii "7\5\372\263\207\25B4\\\4E\374MZ\"F\373\227\25\201~Z\222p/H\342i\372\331R\201`\370\370\275\254\34\366\13\12\14"
	.ascii "1\333\220t\14\311\317\225~\373\6\177\11\317\6\333\263\355\361k\275\370\370\274\315\\\350_\31\354\273|91@\13-?\362\357k\3\310"
	.ascii "0\233\276\361Yn\16\306\0"
	.ascii "6\36+\235\231;\215\202W)_\203\255\341L\35c\232\256\14\302\373\254\327{\376\334\205o\373\274\363\266\315\375\336\363?^6\377k\357\205\357\372@\16\342\340\25\201\257*\11\337\205.\25*\257\351\272\220\25!\313\301\301\277R\342\377Z\350V\245q\221\342\367\246\222\352\3i@\205n\231\327\214\251Jt\222\274j\374_\263"
	.ascii "3\232\345\220*\252\376\257A o\361R\323\353v\223I\354W\245\322\222\321_()\246\223>Ulg\226\267\366Z\261^u\12\360\0\304\321>x\254\367)\301\233\360\211\311<sEp\260)\320\274\210\216\317\366w\361_\272"
	.ascii "4`\331\362\240`\363\244\361\203^o\377\361\7\227\323\345\301A~&Q\217\20\337\345\1P\361\14\336\240#c\256\17\14\12"
	.ascii "6\231W\4\7\32m}^\323\335\27\256\14"
	.ascii "0\373-Y\24\304:\236Q6\275\336v\236\365\341\334\217\346x\177\370\203\265\202\5\213\326x\327\231K\203BLl\5t\223={M\377\341\13"
	.ascii "2\253R\314\322\347\347\314_4k\201\367\207\37\371,\\\364\341\202E>\13\346}\266h\366\\\357\347T{us\346\323\275\200q&\235\201\314X\17y\303k\332t\343\2S\310\212eB\333]\336\360\232\356\266\220\315(\201R\321\362\232>\361s\337\0\363\307A\301\13A\337\245\246y\213\377j\362"
	.ascii "3?\247\322\347"
	.ascii "5\343\243\37\276x~\33\10e\217\232\376,\344\21\211\351L(\241L\205\211\343z\274fx,\22\247"
	.ascii "3\353y\326\256\355"
	.ascii "5\303\305\307\307\317\337\344\7\353\257\336g\245o\10T\357\37\261\270"
	.ascii "3z\272y\0\303}V\204hI\321\177Q\230D\323I\343\327\302\210\367\267^3\234\202\375\315!~\330o\371\212\227\224\253;\364\320\245\35\276\201\331D\201\376]h\276GI\274\277\6\265C`\1"
	.ascii "0\371\277\363\357>_\374\243s\324\373\3\211\332\303\307g\261op\0\224\374\245A~_\231\202\247\330-\231\357\331\215{\353\305\216\27\355\312\225\330\357\375\377.\303\351\321"
	.text
	.section	.gnu.lto_.symtab.f43c6987,"dr0"
	.ascii "__ZN3stk6thread8cmpxchg4EPiii@12\0\0\0\0\0\0\0\0\0\0\0\0\7\1\0\0__ZN3stk6thread8cmpxchg8EPxxx@20\0\0\0\0\0\0\0\0\0\0\0\0\25\1\0\0__ZN3stk11this_thread2idEv@0\0\0\0\0\0\0\0\0\0\0\0\0\34\1\0\0__ZN3stk11this_thread4quitEm@4\0\0\0\0\0\0\0\0\0\0\0\0\"\1\0\0__ZN3stk11this_thread4yeldEv@0\0\0\0\0\0\0\0\0\0\0\0\0'\1\0\0__ZN3stk6thread13onexit_commonEPv@4\0\0\0\0\0\0\0\0\0\0\0\0*\1\0\0__ZN3stk6thread6createEPNS0_10ssthread_tEPFmPvES3_@12\0\0\0\0\0\0\0\0\0\0\0\0\262\1\0\0__ZN3stk6thread3runEPNS0_10ssthread_tE@4\0\0\0\0\0\0\0\0\0\0\0\0\270\1\0\0__ZN3stk6thread7suspendEPNS0_10ssthread_tE@4\0\0\0\0\0\0\0\0\0\0\0\0\273\1\0\0__ZN3stk6thread9terminateEPNS0_10ssthread_tEm@8\0\0\0\0\0\0\0\0\0\0\0\0\302\1\0\0__ZN3stk6thread2idEPNS0_10ssthread_tE@4\0\0\0\0\0\0\0\0\0\0\0\0\307\1\0\0__ZN3stk6thread6activeEPNS0_10ssthread_tE@4\0\0\0\0\0\0\0\0\0\0\0\0\311\1\0\0__ZN3stk6thread8joinableEPNS0_10ssthread_tE@4\0\0\0\0\0\0\0\0\0\0\0\0\314\1\0\0__ZN3stk6thread4joinEPNS0_10ssthread_tE@4\0\0\0\0\0\0\0\0\0\0\0\0\322\1\0\0__ZN3stk6thread6detachEPNS0_10ssthread_tE@4\0\0\0\0\0\0\0\0\0\0\0\0\325\1\0\0__ZN3stk6thread6atexitEPNS0_10ssthread_tEPFmPvES3_@12\0\0\0\0\0\0\0\0\0\0\0\0\335\1\0\0__ZN3stk6thread15__barier_lockerE\0\0\0\0\0\0\0\0\0\0\0\0[\2\0\0__ZN3stk6thread8__barierE\0\0\0\0\0\0\0\0\0\0\0\0^\2\0\0_GetCurrentThreadId@0\0\0\2\0\0\0\0\0\0\0\0\0\344\1\0\0_E"
	.ascii "xitThread@4\0\0\2\0\0\0\0\0\0\0\0\0\355\1\0\0_SwitchToThread@0\0\0\2\0\0\0\0\0\0\0\0\0\363\1\0\0_CloseHandle@4\0\0\2\0\0\0\0\0\0\0\0\0\375\1\0\0_CreateThread@24\0\0\2\0\0\0\0\0\0\0\0\0\27\2\0\0_ResumeThread@4\0\0\2\0\0\0\0\0\0\0\0\0\36\2\0\0_SuspendThread@4\0\0\2\0\0\0\0\0\0\0\0\0\"\2\0\0_WaitForSingleObject@8\0\0\2\0\0\0\0\0\0\0\0\0*\2\0\0_GetExitCodeThread@8\0\0\2\0\0\0\0\0\0\0\0\0"
	.ascii "2\2\0\0_TerminateThread@8\0\0\2\0\0\0\0\0\0\0\0\0:\2\0\0__wassert\0\0\2\0\0\0\0\0\0\0\0\0C\2\0\0__ZN3stk4time7wait_usEy@8\0\0\2\0\0\0\0\0\0\0\0\0K\2\0\0__ZN3stk3cpu5rdtscEv\0\0\2\0\0\0\0\0\0\0\0\0R\2\0\0"
	.text
	.section	.gnu.lto_.opts,"dr0"
	.ascii "'-fno-trapv' '-dD' '-malign-double' '-momit-leaf-frame-pointer' '-m32' '-mfpmath=sse' '-mpreferred-stack-boundary=8' '-mmmx' '-msse' '-msse2' '-mthreads' '-mtune=generic' '-march=i686' '-g' '-g' '-O3' '-fno-use-linker-plugin' '-fverbose-asm' '-fstrict-aliasing' '-fwrapv' '-funroll-loops' '-flto' '-fexceptions'\0"
	.text
	.section	.text.unlikely,"x"
LCOLDB0:
	.text
LHOTB0:
	.p2align 4,,15
	.section	.text.unlikely,"x"
Ltext_cold0:
	.text
	.globl	__ZN3stk6thread8cmpxchg4EPiii@12
	.def	__ZN3stk6thread8cmpxchg4EPiii@12;	.scl	2;	.type	32;	.endef
__ZN3stk6thread8cmpxchg4EPiii@12:
LFB699:
	.file 1 "sthreads/stk_threads.cpp"
	.loc 1 10 0
	.cfi_startproc
LVL0:
	.loc 1 10 0
	movl	4(%esp), %edx	 # addr, addr
LBB12:
	.loc 1 11 0
	movl	(%edx), %eax	 # *addr_3(D), was
LVL1:
	.loc 1 12 0
	cmpl	8(%esp), %eax	 # o, was
	jne	L2	 #,
	.loc 1 12 0 is_stmt 0 discriminator 1
	movl	12(%esp), %ecx	 # n, n
	movl	%ecx, (%edx)	 # n, *addr_3(D)
L2:
LBE12:
	.loc 1 14 0 is_stmt 1
	ret	$12	 #
	.cfi_endproc
LFE699:
	.section	.text.unlikely,"x"
LCOLDE0:
	.text
LHOTE0:
	.section	.text.unlikely,"x"
LCOLDB1:
	.text
LHOTB1:
	.p2align 4,,15
	.globl	__ZN3stk6thread8cmpxchg8EPxxx@20
	.def	__ZN3stk6thread8cmpxchg8EPxxx@20;	.scl	2;	.type	32;	.endef
__ZN3stk6thread8cmpxchg8EPxxx@20:
LFB700:
	.loc 1 17 0
	.cfi_startproc
LVL2:
	pushl	%ebp	 #
	.cfi_def_cfa_offset 8
	.cfi_offset 5, -8
	pushl	%edi	 #
	.cfi_def_cfa_offset 12
	.cfi_offset 7, -12
	pushl	%esi	 #
	.cfi_def_cfa_offset 16
	.cfi_offset 6, -16
	pushl	%ebx	 #
	.cfi_def_cfa_offset 20
	.cfi_offset 3, -20
	.loc 1 17 0
	movl	20(%esp), %ecx	 # addr, addr
LBB13:
	.loc 1 19 0
	movl	28(%esp), %ebp	 # o, tmp88
	movl	24(%esp), %ebx	 # o, tmp89
LBE13:
	.loc 1 17 0
	movl	32(%esp), %esi	 # n, n
	movl	36(%esp), %edi	 # n, n
LBB14:
	.loc 1 18 0
	movl	(%ecx), %eax	 # *addr_3(D), was
	movl	4(%ecx), %edx	 # *addr_3(D), was
LVL3:
	.loc 1 19 0
	xorl	%eax, %ebx	 # was, tmp89
	xorl	%edx, %ebp	 # was, tmp88
	orl	%ebx, %ebp	 # tmp89, tmp100
	jne	L5	 #,
	.loc 1 19 0 is_stmt 0 discriminator 1
	movl	%esi, (%ecx)	 # n, *addr_3(D)
	movl	%edi, 4(%ecx)	 # n, *addr_3(D)
L5:
LBE14:
	.loc 1 21 0 is_stmt 1
	popl	%ebx	 #
	.cfi_restore 3
	.cfi_def_cfa_offset 16
	popl	%esi	 #
	.cfi_restore 6
	.cfi_def_cfa_offset 12
	popl	%edi	 #
	.cfi_restore 7
	.cfi_def_cfa_offset 8
	popl	%ebp	 #
	.cfi_restore 5
	.cfi_def_cfa_offset 4
	ret	$20	 #
	.cfi_endproc
LFE700:
	.section	.text.unlikely,"x"
LCOLDE1:
	.text
LHOTE1:
	.section	.text.unlikely,"x"
LCOLDB2:
	.text
LHOTB2:
	.p2align 4,,15
	.globl	__ZN3stk11this_thread2idEv@0
	.def	__ZN3stk11this_thread2idEv@0;	.scl	2;	.type	32;	.endef
__ZN3stk11this_thread2idEv@0:
LFB701:
	.loc 1 24 0
	.cfi_startproc
	subl	$252, %esp	 #,
	.cfi_def_cfa_offset 256
LBB15:
	.loc 1 26 0
	call	*__imp__GetCurrentThreadId@0	 #
LVL4:
	.loc 1 27 0
	testl	%eax, %eax	 # r
	setne	%al	 #, D.29756
LVL5:
LBE15:
	.loc 1 31 0
	addl	$252, %esp	 #,
	.cfi_def_cfa_offset 4
LBB16:
	.loc 1 27 0
	movzbl	%al, %eax	 # D.29756, D.29756
LBE16:
	.loc 1 31 0
	ret
	.cfi_endproc
LFE701:
	.section	.text.unlikely,"x"
LCOLDE2:
	.text
LHOTE2:
	.section	.text.unlikely,"x"
LCOLDB3:
	.text
LHOTB3:
	.p2align 4,,15
	.globl	__ZN3stk11this_thread4quitEm@4
	.def	__ZN3stk11this_thread4quitEm@4;	.scl	2;	.type	32;	.endef
__ZN3stk11this_thread4quitEm@4:
LFB702:
	.loc 1 34 0
	.cfi_startproc
LVL6:
	subl	$508, %esp	 #,
	.cfi_def_cfa_offset 512
	.loc 1 36 0
	movl	512(%esp), %eax	 # a_exitcode, a_exitcode
	movl	%eax, (%esp)	 # a_exitcode,
	call	*__imp__ExitThread@4	 #
	.cfi_def_cfa_offset 508
LVL7:
	.cfi_endproc
LFE702:
	.section	.text.unlikely,"x"
LCOLDE3:
	.text
LHOTE3:
	.section	.text.unlikely,"x"
LCOLDB4:
	.text
LHOTB4:
	.p2align 4,,15
	.globl	__ZN3stk11this_thread4yeldEv@0
	.def	__ZN3stk11this_thread4yeldEv@0;	.scl	2;	.type	32;	.endef
__ZN3stk11this_thread4yeldEv@0:
LFB703:
	.loc 1 43 0
	.cfi_startproc
	subl	$252, %esp	 #,
	.cfi_def_cfa_offset 256
LBB17:
	.loc 1 45 0
	call	*__imp__SwitchToThread@0	 #
LVL8:
	.loc 1 46 0
	testl	%eax, %eax	 # D.29764
	setne	%al	 #, D.29765
LVL9:
LBE17:
	.loc 1 50 0
	addl	$252, %esp	 #,
	.cfi_def_cfa_offset 4
	ret
	.cfi_endproc
LFE703:
	.section	.text.unlikely,"x"
LCOLDE4:
	.text
LHOTE4:
	.section	.text.unlikely,"x"
LCOLDB5:
	.text
LHOTB5:
	.p2align 4,,15
	.globl	__ZN3stk6thread13onexit_commonEPv@4
	.def	__ZN3stk6thread13onexit_commonEPv@4;	.scl	2;	.type	32;	.endef
__ZN3stk6thread13onexit_commonEPv@4:
LFB704:
	.loc 1 54 0
	.cfi_startproc
LVL10:
	subl	$508, %esp	 #,
	.cfi_def_cfa_offset 512
	.loc 1 57 0
	movl	512(%esp), %eax	 # a_arg, a_arg
	movl	%eax, (%esp)	 # a_arg,
	call	*__imp__CloseHandle@4	 #
	.cfi_def_cfa_offset 508
LVL11:
	subl	$4, %esp	 #,
	.cfi_def_cfa_offset 512
	.loc 1 62 0
	xorl	%eax, %eax	 #
	addl	$508, %esp	 #,
	.cfi_def_cfa_offset 4
	ret	$4	 #
	.cfi_endproc
LFE704:
	.section	.text.unlikely,"x"
LCOLDE5:
	.text
LHOTE5:
	.section	.text.unlikely,"x"
LCOLDB6:
	.text
LHOTB6:
	.p2align 4,,15
	.globl	__ZN3stk6thread6createEPNS0_10ssthread_tEPFmPvES3_@12
	.def	__ZN3stk6thread6createEPNS0_10ssthread_tEPFmPvES3_@12;	.scl	2;	.type	32;	.endef
__ZN3stk6thread6createEPNS0_10ssthread_tEPFmPvES3_@12:
LFB705:
	.loc 1 65 0
	.cfi_startproc
LVL12:
	pushl	%ebx	 #
	.cfi_def_cfa_offset 8
	.cfi_offset 3, -8
	subl	$504, %esp	 #,
	.cfi_def_cfa_offset 512
	.loc 1 65 0
	movl	512(%esp), %ebx	 # a_thread, a_thread
	movl	516(%esp), %eax	 # a_func, a_func
	movl	520(%esp), %edx	 # a_func_arg, a_func_arg
	.loc 1 67 0
	movl	%eax, 56(%ebx)	 # a_func, a_thread_3(D)->D.28842.func
	.loc 1 69 0
	movl	$0, 64(%ebx)	 #, a_thread_3(D)->onexit
	.loc 1 68 0
	movl	%edx, 60(%ebx)	 # a_func_arg, a_thread_3(D)->D.28850.func_arg
	.loc 1 70 0
	movl	$0, 68(%ebx)	 #, a_thread_3(D)->D.28856.onexit_arg
	.loc 1 71 0
	movb	$0, 10(%ebx)	 #, a_thread_3(D)->attr.detached
	.loc 1 72 0
	movb	$0, 11(%ebx)	 #, a_thread_3(D)->attr.terminated
	.loc 1 73 0
	movb	$0, 8(%ebx)	 #, a_thread_3(D)->attr.active
	.loc 1 74 0
	movl	%ebx, 20(%esp)	 # a_thread,
	movl	$4, 16(%esp)	 #,
	movl	%edx, 12(%esp)	 # a_func_arg,
	movl	%eax, 8(%esp)	 # a_func,
	movl	$0, 4(%esp)	 #,
	movl	$0, (%esp)	 #,
	call	*__imp__CreateThread@24	 #
	.cfi_def_cfa_offset 488
LVL13:
	subl	$24, %esp	 #,
	.cfi_def_cfa_offset 512
	.loc 1 75 0
	testl	%eax, %eax	 # D.29773
	.loc 1 74 0
	movl	%eax, 4(%ebx)	 # D.29773, a_thread_3(D)->handle
	.loc 1 75 0
	setne	%al	 #, D.29774
	.loc 1 81 0
	addl	$504, %esp	 #,
	.cfi_def_cfa_offset 8
	popl	%ebx	 #
	.cfi_restore 3
	.cfi_def_cfa_offset 4
	ret	$12	 #
	.cfi_endproc
LFE705:
	.section	.text.unlikely,"x"
LCOLDE6:
	.text
LHOTE6:
	.section	.text.unlikely,"x"
LCOLDB7:
	.text
LHOTB7:
	.p2align 4,,15
	.globl	__ZN3stk6thread3runEPNS0_10ssthread_tE@4
	.def	__ZN3stk6thread3runEPNS0_10ssthread_tE@4;	.scl	2;	.type	32;	.endef
__ZN3stk6thread3runEPNS0_10ssthread_tE@4:
LFB706:
	.loc 1 84 0
	.cfi_startproc
LVL14:
	pushl	%ebx	 #
	.cfi_def_cfa_offset 8
	.cfi_offset 3, -8
LBB18:
	.loc 1 87 0
	xorl	%eax, %eax	 # D.29778
LBE18:
	.loc 1 84 0
	subl	$504, %esp	 #,
	.cfi_def_cfa_offset 512
	.loc 1 84 0
	movl	512(%esp), %ebx	 # a_thread, a_thread
LBB19:
	.loc 1 86 0
	movl	4(%ebx), %edx	 # a_thread_4(D)->handle, D.29779
	testl	%edx, %edx	 # D.29779
	je	L18	 #,
	.loc 1 86 0 is_stmt 0 discriminator 1
	cmpb	$0, 10(%ebx)	 #, a_thread_4(D)->attr.detached
	jne	L18	 #,
	.loc 1 88 0 is_stmt 1
	movl	%edx, (%esp)	 # D.29779,
	call	*__imp__ResumeThread@4	 #
	.cfi_def_cfa_offset 508
LVL15:
	subl	$4, %esp	 #,
	.cfi_def_cfa_offset 512
	cmpl	$-1, %eax	 #, D.29780
	setne	%al	 #, D.29778
LVL16:
	.loc 1 89 0
	movb	%al, 8(%ebx)	 # D.29778, a_thread_4(D)->attr.active
LVL17:
L18:
LBE19:
	.loc 1 94 0
	addl	$504, %esp	 #,
	.cfi_def_cfa_offset 8
	popl	%ebx	 #
	.cfi_restore 3
	.cfi_def_cfa_offset 4
	ret	$4	 #
	.cfi_endproc
LFE706:
	.section	.text.unlikely,"x"
LCOLDE7:
	.text
LHOTE7:
	.section	.text.unlikely,"x"
LCOLDB8:
	.text
LHOTB8:
	.p2align 4,,15
	.globl	__ZN3stk6thread7suspendEPNS0_10ssthread_tE@4
	.def	__ZN3stk6thread7suspendEPNS0_10ssthread_tE@4;	.scl	2;	.type	32;	.endef
__ZN3stk6thread7suspendEPNS0_10ssthread_tE@4:
LFB707:
	.loc 1 97 0
	.cfi_startproc
LVL18:
	pushl	%ebx	 #
	.cfi_def_cfa_offset 8
	.cfi_offset 3, -8
LBB20:
	.loc 1 100 0
	xorl	%eax, %eax	 # D.29784
LBE20:
	.loc 1 97 0
	subl	$504, %esp	 #,
	.cfi_def_cfa_offset 512
	.loc 1 97 0
	movl	512(%esp), %ebx	 # a_thread, a_thread
LBB21:
	.loc 1 99 0
	movl	4(%ebx), %edx	 # a_thread_4(D)->handle, D.29785
	testl	%edx, %edx	 # D.29785
	je	L23	 #,
	.loc 1 99 0 is_stmt 0 discriminator 1
	cmpb	$0, 10(%ebx)	 #, a_thread_4(D)->attr.detached
	jne	L23	 #,
	.loc 1 101 0 is_stmt 1
	movl	%edx, (%esp)	 # D.29785,
	call	*__imp__SuspendThread@4	 #
	.cfi_def_cfa_offset 508
LVL19:
	subl	$4, %esp	 #,
	.cfi_def_cfa_offset 512
	cmpl	$-1, %eax	 #, D.29786
LVL20:
	.loc 1 102 0
	setne	%al	 #, D.29784
	sete	8(%ebx)	 #, a_thread_4(D)->attr.active
LVL21:
L23:
LBE21:
	.loc 1 107 0
	addl	$504, %esp	 #,
	.cfi_def_cfa_offset 8
	popl	%ebx	 #
	.cfi_restore 3
	.cfi_def_cfa_offset 4
	ret	$4	 #
	.cfi_endproc
LFE707:
	.section	.text.unlikely,"x"
LCOLDE8:
	.text
LHOTE8:
	.section	.text.unlikely,"x"
LCOLDB9:
	.text
LHOTB9:
	.p2align 4,,15
	.globl	__ZN3stk6thread9terminateEPNS0_10ssthread_tEm@8
	.def	__ZN3stk6thread9terminateEPNS0_10ssthread_tEm@8;	.scl	2;	.type	32;	.endef
__ZN3stk6thread9terminateEPNS0_10ssthread_tEm@8:
LFB708:
	.loc 1 110 0
	.cfi_startproc
LVL22:
	pushl	%ebx	 #
	.cfi_def_cfa_offset 8
	.cfi_offset 3, -8
	subl	$504, %esp	 #,
	.cfi_def_cfa_offset 512
	.loc 1 110 0
	movl	512(%esp), %ebx	 # a_thread, a_thread
LBB22:
	.loc 1 113 0
	movl	4(%ebx), %edx	 # a_thread_7(D)->handle, D.29791
	testl	%edx, %edx	 # D.29791
	je	L30	 #,
	.loc 1 113 0 is_stmt 0 discriminator 1
	cmpb	$0, 10(%ebx)	 #, a_thread_7(D)->attr.detached
	jne	L30	 #,
	.loc 1 115 0 is_stmt 1
	movzbl	11(%ebx), %eax	 # a_thread_7(D)->attr.terminated, D.29790
	testb	%al, %al	 # D.29790
	je	L43	 #,
L36:
LBE22:
	.loc 1 131 0
	addl	$504, %esp	 #,
	.cfi_remember_state
	.cfi_def_cfa_offset 8
	popl	%ebx	 #
	.cfi_restore 3
	.cfi_def_cfa_offset 4
	ret	$8	 #
	.p2align 4,,10
L43:
	.cfi_restore_state
LBB25:
	.loc 1 117 0
	movl	516(%esp), %eax	 # a_exitcode, a_exitcode
	movl	%edx, (%esp)	 # D.29791,
	movl	%eax, 4(%esp)	 # a_exitcode,
	call	*__imp__TerminateThread@8	 #
	.cfi_def_cfa_offset 504
LVL23:
	subl	$8, %esp	 #,
	.cfi_def_cfa_offset 512
LVL24:
	.loc 1 118 0
	testl	%eax, %eax	 # D.29793
	jne	L44	 #,
LVL25:
L30:
LBE25:
	.loc 1 131 0
	addl	$504, %esp	 #,
	.cfi_remember_state
	.cfi_def_cfa_offset 8
LBB26:
	.loc 1 114 0
	xorl	%eax, %eax	 # D.29790
LBE26:
	.loc 1 131 0
	popl	%ebx	 #
	.cfi_restore 3
	.cfi_def_cfa_offset 4
	ret	$8	 #
LVL26:
	.p2align 4,,10
L44:
	.cfi_restore_state
LBB27:
	.loc 1 119 0
	leal	516(%esp), %ecx	 #, tmp99
LVL27:
	movl	%ecx, 4(%esp)	 # tmp99,
	movl	4(%ebx), %edx	 # a_thread_7(D)->handle, a_thread_7(D)->handle
	movl	%edx, (%esp)	 # a_thread_7(D)->handle,
	call	*__imp__GetExitCodeThread@8	 #
	.cfi_def_cfa_offset 504
LVL28:
	subl	$8, %esp	 #,
	.cfi_def_cfa_offset 512
	testl	%eax, %eax	 # D.29793
	je	L30	 #,
	.loc 1 119 0 is_stmt 0 discriminator 1
	cmpl	$259, 516(%esp)	 #, a_exitcode
	jne	L30	 #,
	.loc 1 120 0 is_stmt 1
	movl	$-1, 4(%esp)	 #,
	movl	4(%ebx), %eax	 # a_thread_7(D)->handle, a_thread_7(D)->handle
	movl	%eax, (%esp)	 # a_thread_7(D)->handle,
	call	*__imp__WaitForSingleObject@8	 #
	.cfi_def_cfa_offset 504
LVL29:
	.loc 1 124 0
	movl	64(%ebx), %eax	 # a_thread_7(D)->onexit, D.29794
	.loc 1 120 0
	subl	$8, %esp	 #,
	.cfi_def_cfa_offset 512
	.loc 1 122 0
	movb	$1, 11(%ebx)	 #, a_thread_7(D)->attr.terminated
	.loc 1 123 0
	movb	$0, 8(%ebx)	 #, a_thread_7(D)->attr.active
	.loc 1 124 0
	testl	%eax, %eax	 # D.29794
	je	L33	 #,
	.loc 1 124 0 is_stmt 0 discriminator 1
	movl	68(%ebx), %ecx	 # a_thread_7(D)->D.28856.onexit_arg, a_thread_7(D)->D.28856.onexit_arg
	movl	%ecx, (%esp)	 # a_thread_7(D)->D.28856.onexit_arg,
	call	*%eax	 # D.29794
	.cfi_def_cfa_offset 508
LVL30:
	subl	$4, %esp	 #,
	.cfi_def_cfa_offset 512
L33:
LVL31:
LBB23:
LBB24:
	.loc 1 57 0 is_stmt 1
	movl	4(%ebx), %ebx	 # a_thread_7(D)->handle, a_thread_7(D)->handle
LVL32:
	movl	%ebx, (%esp)	 # a_thread_7(D)->handle,
	call	*__imp__CloseHandle@4	 #
	.cfi_def_cfa_offset 508
LVL33:
	movl	$1, %eax	 #, D.29790
	subl	$4, %esp	 #,
	.cfi_def_cfa_offset 512
	jmp	L36	 #
LBE24:
LBE23:
LBE27:
	.cfi_endproc
LFE708:
	.section	.text.unlikely,"x"
LCOLDE9:
	.text
LHOTE9:
	.section	.text.unlikely,"x"
LCOLDB10:
	.text
LHOTB10:
	.p2align 4,,15
	.globl	__ZN3stk6thread2idEPNS0_10ssthread_tE@4
	.def	__ZN3stk6thread2idEPNS0_10ssthread_tE@4;	.scl	2;	.type	32;	.endef
__ZN3stk6thread2idEPNS0_10ssthread_tE@4:
LFB709:
	.loc 1 134 0
	.cfi_startproc
LVL34:
	.loc 1 134 0
	movl	4(%esp), %eax	 # a_thread, a_thread
	.loc 1 136 0
	movl	4(%eax), %edx	 # a_thread_3(D)->handle,
	testl	%edx, %edx	 #
	je	L47	 #,
	.loc 1 137 0
	movl	(%eax), %eax	 # a_thread_3(D)->id, D.29800
	ret	$4	 #
LVL35:
	.p2align 4,,10
L47:
	.loc 1 136 0
	xorl	%eax, %eax	 # D.29800
LVL36:
	.loc 1 141 0
	ret	$4	 #
	.cfi_endproc
LFE709:
	.section	.text.unlikely,"x"
LCOLDE10:
	.text
LHOTE10:
	.section	.text.unlikely,"x"
LCOLDB11:
	.text
LHOTB11:
	.p2align 4,,15
	.globl	__ZN3stk6thread6activeEPNS0_10ssthread_tE@4
	.def	__ZN3stk6thread6activeEPNS0_10ssthread_tE@4;	.scl	2;	.type	32;	.endef
__ZN3stk6thread6activeEPNS0_10ssthread_tE@4:
LFB710:
	.loc 1 144 0
	.cfi_startproc
LVL37:
	pushl	%ebx	 #
	.cfi_def_cfa_offset 8
	.cfi_offset 3, -8
	subl	$1016, %esp	 #,
	.cfi_def_cfa_offset 1024
	.loc 1 144 0
	movl	1024(%esp), %ebx	 # a_thread, a_thread
LBB29:
	.loc 1 147 0
	movl	4(%ebx), %eax	 # a_thread_5(D)->handle, D.29810
	testl	%eax, %eax	 # D.29810
	je	L51	 #,
	.loc 1 149 0
	movzbl	8(%ebx), %edx	 # a_thread_5(D)->attr.active, D.29809
	testb	%dl, %dl	 # D.29809
	je	L49	 #,
	.loc 1 151 0
	cmpb	$0, 11(%ebx)	 #, a_thread_5(D)->attr.terminated
	je	L59	 #,
L50:
	.loc 1 161 0
	movb	$0, 8(%ebx)	 #, a_thread_5(D)->attr.active
	.loc 1 162 0
	xorl	%edx, %edx	 # D.29809
L49:
LBE29:
	.loc 1 163 0
	addl	$1016, %esp	 #,
	.cfi_remember_state
	.cfi_def_cfa_offset 8
	movl	%edx, %eax	 # D.29809,
	popl	%ebx	 #
	.cfi_restore 3
	.cfi_def_cfa_offset 4
	ret	$4	 #
	.p2align 4,,10
L59:
	.cfi_restore_state
LBB30:
	.loc 1 151 0 discriminator 1
	cmpb	$0, 10(%ebx)	 #, a_thread_5(D)->attr.detached
	jne	L50	 #,
	.loc 1 152 0
	leal	764(%esp), %ecx	 #, tmp91
	movb	%dl, 511(%esp)	 # D.29809, %sfp
	movl	%eax, (%esp)	 # D.29810,
	movl	%ecx, 4(%esp)	 # tmp91,
	call	*__imp__GetExitCodeThread@8	 #
	.cfi_def_cfa_offset 1016
LVL38:
	subl	$8, %esp	 #,
	.cfi_def_cfa_offset 1024
	testl	%eax, %eax	 # D.29811
	movzbl	511(%esp), %edx	 # %sfp, D.29809
	je	L50	 #,
	.loc 1 153 0
	cmpl	$259, 764(%esp)	 #, r
	jne	L50	 #,
	.loc 1 154 0
	movb	$1, 8(%ebx)	 #, a_thread_5(D)->attr.active
	.loc 1 155 0
	jmp	L49	 #
	.p2align 4,,10
L51:
	.loc 1 148 0
	xorl	%edx, %edx	 # D.29809
LBE30:
	.loc 1 163 0
	addl	$1016, %esp	 #,
	.cfi_def_cfa_offset 8
	movl	%edx, %eax	 # D.29809,
	popl	%ebx	 #
	.cfi_restore 3
	.cfi_def_cfa_offset 4
	ret	$4	 #
	.cfi_endproc
LFE710:
	.section	.text.unlikely,"x"
LCOLDE11:
	.text
LHOTE11:
	.section	.text.unlikely,"x"
LCOLDB12:
	.text
LHOTB12:
	.p2align 4,,15
	.globl	__ZN3stk6thread8joinableEPNS0_10ssthread_tE@4
	.def	__ZN3stk6thread8joinableEPNS0_10ssthread_tE@4;	.scl	2;	.type	32;	.endef
__ZN3stk6thread8joinableEPNS0_10ssthread_tE@4:
LFB711:
	.loc 1 166 0
	.cfi_startproc
LVL39:
	pushl	%esi	 #
	.cfi_def_cfa_offset 8
	.cfi_offset 6, -8
	pushl	%ebx	 #
	.cfi_def_cfa_offset 12
	.cfi_offset 3, -12
	subl	$1012, %esp	 #,
	.cfi_def_cfa_offset 1024
	.loc 1 166 0
	movl	1024(%esp), %ebx	 # a_thread, a_thread
LVL40:
LBB38:
LBB39:
	.loc 1 136 0
	movl	4(%ebx), %eax	 # a_thread_4(D)->handle,
	testl	%eax, %eax	 #
	je	L65	 #,
	.loc 1 137 0
	movl	(%ebx), %esi	 # a_thread_4(D)->id, D.29821
L61:
LBE39:
LBE38:
LBB41:
LBB42:
	.loc 1 26 0
	call	*__imp__GetCurrentThreadId@0	 #
LVL41:
	.loc 1 27 0
	testl	%eax, %eax	 # r
	setne	%dl	 #, D.29819
	movzbl	%dl, %ecx	 # D.29819, D.29819
LBE42:
LBE41:
	.loc 1 173 0
	xorl	%edx, %edx	 # D.29819
	.loc 1 168 0
	cmpl	%ecx, %esi	 # D.29819, D.29821
	je	L62	 #,
LVL42:
LBB43:
LBB44:
	.loc 1 147 0
	movl	4(%ebx), %eax	 # a_thread_4(D)->handle, D.29820
LVL43:
	testl	%eax, %eax	 # D.29820
	je	L62	 #,
	.loc 1 149 0
	movzbl	8(%ebx), %edx	 # a_thread_4(D)->attr.active, D.29819
	testb	%dl, %dl	 # D.29819
	je	L62	 #,
	.loc 1 151 0
	cmpb	$0, 11(%ebx)	 #, a_thread_4(D)->attr.terminated
	jne	L64	 #,
	cmpb	$0, 10(%ebx)	 #, a_thread_4(D)->attr.detached
	je	L75	 #,
L64:
	.loc 1 161 0
	movb	$0, 8(%ebx)	 #, a_thread_4(D)->attr.active
	.loc 1 162 0
	xorl	%edx, %edx	 # D.29819
LVL44:
L62:
LBE44:
LBE43:
	.loc 1 174 0
	addl	$1012, %esp	 #,
	.cfi_remember_state
	.cfi_def_cfa_offset 12
	movl	%edx, %eax	 # D.29819,
	popl	%ebx	 #
	.cfi_restore 3
	.cfi_def_cfa_offset 8
LVL45:
	popl	%esi	 #
	.cfi_restore 6
	.cfi_def_cfa_offset 4
	ret	$4	 #
LVL46:
	.p2align 4,,10
L65:
	.cfi_restore_state
LBB46:
LBB40:
	.loc 1 136 0
	xorl	%esi, %esi	 # D.29821
	jmp	L61	 #
LVL47:
	.p2align 4,,10
L75:
LBE40:
LBE46:
LBB47:
LBB45:
	.loc 1 152 0
	leal	764(%esp), %esi	 #, tmp99
	movb	%dl, 511(%esp)	 # D.29819, %sfp
	movl	%eax, (%esp)	 # D.29820,
	movl	%esi, 4(%esp)	 # tmp99,
	call	*__imp__GetExitCodeThread@8	 #
	.cfi_def_cfa_offset 1016
LVL48:
	subl	$8, %esp	 #,
	.cfi_def_cfa_offset 1024
	testl	%eax, %eax	 # D.29822
	movzbl	511(%esp), %edx	 # %sfp, D.29819
	je	L64	 #,
	.loc 1 153 0
	cmpl	$259, 764(%esp)	 #, r
	jne	L64	 #,
	.loc 1 154 0
	movb	$1, 8(%ebx)	 #, a_thread_4(D)->attr.active
	jmp	L62	 #
LBE45:
LBE47:
	.cfi_endproc
LFE711:
	.section	.text.unlikely,"x"
LCOLDE12:
	.text
LHOTE12:
	.section	.text.unlikely,"x"
LCOLDB13:
	.text
LHOTB13:
	.p2align 4,,15
	.globl	__ZN3stk6thread4joinEPNS0_10ssthread_tE@4
	.def	__ZN3stk6thread4joinEPNS0_10ssthread_tE@4;	.scl	2;	.type	32;	.endef
__ZN3stk6thread4joinEPNS0_10ssthread_tE@4:
LFB712:
	.loc 1 177 0
	.cfi_startproc
LVL49:
	pushl	%ebp	 #
	.cfi_def_cfa_offset 8
	.cfi_offset 5, -8
	movl	%esp, %ebp	 #,
	.cfi_def_cfa_register 5
	pushl	%ebx	 #
	subl	$500, %esp	 #,
	.cfi_offset 3, -12
	.loc 1 177 0
	movl	8(%ebp), %ebx	 # a_thread, a_thread
	.loc 1 179 0
	movl	4(%ebx), %eax	 # a_thread_4(D)->handle, D.29825
	testl	%eax, %eax	 # D.29825
	je	L76	 #,
	.loc 1 181 0
	cmpb	$0, 11(%ebx)	 #, a_thread_4(D)->attr.terminated
	jne	L76	 #,
	.loc 1 181 0 is_stmt 0 discriminator 1
	cmpb	$0, 10(%ebx)	 #, a_thread_4(D)->attr.detached
	je	L86	 #,
L76:
	.loc 1 190 0 is_stmt 1
	movl	-4(%ebp), %ebx	 #,
	leave
	.cfi_remember_state
	.cfi_restore 5
	.cfi_restore 3
	.cfi_def_cfa 4, 4
	ret	$4	 #
	.p2align 4,,10
L86:
	.cfi_restore_state
	.loc 1 182 0
	movl	$-1, 4(%esp)	 #,
	movl	%eax, (%esp)	 # D.29825,
	call	*__imp__WaitForSingleObject@8	 #
LVL50:
	.loc 1 184 0
	movl	64(%ebx), %eax	 # a_thread_4(D)->onexit, D.29827
	.loc 1 182 0
	subl	$8, %esp	 #,
	.loc 1 184 0
	testl	%eax, %eax	 # D.29827
	je	L78	 #,
	.loc 1 184 0 is_stmt 0 discriminator 1
	movl	68(%ebx), %edx	 # a_thread_4(D)->D.28856.onexit_arg, a_thread_4(D)->D.28856.onexit_arg
	movl	%edx, (%esp)	 # a_thread_4(D)->D.28856.onexit_arg,
	call	*%eax	 # D.29827
LVL51:
	subl	$4, %esp	 #,
L78:
LVL52:
LBB48:
LBB49:
	.loc 1 57 0 is_stmt 1
	movl	4(%ebx), %ecx	 # a_thread_4(D)->handle, a_thread_4(D)->handle
	movl	__imp__CloseHandle@4, %eax	 #, tmp93
LBE49:
LBE48:
	.loc 1 190 0
	movl	-4(%ebp), %ebx	 #,
LVL53:
LBB52:
LBB50:
	.loc 1 57 0
	movl	%ecx, 8(%ebp)	 # a_thread_4(D)->handle,
LBE50:
LBE52:
	.loc 1 190 0
	leave
	.cfi_restore 5
	.cfi_restore 3
	.cfi_def_cfa 4, 4
LBB53:
LBB51:
	.loc 1 57 0
	jmp	*%eax	 # tmp93
	.cfi_def_cfa_offset 0
LVL54:
LBE51:
LBE53:
	.cfi_endproc
LFE712:
	.section	.text.unlikely,"x"
LCOLDE13:
	.text
LHOTE13:
	.section	.text.unlikely,"x"
LCOLDB14:
	.text
LHOTB14:
	.p2align 4,,15
	.globl	__ZN3stk6thread6detachEPNS0_10ssthread_tE@4
	.def	__ZN3stk6thread6detachEPNS0_10ssthread_tE@4;	.scl	2;	.type	32;	.endef
__ZN3stk6thread6detachEPNS0_10ssthread_tE@4:
LFB713:
	.loc 1 193 0
	.cfi_startproc
LVL55:
	.loc 1 193 0
	movl	4(%esp), %eax	 # a_thread, a_thread
	.loc 1 198 0
	movl	4(%eax), %edx	 # a_thread_3(D)->handle,
	testl	%edx, %edx	 #
	je	L87	 #,
	.loc 1 200 0
	movb	$1, 10(%eax)	 #, a_thread_3(D)->attr.detached
L87:
	ret	$4	 #
	.cfi_endproc
LFE713:
	.section	.text.unlikely,"x"
LCOLDE14:
	.text
LHOTE14:
	.section .rdata,"dr"
	.align 4
LC15:
	.ascii "s\0t\0h\0r\0e\0a\0d\0s\0\\\0s\0t\0k\0_\0t\0h\0r\0e\0a\0d\0s\0.\0c\0p\0p\0\0\0"
	.align 2
LC16:
	.ascii "a\0_\0o\0n\0e\0x\0i\0t\0!\0=\0N\0U\0L\0L\0\0\0"
	.section	.text.unlikely,"x"
LCOLDB17:
	.text
LHOTB17:
	.p2align 4,,15
	.globl	__ZN3stk6thread6atexitEPNS0_10ssthread_tEPFmPvES3_@12
	.def	__ZN3stk6thread6atexitEPNS0_10ssthread_tEPFmPvES3_@12;	.scl	2;	.type	32;	.endef
__ZN3stk6thread6atexitEPNS0_10ssthread_tEPFmPvES3_@12:
LFB714:
	.loc 1 207 0
	.cfi_startproc
LVL56:
	pushl	%ebp	 #
	.cfi_def_cfa_offset 8
	.cfi_offset 5, -8
	pushl	%edi	 #
	.cfi_def_cfa_offset 12
	.cfi_offset 7, -12
	pushl	%esi	 #
	.cfi_def_cfa_offset 16
	.cfi_offset 6, -16
	pushl	%ebx	 #
	.cfi_def_cfa_offset 20
	.cfi_offset 3, -20
	subl	$748, %esp	 #,
	.cfi_def_cfa_offset 768
	movl	768(%esp), %edi	 # a_thread, a_thread
	movl	772(%esp), %esi	 # a_onexit, a_onexit
	jmp	L111	 #
	.p2align 4,,10
L102:
LBB54:
	.loc 1 209 0 discriminator 2
	movl	$0, (%esp)	 #,
	movl	$0, 4(%esp)	 #,
	call	__ZN3stk4time7wait_usEy@8	 #
	.cfi_def_cfa_offset 760
LVL57:
	subl	$8, %esp	 #,
	.cfi_def_cfa_offset 768
L111:
	.loc 1 209 0
	movl	__ZZN3stk6thread6atexitEPNS0_10ssthread_tEPFmPvES3_E9__shared1, %eax	 # __shared1, D.29833
	movl	__ZZN3stk6thread6atexitEPNS0_10ssthread_tEPFmPvES3_E9__shared1+4, %edx	 # __shared1, D.29833
	movl	%edx, %ebx	 # D.29833, tmp104
	orl	%eax, %ebx	 # D.29833, tmp104
	jne	L102	 #,
	call	__ZN3stk3cpu5rdtscEv	 #
LVL58:
	movl	%eax, __ZZN3stk6thread6atexitEPNS0_10ssthread_tEPFmPvES3_E9__shared1	 # __unique1, __shared1
	movl	%edx, __ZZN3stk6thread6atexitEPNS0_10ssthread_tEPFmPvES3_E9__shared1+4	 # __unique1, __shared1
/APP
 # 209 "sthreads\stk_threads.cpp" 1
	mfence
 # 0 "" 2
/NO_APP
	movl	__ZZN3stk6thread6atexitEPNS0_10ssthread_tEPFmPvES3_E9__shared1, %ecx	 # __shared1, D.29833
	movl	__ZZN3stk6thread6atexitEPNS0_10ssthread_tEPFmPvES3_E9__shared1+4, %ebp	 # __shared1, D.29833
	movl	%ebp, %ebx	 # D.29833, tmp105
	orl	%ecx, %ebx	 # D.29833, tmp105
	je	L92	 #,
LVL59:
	.p2align 4,,10
L91:
	movl	__ZZN3stk6thread6atexitEPNS0_10ssthread_tEPFmPvES3_E9__shared1, %ecx	 # __shared1, D.29833
	movl	__ZZN3stk6thread6atexitEPNS0_10ssthread_tEPFmPvES3_E9__shared1+4, %ebp	 # __shared1, D.29833
	movl	%ecx, 504(%esp)	 # D.29833, %sfp
	movl	504(%esp), %ebx	 # %sfp, tmp98
	movl	%ebp, 508(%esp)	 # D.29833, %sfp
	xorl	%edx, %ebp	 # __unique1, tmp97
	xorl	%eax, %ebx	 # __unique1, tmp98
	orl	%ebx, %ebp	 # tmp98, tmp107
	je	L92	 #,
	.loc 1 209 0 is_stmt 0 discriminator 12
	movl	$0, (%esp)	 #,
	movl	$0, 4(%esp)	 #,
	movl	%eax, 504(%esp)	 # __unique1, %sfp
	movl	%edx, 508(%esp)	 # __unique1, %sfp
	call	__ZN3stk4time7wait_usEy@8	 #
	.cfi_def_cfa_offset 760
LVL60:
	movl	__ZZN3stk6thread6atexitEPNS0_10ssthread_tEPFmPvES3_E9__shared1, %edx	 # __shared1, D.29833
	movl	__ZZN3stk6thread6atexitEPNS0_10ssthread_tEPFmPvES3_E9__shared1+4, %eax	 # __shared1, D.29833
	subl	$8, %esp	 #,
	.cfi_def_cfa_offset 768
	movl	%eax, %ecx	 # D.29833, tmp108
	movl	504(%esp), %eax	 # %sfp, __unique1
	orl	%edx, %ecx	 # D.29833, tmp108
	movl	508(%esp), %edx	 # %sfp, __unique1
	jne	L91	 #,
L92:
	.loc 1 211 0 is_stmt 1
	testl	%esi, %esi	 # a_onexit
	je	L113	 #,
L95:
	.loc 1 212 0
	movl	%esi, 64(%edi)	 # a_onexit, a_thread_17(D)->onexit
	.loc 1 213 0
	movl	776(%esp), %esi	 # a_onexit_arg, a_onexit_arg
	.loc 1 217 0
	movl	$0, __ZZN3stk6thread6atexitEPNS0_10ssthread_tEPFmPvES3_E9__shared1	 #, __shared1
	movl	$0, __ZZN3stk6thread6atexitEPNS0_10ssthread_tEPFmPvES3_E9__shared1+4	 #, __shared1
	.loc 1 213 0
	movl	%esi, 68(%edi)	 # a_onexit_arg, a_thread_17(D)->D.28856.onexit_arg
LBE54:
	.loc 1 218 0
	addl	$748, %esp	 #,
	.cfi_remember_state
	.cfi_def_cfa_offset 20
	popl	%ebx	 #
	.cfi_restore 3
	.cfi_def_cfa_offset 16
	popl	%esi	 #
	.cfi_restore 6
	.cfi_def_cfa_offset 12
	popl	%edi	 #
	.cfi_restore 7
	.cfi_def_cfa_offset 8
	popl	%ebp	 #
	.cfi_restore 5
	.cfi_def_cfa_offset 4
	ret	$12	 #
	.p2align 4,,10
L113:
	.cfi_restore_state
LBB55:
	.loc 1 211 0 discriminator 2
	movl	$211, 8(%esp)	 #,
	movl	$LC15, 4(%esp)	 #,
	movl	$LC16, (%esp)	 #,
	call	__wassert	 #
LVL61:
	jmp	L95	 #
LBE55:
	.cfi_endproc
LFE714:
	.section	.text.unlikely,"x"
LCOLDE17:
	.text
LHOTE17:
.lcomm __ZZN3stk6thread6atexitEPNS0_10ssthread_tEPFmPvES3_E9__shared1,8,8
	.globl	__ZN3stk6thread15__barier_lockerE
	.bss
	.align 4
__ZN3stk6thread15__barier_lockerE:
	.space 4
	.globl	__ZN3stk6thread8__barierE
	.align 4
__ZN3stk6thread8__barierE:
	.space 4
	.text
Letext0:
	.section	.text.unlikely,"x"
Letext_cold0:
	.file 2 "C:/Qt/Qt5.5.0/Tools/mingw492_32/i686-w64-mingw32/include/_mingw.h"
	.file 3 "C:/Qt/Qt5.5.0/Tools/mingw492_32/i686-w64-mingw32/include/minwindef.h"
	.file 4 "C:/Qt/Qt5.5.0/Tools/mingw492_32/i686-w64-mingw32/include/winnt.h"
	.file 5 "C:/Qt/Qt5.5.0/Tools/mingw492_32/i686-w64-mingw32/include/stdint.h"
	.file 6 "C:/Qt/Qt5.5.0/Tools/mingw492_32/i686-w64-mingw32/include/stdio.h"
	.file 7 "sthreads/./.././time/stk_time.h"
	.file 8 "sthreads/stk_threads.h"
	.file 9 "sthreads/./../cpu/stk_cpu.h"
	.file 10 "<built-in>"
	.file 11 "C:/Qt/Qt5.5.0/Tools/mingw492_32/i686-w64-mingw32/include/c++/bits/exception_ptr.h"
	.file 12 "C:/Qt/Qt5.5.0/Tools/mingw492_32/i686-w64-mingw32/include/c++/i686-w64-mingw32/bits/c++config.h"
	.file 13 "C:/Qt/Qt5.5.0/Tools/mingw492_32/i686-w64-mingw32/include/assert.h"