	.file	"stk_file_ini.cpp"
 # GNU C++ (i686-posix-dwarf-rev1, Built by MinGW-W64 project) version 4.9.2 (i686-w64-mingw32)
 #	compiled by GNU C version 4.9.2, GMP version 6.0.0, MPFR version 3.1.2-p9, MPC version 1.0.2
 # warning: MPFR header version 3.1.2-p9 differs from library version 3.1.2-p10.
 # GGC heuristics: --param ggc-min-expand=100 --param ggc-min-heapsize=131072
 # options passed:  -fpreprocessed stk_file_ini.ii -malign-double
 # -momit-leaf-frame-pointer -m32 -mfpmath=sse -mpreferred-stack-boundary=8
 # -mmmx -msse -msse2 -mthreads -mtune=generic -march=i686
 # -auxbase-strip debug\stk_file_ini.o -g -g -O3 -Wno-write-strings
 # -Wno-multichar -Wno-unused-variable -Wno-unused-parameter
 # -Wno-unused-value -Wno-unused-label -Wno-unused-but-set-variable
 # -Wattributes -Winline -Wshadow -Wunknown-pragmas -Wall -Wextra
 # -std=gnu++11 -std=c++11 -fno-keep-inline-dllexport
 # -fno-use-linker-plugin -fverbose-asm -fstrict-aliasing -fwrapv
 # -funroll-loops -flto -fexceptions -frtti
 # options enabled:  -faggressive-loop-optimizations
 # -fasynchronous-unwind-tables -fauto-inc-dec -fbranch-count-reg
 # -fcaller-saves -fcombine-stack-adjustments -fcommon -fcompare-elim
 # -fcprop-registers -fcrossjumping -fcse-follow-jumps -fdefer-pop
 # -fdelete-null-pointer-checks -fdevirtualize -fdevirtualize-speculatively
 # -fdwarf2-cfi-asm -fearly-inlining -feliminate-unused-debug-types
 # -fexceptions -fexpensive-optimizations -fforward-propagate
 # -ffunction-cse -fgcse -fgcse-after-reload -fgcse-lm -fgnu-runtime
 # -fgnu-unique -fguess-branch-probability -fhoist-adjacent-loads -fident
 # -fif-conversion -fif-conversion2 -findirect-inlining -finline
 # -finline-atomics -finline-functions -finline-functions-called-once
 # -finline-small-functions -fipa-cp -fipa-cp-clone -fipa-profile
 # -fipa-pure-const -fipa-reference -fipa-sra -fira-hoist-pressure
 # -fira-share-save-slots -fira-share-spill-slots
 # -fisolate-erroneous-paths-dereference -fivopts -fkeep-static-consts
 # -fleading-underscore -fmath-errno -fmerge-constants
 # -fmerge-debug-strings -fmove-loop-invariants -fomit-frame-pointer
 # -foptimize-sibling-calls -foptimize-strlen -fpartial-inlining -fpeephole
 # -fpeephole2 -fpredictive-commoning -fprefetch-loop-arrays -free
 # -freg-struct-return -frename-registers -freorder-blocks
 # -freorder-blocks-and-partition -freorder-functions
 # -frerun-cse-after-loop -fsched-critical-path-heuristic
 # -fsched-dep-count-heuristic -fsched-group-heuristic -fsched-interblock
 # -fsched-last-insn-heuristic -fsched-rank-heuristic -fsched-spec
 # -fsched-spec-insn-heuristic -fsched-stalled-insns-dep -fschedule-insns2
 # -fset-stack-executable -fshow-column -fshrink-wrap -fsigned-zeros
 # -fsplit-ivs-in-unroller -fsplit-wide-types -fstrict-aliasing
 # -fstrict-overflow -fstrict-volatile-bitfields -fsync-libcalls
 # -fthread-jumps -ftoplevel-reorder -ftrapping-math -ftree-bit-ccp
 # -ftree-builtin-call-dce -ftree-ccp -ftree-ch -ftree-coalesce-vars
 # -ftree-copy-prop -ftree-copyrename -ftree-cselim -ftree-dce
 # -ftree-dominator-opts -ftree-dse -ftree-forwprop -ftree-fre
 # -ftree-loop-distribute-patterns -ftree-loop-if-convert -ftree-loop-im
 # -ftree-loop-ivcanon -ftree-loop-optimize -ftree-loop-vectorize
 # -ftree-parallelize-loops= -ftree-partial-pre -ftree-phiprop -ftree-pre
 # -ftree-pta -ftree-reassoc -ftree-scev-cprop -ftree-sink
 # -ftree-slp-vectorize -ftree-slsr -ftree-sra -ftree-switch-conversion
 # -ftree-tail-merge -ftree-ter -ftree-vrp -funit-at-a-time -funroll-loops
 # -funswitch-loops -funwind-tables -fvar-tracking
 # -fvar-tracking-assignments -fverbose-asm -fweb -fwrapv
 # -fzero-initialized-in-bss -m32 -m80387 -m96bit-long-double
 # -maccumulate-outgoing-args -malign-double -malign-stringops
 # -mavx256-split-unaligned-load -mavx256-split-unaligned-store
 # -mfancy-math-387 -mfp-ret-in-387 -mieee-fp -mlong-double-80 -mmmx
 # -mms-bitfields -mno-red-zone -mno-sse4 -mpush-args -msahf -msse -msse2
 # -mstack-arg-probe -mvzeroupper

	.text
Ltext0:
	.section	.gnu.lto_.profile.f43a1f4e,"dr0"
	.ascii "x\234cf```c\200\0F\206+\314\367\31\1\5\272\1\302"
	.text
	.section	.gnu.lto_.jmpfuncs.f43a1f4e,"dr0"
	.ascii "x\234\225T[H\24Q\30>\377\231]\35\327\335\326./\371"
	.ascii "2\247\7\351\245\13F\365\340KQi\364\236\364<\351,\14\273{FvG\6\2a\241-\352\305\300\227\254\245B\2\265\213\332]\255\\\273#\24\330\346{-R\320K\226I\244\330J\377"
	.ascii "93#%\273P\207\201"
	.ascii "3\363\375\377w\371g\16\243\220\362kP!\344\35\356\224T\201\\;\1\250B\202@\347)\\\236\351\36\246]\313\231"
	.ascii "3\31u\211\222\22\305>\350\207.B\25\7i\212\203\0\370\227\213\221?kT\354\340\355\242$4\347\177\315\24\2\32\\\312\364\262%\12\4\221\334\267\271\323\302\245W\270P\30\0\15\5\7\321Fq\202\36iv\256\373gD\333\355\222\24A\352/\276\311\6}R\0\256I\322u\237\24\364\307\23\344\17\37\247\13\352g\272D\21\205\33P\357Jf'\26KA-\346JV\11\311\257\343\247\316\327\372\222\325pSJ\16\371\222\362\205\214L\367-G\205\224:\5\4\206Q\313\35\357/\233\32l\36\361m.\274\355\31\15k\31o\336\220\360\371>\365~H\365}j\341\226\364\271\355\373T\273Sc_\317\312\247lH\10\206"
	.ascii "3\270T\2w\204(\26\12\27\373O\312\24\21\14q\327\3W\355\327\241\332=\17\34\271\362c\5d\247B\340\376\332\316\10v>X\13F\21\34E0(\320\345s\335}\252\226\363\322\327\311\257uu!W\343\247_\17c2\375"
	.ascii "8\246wC\217\225\26\363\252V\360\30\33\4c\240xv2\352"
	.ascii "36\302C\311x$\216\21\26_\317..\204\205\357\246:\2\217\321\327{\323\345\216\336\204p\251X\315c5\340\35b\357\353\227\355\25\307u\22{\377q\300'2\356\323\377\30\360\231d<\367\6,\26\363_j\345\200\307\11\274\250<\240\210\365\262\342\200\242\372JTw\35Kw\230FJO\262\35&7Y\353\321\226\306\275l;;\221"
	.ascii "4\15\316\342V\273\345\350\334"
	.ascii "4\230\303\270e\353"
	.ascii "67\343\235\244\261\305J\261N\36\347\226\303Y\312\320\323\26G\306\21\326\246\363\255"
	.ascii "6\263:\220(\265bf\302\330\267\205"
	.ascii "5\244\311\346\325gf[\26K'\365D\302\255\324\37\254H\332s\250\371@\353\341&\274mb\315\334"
	.ascii "6R,\326\311\333l\323\342\2\333\337\320\316\22&7\266\261\30\246\301\7\333L\32!\361\347\370\15\332\26bp"
	.text
	.section	.gnu.lto_.inline.f43a1f4e,"dr0"
	.ascii "x\234cf\300\16\230\31!4\23\3\313~\306\365L\214\14L\367\30_\\\20c`[ \317\4\26\347f``d`\346\1\262&\370M\360\3s\321)\270,\234\301\302\313\210\306\0K1 hv\1\6\6V\220\304\4?\6\6dI\210e\214 \255`\303\340\222\234B\14\14\354 \325 \300\306\17\324\316\0\342A]\1V\6\321\312\300\302\240 \13\264V\352A\26\232"
	.ascii "7\360\352b\0\0\226+ \263"
	.text
	.section	.gnu.lto_.pureconst.f43a1f4e,"dr0"
	.ascii "x\234cf```e\200\0&\206(\226H\0\1\376\0\302"
	.text
	.section	.gnu.lto__ZN3stk4file30get_wchar_value_at_ini_sectionEPwS1_S1_S1_mS1_.f43a1f4e,"dr0"
	.ascii "x\234\215YiXTG\326\256\252\333+t\3.(\266B\267 \"\212(\30\215\232I\306\230\214Y&\311\230\230\311d1c\210\302#\21\33\242\370\370L\276\317oZ@\\\342\26u\24\27\\\306%$\356\373\256\355\22"
	.ascii "5\32"
	.ascii "5\356\33q\7M\334m#\240\"\337"
	.ascii "9\247n7\227\246q\206\37\345\255\252s\336:\365\326{\316\255\333*\254\366_\276`lg\24cC8c\274\3\343b\342!\306\206\233\204P\216"
	.ascii "7b\256 \303\226\347\231\313\242\10\235\246\247\23\311\214\215"
	.ascii "2\351\245\245\236\33\344\203A\30\213\203\301\310\264f'\3+#7\311q\223"
	.ascii "0?4\302x\320\214=8n\346Ir<H\4o\211\202q\313\361v0\34\354\35\266\10\353\264"
	.ascii "0\30\16\251x\21\206\255\336\341\20\21\266\322\16\303\241\27\22a8\224'\342"
	.ascii "0\17\363N\327\23\365G\305\301t\23l-\365E\203\273\341\320k8\267"
	.ascii "3\364\32\210p\232kHs\15y\270t\11\27\215hSMhS\215Dc2\212 \243\306<B\32E\360\266\362\241\211\260\321|,\315\333DSZ\240\31-\320TD\322\\3\232k\306#\245K\244\210\242a;\15Gy\221\354\302A\353\306\320\272\16\321\234\214\242\311\250"
	.ascii "9\217\226F\321^\353\30\321b\211\300u\257\36@\366Z\360vr<V\264$\277\4\362k)\342(\236V\24O\234h\235\207\214\267\32\273\27}Z\251\335x\331\215\347\255%Dk\321\206\240\23$t\33/t\202w\355\266\222\345\227\23E=2\11j\207\366\226v\242\375&88K\322I8\270\240\366\336#H\342\34\37X2\343\354\237B\321\351\15F\223"
	.ascii "9(\330b\15\11\15\253W\277A\303\360F\215#\232\330\232"
	.ascii "6\213\214\262;\232G\307\264\210m\31\327*\276u\233\204\266\211\355\332'%\363\177\212D\251\310_\305=\301"
	.ascii "7.{p0\370\272\250\20\314\301\240\273i\322\276\2\3v\271\16\273\213\26\334\34a\214[\350r\345\334=z\305"
	.ascii "9q\312\\\230\21\314#\30_\304m\374[n\3\30^\304\343\300\364\362\325]\27\254J$G\267\251O\226\34\345\261\363\301\355\342\254\263\371&\327\353\25B\341\337qE\353\10C\214\177\317c\301|\362\206\331\243C\224"
	.ascii "8r]\362\343\370\35\241\344\352>\223\253#\307\305\1\34\227\220\343\315"
	.ascii "9\323\207\207*\355\310\361\376\362\5'\254r\315\302\342nn\35z.\15\340\271\214<\267\237\276\272\330\252t!\317\5\233&]\17\222K\236\235\353\352F\236\313\3x\256 \317\363\205\253\376O\351N\216c\326\237\233\37,\35\37IG\301W\372;Bg\25"
	.ascii "9\216\30"
	.ascii "3\341\226Qy\213<\13\227O<\245\356r\266\272\313\325\1V\\\303c\321\372^^\345\251`C\236\313\345\12C\356\201\362\265\334\0e\304Z)X%L\13\276\374\372\232u\241\312\307\204\355.\271p\330\20"
	.ascii "3\17\211(Z\367\265\311\265\317\225w\261\252\312^!t|]\315"
	.ascii "5\344\37_\317c\300m\325\244\231\245f\245?A\334\32\273h\266^B,[\325\315\235"
	.ascii "7\327\365\264\252\212W\10=\337\20\20a#!<\30\271\374\234Qq\22\302\215C\277\25\233%\302\346\237"
	.ascii "5\10\6\276) \302fB\230}\275\30\26\310\"\204c\217&-V\10\301\275\14\310\325 l\11\210\260\225\20\212\267\336\333\35\244\14\"\204\35\277^\276'w\341\276U\23a[@\204\355\204\260x\375\361ez%\233\20\216\254Z9\32w\341\316q?\255\211\340\16\210\260\203\20\216\376\360\240\251"
	.ascii "2\224\0r\212\36~-ip\217\311\325\371N\302\300w\6\364\337E\376"
	.ascii "7oU\34"
	.ascii "7)\377 \200\333\227"
	.ascii "6\335"
	.ascii "3I\36\267\254\323\360\250\360\335\1\21~ \204\242\221\267NZ\225\34N\20;'\356z\231\20\346n\325\356A\341{\2\"\354%\204\11\227\366\317"
	.ascii "5)\243$\302\301\221\33\13\202e\20\333\16)\5\336]\30\371>\211\220`\343\361>\377\37\345"
	.ascii "9\224\272\1~\274\364\377\372~\356d\253z\224\263\\\335\206{C0\362\375\1\0\16\360\230\345\365\335\256\252\252\325\23v<4\0\15(PA\22Q\210\"\35-\242\247\326@\366FjM\220"
	.ascii "4F36A\330\204Ac\252\17\215\271!4A\341\320\4"
	.ascii "7\301.&\227"
	.ascii "9\222cv\331I\273\321\244\236\30R@\13\230"
	.ascii "4\304b\23Gl\306\23#\11\350\222\10\215\245=N%az&\343S\7|z\16':\341\232\317\343Sghx\27l\272\342\354\13"
	.ascii "8\366\7\234}\21\233\227\260\351\306\261\364uG\324Whg\257\342h\17z|\15\355_G\367"
	.ascii "7\260y\23"
	.ascii "1\376\214co\241\315\333\330\274\203\315_p\375\236\304\302\273\264\377\367\210\235^\4\362>z}\300\261f}H\3\37\321\344\307\210\363\11\302\366\306\346S\264\372;\216\365A\304\317\260I\301\246/\371\364\303\307Tl\322\260\351\317\261\354~\201A\17\240\371\14\302\34H!8)\204L\264\313\302\346Kl\6q,\267\354"
	.ascii "7!\364\214\335\20T\272\30S\330\35\301\231x@}v\25\332[\26V\2\275[\26\345,\317y8f\317\252\216\240\232\177O>\223gRfJ\11\315\275\264p\245NJ\350\261&\221t\374\247@\"\256Y3+\205\"\13%?\310cPLx\346\30?\236:\236"
	.ascii "9\346-\356\4\317\33O\33\367\203\273\241:\13!\37\342\206"
	.ascii "2\21\206\365\351\330\370eb\330c\327(\227\251B@\365\325\321R\27\256\36>b\302w\246\354\26\15\317\233\305\13\371\314\341.\227{\261\2\32\344\207\371"
	.ascii "0\376"
	.ascii "3\6\307\217\300\4;\301\363N+\325\240\303\27m\36kD\367\20"
	.ascii "08\252\356\241\4\312\377/\212R\314\363ZI\313\372\376\313\207z\4\336$\217\361a\354?Gf\245\356\243\371\377\262\312\300\300(\214\37\207\260N\340z85v\323\36"
	.ascii "3\370\243"
	.ascii "7?\11Q\342\252\214\237\342\303*D=\214\370\214\32q}\36\343\215P\307\306p\210P\235h\350\37E}\17\36"
	.ascii "0?\15\1V\210\6\245\30m\11\350\0|\340\220\217\32\244W882\350O\242\5\1b\357\332\207E\6/D\303J!O\323\307QC\352\316\335R\374\13\367\355$\230\237\201\235\234%\202\317\301"
	.ascii "0\240"
	.ascii "2/q\265\270\11\367\0\263\214\27?\213"
	.ascii "6?\236~\251\213\247\363>\236. O\215\210\25\3\312\370$\317q\25\6\341\34j\16O\342\326\250\35f\273(t\25"
	.ascii "8*DcD\232\\\270\364'\23 \25 V\4\277\310\355\20\326%\10\13}/\204\220\257|3\37\231\261(7\224\364\5\265\360"
	.ascii "2\4\202\26G\32h,J\257\315^H\267"
	.ascii "6\323`\204\366<\311?\343\333\225\216_!f\256J\350"
	.ascii "0\357\373>\240Q\11\30\241<s\277\217S\317#P\230"
	.ascii "0|z\337\264\216\270`\23"
	.ascii "3\335\32"
	.ascii "7<(\242\363\230\210V&^\12\214]S\31\33w\363\360\25\356\5\320\361\353\230\1\214\377\12\26\227}Z7\262"
	.ascii "2N\234\235h\254\331U@\206~\203\10\321\305\244\322,\367S\6\352B\25\315\273c\224\272j\342/%[%\12P+%[\0)\231\371\15\10\354&qq\13#=\313s'\251R\265\1*oa\243u.\311u\352\\\304\37\365\266\17\365\16\11\324\6\2\215\10\250\317\246\36\24!\277+\365\371x\302\370y&\373\2.u\323\14\207f\316\367\314"
	.ascii "4{Y\211\344\367\270]J\360>\37VFw\301\15\225\345\333L\366\263\252O\24\372|{q\364\366P\257\217\235{\274"
	.ascii ">\17\370"
	.ascii "0\230=p\271\334cAF\314@\346\357\34\366i\253\20\16\210p\206\353\364\201\13\\\356\336\356\37hs\17\26u\376\20\2-\23\221"
	.ascii "0;\351iI^\20\302\30\240\350\272L\214\227q\233V\275@\15/\247!_Y\212\6\200\12\32Z>\347\367\247\234\254\340\35\377\250\246\25V\221\307"
	.ascii "5\207"
	.ascii "0\205\237p\10"
	.ascii "3\6"
	.ascii "4-H3\33Q\5v\251\336\355\365\252\203~\232{l\35!\353\253\340/\224\361J)\273R\316\353\226\267\277\240\237\326-\350*)h\227\30f\250\13\220\17\27\303\214c\177x$@\267f\366-\26\315\21\356{\345\312\263\4\220#H\0\323\177\236\264\336b/\346\232\302q\177\337\371\245\232\25r\205z\230y\2\4\20\211'\207\371\21\304\366\4c~\270\313V\320\11\252"
	.ascii "7l\237\372\361\275"
	.ascii "6\202t8\302uB=\343h\377XZx\310._\340\31\333\265\7\20\13\303#Q'-}\7\260\25\17 \32"
	.ascii "3fV~\261\232\206"
	.ascii "1\22t\306\251\222\7\12\255\12\257\352Q\302\346\363\331\216>1T\320\12)\315\350"
	.ascii "5\214qa\342\345\227\316\267J\234\26`\205\311Vx}\225\216p@K\243\245\325\324\374\233j\202\306\202\235v\261"
	.ascii "8Xl\14m1\317"
	.ascii "5S\265\211\363\337b+\17T\37\306\277\246-\306V\210x_l?`lq\350\355~<\327\"\335\343\353p\37+Ok\371\341y\217I\353q\373 \300q\310O5\336^\304\303n\216\273\362\177iD^\225}\234\"\320x!\313\373Lyhp\11\241!P\365\301\334*U\325"
	.ascii "1D\241\254\234\301l\207\216\344\364\315\357\317\224\323\4\31`\336\326\362J\275\275L\225Sk\34\272\263q\304\264`\257\234\332\360\211^9}SCN\26\226o\204u\12\\\345G\333\312(\22\374WJ\360@Qf|\222\24\13P'\317~\344\367"
	.ascii "7*\314\303\376\247B\264\245k\26aO\26\303\264\33O\4\267)HV;\231\276A\352\12\325W\15+\333,\263f\372Z\353\263\266\371/\271\315\313\267\307\227Y\355\337\250\257\333\366\364K\306\305\237\362\364\336m&\361\251\336mN\253\261\315\20v@OY3\347;_\326\250B\313y\250\206\225\10hk\313\347\334\302+\2|\304X`\247X\213`\365\2!owgr5\246\367\247x\334\264KKU%\324\266\351\276\243\13eK\24\5\312P\17\\ \244H_\312"
	.ascii "3P\371![\366\366-\345\3\361\330Cn^3\226r'=\236"
	.ascii "6\203K\30\233#\210\206\225\33\237I\303\14I\303\275'\307\216\350\354\273T\32\222\351\355q\367v\276\360\322\320\201\317\364\322"
	.ascii "0\253\6\15\365\330\325\3L\241\344*]\250\336\357\332\227\301'\343(\231s\5j6%\201\240aF\246\341n\325"
	.ascii "0\271\14J\275\237a\7\222C\262\226\306\347j\321\330A\245\261P\24\312\267\371\245f\352K\326k\207Wj\33\331&\251\266\263\5\276N\237C\363G\371\267\327\232%v\247"
	.ascii "2H&8\210\237rC\344\200\36\306T\332\353\263\373\261\362"
	.ascii "3\343\341Z\275\234}\276\316P\346\250'z:w\231Rm{h\363\212+\364\233\231\305\312\370\\\337\201"
	.ascii "6`\207\202\24\252[\307U\340\316HE\274,S*\23]`T[\244"
	.ascii "8\24\251y5\311\352Jdu\321\222\365B\255\10\273\252\21\376[\222\225\273bd\261\352\376\7i\236s`\367"
	.ascii "1AA\6"
	.ascii "1>_\256\260B-\313/J\23_\2Z\0h\201"
	.ascii "4y\240\242\274D@/j\257\376/Q)\222\337l\15\331\1\207R\2\27m \223\24__\332\230\274"
	.ascii "6\245\334\244}\371\33\241\36.\24\266\6\33\254h\320\20\351j\304\236\"]9w\357.\277\251\4"
	.ascii "8\350f5\16z\21\354\223b\4\371\27\25\234\265\313\345\272\373'\300s\36x\303"
	.ascii "2\376-\25!\320f\267\12\321Q\36`#\325\243\272\250"
	.ascii "4f\333)\331]\367\252\213\355B\212\276DD`p\362zy\0\353\266\201\352\366\261\364\332\357\250\223SUz^\361\352\336[\360"
	.ascii "7\243\343+H\5\314\32\33q\4o<v\\\24\300"
	.ascii "7a%n\246\220B77\365I\324\250\6fc\253\35R\242O\327\251J\372\270N\211\26\325\222\350\307\32M6e\243\315"
	.ascii "55\371ImM\366\206Q\177\21~J\"\354\255\25\341\337k\305\360\251\32\303w\265D\330\7\314\375U\367\31\216\371\311,\205L?\323\312,E#\263f\354vS\220Y$\22\242\225\231\271Zff\244\265\251\324U3\334r\24\233\36F\272Z\261\345\306\177\326\325\367^]\341\371z\2\235\357"
	.ascii "45\256\276\1\317\267/\321l\227k\2\1\267\257\251<\367\223%\356\322\270\337W\323\365\323\342`|qMBR\245I\301\251\34\272\324X^d|\211JO~\13i\222F@\251Z~\322|\374\224@\271>\243\223{\335\376_\354u\251"
	.ascii "6\207\312/DI\274/\352\310\241e\336\34\352\357\237C_T\347Ps\266TP\16m\347\336+\215/\207\242"
	.ascii "18\231C?\"U:\342\370\233|km\222\17\25$K\350\1H\362h\177\222\7\340A\353 G\34\224D\315\237\334i\14\370"
	.ascii "1\314\35,I/-\350-\335"
	.ascii "3%\243\356\273\356GT]-\237"
	.ascii "0\276\274&\351Y\322\344\334\324\31kd\15\377\224\361\25~\254\177IHYZ\326\277\324\260\336\202%\340[\270h\303\225:\356\360\235<p\377f|%1\370A\231\30T!\236'\317X\266\267\15\206\\\236\177hzO\11\374\252\232\372$o\365u\365\252f\261\226\354J\270,\6'\247\177 \247_\253\263\30\254\362\25\203E*\324k\232b\20\307\306\32j\26\203\327k\27\203"
	.ascii "7`\324\277\30\274I\305\340\15m1\370s\255\30\336TcX]\253\30\274\5\346\376\305\340m\34\363+\6\357\220\351\333Z\332\337\321"
	.ascii "0\321\212\25\206\313\360wG\312\331\277\310\317\202\13"
	.ascii "3+\26\230\351\263@\375\304[#\257\314\325,\200\241PKJ<\373\256\1\224\224\326H\253\266\244\4U\227\224 \24Y\253\202.8\22O\357\255"
	.ascii "8\\\277\15;\216\227\242\234mc\316O\357,\235\336\207\344BV\356^|\310\353L\277\367Ub\326\326x\205];\375L\355\254\363j'\36\265\203\211\263\331/q0\244\4\346i-)94C\375D\371"
	.ascii "0`\6}(\363\354\250M\32}\204\227"
	.ascii "9\255\321.4\372\210"
	.ascii "0\333\262\253\373\31^L{\201[\302\224\216\360\16\213X\262\24\13`\324\202P\310\305\350)I\245\374=\260NX\262"
	.ascii "6\2#\211\230u\320\200\377FM\11\305\177\242\363`\276'\250:\1nf\372\10l\242\240\321E\363R\376.(\35\207\15"
	.ascii "8l\304ac4\207"
	.ascii "5\23\331\304CL\373\276"
	.ascii "52M\341\320\253\35\12RQ;\264-!oyw\324"
	.ascii "3\24\370"
	.ascii "1IG\10O=B\1\276W[XU)\23\31\330y\17;\220l\3\261\323\23;\306"
	.ascii "2\341\304\316\273m1\212vx#\307\357\275"
	.ascii "3\371\215\2\236Mg\17|p1\276^~\342T\300\35\15\255\317\345G\6\264\356\352\241\213\325\6\262\216\253\20/\320\227\350"
	.ascii "1\376,\343\215\262\350\242"
	.ascii "1\211s\363"
	.ascii "8\241^\17"
	.ascii "4\211\320^\375\15\241\250\374\306\365g\212hS\255\2\224$\177d\337y\232\12\200\372\37V\307\367?\331\255\357\264\306"
	.ascii "5\12\377k\13\230\205\273\362y><\214~\256!\257d\306\224\323"
	.ascii "8\202\277\331\303&\212\12\366\237\10\274\215p\17\376\326\314\267\210\377\376\347\325\255\242\216\237W\267"
	.ascii "\11\357\317\253\333\5\375\274z\225\273\302\230\240,\346\260\17x\262\245\245g\244\366Nw\246\367\36\234=\240\17v\372@'\261oV\26"
	.ascii "3gd\365J\355\233\235\236\351"
	.ascii "4fd}\220\222"
	.ascii "1$\25F\372\245\246\245\14\311\310"
	.ascii "6edu\37\222\226\226:\310\334o(<\364J\377*\325:\370\253\236)\331\375_"
	.ascii "v\366\353\1(\326>\22\314\231"
	.ascii "20\265O\37}\177\354\360t\376"
	.ascii "9O\25\237\17\342\31\340\377"
	.ascii "9\371\353"
	.ascii "3`\271\24}Z\346\20g?\13\265\203\345\232&\25\240O\307W\377\324\375\257\257uu\304\16\356\352\370\223"
	.ascii "3;u\220#m\210\223Lp\254[l?\7@\244&8\322"
	.ascii "2\7"
	.ascii "9\240\223\235>0\25O\216\331^Iq\306e;2\263R\235\216DX\304\201p\177l\16>\254\211\257\357\310\316\314t\14\36\230\222\221!g\222z\0\312\20\347\0g\346P\247cPj\312\340L\247\243\255\343\15G\337:\261\222\377"
	.ascii "68+=uP\312@9\361\327\367{$u\2\227\257\6\246\203\355\200\314~\231CS\234\351\251\216\241\16gfvJ\266"
	.ascii "3}\300\20\366\377\236\7/\276"
	.text
	.section	.gnu.lto__Z24get_value_at_ini_sectionPwS_S_S_mS_.f43a1f4e,"dr0"
	.ascii "x\234\225UmlSU\30>\357\271\267\267\367nt\33\240\3\247fM\346"
	.ascii "2\177\30\371a\210\221\304\210D\324\37\376"
	.ascii "0!\372\303\220,\223u\241\332\225\311\266\230\220Tn\267\"\37\301"
	.ascii "1\207\37 \24\207\203Q\331`\362\271"
	.ascii "1\346VDa 0\7ll|m@7\6B\370(\1+\324\371\276\347\266u\224Vc\223\336{\337s\336\347}\237\363\234\347\334+\261G\177\305\370\377Ke\314\207wHa\300\253\217"
	.ascii "1\346V9\227Nf2=Ei{\221\351\343$.\217\211d\256"
	.ascii "1\266D5\31\231&P\214\7\205\233\203\31\230\244z_\306$3\250\306\260\12@\17Lc\300\26rI6)fU\203\205p\205\337\342\260g\353\235\243\251#<\304\231\225a\330Z\323\271J\241\20d\12\353"
	.ascii "7\\[d\316\333\250\353\25"
	.ascii "7o77Z\252\277\250\305)\316\202\234A=d\301&\310\"\322>\310\303\334\213\201\375\3\26\351i \334W\17\32\217Cn\35\342\6\333+\347T\353\4\223\340{\220\306\"q\210\301f\310\305\374\225-\353\226\246Iy\2\333x\250j_\272\300\372[*\345"
	.ascii "7\11\330\220\0\330(\200\327\276]\355N\227\246\10\340\355\246\15=\26\243i\307\376\305\252.\240[\22@\267\12hG_\240\301\"\275$\240\33ZkFR\214\236\207k\365\351"
	.ascii "2!\233\22 \177\20\310\363\336\355\237H3\4pY\363\231\272T\3x\325\0r\330\26\17\304`\273\0.Z\266\342\272YzK \275M\325\247\"\313\254\212,sG\202\216;!\227\262oy\302\247R\25\217\256\353\31\244>\212\276\13\24`L\12s\26\306i\16M#;w\247K\357\211\332\376\241\201.%g=)q\370\322n@\375+\252\365\321\321W \304e\330\375p\27\343\7\315\220\323"
	.ascii "4\301\217I;\2\237\373^\200\361 \206d$aR\360\242\250x1kxQ-\24\246\321\205]\345 \261\337"
	.ascii "9P\1\306\331\15|\202;\234\350\5\360B\246\33\302\10\357\322i\250\270\273\254wm\257\202\354\276[\331\357Q\245\271\202i\355\205\215\333d\301\324\177\277R\356\324=\203\243\243\331\304\262%\21\313\207\205\10\363\310\352a\17\344\20[!\12Ri\5\345\36\227"
	.ascii "1y\335\211\252\255\334u__\242\253!\256\205\271,J\14\4\272\272U\362\270\21\372\334\236\265\340\205"
	.ascii "5n]\367"
	.ascii "7H\270^\330\13.h\243\246\360#N\260\36\360\364I\377\24u\327\357]n&x\12&\264G\270\15\341^\235\314\224\316\202\347Y#S\211o\237\32$\235\240\3\\\354\277\231i\"\374\263\356K\213A\14\223\306\201\37i\355\243~4\265\274\365\200\206xB\303O\310\222\272"
	.ascii "2\330\17\256\20\267\20\343\376\10c\5r\242\14evHA\206\221\11"
	.ascii "5\236EZ\220v\16~F\202!\236>Ll\207\270\211"
	.ascii "0\270y\307\25\3\245!\220a\\#\32b\211\203\273\356\372\224h\11\334\22c\227b\32e\210\260\266\355\354"
	.ascii "9\210\255D\205_p%\7\204\300\7q\30\253\262\250p\217h3>\210\312"
	.ascii "2\350\374"
	.ascii "7\331\342t:\224L\247\303"
	.ascii "1\235~%\235&\10U\24\341\317^\250\320\275)4If\242\255\270\276d\237\226\315\275\372*k\210O\244R+\275[\216\250Xj\25\25{\14\216@6\362:\212\274\10;\220&\260\315\2\333\375M}e\272"
	.ascii "0\30\236\207c\310\204"
	.ascii "2\272'\216\311\30\276\274n\243x\315\232J\251t\360\301\247\375\261e\311\320%\244\371\315(\235\301\"\230\204I\335\230D\376\254\334\234\27\331\220D4q\270\257\363\353\251\324\360qM\274\346[\356\370\304\206TS\226\11\216\243d'\"\222}v\255\353\22D\13\310p\222\216\0\203\36\314"
	.ascii "8\26"
	.ascii "3\273\231\5"
	.ascii "3\204f=\223\306\254*\241B\275\310\220 jTgcA\367\320_\344\243\365"
	.ascii "7\314\206\263,\361f\312\14\223\5\307\232)3\201\231\24"
	.ascii "8\205\314\372\204\30\375D\365"
	.ascii "4T\326D\314\232\206U\341\231,\321\347\202\321'i\223\370\252\247cU\317\10\213\246\241E''t\350\244 \331\20\316\32\16\275\277\242j\275\232\375\221\341\233\311"
	.ascii "4\262\246.\270F\213\252\362\4\234\203l\303\203\347\301uO\274\271[\302\177\264\253\331\233\300\300d\21f\323\340\322\216\364(\346I\30\210b\6\301\205\263\203\203\355\327\305"
	.ascii "7[y\237\301\5\310Bv!\376\24;\17n\377\352\305\343\"\313\214\275K\350P_\244\225\14\3$\367G\274#.%wD\300p\304\20\270\224d\5a\30\\\346\306=\276)\270\361\370.\223\372\300\235\301\350\313\200\347\334w\363\203d'\335\204\310\313\377\343\244\217$;\351Wb'\375\252q\322\3\200\37N\20\37& #\242(YEv\207m\266\335i\237]Z\366a>\5\371\30<?\247\244\204i\216\222Y\266"
	.ascii "9e\366yN\263\243\344\335\2G\271\15G\12mE\5\345\216"
	.ascii "2\325Q2\243\274\250\310"
	.ascii "6_+\374\30\37f\331\27\330,\245\13\336.(\233\373\252\263\360u\254b\311"
	.ascii "7\212"
	.ascii "9\13\212m\371\371j$\312\237\372\332\314\31\357\274"
	.ascii "1\315\232[:\315:\323Yf\233o-*w\212\36"
	.ascii "46=\267\320\352\260;m\317Y\213\346\315\267bPf/\266\321\7\206\375\15\214\223a\33"
	.text
	.section	.gnu.lto_.symbol_nodes.f43a1f4e,"dr0"
	.ascii "x\234U\216\275J\3A\24\205\317\356\235\33w\263\331\30\177J\353\274\225\317r\23\211"
	.ascii "6B\20\213 \26f5\243\304\237$&\240O\20\305*\330\30\320F\204!(\10\12ZY9\273k`\234\346\234\357\314\231\341\20\0\345#?~\302\2\354L\0\21"
	.ascii "4\223\0\334f$\276\20\37\263\237i\227)U\377\210\305\373W<d/+\\\261\312\364\232"
	.ascii "9Uo\304\342\347E\324j\1\274\1\13\271<dQ._\262\260\313}\226\202\313\247,\13.\367X\2\227/XB\227\317Y\212.\237\261D.\237\260\224\\\326,\261\313\35\226\262\303\204U\30]%\254@\367b\302"
	.ascii "2\32\267\17\36!Fc\373\275]!,A\347\306&\223Y\335^U0n\336\34\330d\21z\367\317\230\334\330N\353y\323v\312\320\255\331^\226\230\351w=\373\320\354\177lXS\202\236}>Qj\314\327\353:!\204\371\271\247T\307\235\307\2!\202\356\277\334\331\267E\214\347\306\344&\204\36\274\255\21\2\350\221G\312N\357VI\331\351\303\230\224\235\276"
	.ascii "5\265\351|\272\12`\"\374\2X\336\216*"
	.text
	.section	.gnu.lto_.refs.f43a1f4e,"dr0"
	.ascii "x\234%\301\261\21\300 \20\3A\235\236\267H\31\2\332p\313\356\324\1\273%\351\325\25\11L\341\230\251Z\324"
	.ascii "6\37\31j\334\305\23\367T\26\331\356\243\37,M\1\261"
	.text
	.section	.gnu.lto_.decls.f43a1f4e,"dr0"
	.ascii "x\234\255Z{X\24G\266\237\352\32`\30\6H\214\331\344r\37qM>6OM\214\311M\356\227\233`\224\215z\375\224U\223|\361\313\367\315\22\234(w\21]\300\230\354\375#\315Cy\210\12\242\210\240"
	.ascii "2* \362\362\1\362\20\301\341%\10\12(\310CDF\4\5\5\31\4\2\202\302=U\325=3\15\303\256k\322r\354\256\352sN\375\316\243NU5`\231L\326\305\311d\23p!g\231l\265B&\303\320\267\2\350E\240d\240,\240"
	.ascii "3@g\201\362\201\372\201\206\201F\200\26\3\215\1!$\223q@6\360\\\5\364\257\360\374\32\320\233@o\1\315\1\232\13\264T\306.G\240\317\240\375"
	.ascii "9\320b 7\240o\200\334\201\326\1m\2\372?\240m@;\201\216\2%\1\235\6\312\1\262\6\371<\270\347\3\25\2\25\1\225\0\225!\231\344\"c|\2w\7 \225\200\215\340\272\0T'cx+\341"
	.ascii "9M\306\260\315\6\372\24h\26b\266?\17t\11\236g\22?\300\375"
	.ascii "2P:\320\177C\273\32\356\213\220\311\366\345\320\267\0\250\306\202\335\177\1\252E\314/\361@W\20\363[\30b>\274\12\367@d\362k\35<\327#\346\353-\310\344{1\26\327\240O\3\324@\306\5j\4\372\26\250\11h\265\340\3\7\301\376\34\301oI\202_\217\12>\335&\370x\235\340\177w!\6$\36V2\223_\233\201\332\20\363\267\371Eb\367\357\323\370v\262?\177k_\222\313Z\300"
	.ascii "0\331>\21\277\230\17z\240v!W\314\257~\16\345e\14^\266\353\342\220\203r\26i\236\335]\21c\15M\225RN\232\201\271\241\251\12U\30\317\7\220\37\333\12\7"
	.ascii "4S\211\222\220\23:\206\234\0j2\"V\323;0W\244\36\374"
	.ascii "3\6\350\375\234\274\357\312\343<{\344\344\244t\216\341C\370\221WP\32R\312\310\243\256kb\342\347\11v\355\262\241\335!<\\\372H\36\277,Co;\241"
	.ascii "7\234d(\35"
	.ascii "9\323W2\224\12c\245\300X\11\300\23\21\314\177.#\375\350"
	.ascii "8\302R+\342\366e\364Y)\5M!\177W\23p\17\304\15\24"
	.ascii "8R\233#0i\37\313\351h@\324\350yTYF~\241#m\276G\232\365\341\207Sl\230n\301\7*s\37\234\246\332_wB\247\230\362f]\363\3\207\31\21\204\33\376\233\205(\340\23\300~\222\262g\242\31\242\20\35+}G\213\334\234;cZn\224\205f\200DO\350\316\\GIH\240\337\14\317\31!&ghL\370;\35\275\266\324\324\20jj\333p[\261\15\265\355]\322\214J,\270\243\232\336\266\\\321\266\34f[lg\206\313d\323\262\21"
	.ascii "3]\206\362(\330\\\321\264\363\206\255\265\326\223M\263\314\215\316R\323\322\13\302o\330JL;+1-_0-\237\232Vz\245%\325\232\232\246%9\207\366V\345\266*\251i3I\263"
	.ascii "7,\373\240\12\277@_\335\326E\336\266{;\5\220@\6\216`S\336"
	.ascii "4f\\\277e\213_\247L\376I\371\341\304"
	.ascii "56J\372\252-\356Q\202-m\222\\u\204.n \242"
	.ascii "8M\205\234\225$\31\15\367nv\"\236\227\243R\260J\207"
	.ascii "0:\217\336&\330\210"
	.ascii "4\271BLV\310\214&\240\22HG\302\201\212\240\247\230"
	.ascii "9uG\305\276"
	.ascii "2\5\376\201bhI\333\361-\376\231>\236>\232\230\315\"\347B\232\11{\243\323\254\250u\12\322\354\251\37\350\267\303\341\210\260r\315\301C}v\2\256\223)[\177&\260\252\0\326\305\247\205Ui\1V\371\201\316\245\270\211\16\200\2\267G7\332\343"
	.ascii "6\241Q\237a\215\357\261\221\217M\34\216\264B\316*\352\221\256\340\341%\1\274\13\252E*Tm\32z\271\212\15m\36\327\25\277"
	.ascii "3\15^\3\203"
	.ascii "3\36\222"
	.ascii "4Q\241\235\266\370"
	.ascii "4\255\"htW\354\12|\226>s#Q\235\327\355\220\312y:-\365F-\324\13]\301\23\34qC\35`\271:\25\13\251t\25w\257\332\341\"6RU\373\310\200\212z\367"
	.ascii "9h\276\324\325\32\360\0\241\331\316\373\221\214\375"
	.ascii "8\317\236\375\2\\\316\316\316\263g\316\234\15\227\263\26@\30bRw\252\"\374\265\355\210\272\373"
	.ascii "2\214\243G/\230"
	.ascii "0\275N\222"
	.ascii "6\211\244.\5\245?q\216_\244@m\350\5\31\341#x\330\15\256}\210>S\21\322\270\213f\232\32\355\306"
	.ascii "7TM\306C\242\246\213p\20"
	.ascii "6\231x\203\13P\361\272\324#\1.\245\230\251\0QT\16x*\214x\312)\36\2_\237\177V'\327\1'\11\330\25D%&\201\177\223\360F\322)\14\221\365\223\231t5\201\277\211\261D\246\3\236\357\241\331\250\21\250\211\354\241d\250\31\201\327,\12v<\265 O\5\317\201`\1\21\354\4fb\16\204\22\365\302\363}\20\272\3\324\12\324\3D\336\337fJZ\246U\322\373O*I\340\265\324\341.:dt\250i\345\241o!\252\344-\15\237"
	.ascii "1\20b\"\352S\37\223`\335\202!\13\301\303L\332\244\204\206!\275\220\205\201T\222\13\214\311b\16\355\266\344N\0K]I\204\310s7\30q\23\350\6<w0C\256\23C,\12\337xJa-\315\336\214\327*>2\232"
	.ascii "9)\253\336"
	.ascii "4&U\356If\15\231\21\227,\316\10\23o\232\231\345e\26-7\361\26\344"
	.ascii "2^2\243\257M\346m@Ff\32\223\324z\32\223v\301\355l\366\233\312~z\314\305\34\5\336\205\351\334\357;\25P']u\314U\313P\37\22\212\23W|\300\320k-T;m!\317+d\250\37\320<0\325\27\201WZ\354$H\15\340Z\201\213\10\303\370'j\16\217\261\335H\5\305\323q<r\2\323Z\364/\244\271\177\370\322\5\266\33y\231"
	.ascii "6\313o\36\263\233~\305\36\22W\354AV\305Cz\303\216\251&/\331\17\201}\200\262\377B\27\341!q\311N\12)\275\340"
	.ascii "8y\311\266\314\215\206\351\222\35\231\321\20l/q\336\260d\311\36\21L\35\241\246\36\324\265\267\330\342\3\314\357'\252\213\256\"\211(I\31\223\350\250\321\357\332\233\201\267\321\244\332o\316\213\36\203S\5v\266\6v\36\245k\363\30D\347\221):\243bt\310\13@\360(\252\"UE=_K\21\215\237:?\314V\1\352\273\300\356\270jnzWO\210\256\36`\256"
	.ascii "6\354\10\252w\234\354\352'\300>N\331yn\206(D\270+.\37\332=ewd\231\33\371s\304\325\272\303e\231X\342/\350"
	.ascii "7\303\23\300"
	.ascii "1W\303\35\270O\236O\15e\333\207?\223\341\206\267\32B\331\346HE\232wS\207b\354p\2\13D\310\366\376*{\234\307\32e\231\241\333\354q\21mp\203\301\31\327\304\204\327\307$*y\204B9\25\12\346\236zq\17\341\314\26\367\375':[8\\\301\6\332Vy\354\272\22\267\262FFk\311\26@\267TI\374"
	.ascii "1B\217\342?C\367\305\272\232Z+\332O\272l\10\244\330\375]uJa\257\243\277y\324\6 \355\342\224h\273\11\322R\323V\207\237\272\325\331\11\200\10\7\12\347\234\320\16\216F.\254\267\246\310\21wR(\212\321\330{\340\27(z\260\334\223\205\36\326\337(N\\\177\315\327\224@P\20\4\12\320\36P\11,tM\211\201\347\275\334l\24\15\264\17\10\336\21L\221\334\244\5\311(\34\363\224\302t\207\25\223Z\376\7>R\216v\203\300V\260\230\0\3\6v\23\13\345\241lS\1\336\306\230\246-\252\361BQ%Q\15\263\310\233$n\27x}\262\260] \376\216\260\310\\\216\214\25"
	.ascii "\370 \253\300Q\2\322\311\25\270<\350\312\250=\36d\321\37\342So*%\231m\256Z\206b9\261\22\\\32\354l\347&U\2\11\214\3\340B\201\235f\310\361z\244@q`\335~S\202\10\357\341)\216N\25q\363\347@7\177(\266\261s\220\325_\216"
	.ascii "4\33\"vt:\342"
	.ascii "09=\327\226\14G\365!\244tvr\242\33i\203?o\225\14\331u\20\242y\210D\363"
	.ascii "0\14\257\345Hz\35\201\256\243\34;\270\32\202I1\"/P<g~r\215\341\25\224\235\36\222!\301i\203\354\356#\213\233"
	.ascii "9\211C\210\254\311!\11\302TO\240\370w\224F^g\13H2=\343\355|\322\33\244\240\6|@\232\23\331\215\267\330\351v>M\366\261\264q<}UK\346\204\252v\214\315\215\366\320\250\7\312\311U-\21\214K\342\10\373qZ\247\250\20\341N\251iH\340&W5\313\334(\205V\265\236\355\273#m$\246\246H\252Z\252`j*5u\"\251\360\270bz\360i\"\370\327)\366\236\235\7\13\4\354z\177\21;\373"
	.ascii "0 C\351\24K\232\210\274\343\322D\267\275"
	.ascii "9o\306"
	.ascii "4\274(\203\342\356\320\356i\264\222\340\316\220\340>!\340>Aq_k\310\316v\300\273i\22\241\364\370\254xN\316\311\320I\232\14\344\350\232\335\231\240\202\36\32Q\264\206~z\311\334\31SaE\373\310D>\315\321\316\21\335\231r\205\221"
	.ascii "1\223u\306&\336n\265"
	.ascii "5vf\261\316\241\256\266D\7c\347\31\326\231{\262\255\306\321\330\231\315:\343\352\36\267p/\355\25,\177\216\235e\250\345\350\24p\240\\\356%\20\310\201G\212\365Z\364p\244\22\37\220\203\223H\363\306\201\241P9\316\27\233\221\207o\306\332a\235\330\324\345\14\235\260y\343\30\24\4Cx\246\376G\177"
	.ascii "8\35\302\352\220?\251 \20\17\334\313\311r`\214M\231\7^#\363\5\30\317\2\343"
	.ascii "9\356\15sF>\364\326YG\354o\305<96\32f;\353\20\257\325\32\306\317\30\334:\374\371p^?1\361\12\5\215\362@\272\200I\243Ba\336\241\363\334,\20\274SR\324\340\200\233\255\4\230\305\217\366\266q\370!S\332t4\243\316\201*\325\26\226\340\30^71\361\31\325\247"
	.ascii "3\301FE\242\276b\252\257h\240=\312\236:6\31\211\1\214\347\203\243\255\315\375\12\6\211\11UJ}Z\"\372"
	.ascii "48$\256\327\32\307Z\323\361/\4d\335P\342"
	.ascii "4\326"
	.ascii "8\20\244oT\222\\\271 \346JG_\342 \201\247\217\320'7l\263I\210\341K\1 U\211\312(\23*'a+\23\21VP\204S\223n[k\325i:\227H\35\13\371Gu\14\4\266kc;U\222\224\257\224T\245*\261L#Cbi\220\220\273\306|\276\237W=!7\346\336%\226{\221\325\272(\225\271\217\310;\226{\27\211\21\325\324O\227E?u\207=\316\265\302\247\230k\206\177"
	.ascii "9\31dM\35a\30\311\33t\254"
	.ascii "9\300\27\373\363\217a\347\200\210\30\252"
	.ascii "1\213V\215\350\213Z\352\213\352\35\341\331\30\217"
	.ascii "15Z\303)\3\231{\350\212\350\230\342\232\334hD\221.\27\301k[\36\217\333X\212%\272J`\326S\230u\"\314\274\202\250b9\16\266\21\262\253\360\316\303\30G\34.6\317\353\256\31\224,\325\223\13\364?\6\262"
	.ascii "9\321"
	.ascii "05\325\367W\236\317\227\343\223"
	.ascii "6\24fRC\302>;b-\17\213\366\307\314RLGF\327@\264Q\310\363&\321\322fj\351T\343\306\243\367\206r\324\270:c\246vD6\327)\314\255#+<3\357:1\357\6"
	.ascii "5\257E4\357pt\300\22|\201\301\252\215\353\263\302W\331s\227\177i\"\211:\272)\16\346?X1l\203o\260\327\361q\201;\345\324\2\303\365\363i\337\304@\274\212\264,^0\0j\25\343\205\332\310\230z\321\220[\323\244\257\245\34{\322w\360<6\366\335f9v\247\241"
	.ascii "7B2\17\227\212\306\265\223\201:\251q\35\242q]\367\357\267[\341\223\12\12\371\311\335\326R,\246\230\301\261\322,\305@\14\335"
	.ascii "1K\261;\"\336\273\323\340\255\211H\31\223~J\317\220\34w\272\215\263\247)9?\201\315\24\332G\366\301\347r\316;XL\277.b\302}j\302=\321\204\300\360@8e\345(\204|\213\351;\31\246\302\205b\363P\334\203\1"
	.ascii "9K\277\260\272\204\237\204\364\353\235\232~%\372\7:9\356d\236\350\351\211\211W\261\364;q\322\224~02\352\1\321\7B\372\365\211^0L\223~qQ!\31"
	.ascii "6\324\266~c\372E\5\356\256\264\243}\344\274\366PX\351\362\15\367\35\214\313\337\0\353\354\356}0\244\244\235d\303:\310:o\6?\322\253\214\31=\304:\217\225\326\246c\313)\335O\\6L]\366\213\350\262\253\7\257\214[\341'\212i\362x,1V\217\361"
	.ascii "6[V\237\207j\17s,\217S\256\345\376n{I\240"
	.ascii "6&\4j0z\205hE#\306<~D\6\32\25=26\215G\316%\235\262\302\15\266\222O\320\213\245\237\240\27\233>A\37\352,/P\300\6\324\362w\\\177\354Le\321"
	.ascii "8T\355\11q\367Y\320\330"
	.ascii "37\203\207\255&\217\341\210i\332\7/V\32c\335?z?\225U\5\302\303\302\222^\254/E\346.\\.\226\346\307\304\260@L<\30\200\5\17\326\246\355\213s\300Z\245\220e;\206#r\25"
	.ascii "8II\315\342\357\346\354rd\36K.\30\\\337\351\37!.\323\240\4\5aS\371\332\212\5om\303\226\275u-h,\327\321\230+\14h\366\261\207I\12c\2\204`\266\377\351\216\327X\336\324\4\3\3\12\243\350CE\364\206\323\11\21V\370\234r\232\370\17\7^\354\261\301\25\354\365\351'\307cm\304\370'\253B\315\342\17Z\321v,\306?\234\14\264C\264h\347"
	.ascii "4\26]\12\326k\35q\3\325\315ee\356\31\262\21\177\303\320U~l\15\371\236\276\33B\22\201\215a\243\353"
	.ascii "2\271,\37A\"\261\205\245\273\273yO\23\232f\255\267(P\271?=\37*7\263\270\265u\353i\7\351\371\14\233\227\256\275X<\237\245\350v\15\332\213\37\14"
	.ascii "2B\35\340t\276\17\253\320\36\23z\201W\372\305\300\\\35\212\6<F\215\26\327\253\333\255\371wM[\343\30\26\360\240\313\25]\310\330\271\237u\266\37\277\334\302\12\6"
	.ascii "9\3\306\262\316\334\341\234Lk#g\34\353\274\327\224u\302\244\363\0\353l=T\227\302\304\211\25\7YgMr\360\14\363\314\"\270Xf\355\"\1\217\247\231uH\314\254\370\372\260\313*\334"
	.ascii "1]f\35\31\252H\267\307\6a\236\4t\255\26\23kd\245\371\2\11J\221\326\230X\207\311"
	.ascii "8G\304\304:J\23\353\340\330/\363\360\204r\232Mc\301\366\364\255r\266\220\215\237\321~\23{@[\354/\250&\373\306\4\252\13%\22\275\11\242\336$\252w\217!\267\311\26G\331I\352\323lV\237\36\5\207\6)isB\274h\26\347\366\347\25\"\261HE\4\360\317\373\237\372"
	.ascii "7\263\257\316\251\20`\242\1%c't\34\13U\352\\k\327\312\255\220\355)\220\13\307L\371"
	.ascii "2\333T\244\246\316\235LC\314a\311\266\214\10\263X\244\21[\322i,\326\210\373\226\354\336\16;\334f'\224\250\314\304\321"
	.ascii "0\204\357"
	.ascii "2\313\202*\263B\34\215\7\25\227 \266*\236\300SV\305\262\13"
	.ascii "5\17\24\270\207IE\325\\y\344\300V\305\270s\246U\21\206E\31 z\22\263\252vJt\351i\374\324"
	.ascii "\207\205\245\246\323g\26\265\"S\314\250\301\210\242\25x\253j\232Hk\307C\356\331Z\216"
	.ascii "4\350AgX\244\263\211w\316\210\260r(\254\252\246F(\305\373\231\342\202m\273\263m^=\314\353\264\272\336#\311.1<-\330\344\267\377\271 e\214\245\214"
	.ascii "6\211\216<\374*\210\205\336\333\237i\217o3\35|"
	.ascii "\270!\326\201\352\320V\36\15\262\12\11\344\251\177\210\222\263R%g\5%\371TI\341\255\262>\25\216\261gG\274\352\350F\204\17\263\306X\350\215<\16"
	.ascii "4\302\331,\271\226\7TA\24\325\247v\350\34\311\30n\226\231\316\2Ag!\325\271\247\244\342\262\35\356fj\342"
	.ascii "2*\207Ux\204"
	.ascii "5Z\36d\315\240*u\27\3\345\25\202F\360\376yA\243\251\314\351\210F\364\32dp\21\325"
	.ascii "921\276\313\12\227;P5\335\206\275?Q5\372\312\243q3\371\220@\35"
	.ascii "3V\300V,\301V,`+\241z\356\305\307\24b<\312\364\304\267\364"
	.ascii "5\253\246\303S,\301Sj\304SF\365<\251?qG\372I\"M\262\303\274\300\212*\271\223\3\205\256\253\212\303Y\216\364\273V\340\241q\36#g'['\263\357U\225\330\26\225\343\311\337\253\240W\26L\6\320\373G<\367W\343\37ZT\300\244&\257d\350\"\314\352*\230\325\344\243\26c'\377\301\210\365\203\335\371R|$#M\370.\11\370.Q|U\331\265Qf\334\213\351\254"
	.ascii "21_\26\230/S\346\251\252IY3qW\13\334\325\224{kq\361\240\364"
	.ascii "7\17\367%\334"
	.ascii "5\2w\15\345\366\37\345\273\25\346@\342%@j\5\346Z\312\34\30\320_\202\314\231\303$\314W\4\346+\224\271\341\346\241.;s\346@\11\363U\201\371*e~x$:Ki\316<,\301\\'0\327"
	.ascii "1\30S\376n\307\306<\23\352\5\346z\6\343`\317\210\364\363k\247D\365"
	.ascii "5\201\373\32\345\356O\353\370E\372\367'\325\22\356\6\201\273\201r\207\34\255>mo\216\372\206\204\271Q`n\244\314\332"
	.ascii "2\355\227\346\274\365\22\336&\201\267\211\362\356\271>\26m\373\373x\362'\35\272b\5\24k\372i\207\325\263f\374{\340\320\327k\357*p\36Mp4\330\225`\300\316\11\364\303a\204\234\314\247\353\222\314&\206e\305>6\376f-D\272\261n\301S\177k\320W\265}D\216\13\230\376V\276\274\321\1_b\215\224\261\201\"%\314\341\30\362YJ\373\247\200\0>\201\17"
	.ascii "0L|\366\12\272\1\353S\353\224\302r\223N\344D\4u\274\215\316\344\35\303%eVR\343\212E\343\364\324\270\201\312\272q\204\343\236\243\343\365\236\31\15t\244\343i+M5C\34KZ4n\231\306j\307\257\312\344\36\353\335}\354>\371n\263\247\227\337;\236\336\237\312\354\324+\276r]\271l\201\233\233\353\"\305\27\313\277\234\265\360\255\267d\266_.[\261\374\13\265\333\352\225\13\27\376\327\334?\371\301\317\7s>\230\363\356\334\325\33"
	.ascii "7z\371\316\335\340\351\275n\313\374\217\347\251\337\237"
	.ascii "7\327\363\303\217>|g\313\207\363\337\241\235\244\303\333\303k\363Z\315\334\357\334}5~\276k\347\254\227)\226x\373i|\274\335\275T\342\303b\317u\353\255\26}\275b\345\"\327g\326\17\355-\236\336k5\337\303\10\326+\276\377\36FS\262\33\325\356\366\325\212%\213\26<\263vP\355\355\7\232m\334"
	.ascii "6z\22\320\326\213\27,_\264\314\325z\275\353\17\32o\277?\376J\324\304"
	.ascii "7\240\\\265\314\315\344|\233en\324#3\325\253\\\27~\271r\311\352o\324\13V\257^\271\344\363/W\273\256\262\361^\246\361^\347\267\336z\31\265k\246\327\246U\32\217\315>\236~?-\322\370z\370xn\362\333\350c\363\365\222\345\237\257X\261\314\341\273%\336\353"
	.ascii "5\360n\261\273\367Z/\315\213\313\334,)\334B\22A\355g\253V{\254\325xx\251\325\377\261N\343\247f\275?\270{m\326\250\335\375\324\236\336\236j_\215\207\237\347Fo\371\367\236^\32\354\353\367\227W\311\303\267\360\346\333"
	.ascii "9s\347\260\237\271~\236\33"
	.ascii "4s\341\235\232<\200a/\33yH'i\20U\360\342\23\365\232\345\357C\337|\322\367\376\273\177\177HW\267-\253\336S\263\237\15@N\226\265zl\332${\231h\262\244\343\17\352"
	.ascii "5\363\346O\367\22\364\253\311\277\15\253\324\317\203\37~tW\257\333\354\356\263V\355\376\335F\37?\271\227\306\375{\353-\36\276\36\233~\372\374\231\343\355\353\347\3=`\271\235Z\355\353\267\326\303\335\13\\-\377\336G\243\301\33"
	.ascii "4\33^\231\342K\350\244\216\204;\10\275(\270\353}h\316'B\256n?\270\314\267[\350\265\321W\303\242k\273\326\313\313s\303&\300ko\326\353"
	.ascii "2\377\331\347\325z\252\301}\23\11\27"
	.ascii "5\177\303&\353M`\204\237/\366\330\350={\12b\317\215\24"
	.ascii "0\274\363\335\350E\202\377\222\10\32\272>d\222\256n\377\343\361"
	.ascii "7\305J\215\373\332?\202\270\235\370\340"
	.ascii "2\357\335g\257/\4\210\200\322\327\363o\32\265\337\263\7IM;@\223\25\204g\243\207\271\327?\240=\256\377\13^\377B\343G@\257\202\301\354\315\236]>\262\372z\341\342\5+a\376.\374z\325\352\225v\13}4\356~\32\362\372k\7\263g\227y\37\275`\236d>\32\300\357\253Ql\6\7}8\377\327\300\207\274\362d\305\212L?\365\6_9\271\277,N5\322\370O\341\215\353\17.\357JP\270{\374u\263\247\217f\211z\315\27_\375\212\251\351\372\221\232\316}\365{\363\251\246\247\232s&!\205\370\360\205z\315o\202\302A\255\326\220\262\255YK;\226\377:\265`\224D\335<P\367OZ\370\361S\213L\36L\376\35d\2\206\0\233\331\344\345\351\375[\332D\324=\33@\"\371\377\212sZ\364"
	.text
	.section	.gnu.lto_.symtab.f43a1f4e,"dr0"
	.ascii "__ZN3stk4file30get_wchar_value_at_ini_sectionEPwS1_S1_S1_mS1_\0\0\0\0\0\0\0\0\0\0\0\0?\1\0\0__Z24get_value_at_ini_sectionPwS_S_S_mS_\0\0\0\0\0\0\0\0\0\0\0\0B\1\0\0___cxa_guard_abort\0\0\2\0\0\0\0\0\0\0\0\0H\1\0\0_wcscpy\0\0\2\0\0\0\0\0\0\0\0\0P\1\0\0__ZN3stk3mem4freeEPv@4\0\0\2\0\0\0\0\0\0\0\0\0Y\1\0\0_CloseHandle@4\0\0\2\0\0\0\0\0\0\0\0\0a\1\0\0_wcscmp\0\0\2\0\0\0\0\0\0\0\0\0g\1\0\0__ZN3stk3con6printsEPKcz\0\0\2\0\0\0\0\0\0\0\0\0p\1\0\0_ReadFile@20\0\0\2\0\0\0\0\0\0\0\0\0{\1\0\0__ZN3stk3mem5allocEj@4\0\0\2\0\0\0\0\0\0\0\0\0\206\1\0\0_GetFileSize@8\0\0\2\0\0\0\0\0\0\0\0\0\216\1\0\0_CreateFileW@28\0\0\2\0\0\0\0\0\0\0\0\0\243\1\0\0___cxa_guard_release\0\0\2\0\0\0\0\0\0\0\0\0\246\1\0\0__ZN3stk4time7time_msEv@0\0\0\2\0\0\0\0\0\0\0\0\0\262\1\0\0___cxa_guard_acquire\0\0\2\0\0\0\0\0\0\0\0\0\267\1\0\0"
	.text
	.section	.gnu.lto_.opts,"dr0"
	.ascii "'-fno-trapv' '-dD' '-malign-double' '-momit-leaf-frame-pointer' '-m32' '-mfpmath=sse' '-mpreferred-stack-boundary=8' '-mmmx' '-msse' '-msse2' '-mthreads' '-mtune=generic' '-march=i686' '-g' '-g' '-O3' '-fno-use-linker-plugin' '-fverbose-asm' '-fstrict-aliasing' '-fwrapv' '-funroll-loops' '-flto' '-fexceptions'\0"
	.text
	.section .rdata,"dr"
LC0:
	.ascii "file\\ini\\stk_file_ini.cpp\0"
LC2:
	.ascii "\0"
	.align 4
LC3:
	.ascii "DEBUG: %s: Enter function: %s@%d line, for %d time\12\0\0"
LC4:
	.ascii "Can't open .ini file?! %s\0"
LC5:
	.ascii ".ini file too small?! %s\0"
	.align 4
LC6:
	.ascii "For unknown reason - I can't open .ini file?! %s\0"
	.align 4
LC7:
	.ascii "Wspieram .ini UTF16 - zmien kodowanie w notatniku\0"
	.section	.text.unlikely,"x"
LCOLDB9:
	.text
LHOTB9:
	.p2align 4,,15
	.section	.text.unlikely,"x"
Ltext_cold0:
	.text
	.globl	__ZN3stk4file30get_wchar_value_at_ini_sectionEPwS1_S1_S1_mS1_
	.def	__ZN3stk4file30get_wchar_value_at_ini_sectionEPwS1_S1_S1_mS1_;	.scl	2;	.type	32;	.endef
__ZN3stk4file30get_wchar_value_at_ini_sectionEPwS1_S1_S1_mS1_:
LFB702:
	.file 1 "file/ini/stk_file_ini.cpp"
	.loc 1 14 0
	.cfi_startproc
	.cfi_personality 0,___gxx_personality_v0
	.cfi_lsda 0,LLSDA702
LVL0:
	pushl	%ebp	 #
	.cfi_def_cfa_offset 8
	.cfi_offset 5, -8
	pushl	%edi	 #
	.cfi_def_cfa_offset 12
	.cfi_offset 7, -12
	pushl	%esi	 #
	.cfi_def_cfa_offset 16
	.cfi_offset 6, -16
	pushl	%ebx	 #
	.cfi_def_cfa_offset 20
	.cfi_offset 3, -20
	subl	$1004, %esp	 #,
	.cfi_def_cfa_offset 1024
LBB2:
	.loc 1 16 0
	cmpb	$0, __ZGVZN3stk4file30get_wchar_value_at_ini_sectionEPwS1_S1_S1_mS1_E8__time_1	 #, MEM[(char *)&_ZGVZN3stk4file30get_wchar_value_at_ini_sectionEPwS1_S1_S1_mS1_E8__time_1]
LBE2:
	.loc 1 14 0
	movl	1044(%esp), %ebx	 # szPathAndFile, szPathAndFile
LBB3:
	.loc 1 16 0
	je	L49	 #,
L3:
LVL1:
	.loc 1 16 0 is_stmt 0 discriminator 2
	movl	__ZZN3stk4file30get_wchar_value_at_ini_sectionEPwS1_S1_S1_mS1_E14__entered_time, %esi	 # __entered_time, tmp195
	movl	$LC0+9, %eax	 #, __file_name__
	movl	$LC0, %edx	 #, tmp186
	cmpl	$1, %eax	 #, __file_name__
	movl	$16, 12(%esp)	 #,
	movl	$LC2, 8(%esp)	 #,
	cmove	%edx, %eax	 # __file_name__,, tmp186, __file_name__
LVL2:
	movl	$LC3, (%esp)	 #,
	leal	1(%esi), %ecx	 #, D.29913
	movl	%eax, 4(%esp)	 # __file_name__,
	movl	%ecx, 16(%esp)	 # D.29913,
	movl	%ecx, __ZZN3stk4file30get_wchar_value_at_ini_sectionEPwS1_S1_S1_mS1_E14__entered_time	 # D.29913, __entered_time
LEHB0:
	call	__ZN3stk3con6printsEPKcz	 #
LVL3:
	.loc 1 22 0 is_stmt 1 discriminator 2
	movl	$0, 24(%esp)	 #,
	movl	$0, 20(%esp)	 #,
	movl	$3, 16(%esp)	 #,
	movl	$0, 12(%esp)	 #,
	movl	$1, 8(%esp)	 #,
	movl	$-2147483648, 4(%esp)	 #,
	movl	%ebx, (%esp)	 # szPathAndFile,
	call	*__imp__CreateFileW@28	 #
	.cfi_def_cfa_offset 996
LVL4:
	subl	$28, %esp	 #,
	.cfi_def_cfa_offset 1024
	.loc 1 23 0 discriminator 2
	cmpl	$-1, %eax	 #, hfile
	.loc 1 22 0 discriminator 2
	movl	%eax, 496(%esp)	 # hfile, %sfp
LVL5:
	.loc 1 23 0 discriminator 2
	je	L50	 #,
LVL6:
	.loc 1 27 0
	movl	$0, 4(%esp)	 #,
	movl	%eax, (%esp)	 # hfile,
	call	*__imp__GetFileSize@8	 #
	.cfi_def_cfa_offset 1016
LVL7:
	movl	%eax, %ebp	 #, b
LVL8:
	shrl	%eax	 # e
LVL9:
	subl	$8, %esp	 #,
	.cfi_def_cfa_offset 1024
	.loc 1 28 0
	leal	2(%eax,%eax), %edx	 #, D.29916
	.loc 1 27 0
	movl	%eax, %edi	 # e, e
	movl	%eax, 492(%esp)	 # e, %sfp
LVL10:
	.loc 1 28 0
	movl	%edx, (%esp)	 # D.29916,
	call	__ZN3stk3mem5allocEj@4	 #
	.cfi_def_cfa_offset 1020
LVL11:
	subl	$4, %esp	 #,
	.cfi_def_cfa_offset 1024
	.loc 1 29 0
	movl	$200, (%esp)	 #,
	.loc 1 28 0
	movl	%eax, 480(%esp)	 #, %sfp
LVL12:
	.loc 1 29 0
	call	__ZN3stk3mem5allocEj@4	 #
	.cfi_def_cfa_offset 1020
LVL13:
	subl	$4, %esp	 #,
	.cfi_def_cfa_offset 1024
	.loc 1 31 0
	cmpl	$2, %edi	 #, e
	.loc 1 29 0
	movl	%eax, 488(%esp)	 #, %sfp
LVL14:
	.loc 1 31 0
	jbe	L51	 #,
	.loc 1 35 0
	movl	%ebp, 8(%esp)	 # b,
	movl	496(%esp), %eax	 # %sfp, hfile
LVL15:
	leal	764(%esp), %ecx	 #, tmp157
	movl	480(%esp), %ebp	 # %sfp, lpbuffer
LVL16:
	movl	$0, 16(%esp)	 #,
	movl	%ecx, 12(%esp)	 # tmp157,
	movl	%eax, (%esp)	 # hfile,
	movl	%ebp, 4(%esp)	 # lpbuffer,
	call	*__imp__ReadFile@20	 #
	.cfi_def_cfa_offset 1004
LVL17:
	subl	$20, %esp	 #,
	.cfi_def_cfa_offset 1024
	testl	%eax, %eax	 # D.29913
	je	L52	 #,
LVL18:
	.loc 1 39 0
	movl	480(%esp), %edi	 # %sfp, lpbuffer
LVL19:
	cmpw	$-257, (%edi)	 #, *lpbuffer_39
	jne	L53	 #,
	.loc 1 74 0
	movl	492(%esp), %edx	 # %sfp, e
	xorl	%ecx, %ecx	 # foundsection
	movb	$0, 472(%esp)	 #, %sfp
	xorl	%ebp, %ebp	 # l
	movl	$1, %ebx	 #, i
	subl	$1, %edx	 #, D.29916
	movl	%edx, 500(%esp)	 # D.29916, %sfp
	jmp	L11	 #
LVL20:
	.p2align 4,,10
L57:
	.loc 1 46 0
	cmpw	$13, (%eax)	 #, *_51
	je	L54	 #,
L13:
	.loc 1 54 0
	testb	%cl, %cl	 # foundsection
	je	L22	 #,
LVL21:
L18:
	.loc 1 61 0
	movzwl	486(%esp), %edx	 # %sfp, D.29917
	cmpw	$61, %dx	 #, D.29917
	je	L28	 #,
	cmpw	$32, %dx	 #, D.29917
	je	L28	 #,
	.loc 1 68 0
	movzwl	486(%esp), %edx	 # %sfp, D.29917
	subl	$91, %edx	 #, D.29917
	testw	$-3, %dx	 #, D.29917
	je	L55	 #,
L17:
	.loc 1 73 0
	cmpb	$0, 472(%esp)	 #, %sfp
	je	L22	 #,
	testb	%cl, %cl	 # foundsection
	je	L22	 #,
	.loc 1 74 0
	cmpw	$13, (%eax)	 #, *_51
	je	L56	 #,
L23:
	.loc 1 74 0 is_stmt 0 discriminator 4
	cmpl	%ebx, 500(%esp)	 # i, %sfp
	je	L24	 #,
L22:
	.loc 1 81 0 is_stmt 1
	addl	$1, %ebx	 #, i
LVL22:
	.loc 1 82 0
	addl	$1, %ebp	 #, l
LVL23:
L16:
	.loc 1 43 0
	cmpl	%ebx, 492(%esp)	 # i, %sfp
	jbe	L21	 #,
LVL24:
L11:
	.loc 1 44 0
	movl	488(%esp), %esi	 # %sfp, linia
	movl	480(%esp), %eax	 # %sfp, lpbuffer
	leal	(%esi,%ebp,2), %edi	 #, D.29910
	leal	(%ebx,%ebx), %esi	 #, D.29916
	addl	%esi, %eax	 # D.29916, D.29910
	movzwl	(%eax), %edx	 # *_51, D.29917
	movw	%dx, 486(%esp)	 # D.29917, %sfp
	movw	%dx, (%edi)	 # D.29917, *_49
	.loc 1 45 0
	movl	%ecx, %edx	 # foundsection, D.29918
	xorl	$1, %edx	 #, D.29918
	cmpb	472(%esp), %dl	 # %sfp, D.29918
	ja	L57	 #,
	.loc 1 54 0
	cmpb	472(%esp), %cl	 # %sfp, foundsection
	jbe	L17	 #,
	.loc 1 55 0
	cmpw	$13, (%eax)	 #, *_51
	jne	L18	 #,
	movl	480(%esp), %edx	 # %sfp, lpbuffer
	movzwl	2(%edx,%esi), %edx	 # *_8, D.29917
	testw	%dx, %dx	 # D.29917
	je	L19	 #,
	cmpw	$10, %dx	 #, D.29917
	jne	L18	 #,
L19:
	.loc 1 56 0
	xorl	%ecx, %ecx	 #
LVL25:
	.loc 1 58 0
	addl	$2, %ebx	 #, i
LVL26:
	.loc 1 57 0
	xorl	%ebp, %ebp	 # l
LVL27:
	.loc 1 43 0
	cmpl	%ebx, 492(%esp)	 # i, %sfp
	.loc 1 56 0
	movw	%cx, (%edi)	 #, *_49
LVL28:
	.loc 1 59 0
	movl	$1, %ecx	 #, foundsection
LVL29:
	movb	$0, 472(%esp)	 #, %sfp
LVL30:
	.loc 1 43 0
	ja	L11	 #,
LVL31:
	.p2align 4,,10
L21:
	.loc 1 84 0
	movl	496(%esp), %ebx	 # %sfp, hfile
LVL32:
	movl	%ebx, (%esp)	 # hfile,
	call	*__imp__CloseHandle@4	 #
	.cfi_def_cfa_offset 1020
LVL33:
	subl	$4, %esp	 #,
	.cfi_def_cfa_offset 1024
	.loc 1 85 0
	movl	480(%esp), %esi	 # %sfp, lpbuffer
	movl	%esi, (%esp)	 # lpbuffer,
	call	__ZN3stk3mem4freeEPv@4	 #
	.cfi_def_cfa_offset 1020
LVL34:
	subl	$4, %esp	 #,
	.cfi_def_cfa_offset 1024
	movl	488(%esp), %ecx	 # %sfp, linia
	movl	%ecx, (%esp)	 # linia,
	call	__ZN3stk3mem4freeEPv@4	 #
	.cfi_def_cfa_offset 1020
LVL35:
	subl	$4, %esp	 #,
	.cfi_def_cfa_offset 1024
	.loc 1 86 0
	cmpb	$0, 472(%esp)	 #, %sfp
	jne	L36	 #,
	.loc 1 87 0
	movl	1032(%esp), %ebp	 # lpdefault, tmp235
	movl	1036(%esp), %edi	 # lpBuffer, tmp236
	movl	%ebp, 4(%esp)	 # tmp235,
	movl	%edi, (%esp)	 # tmp236,
	call	_wcscpy	 #
LVL36:
LBE3:
	.loc 1 91 0
	addl	$1004, %esp	 #,
	.cfi_remember_state
	.cfi_def_cfa_offset 20
	movl	$1, %eax	 #,
	popl	%ebx	 #
	.cfi_restore 3
	.cfi_def_cfa_offset 16
	popl	%esi	 #
	.cfi_restore 6
	.cfi_def_cfa_offset 12
	popl	%edi	 #
	.cfi_restore 7
	.cfi_def_cfa_offset 8
	popl	%ebp	 #
	.cfi_restore 5
	.cfi_def_cfa_offset 4
	ret
LVL37:
	.p2align 4,,10
L54:
	.cfi_restore_state
LBB4:
	.loc 1 46 0 discriminator 1
	movl	480(%esp), %edx	 # %sfp, lpbuffer
	movzwl	2(%edx,%esi), %edx	 # *_58, D.29917
	testw	%dx, %dx	 # D.29917
	je	L14	 #,
	cmpw	$10, %dx	 #, D.29917
	jne	L13	 #,
L14:
	.loc 1 47 0
	xorl	%ebp, %ebp	 #
LVL38:
	.loc 1 48 0
	movl	488(%esp), %eax	 # %sfp, linia
	movb	%cl, 472(%esp)	 # foundsection, %sfp
	.loc 1 47 0
	movw	%bp, (%edi)	 #, *_49
	.loc 1 48 0
	movl	1024(%esp), %edi	 # lpSection, tmp237
	movl	%eax, (%esp)	 # linia,
	movl	%edi, 4(%esp)	 # tmp237,
	call	_wcscmp	 #
LVL39:
	movzbl	472(%esp), %ecx	 # %sfp, foundsection
	testl	%eax, %eax	 # D.29913
	movl	$1, %edx	 #, tmp239
	.loc 1 51 0
	movb	$0, 472(%esp)	 #, %sfp
LVL40:
	.loc 1 48 0
	cmove	%edx, %ecx	 # foundsection,, tmp239, foundsection
LVL41:
	.loc 1 50 0
	addl	$2, %ebx	 #, i
LVL42:
	.loc 1 49 0
	xorl	%ebp, %ebp	 # l
	.loc 1 51 0
	jmp	L16	 #
LVL43:
	.p2align 4,,10
L56:
	.loc 1 74 0 discriminator 1
	movl	480(%esp), %eax	 # %sfp, lpbuffer
	movzwl	2(%eax,%esi), %esi	 # *_74, D.29917
	testw	%si, %si	 # D.29917
	je	L24	 #,
	cmpw	$10, %si	 #, D.29917
	jne	L23	 #,
	.p2align 4,,10
L24:
	.loc 1 75 0
	xorl	%ecx, %ecx	 #
LVL44:
	.loc 1 76 0
	movl	488(%esp), %ebp	 # %sfp, linia
LVL45:
	.loc 1 75 0
	movw	%cx, (%edi)	 #, *_136
	.loc 1 76 0
	movl	1036(%esp), %edi	 # lpBuffer, tmp241
	movl	%ebp, 4(%esp)	 # linia,
	movl	%edi, (%esp)	 # tmp241,
	call	_wcscpy	 #
LVL46:
	.loc 1 84 0
	movl	496(%esp), %edx	 # %sfp, hfile
	movl	%edx, (%esp)	 # hfile,
	call	*__imp__CloseHandle@4	 #
	.cfi_def_cfa_offset 1020
LVL47:
	subl	$4, %esp	 #,
	.cfi_def_cfa_offset 1024
	.loc 1 85 0
	movl	480(%esp), %eax	 # %sfp, lpbuffer
	movl	%eax, (%esp)	 # lpbuffer,
	call	__ZN3stk3mem4freeEPv@4	 #
	.cfi_def_cfa_offset 1020
LVL48:
	subl	$4, %esp	 #,
	.cfi_def_cfa_offset 1024
	movl	%ebp, (%esp)	 # linia,
	call	__ZN3stk3mem4freeEPv@4	 #
	.cfi_def_cfa_offset 1020
LVL49:
	subl	$4, %esp	 #,
	.cfi_def_cfa_offset 1024
LBE4:
	.loc 1 91 0
	movl	$1, %eax	 #,
	addl	$1004, %esp	 #,
	.cfi_remember_state
	.cfi_def_cfa_offset 20
	popl	%ebx	 #
	.cfi_restore 3
	.cfi_def_cfa_offset 16
LVL50:
	popl	%esi	 #
	.cfi_restore 6
	.cfi_def_cfa_offset 12
	popl	%edi	 #
	.cfi_restore 7
	.cfi_def_cfa_offset 8
	popl	%ebp	 #
	.cfi_restore 5
	.cfi_def_cfa_offset 4
	ret
LVL51:
	.p2align 4,,10
L28:
	.cfi_restore_state
LBB5:
	.loc 1 62 0
	xorl	%edx, %edx	 #
	.loc 1 63 0
	movl	488(%esp), %eax	 # %sfp, linia
	movb	%cl, 486(%esp)	 # foundsection, %sfp
	.loc 1 62 0
	movw	%dx, (%edi)	 #, *_49
	.loc 1 63 0
	movl	1028(%esp), %edi	 # lpValue, tmp220
	movl	%eax, (%esp)	 # linia,
	movl	%edi, 4(%esp)	 # tmp220,
	call	_wcscmp	 #
LVL52:
	movzbl	472(%esp), %esi	 # %sfp, found
	testl	%eax, %eax	 # D.29913
	movl	$1, %ecx	 #, tmp223
	cmove	%ecx, %esi	 # found,, tmp223, found
	.loc 1 65 0
	addl	$1, %ebx	 #, i
LVL53:
	.loc 1 64 0
	xorl	%ebp, %ebp	 # l
LVL54:
	.loc 1 63 0
	movl	%esi, %edx	 # found, tmp224
	.loc 1 66 0
	movzbl	486(%esp), %ecx	 # %sfp, foundsection
	.loc 1 63 0
	movb	%dl, 472(%esp)	 # tmp224, %sfp
LVL55:
	.loc 1 66 0
	jmp	L16	 #
LVL56:
	.p2align 4,,10
L51:
	.loc 1 32 0
	movl	%ebx, 4(%esp)	 # szPathAndFile,
	movl	$LC5, (%esp)	 #,
	call	__ZN3stk3con6printsEPKcz	 #
LEHE0:
LVL57:
L36:
LBE5:
	.loc 1 91 0
	addl	$1004, %esp	 #,
	.cfi_remember_state
	.cfi_def_cfa_offset 20
	movl	$1, %eax	 #,
	popl	%ebx	 #
	.cfi_restore 3
	.cfi_def_cfa_offset 16
	popl	%esi	 #
	.cfi_restore 6
	.cfi_def_cfa_offset 12
	popl	%edi	 #
	.cfi_restore 7
	.cfi_def_cfa_offset 8
	popl	%ebp	 #
	.cfi_restore 5
	.cfi_def_cfa_offset 4
	ret
LVL58:
	.p2align 4,,10
L49:
	.cfi_restore_state
LBB6:
	.loc 1 16 0 discriminator 1
	movl	$__ZGVZN3stk4file30get_wchar_value_at_ini_sectionEPwS1_S1_S1_mS1_E8__time_1, (%esp)	 #,
	call	___cxa_guard_acquire	 #
LVL59:
	testl	%eax, %eax	 # D.29913
	je	L3	 #,
LEHB1:
	.loc 1 16 0 is_stmt 0 discriminator 3
	call	__ZN3stk4time7time_msEv@0	 #
LEHE1:
LVL60:
	movl	%edx, 476(%esp)	 #, %sfp
	movl	476(%esp), %edi	 # %sfp,
	movl	%eax, 472(%esp)	 #, %sfp
	fildq	472(%esp)	 # %sfp
	testl	%edi, %edi	 #
	js	L58	 #,
L5:
	.loc 1 16 0 discriminator 5
	movl	$__ZGVZN3stk4file30get_wchar_value_at_ini_sectionEPwS1_S1_S1_mS1_E8__time_1, (%esp)	 #,
	fstpl	__ZZN3stk4file30get_wchar_value_at_ini_sectionEPwS1_S1_S1_mS1_E8__time_1	 # __time_1
	call	___cxa_guard_release	 #
LVL61:
	jmp	L3	 #
LVL62:
	.p2align 4,,10
L52:
	.loc 1 36 0 is_stmt 1
	movl	%ebx, 4(%esp)	 # szPathAndFile,
	movl	$LC6, (%esp)	 #,
LEHB2:
	call	__ZN3stk3con6printsEPKcz	 #
LVL63:
LBE6:
	.loc 1 91 0
	addl	$1004, %esp	 #,
	.cfi_remember_state
	.cfi_def_cfa_offset 20
	movl	$1, %eax	 #,
	popl	%ebx	 #
	.cfi_restore 3
	.cfi_def_cfa_offset 16
	popl	%esi	 #
	.cfi_restore 6
	.cfi_def_cfa_offset 12
	popl	%edi	 #
	.cfi_restore 7
	.cfi_def_cfa_offset 8
LVL64:
	popl	%ebp	 #
	.cfi_restore 5
	.cfi_def_cfa_offset 4
	ret
LVL65:
	.p2align 4,,10
L53:
	.cfi_restore_state
LBB7:
	.loc 1 40 0
	movl	%ebx, 4(%esp)	 # szPathAndFile,
	movl	$LC7, (%esp)	 #,
	call	__ZN3stk3con6printsEPKcz	 #
LVL66:
LBE7:
	.loc 1 91 0
	addl	$1004, %esp	 #,
	.cfi_remember_state
	.cfi_def_cfa_offset 20
	movl	$1, %eax	 #,
	popl	%ebx	 #
	.cfi_restore 3
	.cfi_def_cfa_offset 16
	popl	%esi	 #
	.cfi_restore 6
	.cfi_def_cfa_offset 12
	popl	%edi	 #
	.cfi_restore 7
	.cfi_def_cfa_offset 8
	popl	%ebp	 #
	.cfi_restore 5
	.cfi_def_cfa_offset 4
	ret
LVL67:
	.p2align 4,,10
L50:
	.cfi_restore_state
LBB8:
	.loc 1 24 0
	movl	%ebx, 4(%esp)	 # szPathAndFile,
	movl	$LC4, (%esp)	 #,
	call	__ZN3stk3con6printsEPKcz	 #
LVL68:
LBE8:
	.loc 1 91 0
	addl	$1004, %esp	 #,
	.cfi_remember_state
	.cfi_def_cfa_offset 20
	movl	$1, %eax	 #,
	popl	%ebx	 #
	.cfi_restore 3
	.cfi_def_cfa_offset 16
	popl	%esi	 #
	.cfi_restore 6
	.cfi_def_cfa_offset 12
	popl	%edi	 #
	.cfi_restore 7
	.cfi_def_cfa_offset 8
	popl	%ebp	 #
	.cfi_restore 5
	.cfi_def_cfa_offset 4
	ret
LVL69:
L55:
	.cfi_restore_state
LBB9:
	.loc 1 69 0
	movl	1032(%esp), %ecx	 # lpdefault, tmp225
LVL70:
	movl	1036(%esp), %ebp	 # lpBuffer, tmp226
LVL71:
	movl	%ecx, 4(%esp)	 # tmp225,
	movl	%ebp, (%esp)	 # tmp226,
	call	_wcscpy	 #
LVL72:
	.loc 1 70 0
	jmp	L21	 #
LVL73:
L58:
	.loc 1 16 0 discriminator 5
	fadds	LC1	 #
	jmp	L5	 #
L32:
	movl	%eax, %ebx	 #, tmp178
	.loc 1 16 0 is_stmt 0
	movl	$__ZGVZN3stk4file30get_wchar_value_at_ini_sectionEPwS1_S1_S1_mS1_E8__time_1, (%esp)	 #,
	call	___cxa_guard_abort	 #
LVL74:
	movl	%ebx, (%esp)	 # tmp178,
	call	__Unwind_Resume	 #
LEHE2:
LVL75:
LBE9:
	.cfi_endproc
LFE702:
	.def	___gxx_personality_v0;	.scl	2;	.type	32;	.endef
	.section	.gcc_except_table,"w"
LLSDA702:
	.byte	0xff
	.byte	0xff
	.byte	0x1
	.uleb128 LLSDACSE702-LLSDACSB702
LLSDACSB702:
	.uleb128 LEHB0-LFB702
	.uleb128 LEHE0-LEHB0
	.uleb128 0
	.uleb128 0
	.uleb128 LEHB1-LFB702
	.uleb128 LEHE1-LEHB1
	.uleb128 L32-LFB702
	.uleb128 0
	.uleb128 LEHB2-LFB702
	.uleb128 LEHE2-LEHB2
	.uleb128 0
	.uleb128 0
LLSDACSE702:
	.text
	.section	.text.unlikely,"x"
LCOLDE9:
	.text
LHOTE9:
	.section	.text.unlikely,"x"
LCOLDB10:
	.text
LHOTB10:
	.p2align 4,,15
	.globl	__Z24get_value_at_ini_sectionPwS_S_S_mS_
	.def	__Z24get_value_at_ini_sectionPwS_S_S_mS_;	.scl	2;	.type	32;	.endef
__Z24get_value_at_ini_sectionPwS_S_S_mS_:
LFB703:
	.loc 1 96 0 is_stmt 1
	.cfi_startproc
	.cfi_personality 0,___gxx_personality_v0
	.cfi_lsda 0,LLSDA703
LVL76:
	pushl	%ebx	 #
	.cfi_def_cfa_offset 8
	.cfi_offset 3, -8
	subl	$760, %esp	 #,
	.cfi_def_cfa_offset 768
LBB10:
	.loc 1 98 0
	cmpb	$0, __ZGVZ24get_value_at_ini_sectionPwS_S_S_mS_E8__time_1	 #, MEM[(char *)&_ZGVZ24get_value_at_ini_sectionPwS_S_S_mS_E8__time_1]
	je	L73	 #,
L61:
LVL77:
	.loc 1 98 0 is_stmt 0 discriminator 2
	movl	__ZZ24get_value_at_ini_sectionPwS_S_S_mS_E14__entered_time, %ecx	 # __entered_time, tmp109
	movl	$LC0+9, %ebx	 #, __file_name__
	movl	$LC0, %edx	 #, tmp108
	cmpl	$1, %ebx	 #, __file_name__
	movl	$98, 12(%esp)	 #,
	movl	$LC2, 8(%esp)	 #,
	cmove	%edx, %ebx	 # __file_name__,, tmp108, __file_name__
LVL78:
	movl	$LC3, (%esp)	 #,
	leal	1(%ecx), %eax	 #, D.29935
	movl	%ebx, 4(%esp)	 # __file_name__,
	movl	%eax, 16(%esp)	 # D.29935,
	movl	%eax, __ZZ24get_value_at_ini_sectionPwS_S_S_mS_E14__entered_time	 # D.29935, __entered_time
LEHB3:
	call	__ZN3stk3con6printsEPKcz	 #
LEHE3:
LVL79:
LBE10:
	.loc 1 101 0 is_stmt 1 discriminator 2
	addl	$760, %esp	 #,
	.cfi_remember_state
	.cfi_def_cfa_offset 8
	xorl	%eax, %eax	 #
	popl	%ebx	 #
	.cfi_restore 3
	.cfi_def_cfa_offset 4
LVL80:
	ret
LVL81:
	.p2align 4,,10
L73:
	.cfi_restore_state
LBB11:
	.loc 1 98 0 discriminator 1
	movl	$__ZGVZ24get_value_at_ini_sectionPwS_S_S_mS_E8__time_1, (%esp)	 #,
	call	___cxa_guard_acquire	 #
LVL82:
	testl	%eax, %eax	 # D.29935
	je	L61	 #,
LEHB4:
	.loc 1 98 0 is_stmt 0 discriminator 3
	call	__ZN3stk4time7time_msEv@0	 #
LEHE4:
LVL83:
	movl	%eax, 496(%esp)	 #, %sfp
	movl	%edx, 500(%esp)	 #, %sfp
	movl	500(%esp), %eax	 # %sfp,
	fildq	496(%esp)	 # %sfp
	testl	%eax, %eax	 #
	js	L74	 #,
L63:
	.loc 1 98 0 discriminator 5
	movl	$__ZGVZ24get_value_at_ini_sectionPwS_S_S_mS_E8__time_1, (%esp)	 #,
	fstpl	__ZZ24get_value_at_ini_sectionPwS_S_S_mS_E8__time_1	 # __time_1
	call	___cxa_guard_release	 #
LVL84:
	jmp	L61	 #
	.p2align 4,,10
L74:
	fadds	LC1	 #
	jmp	L63	 #
L67:
	movl	%eax, %ebx	 #, tmp105
	.loc 1 98 0
	movl	$__ZGVZ24get_value_at_ini_sectionPwS_S_S_mS_E8__time_1, (%esp)	 #,
	call	___cxa_guard_abort	 #
LVL85:
	movl	%ebx, (%esp)	 # tmp105,
LEHB5:
	call	__Unwind_Resume	 #
LEHE5:
LVL86:
LBE11:
	.cfi_endproc
LFE703:
	.section	.gcc_except_table,"w"
LLSDA703:
	.byte	0xff
	.byte	0xff
	.byte	0x1
	.uleb128 LLSDACSE703-LLSDACSB703
LLSDACSB703:
	.uleb128 LEHB3-LFB703
	.uleb128 LEHE3-LEHB3
	.uleb128 0
	.uleb128 0
	.uleb128 LEHB4-LFB703
	.uleb128 LEHE4-LEHB4
	.uleb128 L67-LFB703
	.uleb128 0
	.uleb128 LEHB5-LFB703
	.uleb128 LEHE5-LEHB5
	.uleb128 0
	.uleb128 0
LLSDACSE703:
	.text
	.section	.text.unlikely,"x"
LCOLDE10:
	.text
LHOTE10:
	.data
	.align 4
__ZZ24get_value_at_ini_sectionPwS_S_S_mS_E14__entered_time:
	.long	1
.lcomm __ZZ24get_value_at_ini_sectionPwS_S_S_mS_E8__time_1,8,8
	.align 4
__ZZN3stk4file30get_wchar_value_at_ini_sectionEPwS1_S1_S1_mS1_E14__entered_time:
	.long	1
.lcomm __ZZN3stk4file30get_wchar_value_at_ini_sectionEPwS1_S1_S1_mS1_E8__time_1,8,8
.lcomm __ZGVZ24get_value_at_ini_sectionPwS_S_S_mS_E8__time_1,8,8
.lcomm __ZGVZN3stk4file30get_wchar_value_at_ini_sectionEPwS1_S1_S1_mS1_E8__time_1,8,8
	.section .rdata,"dr"
	.align 4
LC1:
	.long	1602224128
	.text
Letext0:
	.section	.text.unlikely,"x"
Letext_cold0:
	.file 2 "C:/Qt/Qt5.5.0/Tools/mingw492_32/i686-w64-mingw32/include/_mingw.h"
	.file 3 "C:/Qt/Qt5.5.0/Tools/mingw492_32/i686-w64-mingw32/include/minwindef.h"
	.file 4 "C:/Qt/Qt5.5.0/Tools/mingw492_32/i686-w64-mingw32/include/basetsd.h"
	.file 5 "C:/Qt/Qt5.5.0/Tools/mingw492_32/i686-w64-mingw32/include/winnt.h"
	.file 6 "C:/Qt/Qt5.5.0/Tools/mingw492_32/i686-w64-mingw32/include/stdint.h"
	.file 7 "C:/Qt/Qt5.5.0/Tools/mingw492_32/i686-w64-mingw32/include/stdio.h"
	.file 8 "<built-in>"
	.file 9 "C:/Qt/Qt5.5.0/Tools/mingw492_32/i686-w64-mingw32/include/c++/bits/exception_ptr.h"
	.file 10 "C:/Qt/Qt5.5.0/Tools/mingw492_32/i686-w64-mingw32/include/c++/i686-w64-mingw32/bits/c++config.h"
	.file 11 "file/ini/./../.././time/stk_time.h"
	.file 12 "file/ini/stk_file_ini.h"
	.file 13 "file/ini/./../../io/stk_console.h"
	.file 14 "file/ini/./../../mem/stk_mem.h"
	.file 15 "C:/Qt/Qt5.5.0/Tools/mingw492_32/i686-w64-mingw32/include/string.h"