	.file	"stk_compression_bwt_matrix2.cpp"
 # GNU C++ (i686-posix-dwarf-rev1, Built by MinGW-W64 project) version 4.9.2 (i686-w64-mingw32)
 #	compiled by GNU C version 4.9.2, GMP version 6.0.0, MPFR version 3.1.2-p9, MPC version 1.0.2
 # warning: MPFR header version 3.1.2-p9 differs from library version 3.1.2-p10.
 # GGC heuristics: --param ggc-min-expand=100 --param ggc-min-heapsize=131072
 # options passed:  -fpreprocessed stk_compression_bwt_matrix2.ii
 # -malign-double -momit-leaf-frame-pointer -m32 -mfpmath=sse
 # -mpreferred-stack-boundary=8 -mmmx -msse -msse2 -mthreads -mtune=generic
 # -march=i686 -auxbase-strip debug\stk_compression_bwt_matrix2.o -g -g -O3
 # -Wno-write-strings -Wno-multichar -Wno-unused-variable
 # -Wno-unused-parameter -Wno-unused-value -Wno-unused-label
 # -Wno-unused-but-set-variable -Wattributes -Winline -Wshadow
 # -Wunknown-pragmas -Wall -Wextra -std=gnu++11 -std=c++11
 # -fno-keep-inline-dllexport -fno-use-linker-plugin -fverbose-asm
 # -fstrict-aliasing -fwrapv -funroll-loops -flto -fexceptions -frtti
 # options enabled:  -faggressive-loop-optimizations
 # -fasynchronous-unwind-tables -fauto-inc-dec -fbranch-count-reg
 # -fcaller-saves -fcombine-stack-adjustments -fcommon -fcompare-elim
 # -fcprop-registers -fcrossjumping -fcse-follow-jumps -fdefer-pop
 # -fdelete-null-pointer-checks -fdevirtualize -fdevirtualize-speculatively
 # -fdwarf2-cfi-asm -fearly-inlining -feliminate-unused-debug-types
 # -fexceptions -fexpensive-optimizations -fforward-propagate
 # -ffunction-cse -fgcse -fgcse-after-reload -fgcse-lm -fgnu-runtime
 # -fgnu-unique -fguess-branch-probability -fhoist-adjacent-loads -fident
 # -fif-conversion -fif-conversion2 -findirect-inlining -finline
 # -finline-atomics -finline-functions -finline-functions-called-once
 # -finline-small-functions -fipa-cp -fipa-cp-clone -fipa-profile
 # -fipa-pure-const -fipa-reference -fipa-sra -fira-hoist-pressure
 # -fira-share-save-slots -fira-share-spill-slots
 # -fisolate-erroneous-paths-dereference -fivopts -fkeep-static-consts
 # -fleading-underscore -fmath-errno -fmerge-constants
 # -fmerge-debug-strings -fmove-loop-invariants -fomit-frame-pointer
 # -foptimize-sibling-calls -foptimize-strlen -fpartial-inlining -fpeephole
 # -fpeephole2 -fpredictive-commoning -fprefetch-loop-arrays -free
 # -freg-struct-return -frename-registers -freorder-blocks
 # -freorder-blocks-and-partition -freorder-functions
 # -frerun-cse-after-loop -fsched-critical-path-heuristic
 # -fsched-dep-count-heuristic -fsched-group-heuristic -fsched-interblock
 # -fsched-last-insn-heuristic -fsched-rank-heuristic -fsched-spec
 # -fsched-spec-insn-heuristic -fsched-stalled-insns-dep -fschedule-insns2
 # -fset-stack-executable -fshow-column -fshrink-wrap -fsigned-zeros
 # -fsplit-ivs-in-unroller -fsplit-wide-types -fstrict-aliasing
 # -fstrict-overflow -fstrict-volatile-bitfields -fsync-libcalls
 # -fthread-jumps -ftoplevel-reorder -ftrapping-math -ftree-bit-ccp
 # -ftree-builtin-call-dce -ftree-ccp -ftree-ch -ftree-coalesce-vars
 # -ftree-copy-prop -ftree-copyrename -ftree-cselim -ftree-dce
 # -ftree-dominator-opts -ftree-dse -ftree-forwprop -ftree-fre
 # -ftree-loop-distribute-patterns -ftree-loop-if-convert -ftree-loop-im
 # -ftree-loop-ivcanon -ftree-loop-optimize -ftree-loop-vectorize
 # -ftree-parallelize-loops= -ftree-partial-pre -ftree-phiprop -ftree-pre
 # -ftree-pta -ftree-reassoc -ftree-scev-cprop -ftree-sink
 # -ftree-slp-vectorize -ftree-slsr -ftree-sra -ftree-switch-conversion
 # -ftree-tail-merge -ftree-ter -ftree-vrp -funit-at-a-time -funroll-loops
 # -funswitch-loops -funwind-tables -fvar-tracking
 # -fvar-tracking-assignments -fverbose-asm -fweb -fwrapv
 # -fzero-initialized-in-bss -m32 -m80387 -m96bit-long-double
 # -maccumulate-outgoing-args -malign-double -malign-stringops
 # -mavx256-split-unaligned-load -mavx256-split-unaligned-store
 # -mfancy-math-387 -mfp-ret-in-387 -mieee-fp -mlong-double-80 -mmmx
 # -mms-bitfields -mno-red-zone -mno-sse4 -mpush-args -msahf -msse -msse2
 # -mstack-arg-probe -mvzeroupper

	.text
Ltext0:
	.section	.gnu.lto_.profile.f43926bc,"dr0"
	.ascii "x\234cf```c\200\0F\206\227L\227\30\1\5\361\1\311"
	.text
	.section	.gnu.lto_.jmpfuncs.f43926bc,"dr0"
	.ascii "x\234cf\300\16VBiv\6&FF\346\372zF\6\6\24\304\354\374\221\211q\327\244\23"
	.ascii "3\330^0\375db`a`\\\306(\305\310\300\304\314\310\310\310^\317X\317\14\322\314\\\316\4$@4#\214\3"
	.ascii "1\215\205\5\250\214\221\277\36\10X\331\30\301\300\276\36\14@\274z6\346r\24\307\260 \361\331A\12\320]\3\24\7\0\305\331\23\\"
	.text
	.section	.gnu.lto_.inline.f43926bc,"dr0"
	.ascii "x\234\215\221\277K\303P\20\307\277\357W\336k\33"
	.ascii "5\6\324:%\10\22pt\220N\22\20\34\273:\270\370\217\10\31+F\350\324"
	.ascii "98\11\376\3nfvr\20\21\321]p\21\\t\363\356\245H\203\5{\201\357].\271\317\335\275\247"
	.ascii "0\337vd\343-\220\275@\220\1j\375\343Z .N%\344\375\212\346\317*\4\304x\270\200\223\330|\206\220\20P\220\4"
	.ascii "3\361\343g\200n\275O\251"
	.ascii "7\253\33\205\256\22\307\\\275D\354\361\220\237\231P!\246Y\224g\260\344,ig\365k\322\205\35e-\22\211\223"
	.ascii "0\243\314q\30\371l\304s\367\321\347\6H\276\335\24\305\273y\222\335-.\316\5\202*i\241\250(\234\205\220\31l\275\377-\37\324\267g\13\225\7\30\224\333\302pU%Xk\361\273\317\11K!\302\203\313\311\203@\347io\316Z\254S\244\272\331\210"
	.ascii "8L}6e\311}\230\373\353\243?\202\343\322\361\351\225\256tfYB\37\275Z~\267X\273\343\341\271\247\246\203B\357\352\260\325\213L\366\232\313\373\337\341\7\36\36U\247"
	.text
	.section	.gnu.lto_.pureconst.f43926bc,"dr0"
	.ascii "x\234cf``\20f\200\0N\6)F\11&)f)\26)V)6)v)N\11\0\14"
	.ascii "4\1+"
	.text
	.section	.gnu.lto__ZN3stk11compression16__bwt_compressorC2Ej.f43926bc,"dr0"
	.ascii "x\234\245\224[KTQ\24\307\367\332\347\314\375\344%EtD\31*\361\245Q\210\352\241O\320c\37 \20\225 1S\234\201z\21\317\350 \21\225\223\231Xa\320E\255\246\306\264\234R\273L7\263\213\232\267\4\311\262P*\10jR\220!\302\326\332'\235\31e\242\301\201\331{\255\263\367\372\357\377o\257\303\221\330\332\237\25\377\212\201\261]8\203\304\200{\206\30s\31"
	.ascii "9\0\5\14X5\207j\370\312\203\34<\1o\263%\267UU\325\37\237Z\325=\1\10q\306\346\271\246\3m\220\213{&\272\276\365*R>0\214{|\13\203\226/<\304\301Fio\303@\263\236R.S\332\356\357k3\347\\R=53g\374uF\367\356\20\227\240\35$\24\204+`\205\253`e\370\210\301"
	.ascii "5\310\301\355\223\236\201cfi\273\20vw\327\17\312\242"
	.ascii "4p\274V\306B\31\274\253\13e\6\327!\207v\7\335\277'-z7\332N\322\334\302\15\320\3\316\35\33\3\352\322\322g\37\337\204\264x\212\4T\242\303b\235\1\7\275\211\"3\15\12\245\11\24%\322\220Li\12E\251"
	.ascii "4\244Q\232NQ\6\15\231\224fQ\224M\203\215R\306f\361d\272\321"
	.ascii "9\316i\226\246\240\246)X\237\267\312\37YC\203>\320\343\302\207\331\341\21#]\30\266\7\323\243\256\313\337\15-p\316\225\24\342\306E\316\241\3Ai\341\324x\343I\305\356E\1c\210\233\340&\264\300O\321\25\350\4\373\"^\341\24\324"
	.ascii "6\325\365_\334A\272\213\\\207\217\"\333\241\303\253\352B\251w k\33\14\270z~\354\204\217W\375R\217\220\246y\236\343}\301-\250bX\36\342\26T\254i\370"
	.ascii "8\1\177\215\376\237"
	.ascii "3\5n\13gt\365\320M\316\14\244\343\17"
	.ascii "6\226j\347\232\342\200\364\207!\357\200]\20\352"
	.ascii "5\25\263&4<\363\244^!<\23\276\26w#\361\224\30x=\2\317\274\214wag\\t\33\240WX\22/X\37\321)\202\256\363\264W\322\316M\210\3\357^\30\357~4^\242&tvrnA\22\335C\274\7\221x\311"
	.ascii "1\360\36\12\274\304\25\274\267k\272\347Q\3\366\177\331J\200\200\260%1\261"
	.ascii "6:4\335c\312\267Sc\37\201\35"
	.ascii "6[\205\335\307\220\217\36\264\306\256\240\247\304\201\376$\214\376"
	.ascii "4\32=\25\205\242Y\323b\260>\23\254\251\353b\355\217\301\372\34Y\267h\254\3\304\232\246\265\271i\231"
	.ascii "5=\16\326\27a\326\227\321\254\31(\24\315\232\31\203\365\225`\315X\27\353k\341C^\303:\30\356\353\20\261fj}]a\315\212\203u8\314\372&\232"
	.ascii "5\33\205\242Ym1XG\4k\366\272XGc\260\216\205\373:N\254"
	.ascii "6\366\36\\\201iY\373$\323\7\34\350\303\215\4[\213\313\313**\367"
	.ascii "9\34%\345\7\367:\234\245\5\21yA\321!gAY\241\263\262\344\360\266\274\342\212\12&;\367\227"
	.ascii "8\364\205E\7\312\213K\377\0\266\230a\350"
	.text
	.section	.gnu.lto__ZN3stk11compression16__bwt_compressor8generateEPKcj@12.f43926bc,"dr0"
	.ascii "x\234\225\224\177L[U\24\307\357\271\367\365\275\226V(\310"
	.ascii "4!\376aB\310\376\21M\314\376\361\37\263?\227\314D\377\323?4\315d$6f@\332&#&\313\36m%Ftv\270,K\264\203!+\342f\221A\213c\303=\334/\266d[\14?\26\221l\230lS\3\376\250\30k1R\317"
	.ascii "9\267\333\0\321\314\227\274\366\376"
	.ascii "8\347\363=\347\334\363\256\22\377|\266\343\373\242)D\0\377\301\24 \23W\205hsK0\364@\351\301\270\333\220\352\235\213B\330e\256\270%l\237\13\200\326\5\210\275R\31.\330+\15\1"
	.ascii "6>\6c\177\220"
	.ascii "9\11'\323\277]\361~/\13R<.p:\332"
	.ascii "9q\310\244)\30"
	.ascii "4M\365.\276im>j\333\321_:\277\353\201\304\201n\334\222bI\12HA\15\364A\15\341?\206\315h;}bq\324\247\236\2\362\353\313\236J\225\325}d'\242v\"A>\12\372A\255v\303%\1\237@\35\32_XJ\306\14\265\205\35;\226G&=\350hG\235\211\230\261\255 \15"
	.ascii "8\266\336\21\223"
	.ascii "8\316\216\355\13\267\323^\365,;Fg\213=\6+:\313\354\350\202O\327;\272\4\244\241\216\254s\361\277\256{\315"
	.ascii "8\226\302O\311`\16\3`\202\20\12\367\332\16\177\373\236Kmc\352\265\364"
	.ascii "7E\263\366\10\206"
	.ascii "3?1\265\325\211w\333+\305\"`\11\340\263\265p\375\300 \324\242W\246?\365\256T\317"
	.ascii "1a_on\330\303\204\356K\335\366\326{\4\23NlH\30b\302\362Y\347kS\275\300\204\301\261\344\212\245\11\227\327\22\206"
	.ascii "7$d\240v\240\312\261\213\305\241\344\370\24<\2\34\225d26\4\226\334\4*\203\33\13by\200J\351\245\241\217~\312\331\254\2\207\340\247\237J\306U1\242\232\367"
	.ascii "6\11j\0q\13_\354\261\333"
	.ascii "8\216[j\26\242\7s]\317`\260\363\205\236a\257z\211\3\37\270|u\320]*\336\215"
	.ascii "5\305\313n\24\370\332c!E\30\301\27"
	.ascii "5)\6>!\314\356s0\321\360\346\255k_\271\251M\335\354\367v[\357\317V\22>hK\330\363gB\5\351\311\343\361\237$2n\276?u`\277\257\376\30B\335\244=\12I\370Ur\245NA}^\232b\6\242\316\376\243\222\320\244HK\230Pv0\365\12-\345\245{\265\202\377\277\350\26\234f:\20}\14\352\305\34\264\333c@\30\262=<\271/-\367\374i\277E\266eKd\6_\300\36\201\22y\242\232\5\351\325\322}MZ\332\373?\244\317\334\227vPz\26b\207\332\347\224\346\370\20EyQ<7\377"
	.ascii "5\36\254\12\214s<%\373\273\361\344\216?\257"
	.ascii "9\345\17\34\217\17\276\344x\370\343:\213\361\314\200\256\360\20U\270\234\302\353l\237\231\266"
	.ascii "4\267\2\305\220\320\357t=\306\227O\21\37\274\37\316!\31\15\17\232\332\312\217\206\334"
	.ascii "0\234\333"
	.ascii "9C\257V\"\16\367\356\11dH\240\222Ou\344\10\347J\275D\331\13\354W%\360\206T\254\376\323y\257&T\345\261\365$\254\304&\263@\362\222\344+\4\234G\251\273TFTQ5:a}\23\372"
	.ascii "8\375\314\37]?>Du\261mg;B\362\330l\27\250"
	.ascii "4p\21+\201\22:\354\337"
	.ascii "3\245"
	.ascii "3\251&\203\276U\22\\\231j\216\322\20xq+L\301/\364\262\24z\302a\200\230\206\370\225\330R\215\6IJ\27\237;\200*\246<\335Q\206\221\252\271\216G\357\0n\225\313\17\27\36F\256Z\\0\221\354*}\257\331\334p\311}\323\3\237\251\204\211\373\37\317%<\323\33\0%\206\240+\1\220\215\233O44\357j\11"
	.ascii "5\206\303\301\346\246\227\303\221\327\3\253\346\201WwG\2\273vDB\301\326\247\237lhi\21F\344\265`\330\263#\20\16"
	.ascii "5\4Z\"!\34\205\232w\207\203o4*\374W\301\235\255\26\276\201\306\246\235\26\316\321\263\365o\233\251C\245"
	.text
	.section	.gnu.lto__ZN3stk11compression16__bwt_compressor4saveEPc@8.f43926bc,"dr0"
	.ascii "x\234\225\224]hTG\24\307\347\314\334\275\367\356GtI\322\227P\260\20\202\24j\5)\202P\212\370$-\364\241\320\267\302b\215\320\320\306\204\354\202\301\27o6\253\5QY\243-\13m0icl\252&\335$\33\33M\354F#\25?iIRR$\365A\203J\254\335*\233\246\255\331\376\317\314\222nl\36\354\300\334{\347\314"
	.ascii "9\277\363"
	.ascii "1g\256\22\377\35oaN\373\204x\27o\262\5\311\344\15!Z\\I\226\371P\346c\314\265\244:\360\275\20^\300\227p\204\27\362\21\261\\\220\330#\225\345\243=\322\22\344aX\32{_\346$\15\367>\271\36\274'\27\244xI`y\266\355r\312\346%Y\274\354\356\232\333\353\254=\356y\361\337~|\330\220<\332\201\35)\36KA\335TE'\250\212\351_\321Z\250N\366\317\235\15\251\365\304f'\206\316u\7j\276\364\222q/\231d\33E=\244J\315 \22\364"
	.ascii "5\325@9\371\311\364\5\245^\323\206##3\17\\\30z\361lo\253\265uAZt\362YC\344p\212jX;\227x\372S\320N \241"
	.ascii "0\307\204PN\223MBX\330\333\233\317L\222zCS\257N\26\16\371\252;A\275\375W\377\346l\242\303[,\24\210\341\275\313\341fP\37U\303\352\366\302\27\203A\265E\23\372\256\334H\273\206\360\367D\11A\322"
	.ascii "7+\22\322\232\220\351\351>(\325\233\232p\250+7\350\327\204\216\247\35\336\346%\202\217\372W$\14h\302\237\27\263\323\266z[\23\322\243\355\213\216!,.'\14\256H\310Pu_y\326+\24\6\316\214\15\332/\220.\233\324d4\6jo\353L\35\35\255\253\345~\224\227\2\374\10j\373\20\261M\31\4\366*\226\256\346\362\207\361p\312"
	.ascii "5\255B[U\12n\12q\7\23mw\27\337\11G\375L\361\241\334\350\232\345\247\304\376\330\33[1_\37\30B\35\"{^\332\320\375\345\316\315\37\\n?Wp\312\373[\272\36"
	.ascii "9\355\364YKxA\372\347\221\351\31N\17\33G&\216\36\16\255;\11\246\313\307\370-\265\323\357Rg=L\353\304\24IF\262"
	.ascii "7`\5\207\222>\377\272\361\342<7\26\227Ac\211\261\347J\260i\306:\32\233\33\317\371\15\327}nn\200F4W7\354h\11w\200\271.\270\255m\373\246R\273\15\327oB\356\311\36{Q_\313\2\6\256\316y\220\241\370\251m\264\2P\324g\17Yj\337\270e\244A\340\260\267\344 \303\16\202p{\27\267\17?\12>\244\374\376\331\324\4\31\375\262\322\23\10\352\310"
	.ascii "3\177\34{X\206\224\320g\241y\224\344;\316\210\262H\200\363\237\371\370V1\200U\260\326\316\213\353\325(<\244\254\224\17\30Q\270\224n=Kw`Cc\232~\241Ho\353\334\310\226%z-\236\227\335\244u\251\250{\21\272@\233\274\177M\275c\\\225\263\302\313UK\211\243U!4J\371\324F\243T\301\371p\315\226\325\277B\227\307\22\370q\252)\212\207\205\21Ka\26\232Db\222\22\327[\373\16(C\222\246\252b\226\20KH\342Q\256n\245\273h\226\260\343\312\317\323#xW\250\271\364G@\373\226n\307\265\316\242}\345\377\350\311\361\177{\362\22zg\206\212gW)\370\6\22\340\350\253W\266"
	.ascii "7\324"
	.ascii "76\355\210F\353\32v\276\27\215}\30)YG\336\337\25\213\324o\213"
	.ascii "5\325"
	.ascii "5oxu{c\243\260b\37\324E\375\333\"\265\321X\244"
	.ascii "1\326\244"
	.ascii "0\235\246\206]\320iVu\265\315\16fd\307\316\332\177\0\20\363\17"
	.ascii "8"
	.text
	.section	.gnu.lto__ZN3stk11compression16__bwt_compressor11sort_groupsEjjj@16.f43926bc,"dr0"
	.ascii "x\234\215U[l\24U\30>\377"
	.ascii "9\263"
	.ascii "3\263\263[\350\235\322\26"
	.ascii "0mH\23#\220\30\215<\370\240\17&\306\7\37|\360\301\230TZ@\253\366\222\266\6\342\13\323v\213dE,\345b\245 \345\"\330\26\250\245\226\12\25X@\240.]J\13\5+(\225\264\15&\200\255\30\326M\200\365?\377\31d\267-\211\223\314\314\371/\337\367\337\316\231\21l\352\265\37\357\2"
	.ascii "7cU\370\206\4\6\274\356<\12&\7\217Z\10"
	.ascii "0\324B\343\256"
	.ascii "5y\314\266t\371\364\272@Wj]\331_6\270\266\366,C\273\351"
	.ascii "3\320nrw\323b\224\254\361"
	.ascii "4\224\334`)oK\321\236"
	.ascii "0=\\(w/\271{\1\244\236\1[\305\205\346\322\15\323my\274\260Jx\30D\361\22\224\253\21+\374\301'8\324\5Z\33<y_\333\266=\276\263\177$\315\336\370N\204"
	.ascii "3v\227\253\332`\17\344\241\323\340\301[G\274b\21"
	.ascii "0\\\37>\360w\310s\223G8<%\305#\365=\15\272\24\271&\305\275\207\272\367X\363w\331u\325v]]\23\252\5\354\5\201t\360\15dB3d2T1h\201\371\350\274>x\343\232%\236#\332KC\267\7\274\4\14\4k\264W#\\\203\326\311@\215\301>\2\236\354\15\325\202x\221\200#\273\352\375\232\2F\34\340\376i\200\7\10"
	.ascii "8<\261\241\321\22\257\20p\177k\315AP\300\346Z\5l\233\6\370-\314\227\336\23\276\7W<\272\17\373\224\250\272\3\355\240\3c\32\332::\367\235"
	.ascii "4\304\353\304\272\241u\274M\344\356\260\355\352\341\206\332z\323\356\261}\303\321\350\274\10w\301\301xv\247\303\35\220\213\260\332{\235\203 \336$\212s\203\321u.E\361\345\350'1\24:|7-E'Q\354\376\242k\255.\336\"\212O\277\351\12\230\212b\313\250?\206\302\200C\323Rt\21\305\5\377\345[\206(\250\262i\264;\327u\334\320\24I\343i\177\\)\337OKr\30r\333\222\3v4z\367t\375\232E<\27\250:NOAO\215\234\14\220\343"
	.ascii "0A\366\326\2\271\31<\330k\35\267"
	.ascii "0\216"
	.ascii "7\201\352\231A)\315D\265\231\210\17#I\256\222\345*\205(R\211.Mj\323\245v\226\\e\310\325l\271\312$s\26=\263\11"
	.ascii "0G\252\347J\207yr\225C&\306Fp\224C\214\215r\216/q\31\252\3\355\301\347\261\366\252\257~\377\334%\226S3\373\16\\\215\352\324\207@K\223\375\222\257\311~\30\215\202l\303\221\351\332\200\210\317\"]\233\204x\237\320\247n\324D\325(\2m\361\350\37\236\200\276\323\330r\314\22\345\204\356\332:<\340Q\350\241x\364\261'\240G\333\3\307\270\370\230\320\343\241\201\36\7\375 \36\35x\2:f\233C7\344\302Q\274\261Qp\34\357\23x\343h\344`dG\351\4\340\324O\342"
	.ascii "9@s\230\33\14\373go\327IsBjL\366\13T\37\232\350\255vK]\230{0\302\365\221\276~S~0\334\24\320_\265\373Oc\33"
	.ascii "4V%F\270\25\346\26\234\222\351\310\203ti\343z\357\202V\314\304\224;\377G\330\6\177\321W\11N\303\2\344\255iX}IS\264\11\310\34\346^\14\317)v\247\214\235@\261\333C\3\206r\232\361\277\203\31p\206\202\201\14v\26\203=\342\355\222\274"
	.ascii "3d\225\201\356`:\251\272U\341r\7\11\346"
	.ascii "3h\7\35\17^\3"
	.ascii "2\36\225F\220\271n^}?C\245"
	.ascii "1\23"
	.ascii "5\362\260\366_\357\27\262\13.<\22=\230\205,HW.\211\30\4\35e\376\367\374\275YJ\231\24\333:\203\222\356\374g\373\355\4\254F\16\24Q\360\223,\6\202\230{,[2\365'\211\330,\245J\231\2Nv\300\347$\370Q\271\207e\372)\377\211\35\252\32Y\252\306\360\327#\250\256"
	.ascii "3-\233\235@ia\236:\271\224t*%\315)\305\31\327\254)\341\323\235\360\275\223r\317\240\334g\305\346>{\12"
	.ascii "8\303\1\207$x\20|\275"
	.ascii "5c\340\370\206"
	.ascii "1SF\31\273\330\231\\\32\316E\177\10\36W7\233\206"
	.ascii "9\30\314~<\257T\362\327\251B6\6\231\250q\261"
	.ascii "0\376\336`\14\262\244p\377\342n\300\267\206\306ldpm\35\274\351\305@\32 \314`\370\23\6\344Ld*\200\306\224@\315\23\216@q\270,\264~\365\303\346"
	.ascii "7T\262\251h\307\332\372\267\354\251\231I\33\3\277\236\347\261\260\270\366\247\312\2\373\204B\230*Y\314\203\207y\246\216I\201hxa\14D\230g)\11MZ\230gK!E\310\262L\271G\221b\250\246c\223K\261p5Tiu\263"
	.ascii "5.j\322U\247!TB\222\332\300\367Z\266"
	.ascii "8m\235\203\240\311\203\236K\203\236\23;\251yS&5\327\231T\237\32su\375\216<\351\32\343We\333\201\247\343\266\363\5\364E.r\237\270\242\16\363$\300\302"
	.ascii "8\362~\2$QA\226,\227\332|\247\331I4\7\313\215\353+\235\340\34r\367\260_\351\4\343\210\272\325f\307V\205\234n\203\374\234Q\267qe\360\237"
	.ascii "1d\216\265\30Q^\371\347\370\15\252\2\221\327\324\27Q\376U\0\225\370\265z\246\260\264\270\254|YEEQi\311\333\25\225\37\344\307\310\371\5+*\363\213\227T\226\27\255|vaaY\31\323*\337+\252"
	.ascii "0\226\24\226~\370Qq\211\271\244\274tE~\301\273\316bY\311RC\276\227\227,\25e\225\345F\321\322\225\371\370\26\205\305e\2\365d\303\265\341\200\14\7\363/\273lO\305"
	.text
	.section	.gnu.lto__ZN3stk11compression16__bwt_compressor11find_groupsEjjjPjS2_@24.f43926bc,"dr0"
	.ascii "x\234\215VkL\24W\24\236s\357\356\314\260\273(\"\"\370(\276\200\376\250\232"
	.ascii "4\375\321\244\215\251M\232"
	.ascii "4i\322\37\375\321\364GS\212h[Ry\24\260\372\247qxHZ\264\26\321Z\254\265\342\373\301\253>\20\301\212+>\240<\205\202Hi|E\264M\325B5l\327\250\333s\316\35\333\5\326\244\233\314\314\275\337\334\357;\347~\347\314\5\251\215\377m\303\353U\227\246\225\341\23<\32\210\342\16M\313"
	.ascii "5\5\204\251\201\4\247\32"
	.ascii "8\204\336(5\313\345\356h\321"
	.ascii "4\313\343V\370b\247p0\340\342\267\36]\30\237'\342\314\244\273\307\0S\221M%\267"
	.ascii "8L\310uM\264\332U`\340{\27\0\301\32h\253\205t\270\235\272a\206\271`\265\14S\271"
	.ascii "95\10\340O\362\344w1,\240\330[^\352N\334cY\326\320\365\276\212\31\326\246\367\375B\323\356\11\265\36\366B\".\352=|\273\336#\27\202\206\343\272\252\373\355\356\337\204_\300,\232\326\227"
	.ascii "4\227\352"
	.ascii "4\25\16\232\356;vb\257+~\227U\234g\25\27\227!,a\37H\224\203\375"
	.ascii "0\15\16\300"
	.ascii "4\15!\15\16B<.\336\320r\375W\227|\201e{\372\357t{\230\350m\311w\274\356\27\16(\37KthP\301\304\306\266\366"
	.ascii "5 _f\342\215]%E\16E\364\333\304\312\20\304*&^\35\336\270\325%_cbey\376aP\304\3k\24\261:\4\361\7&\336_w\311\357\226o2q\347\310\340\10\21\255<o;\23\235ph,\21\215>\314\304\273\233\353\275a\362\35&>\350\30"
	.ascii "8m(\342\3\233x$\4\361(\304\323\352\341\202G}n\275\0+\23\241\352\1"
	.ascii "5\240\3\326\20\337\335\271\266~\221\\\302\242\305#\376\36\307\334\35(z\265\355\\\221i5[\5W\3\201"
	.ascii "8\277\320\341\330hq\273\244\265"
	.ascii "0\27i\271\337_\373\312)\323X\242\263j \240\263D\31n(H\340xH\201:\26X3R\323\13\362\23\26h\355\15\254w\252\34:\366\24\6\345`@}H\211\23,\261\373\233\332u\272\\\301\22k\367\327zM%\321"
	.ascii "9\30\274\15'\374\30R\342$K\\(\272x\333\220\237\345Z\334\214;\327\37\271n{qi\214\27\15!EN\301\334\352H\257\25\10\334\273R\262\177\221x\26\330\36\301{\224|w\362]\7j \23\250\33\360\23\303\366uc\255\14\17PC\206\363~&pJ\23\21"
	.ascii "6#\250\216\223h\24I\243\311\34'\212\205\246\20\32M\350T\32\305\320(\226FT{s:\335f\0\265\316Lz\23\307\351\314\2j\211\331\4\314\241\5\363\30\215\247a\2w\214v\3\333\243O\323\6\205\300\207\274\10y\336-\255q\350\307\227\376\332\257\245\314\5v\370\314\365\374\200\355p\373\340\332Q\346xC\231\203\224#5\25\215\206\374B\361"
	.ascii "7\226\17UK\346{\233\313\254W\12\312\254\307\201\0\20\275\361)\364\273[\17"
	.ascii "6\270\344\6E\257\375\356j\267[\321\373G\323\317>\205>x\310\333 \344\26E\37j\357n\266\351\217F\323\317?\205\36\364\375\220_\344>\234\306\353\14^\347\360j\302\13\353FU\243\372\360\347\205-\321\214\37\231\372D\256\334\350\354"
	.ascii "2\351h#\370'\224Fc\255>\340\25(\340C\234\220\355:#M\204\230\332/\220w\354\320\255\235\6a>\341\16\226\11\343\264\212rw\377il\203\255\271\21~\341\362\11\27\264P\322\344o\317\246\15\236\371\345\230\257I\37N+l\203\277\370\30\206"
	.ascii "6\230\217\272\371\245\205"
	.ascii "7\244\222\15Ge\237\360`x\301\261OP\354p\216=|\253\333\216=\341\177\7sB;\7\3\12\326\201\301\236\350\236$\335\11\264KoMk4Cuj\343\324lR\33\322\271\331\352\326\266+WN\323KI\271n.|\30\243\322\230\210\10}\353]W\272$\233\211gj'fA\33\322\325\222\10\14\202\13)\377\221\242\236X\5N\12\266\316\311I\327\374\275\375N8\356\206\312\216,\270@\233\201.\314=X-\222\375\231\304j.\5M\36G\216\264\311\335D~\262\335S\224\376d\336\233C\303\277\301\222"
	.ascii "7r\267\362"
	.ascii "1(\231)>\21"
	.ascii "56\367h\316}\212\312\375\254C\201S\307\305\213\266\343\375<&\331\30Nvjp\262\261\343\310"
	.ascii "16\271\207\310\275P\320\237\177\323\316(V\345K'\200[+k\322`\20\255\302\177\0\250,\21\232*\226\240x%\205"
	.ascii "7+\337R\234(\204"
	.ascii "0D\327\267{\363'rA\360\320\353\345\356\26\377U8\212\342t\332\355f\322\34\177"
	.ascii "7A`1%\340\324M&\351\324\0\230yC\321\371\252\27\325\322i\24\17\251m\371\321\12\220\210q\206\203\302\320\216KeiG\325\247\352\355t\237\200\261\216\316\364\211\31\370\206,)\331\221HX\220!\271\226\345}\211M\231i\233r\21M\261\233\256\264\260{\201\322\230\355\23\263l\215\206\242\36\273*s\224\27\250\232\360T\325\331\266j\37\253\316Q\326]\256z[)\314\243t\203\275\252%\257\346\361\356L2\3-\212C\300\320p\241\16"
	.ascii "7\301\211V\31m\3\273\311"
	.ascii "2\235V\205iM\6\4\25Gjj\302B\\\334\366\374?6\313\177\275"
	.ascii "3\225\357\310\217\303\277>x\10\211\266\376\207(\214\257\234&\242\272\250\30"
	.ascii "8\12(\354\242\223\237\315=_\375\236\242\307\207"
	.ascii "07\201\215\211'\33\206\312\236\11a\303B\266!\301\266\341\22\332\300G\337e\310\365\336{C\35\221\324m\200\341\360pz.%#-3kYvvjF\372\273\331"
	.ascii "9\37'\5\315\223\226\254\314IJK\316\311J]\365\374\202\224\314L\315\221\363Qj\266\221\234\222\261|EZ\272\231\234\225\261"
	.ascii "2i\311\207\366`Y\372\322\260\344\345\251\331"
	.ascii "9\4\331#\304\\<H\311X\221\236#q\231\314\314\311"
	.ascii "2R\227\256J\302\247LI\313"
	.ascii "4\210\372\344\371A\372R\303\326"
	.ascii "4l\311\177\0"
	.ascii "4\231\257\26"
	.text
	.section	.gnu.lto__ZN3stk11compression16__bwt_compressor4sortEv@4.f43926bc,"dr0"
	.ascii "x\234\225W[P\225U\24\336k\357\377\306\341\34\16:Xy+\25"
	.ascii "0o\210:M\315\364b\275\366\320COM\323\14\223\227"
	.ascii "1'/\14\322\350K\343\217\220"
	.ascii "5\246\206\350\24%\12\26\241i\336R \4\25\264\324\314\240\243\201"
	.ascii "7\274\5\231"
	.ascii "6\246\242\344\221\321\244\265\326\376\17\374t\260\321"
	.ascii "3\303>{\257\177\355o\255\365}k\357\377\240D\374\347\32\376e\207\204X\214\337\220,@\26"
	.ascii "6\12\221\347HPz\242\300\324\23CO\32\34S\32\313\17\13\341\6\254\2[\270AK&\36P\270\262\33\217\242"
	.ascii "1hC\2\271\201\243\277\33\234\4\351h\367\0\273\7<\367\260v\17\353"
	.ascii "8/'BH\207\11\352I\203\23\222A\275/\211\367%\1\220]\200X,\225aZ\266\223\20\10'\6CI\260\330T\2\272\361\23\346\202L\1\17p\241x\221\340_\204\374\213\253\262CB\315\266\316\237\23\257\310.)F\10\\\356):Rl\321\22\14ZV\224_{\337~\366+\327]r\363\370\256\35\241\302"
	.ascii "5e\370H\212\333R@\5\14\201\215"
	.ascii "0\204\362\331\4\317\242o\363\267\327\366\4U&\320\276\215U\265\25\201\364/\335\302%na!\355Q\360"
	.ascii "5(\377"
	.ascii "64\11\330\14\351\344\335Q\360\317\311D\253\300u\335\344N):%tJ\331\211\317\321\37\321\267\200\5BX\350\227\177\374\372\225\260z\216#\334+\271R\34J\335\200\231]\334\362\345z\307=RVp\261\273\373\231.i\300"
	.ascii "7}#\351\17l\205T\202\330\374\307\237A5\225!\32\253:K\25C\224m\315"
	.ascii "7|\0\333\372\5\330\316\0y\353/}l\252W\30\240\244v\353"
	.ascii "1G\347\260\275m\245/\7\11;\372\205\330\311\20\205W\327oLR\257\352\34\32\227\35"
	.ascii "2\31\242\376H\231\373R\301\27.\352\3\204\360m\277\10\273\30\241\374\323\352\345\226z\215\21>\332T]\357%q\267m\31&\341\366\324\261\273_\210J\206X\261\242zuX\275\301\20_mnh5t\22\347(\211\262\236$\252\372E\250\206\324\355\3\353\335\356\356]M\253\256L\205)\300\354J\36\25\23e\360hr\305\26\217"
	.ascii "6\217\16W\200\215\214\312\207\331?\231\307\1\330\17\346@\32Rx\347 \36\237$\303S4\14\346}\324"
	.ascii "5\346P\34\214a4\33N\263\247i6\202\301G\262\323(2\244\322\243"
	.ascii "4\232\245\323l4\315\306\260\323X\232\216c\26\306s%\23\330\234A\346\211\344\233I\263Il\234\314\243\20\355\330\207MB\374\216\235\337$\324\31X\262\247\243"
	.ascii "9\22B\342\352\253\16\274\250\246"
	.ascii "1\207\25\273\366\275\257e\250\257\363\13i\300w\375q\210;N\\m+4\324\\\336\275\252\374\360A\263\277V\334\363\220\315\276#\3"
	.ascii "5\220J\34B-\376!k\224"
	.ascii "3\21A%R\201|\202P\265:\260\242"
	.ascii "2\214{/\264"
	.ascii "7E\34:\343\26C-\313+\277a\257\203\265y\205.\36\245\241]\322\216\312$\330K\321\360\351\352_\327\254\12fl\301@N\227t`\37\254\203[\322K\342x\343\271\232\204\314\14\312s?d\220>\324\35\365\220)Z@R<J\15c\12\242lC3\350\24\222\375"
	.ascii "1\223\377?\\\303C\302\35\300pi:\334A_\270\255\24.\231\302U\355l\211\330:\336\200G\216'\341{\216\7\204\373\3d P~\221\245Q\6j\240\7\371'\252\200\270\223\372\272\205C\10\204\361\212.=C~~v\15\16Py\267\364\257\20Ev\335z\272\31\220\16"
	.ascii "8L\301\341\10\306B\\&\247\243%\22\322qR\36\203\235\37"
	.ascii "9[\31\307\316\321^1~\362\261SK\354\244\364\25c\320c\204;\366\220p?\367\212\321\350\13\267\235\302\15\242p7w\234l0=z\342\371H\361\370hBx?\177\30\10~\321\354Vu\264\346\331}\273\236\373\31=\"T\305\223\217!\361\361^\211Oh\211K,\215\362\224\6*\217\\\210(N\0o\261_9\201\374\242\245\235J;\15F?\26\235\312D\13\235"
	.ascii "4\264\12\272\36\224(\260\325)\310\243\16\317\333t\343\236\243\26\361\351^W}\260"
	.ascii "4I_\321g\333\212\372\274\253\232\37\341|\267\320\31\216p\265'\301\302w\243\240\30z.0\217%\311Bg\341x\13f\336\360\26\254\272\362\26|@\244\267\340\303\11\264\250\277w(\205\360\370\352 \316\305e\300\336\14\313\272\312\335\12"
	.ascii "7\204K\366\336\204\313\200b%\243iS\10\267\205\277\331\333\216&|\232\"[\331\313\10_\253%/\3UG\23y\251\360\375Z\362r\220!YR}\27"
	.ascii "1G\206\227\327\244 W\206\300\237"
	.ascii "6x\227\346\27/\275\263\366s\240\350Q9\34\267D%K~gY\247\245\215O\373\272\6\270c\206{\35s\12\245\24\255\360\201{\201\367\23o\353O\254\334&\337\273\347~Hb'\334&\235\341"
	.ascii "4\274'\260!\220\37\4\213\312a]2\240"
	.ascii "5\275\276"
	.ascii "6\240C\214\210J\23"
	.ascii "7G>\257\310\17\263\362\370F;\343i\354\321\202N\254\261)\360"
	.ascii "7\230\322\4\262\331$\254O\226\36"
	.ascii "34\324\20\264\304\272\246\330\253`(\362\25+\313\213"
	.ascii "8,\256\250\241^Qg\251\250f(8\235\377\204\347\252\25!ML\232\252b\23\223"
	.ascii "1^\307d,j8.\345\300"
	.ascii "0\355<\22\253\354i\317\223\261\366\34I\200\247\224\347\22\303C\0[\234\265To7)\12"
	.ascii "2\201\236[\307j\312\1\35\34q\353\240'\323\365\222\230L\351,\323(-S\373`m\34\35WQ\272WQ\253\226\351"
	.ascii "3w\307\254~eJ\274\315g\375\\L&\254atT\246aGa\353u\311\240\26\353r\211G\335\230\250\264\342\325\31\303\365$\10\374M\15>u\254\276\352\214\242\275\377Q'\225\325\31\345W'-\256\226T\257\226\363\377U'\255W\35\\M\260\21j\214C\251\4\210Zf\350A\311\33\332wl\34\254\364`/x\260\247b\260c{Dj\307\367g\245\5\277\313D\372\361\301Z\325\221V\240_s\367c\257\271q\217|\7\32p\221\357@\372/\0.\341\35\30\273\261+\211\261q\214{\351\5\215:\376"
	.ascii "1n\326\337zo\326"
	.ascii "6\37j5\241\216\347k\346\357\303a6\365\\3\310SPl\260t\17\237/}^\7\235\24\225v\217\302u1\205'\261{H\334\264\374\307\317\326\2\267\224.\322{3ho\257\302l\233\210U\341\23Oa6e\306I1\321\223\242\275G\341$\317\225\262g\201mJ:\361.\366\376\244`\335\376"
	.ascii "9\230M\222\367\203\260hg\367\6\245\335'SN\347\301{\277Nf\5\1\335\260\305'L\237?7;g\346\202\5\263\347\317{sA\356;Y\276u\326\264\205\271Ys\337\312\315\231\275h\312\304\351\331\331\302\310}{\366\202\300\254"
	.ascii "9Y3\347\315\310\232"
	.ascii "7s!M\247\315\232GS\225"
	.ascii "3\177\241\232>\177\216={\306\242\254\354\334\34\376\306g1\357\351\357\346\304\274qj\243"
	.ascii "7y\375\13\225\300\257z"
	.text
	.section	.gnu.lto__ZN3stk11compression16__bwt_compressorD2Ev.f43926bc,"dr0"
	.ascii "x\234\225\223\333k\23Q\20\306\317"
	.ascii "7\273I6M\3A_$O\202\226\276X\13\12}\324W\377\10!h\21\14R\33\232\200\202\224nc\204\342\203\244\326\207\200\264/j\253\326\246\246\326hR/\351\315\372\240\25\357\27\264\12\266\336\20"
	.ascii "5\246P\202J\235\331\264M\274\20\322\205=\347\314\231\331\371~3\313h\352\337\307\313\357\244\256\324V\336\241)PtZ\251v\203\0"
	.ascii "9(\250"
	.ascii "6B\33>R\226\20\315\364\307\\\265gL\323\374\26\316\351G\326\345I\251\34\25\322\240\27\265\34\362x\350s\272Z\253\207\342s*>\177\327\365\201\362\204\365b\246\217\337\216\331\305$]\314\276\344HoU\315)3\32~\363s\256\307\210\354\310\223\206>h\234\20g\341\305"
	.ascii "9x\25_)\234G\215\304g#\277\236\272\354\21\26\367\24D\321\17;x\37\\\223"
	.ascii "1\27\27\337\307j=\314\314\301\32\177\246\333dq\310\342\224\305\305\213\315-'\365\211@\352\13\311\227"
	.ascii "9\302\204O\311I\315rF\251w\216Hv\355\5\302\351\304\344[\307_\302\242\311\312\27`_ \215}\257g\357\335"
	.ascii "7\244&\276e\363h\373\351\257\216n\234l\217\232\231\355yr,\20a\200\353\20_\327\243\23\235\325u\375\234\306\310\223\201"
	.ascii "8\272\361\335\352\35\373\36L\277J9\353\7\330\227\331\306\214\30D\35"
	.ascii "6x\255\266^D\275z\211\210\331\11Q\225\340\236\207\307\342\324\372\303\354\220D\316\34\3+$\320\252\230(OU\357\250M\330\263\314^\300\264\255\216k\250\34\327%\346\332X\340\32\256\210\353\262\305e+r%n-s9V\307\225\264\270\360\177\256+\305~]\255\210+eq9J\372\265\302\345\\\35W\272\34\327H\261_\327*\342\272nq9W\270\222\211\251\361%.W)\227\247\34\224\15"
	.ascii "7,(kHn\242\316\322=TN6c\311\272\212\262\331\251\303\316\202\254\273bY\35\243\226\254&\262cK\262]e\313\35\267t\335\313\272c\317\22w\326J\374\237\277\300(U\305\4\213\260\337\34}\276`o\30"
	.ascii "6;\300^\205I4\250'\10{d@\347\245\360\31\240"
	.ascii "0\254"
	.ascii "2\333\220\231\346\333M\215\315M\201\226=\301\240\277y\377\316`h\237\257\304\366\355>\20\362"
	.ascii "5\355\12\265\370\17n\331\334\30\10(=\264\327\37\374\15\267b\263Q"
	.text
	.section	.gnu.lto_.symbol_nodes.f43926bc,"dr0"
	.ascii "x\234U\216K\16\202"
	.ascii "0\24Eo\213\17\371h\342\16X\243\3\307\17\15A\243\211"
	.ascii "1\16\361\3\361\277\6\307\214]\3&\14Y\3\21*MJ'\367\334\223\333\264\26\200\231\300\377\310\204\30\330}\0f\234"
	.ascii "3\7\362@,\264\210C\27\362H,\265\330\266\213\23\261\325\23)\361\240'2b\352\211"
	.ascii "3\261\335\23\27\342\241\371\254x\21;\177\201p\325\14\256\304\256\371\15q#\366\364 l.<\210}\263\337\211Gf\177\22\217\215n\301CY\324s\241\340\253!\256\322\211\202\245\206\265\206M\13r\204H\215\245\337\335\262\7X\354\313\367\324\262\11\213\244\205\341\30yQ\213"
	.ascii "6\233\255\312\274\313(\256\2\325\273\214\226U\200\37\22\324m\305"
	.text
	.section	.gnu.lto_.refs.f43926bc,"dr0"
	.ascii "x\234cf``\20`\200\0FFf \301\316\304\301\300\310\311\314\316\300\0\0\3"
	.ascii "0\0?"
	.text
	.section	.gnu.lto_.decls.f43926bc,"dr0"
	.ascii "x\234\245X\13PSW\32\276\347\236@B\210\320\251[k\231\316T\335Y\266\266V\12\242\253\335\356.[\305Z\333\252\253v\272\353\354LJ\201Z\\\1\7\"v\267;\323\13\210FQ\20D\360m|!\2\2\242 \20\36\21\1\21D@\261\326w\24\251X\5\343\203\212\10f\377s\316\275\311\15\6Gg\357\360'\367\374\367\177|\377w\376sr\17\230\343\270i\230\343\254p\351\207s\\\227\202\343T\240\233\15\202@fp\354\362\0"
	.ascii "9\7r\1\244\3\344\16H\17\307\214\\A\206\203\274\12"
	.ascii "2\2d4\310X\220q ~\210{\346\"q<\305\34$\256\6d\2\330\371#\226o\26H+H=\210\21d\"\350\337\4)\207\373\"\220j\20\27\220S \307AZ@\232@\32Ax1\376h'y\11\356a\262\234F1\357\25\216\345\376#b\361\245\334\37\302\330[\314\213\305|-bN,\306\33'\326:\370\272"
	.ascii "3D.\22\237\344\231\11\337\7e\271H\216\217@\37\200X\354\26Y}H\214"
	.ascii "7\370\"\374\273\17\301\243Q\344\212\304\235!\313\303\313j@b\214g.4t\334r\316\36\373yq9'\234\220>q\306\311`\214d~\247\202\376>|O\203\357\1\370\206\266\244\363K8i\342\354s@bJ}Hl\246\223\36\"\374\202|6\10\303\360!\352\222\372J\236\377s\320\373\210"
	.ascii "1\245\336\222\317=\211"
	.ascii "5O\354o\222f\376\240\\\367xd\354-\336\347\321\311#\17\265\31\221qayg\217'\214"
	.ascii "5\352"
	.ascii "7\311pO\363\251\275<\346\351#\343\315\212$\17<<V\30EF);\257lv\307o\211\243vSJ\273\373\270lA\20\364\202\351'\205=\276\351HO\276r\354>\301 X.\25\374W\20\24h\366\10\224\215"
	.ascii "0\312A\343\344"
	.ascii "8\236\36l\317tgvY\355u\277\27\15\367\203a.\32+7\254\317\331\366\25\376\236\0R\334m\355/\35\206\274\274\324\336\33!m\357[\350 Rs\344\326\324i\265\376`eW\262\222\252\365\0M0\247\10x$\207\306y\241\261^\34*D\336\364\21\207\12\220\27\312G^\334\36\260\261\350]\226#\242Gy\10;rU\232\367\260\311\235rEk.K\255\337\350J\251R\220\341@[\376\317.\232\325\202\20G\376\334\352=h\220C\20\372"
	.ascii "0\204\346P\21\322\210q\232\213W\304\272\341"
	.ascii "5\210\262ZU\331[\247\306\31l\20\233i\\\243\204\220"
	.ascii "3\324\324\360\352\226\307{\334\350\220T\342\11*>\271\256n\263\6y\253)\324\372\204\364\327\10SFHt\304\306)\365&\227\336\216\205\263\1AeP6\261@%\240)\5\15$*\332\323\324"
	.ascii "1\314\1\273\321\1{\271\15{A\361\225v\25ngp\267t6\254\366\300\367\331\240p\367\336b7\312N\0\355\234\15\351\271.\224\35\25\31Z3+\367\253\324t\26\304\14\32y\202\243t\36\336\246\23\3\326y9};=^]G\214\327\305\11\243t\4\0\252\2k\23\265\256F\257J>\304z\367\305\334~5\36`0\12\252rV1\30_\221\241>\271)E\201\365\254\203\33\257\367>\320PL\257\300Pm-2_\343\321\230\341\303\275\307lB\334\230"
	.ascii "1\336c\14\0\316\222\265\373\224\307\272X\303uD\263V\0\257\365h\270\235\277\267\11\202C\4\7\227\"\230\0\240I\10\320q(\23\236\357#\317\233\201_\342p\0\215\245\367-h\14:\16r\12\244\11\244\21\244\1y\223\211:\211 \257\323 \15/\31\204\264\203y\233E\230\246B'\300-\213\201&\217\331\27\\\6bRYX\253"
	.ascii "0\325`\302 \252\25+\223xEu\310^\32"
	.ascii "4$\361\244\325RWS\351\256\270\0\321\363\330`O\312I\15\22m\343\314e%&\232\206tQ\245S\2\253\250\361\36X\357\346my\202b$5!\260\17\310\226;\13VR\310\202\301\2B\305N\203\275\343\305\32!\355dk\212\322\241\215\345\266\34j\265\265\361\206\372\2\275\247\2~\17(\304\5t\1\347\33\273fQ\25\230\241\323\210\352\22\333\316\364\361#\323\351\346\21+\274\202\310\246\304\266\17\16\265\241\221\360y\6\14)Ud\275^\335\347\217\327\263^;\367\340\360\12"
	.ascii "7l`\203\312\204\23\211.\243\266\13\6\203eK\316\364$\301\20kzj\265\"\32\3\235\265M\26\207~\24\367\34t\16\215\2\277\343G\32\37z\342^\26\244"
	.ascii "7\365\366\23\204\23"
	.ascii "0\35lNMHW\323\210\2\204C\6\330\360h\260\237d\301\316K\301.\320`\247\326\256)\306\270\200\371\33,\7-\32\250\26]\244Fd1g\344\335uQ\213\373\244\376\271\373$\331\303\326e?Q9P}\331a\307\270\362\\\252o\324d\254RR\35\330\241\253\214\353MO\272n\362\266\11"
	.ascii "03e\374\365\201*\225|\2H\20\12\14]\"\314_\247\223pM6\11\351\367z2\224\270\234\225\331}\342\216\305\25\327\262\301\362\326\276\35<\345\314\\\272}\212)N\350\267Z1\15\201\332e\264\335\220h\353\240\264=\313\224\345\374\223R\25\5JZ\222U\224\332Rg\261\203\277\311\300\33\23\366'\"\347\340\177&\210oQ\360\235"
	.ascii "2\360'\332O\247+\361\0\303\333\325\333~\301\25\307)\350\240'\311\30\357N\300\27\30\272\266\12\1\14<\211\200~\221a\277-a\277"
	.ascii "3\4vg\263\221u\266?\327\325\246\353f\330O\25\237\316\340m\312\273L\371\313\371;\265J[\225\26\246<\234p\255C\341l\215\240.R\331}Z\344=Y\221\217\373\17ot\301\207X]\326\373\335\361.\270\212\15\266\255m{\214\241Hs\201yuG\252R\310\22LV\353_h\14\364@V\346C\251\314\236!\312Lm)\354\35F\201\226\333\246(i\353M\203\302\246{$VT\225\237l\257\275\227)\333\352"
	.ascii "6\354W\333\224\217\231\262\350d\366.\27\233\262\217)\327W\247%\273\331\10y\302\224\327\273"
	.ascii "2.\271;%\344W\302\302\0%\244_F\310\375v\341\236'\356c\34\344\255J\277\200\361\12\27:\260\34o\316d\204\30*k1\243\203\4@OelX%6\4\336"
	.ascii "9\33\361W\273r\354\315\311\330"
	.ascii "8\333\371"
	.ascii "4Q\341\274"
	.ascii "7cy\200\26\317\23\224q\274\35\345\241\222\235\267"
	.ascii "0\256c\300bK\323.!\334\310\6\305g\13\342"
	.ascii "5\264"
	.ascii "7\315\333\332\327\333\247\15b\240\345\274\35h\2/\2]A\201:\203u\375~\232a\250\15WO!\255\224A\262fmH\37\366\302\326'\273\33\343\334\360\23\206\271\300\330\263z\30\326\273\322AusI:\242HfI@rS\215\353U\222j\15Oui\267"
	.ascii "6\234e\315"
	.ascii "2F\215\326"
	.ascii "2]\372\215\24\253\206\352f\252Q\22\323u\27\327\367\272\274\276\301\16k\246\332\6k\35\377:|&\363\12"
	.ascii "65{\327\267\257\321\340C\14F^\263\345\221\202\360(t\306\246j,\360\312G\314Q\212D\233tC^>\313\13W\272"
	.ascii "1\312\373\367N\206\275\354)\335\313V\1\343\253e\214'\22\17\224\312\217\202\317\365\224\364G\25]i\256\270\236%\\\325\326\366\15>\313\356\363\263\266\347\253hD\372\213b\"\277($\\\232,\334\6\11I\372\20\235V\236y\320\5\13J\22\220\337\336q\274B\205\324\336\316_C7\363\203^C\351\33mr\305\35\237<AP\241M\274\32m\344\237y\245\205\24\367\372n\213]Cl\330d\35\250"
	.ascii "6\327 9\341"
	.ascii "0g\254\227"
	.ascii "3\310\374o\245\234o\221"
	.ascii "8"
	.ascii "o\311\315\330\342\201\33\224\342\331\245\362\347\373\33=q\213"
	.ascii "4\254"
	.ascii "2\235\265\250\331I$\267\312\374]\274\20@\272j;\377\314Id\355\243u%*\374\220\26\213\204\233G\222=\311B\205\367\231\262)\325\261\342o\13dF\333\300u\7O]\221A\"p\347\20\4:\253.\265\312<\200\251n\272\6\355f-\226\260\252\357\250\247\324\236{\230\316h)\36\345\224\204]\204\204LJ\302^\211\204\262\207\275w\\\361j\225XuM{\276E\201\223T\264\230\366\302\222\357Y-\373\267\332k\201\0h\237\254\226,\251\226\375\264\226\216\215\277\376\11gI\361v_:Z\344\212sY<\353\355\304G\256,`v\231c\300lY\300\34)`\356\20\344"
	.ascii "8Y\246\206\213\375O\225\362\242m{\355\1Rt>-:O*\272\264b}\265\2\327I 75T\31\25\270\221\201\314\374qO\206;\3\271\243\304\16\22\"\240\2\31\310\203\22\310B\12\262\313X\331\350&\275\7\351\207|\345D\207x\15X\257\271\333{\201\236\202$\353\347\235\313\320a^\15>?^\331\336\351n\177\323\232A{Jv\254\344Y\202\"\232 \243\365\247#\12|M\345p\232\34\301N\223I\215\233\217b:\264\322\365yq\237\31\316\216\342\372t<\32\227\301\342$^\350\10\357\205Jxqq\326'\234y\235\34"
	.ascii "7K\241"
	.ascii "3\213\355ks\204}m^{xf7rx+$\266v\260F\21\254\221\202m\35x`P\312+\313t\250\254\\4.\247\306\306\233q\347\225\370\26\253,\357\362\261eP\311L5\231\367^r8F?\220\267\247"
	.ascii "3\315-.TOTJRdOOY\266\270\11\11\317nBG\241\316\231\244\316J\250\263J\254\323\334\374\201\12\231\0w\205\275\306\231\366\32\33\33\372"
	.ascii "6;\236\225M\16"
	.ascii "5V\213\260\253)\354\273\233*Nx\312k$\257"
	.ascii "2v\343c\242\361"
	.ascii "1j\234\266\262\277\333Cn<\340`\\#\32\327P\343U\17\22\341\360}\217\21Rs\240\365\262\333\350\35d\226\266\334\356V\211\377>\251\205\2V\220\275\37\326=\202\205T\307\217\6\333\13\3\271W\225X\357F\35\33j\323Rx\352h\350\306t\365\34\37\344TO\235\362\316\244\376\16\357b>\27\263o\244#\346s\236\371\234\30\344\323@}.\247\236kS\342R\346t-gy\211\206"
	.ascii "950\247\306AN'\251\223\241\326\360\205\234\202|\207\236h\22)h\242\24t5\35\36\353l\355\203\301)\272\360\27\210\353^_\337\16\357!-n\342\272/2u\364`|A\32nN\217+\22w|\275\213\0\247\262\26^\366\237\37\362#\375\260r\257;\276\302\12\251\253J\217\247g\271\24!i]\220\236\374LB2\324\14\325\264\212{\304ii\217"
	.ascii "8C\367\210k\215I\2\22''\261\352\37+\205\0\366k\314l\332\370\321\334+Z\355\327\313t\332\340\310\360%Q\241\321\321\221Q\356\322mXd\4\216\326\375K\365\361\254/FM}\367]\356\267\262\7\377\34\357"
	.ascii "3\36\376|ta\341\241>`\244%7\343\277\345\336\221\333\20\275lL\363\204\7\351\242\302\276\363\3SE\360\267AQ\356\37~\275"
	.ascii "4l\261\356\275\260\210?sj\366L\273D\27\245Z\32\26\241\233\340\247\325}4\365\3\237\277\351\340o\342\370\211\343\337\367\231\37\31\271"
	.ascii "8\332'<,b\341"
	.ascii "2\377)~\332\11~>a\223&Ozo\331$\377\367\250\222(\"\202\27/\15!\240B \6\344\361\20\303\206\205\320\320R\226\220\260p\365\302\250\310\245K\242\265_/\214\220nC#B4@HPt\250"
	.ascii "6X\27\31"
	.ascii "5\352\35\355\202Y\23\240\16__Y!\276\223\6s6\325/p\321\270\27-=x\311\22\16\222\220\307/\227\304"
	.ascii "7p\221\273V\13\205\5\7-^\254\325\252\26\206F\204F\5\351B\377\360b\376\223%\373\300"
	.ascii "9\237\6/\12\360\365SD\7\305\204\276\377b\316\376\304"
	.ascii "6pNp\300dw\30\351\264\214\257\17^\314\331\327W\346\23\270h\21$\237\344\376MXD\210\250\372\313\213\206\221\371\220"
	.ascii "0s\26\315\363\323\6\370\371+Hx\237\27-\4l\3c\2\374\245y\16y\211)\230\346\27\30\363\33\255v\341w\320J\241Q\321\221\21A\213\303t\377\326\306\274/\315\347K\5\363\15\214q\215\16\373O\350\377\323\346Z\252\200"
	.ascii "6w\201\236\210\14\306\341\241\341o=\263NAI\27)|\203\345k\"\274\11"
	.ascii "0\234H\275\2\27\5\370\343\360\310\230"
	.ascii "7dO&\300"
	.ascii "8pN\314\234OcH\253\340\250P\307\247"
	.ascii "0\266?U|\23\25\32*\17\353O\24\360<\300_IV\362d\255N).\350\21\37}9_\373\371_\347\317\375\344\357\332y\263\347\316\327~<w\366\27s\346\275!SO\377d\326"
	.ascii "4\370\230;o\276v\356\354/\345\16\323?\373d\216\350"
	.ascii "0b\260\3S\273\351B\243\200\21hr\330\272B<\265\13\346\351\246\330T1\377\3W6\345\270"
	.text
	.section	.gnu.lto_.symtab.f43926bc,"dr0"
	.ascii "__ZN3stk11compression16__bwt_compressorC2Ej\0\0\0\0\0\0\0\0\0\0\0\0\327\0\0\0__ZN3stk11compression16__bwt_compressorC1Ej\0\0\0\0\0\0\0\0\0\0\0\0\332\0\0\0__ZN3stk11compression16__bwt_compressor8generateEPKcj@12\0\0\0\0\0\0\0\0\0\0\0\0\345\0\0\0__ZN3stk11compression16__bwt_compressor4saveEPc@8\0\0\0\0\0\0\0\0\0\0\0\0\354\0\0\0__ZN3stk11compression16__bwt_compressor11sort_groupsEjjj@16\0\0\0\0\0\0\0\0\0\0\0\0\365\0\0\0__ZN3stk11compression16__bwt_compressor11find_groupsEjjjPjS2_@24\0\0\0\0\0\0\0\0\0\0\0\0\0\1\0\0__ZN3stk11compression16__bwt_compressor4sortEv@4\0\0\0\0\0\0\0\0\0\0\0\0\6\1\0\0__ZN3stk11compression16__bwt_compressorD2Ev\0\0\0\0\0\0\0\0\0\0\0\0\23\1\0\0__ZN3stk11compression16__bwt_compressorD1Ev\0\0\0\0\0\0\0\0\0\0\0\0\26\1\0\0___gxx_personality_v0\0\0\2\0\0\0\0\0\0\0\0\0\22\1\0\0__ZN3stk3mem5allocEj@4\0\0\2\0\0\0\0\0\0\0\0\0!\1\0\0__ZN3stk3mem3movEPvPKvj@12\0\0\2\0\0\0\0\0\0\0\0\0)\1\0\0__ZN3stk3mem3revEPvPKvj@12\0\0\2\0\0\0\0\0\0\0\0\0,\1\0\0__ZN3stk3mem4freeEPv@4\0\0\2\0\0\0\0\0\0\0\0\0"
	.ascii "2\1\0\0"
	.text
	.section	.gnu.lto_.opts,"dr0"
	.ascii "'-fno-trapv' '-dD' '-malign-double' '-momit-leaf-frame-pointer' '-m32' '-mfpmath=sse' '-mpreferred-stack-boundary=8' '-mmmx' '-msse' '-msse2' '-mthreads' '-mtune=generic' '-march=i686' '-g' '-g' '-O3' '-fno-use-linker-plugin' '-fverbose-asm' '-fstrict-aliasing' '-fwrapv' '-funroll-loops' '-flto' '-fexceptions'\0"
	.text
	.section	.text.unlikely,"x"
	.align 2
LCOLDB0:
	.text
LHOTB0:
	.align 2
	.p2align 4,,15
	.section	.text.unlikely,"x"
Ltext_cold0:
	.text
	.globl	__ZN3stk11compression16__bwt_compressorC2Ej
	.def	__ZN3stk11compression16__bwt_compressorC2Ej;	.scl	2;	.type	32;	.endef
__ZN3stk11compression16__bwt_compressorC2Ej:
LFB697:
	.file 1 "compression/stk_compression_bwt_matrix2.cpp"
	.loc 1 9 0
	.cfi_startproc
LVL0:
	pushl	%ebx	 #
	.cfi_def_cfa_offset 8
	.cfi_offset 3, -8
	movl	%ecx, %ebx	 # this, this
	subl	$504, %esp	 #,
	.cfi_def_cfa_offset 512
	.loc 1 9 0
	movl	512(%esp), %eax	 # ablock, ablock
LBB2:
	.loc 1 15 0
	movl	%eax, 8(%ecx)	 # ablock, this_2(D)->matrix_dim
	.loc 1 16 0
	sall	$2, %eax	 #, D.29551
	movl	%eax, (%esp)	 # D.29551,
	call	__ZN3stk3mem5allocEj@4	 #
	.cfi_def_cfa_offset 508
LVL1:
	.loc 1 17 0
	movl	8(%ebx), %edx	 # this_2(D)->matrix_dim, tmp113
	.loc 1 16 0
	subl	$4, %esp	 #,
	.cfi_def_cfa_offset 512
	movl	%eax, 4(%ebx)	 # D.29552, this_2(D)->matrix_idx_ptr
	.loc 1 17 0
	addl	%edx, %edx	 # D.29551
	movl	%edx, (%esp)	 # D.29551,
	call	__ZN3stk3mem5allocEj@4	 #
	.cfi_def_cfa_offset 508
LVL2:
	.loc 1 18 0
	movl	8(%ebx), %ecx	 # this_2(D)->matrix_dim, tmp114
	.loc 1 17 0
	subl	$4, %esp	 #,
	.cfi_def_cfa_offset 512
	movl	%eax, (%ebx)	 # D.29552, this_2(D)->matrix_ptr
	.loc 1 18 0
	addl	%ecx, %ecx	 # D.29551
	movl	%ecx, (%esp)	 # D.29551,
	call	__ZN3stk3mem5allocEj@4	 #
	.cfi_def_cfa_offset 508
LVL3:
	movl	%eax, 12(%ebx)	 # D.29552, this_2(D)->groups_bgn
	.loc 1 19 0
	movl	8(%ebx), %eax	 # this_2(D)->matrix_dim, tmp115
	.loc 1 18 0
	subl	$4, %esp	 #,
	.cfi_def_cfa_offset 512
	.loc 1 19 0
	addl	%eax, %eax	 # D.29551
	movl	%eax, (%esp)	 # D.29551,
	call	__ZN3stk3mem5allocEj@4	 #
	.cfi_def_cfa_offset 508
LVL4:
	.loc 1 20 0
	movl	8(%ebx), %edx	 # this_2(D)->matrix_dim, tmp116
	.loc 1 19 0
	subl	$4, %esp	 #,
	.cfi_def_cfa_offset 512
	movl	%eax, 16(%ebx)	 # D.29552, this_2(D)->groups_bgn
	.loc 1 20 0
	addl	%edx, %edx	 # D.29551
	movl	%edx, (%esp)	 # D.29551,
	call	__ZN3stk3mem5allocEj@4	 #
	.cfi_def_cfa_offset 508
LVL5:
	.loc 1 21 0
	movl	8(%ebx), %ecx	 # this_2(D)->matrix_dim, tmp117
	.loc 1 20 0
	subl	$4, %esp	 #,
	.cfi_def_cfa_offset 512
	movl	%eax, 20(%ebx)	 # D.29552, this_2(D)->groups_end
	.loc 1 21 0
	addl	%ecx, %ecx	 # D.29551
	movl	%ecx, (%esp)	 # D.29551,
	call	__ZN3stk3mem5allocEj@4	 #
	.cfi_def_cfa_offset 508
LVL6:
	subl	$4, %esp	 #,
	.cfi_def_cfa_offset 512
	movl	%eax, 24(%ebx)	 # D.29552, this_2(D)->groups_end
LBE2:
	.loc 1 22 0
	addl	$504, %esp	 #,
	.cfi_def_cfa_offset 8
	popl	%ebx	 #
	.cfi_restore 3
	.cfi_def_cfa_offset 4
LVL7:
	ret	$4	 #
	.cfi_endproc
LFE697:
	.section	.text.unlikely,"x"
LCOLDE0:
	.text
LHOTE0:
	.globl	__ZN3stk11compression16__bwt_compressorC1Ej
	.def	__ZN3stk11compression16__bwt_compressorC1Ej;	.scl	2;	.type	32;	.endef
	.set	__ZN3stk11compression16__bwt_compressorC1Ej,__ZN3stk11compression16__bwt_compressorC2Ej
	.section	.text.unlikely,"x"
	.align 2
LCOLDB3:
	.text
LHOTB3:
	.align 2
	.p2align 4,,15
	.globl	__ZN3stk11compression16__bwt_compressor8generateEPKcj@12
	.def	__ZN3stk11compression16__bwt_compressor8generateEPKcj@12;	.scl	2;	.type	32;	.endef
__ZN3stk11compression16__bwt_compressor8generateEPKcj@12:
LFB699:
	.loc 1 26 0
	.cfi_startproc
LVL8:
	pushl	%ebp	 #
	.cfi_def_cfa_offset 8
	.cfi_offset 5, -8
	pushl	%edi	 #
	.cfi_def_cfa_offset 12
	.cfi_offset 7, -12
	pushl	%esi	 #
	.cfi_def_cfa_offset 16
	.cfi_offset 6, -16
	pushl	%ebx	 #
	.cfi_def_cfa_offset 20
	.cfi_offset 3, -20
	subl	$748, %esp	 #,
	.cfi_def_cfa_offset 768
	.loc 1 26 0
	movl	776(%esp), %ebx	 # a_rowsize, a_rowsize
	movl	768(%esp), %ebp	 # this, this
LBB3:
	.loc 1 36 0
	movl	772(%esp), %eax	 # a_src_ptr, a_src_ptr
	.loc 1 31 0
	movl	%ebx, 8(%ebp)	 # a_rowsize, this_5(D)->matrix_dim
LVL9:
	.loc 1 36 0
	movl	%ebx, 8(%esp)	 # a_rowsize,
	.loc 1 42 0
	leal	-4(,%ebx,4), %edi	 #, D.29580
	.loc 1 36 0
	movl	%eax, 4(%esp)	 # a_src_ptr,
	movl	0(%ebp), %edx	 # this_5(D)->matrix_ptr, this_5(D)->matrix_ptr
	movl	%edx, (%esp)	 # this_5(D)->matrix_ptr,
	call	__ZN3stk3mem3revEPvPKvj@12	 #
	.cfi_def_cfa_offset 756
LVL10:
	.loc 1 38 0
	movl	0(%ebp), %ecx	 # this_5(D)->matrix_ptr, D.29579
	.loc 1 36 0
	subl	$12, %esp	 #,
	.cfi_def_cfa_offset 768
	.loc 1 38 0
	movl	%ebx, 8(%esp)	 # a_rowsize,
	movl	%ecx, 4(%esp)	 # D.29579,
	addl	%ebx, %ecx	 # a_rowsize, D.29579
	movl	%ecx, (%esp)	 # D.29579,
	call	__ZN3stk3mem3movEPvPKvj@12	 #
	.cfi_def_cfa_offset 756
LVL11:
	.loc 1 41 0
	movl	4(%ebp), %edx	 # this_5(D)->matrix_idx_ptr, idx
LVL12:
	.loc 1 38 0
	subl	$12, %esp	 #,
	.cfi_def_cfa_offset 768
	.loc 1 44 0
	movl	%edx, %esi	 # idx, idx_end
	addl	%edi, %esi	 # D.29580, idx_end
LVL13:
	movl	%esi, 496(%esp)	 # idx_end, %sfp
	jc	L14	 #,
	movl	%edx, %eax	 # idx, D.29578
	shrl	$2, %edi	 #, D.29578
	andl	$15, %eax	 #, D.29578
	movl	%edi, 492(%esp)	 # D.29578, %sfp
	leal	1(%edi), %edi	 #, niters.15
	shrl	$2, %eax	 #, D.29578
	negl	%eax	 # D.29578
	andl	$3, %eax	 #, D.29578
	cmpl	%eax, %edi	 # D.29578, niters.15
	cmovbe	%edi, %eax	 # niters.15,, prologue_after_cost_adjust.18
	cmpl	$7, %edi	 #, niters.15
	ja	L72	 #,
	movl	%edi, %eax	 # niters.15, prologue_after_cost_adjust.18
L15:
	cmpl	$1, %eax	 #, prologue_after_cost_adjust.18
	.loc 1 45 0
	leal	-1(%ebx), %ecx	 #, row
LVL14:
	movl	%ebx, (%edx)	 # a_rowsize, MEM[(uint32_t *)idx_14]
	.loc 1 46 0
	leal	4(%edx), %esi	 #, idx
LVL15:
	je	L7	 #,
LVL16:
	.loc 1 45 0
	leal	-2(%ebx), %esi	 #, row
LVL17:
	cmpl	$2, %eax	 #, prologue_after_cost_adjust.18
	movl	%ecx, 4(%edx)	 # row, MEM[(uint32_t *)idx_14 + 4B]
LVL18:
	movl	%esi, 500(%esp)	 # row, %sfp
LVL19:
	.loc 1 46 0
	leal	8(%edx), %esi	 #, idx
LVL20:
	je	L19	 #,
	.loc 1 45 0
	movl	500(%esp), %esi	 # %sfp, row
LVL21:
	cmpl	$3, %eax	 #, prologue_after_cost_adjust.18
	leal	-3(%ebx), %ecx	 #, row
LVL22:
	movl	%esi, 8(%edx)	 # row, MEM[(uint32_t *)idx_14 + 8B]
LVL23:
	.loc 1 46 0
	leal	12(%edx), %esi	 #, idx
LVL24:
	je	L7	 #,
LVL25:
	.loc 1 45 0
	leal	-4(%ebx), %esi	 #, row
LVL26:
	cmpl	$4, %eax	 #, prologue_after_cost_adjust.18
	movl	%ecx, 12(%edx)	 # row, MEM[(uint32_t *)idx_14 + 12B]
LVL27:
	movl	%esi, 500(%esp)	 # row, %sfp
LVL28:
	.loc 1 46 0
	leal	16(%edx), %esi	 #, idx
LVL29:
	je	L19	 #,
	.loc 1 45 0
	movl	500(%esp), %esi	 # %sfp, row
LVL30:
	cmpl	$5, %eax	 #, prologue_after_cost_adjust.18
	leal	-5(%ebx), %ecx	 #, row
LVL31:
	movl	%esi, 16(%edx)	 # row, MEM[(uint32_t *)idx_14 + 16B]
LVL32:
	.loc 1 46 0
	leal	20(%edx), %esi	 #, idx
LVL33:
	je	L7	 #,
LVL34:
	.loc 1 45 0
	leal	-6(%ebx), %esi	 #, row
LVL35:
	cmpl	$7, %eax	 #, prologue_after_cost_adjust.18
	movl	%ecx, 20(%edx)	 # row, MEM[(uint32_t *)idx_14 + 20B]
LVL36:
	movl	%esi, 500(%esp)	 # row, %sfp
LVL37:
	.loc 1 46 0
	leal	24(%edx), %esi	 #, idx
LVL38:
	jne	L19	 #,
	.loc 1 45 0
	leal	-7(%ebx), %ecx	 #, row
LVL39:
	movl	500(%esp), %ebx	 # %sfp, row
LVL40:
	.loc 1 46 0
	leal	28(%edx), %esi	 #, idx
LVL41:
	.loc 1 45 0
	movl	%ebx, 24(%edx)	 # row, MEM[(uint32_t *)idx_14 + 24B]
LVL42:
L7:
	cmpl	%eax, %edi	 # prologue_after_cost_adjust.18, niters.15
	je	L14	 #,
LVL43:
L6:
	subl	%eax, %edi	 # prologue_after_cost_adjust.18, niters.19
	leal	-4(%edi), %ebx	 #, D.29578
	movl	%edi, 504(%esp)	 # niters.19, %sfp
	shrl	$2, %ebx	 #, D.29578
	leal	1(%ebx), %edi	 #, bnd.20
	movl	%edi, 500(%esp)	 # bnd.20, %sfp
	sall	$2, %edi	 #, ratio_mult_vf.21
	movl	%edi, 508(%esp)	 # ratio_mult_vf.21, %sfp
	movl	492(%esp), %edi	 # %sfp, D.29578
	subl	%eax, %edi	 # prologue_after_cost_adjust.18, D.29578
	cmpl	$2, %edi	 #, D.29578
	jbe	L9	 #,
	movl	%ecx, 492(%esp)	 # row, %sfp
	andl	$7, %ebx	 #, tmp151
	cmpl	$1, 500(%esp)	 #, %sfp
	movd	492(%esp), %xmm4	 # %sfp, row
	leal	(%edx,%eax,4), %edi	 #, ivtmp.33
	movl	$1, %edx	 #, ivtmp.32
	movdqa	LC2, %xmm1	 #, vect_cst_.26
	pshufd	$0, %xmm4, %xmm0	 # row, D.29582
	leal	16(%edi), %eax	 #, ivtmp.33
	paddd	LC1, %xmm0	 #, vect_vec_iv_.27
	movaps	%xmm0, (%edi)	 # vect_vec_iv_.27, MEM[base: _99, offset: 0B]
	paddd	%xmm1, %xmm0	 # vect_cst_.26, vect_vec_iv_.27
	jbe	L67	 #,
	testl	%ebx, %ebx	 # tmp151
	je	L10	 #,
	cmpl	$1, %ebx	 #, tmp151
	je	L50	 #,
	cmpl	$2, %ebx	 #, tmp151
	je	L51	 #,
	cmpl	$3, %ebx	 #, tmp151
	je	L52	 #,
	cmpl	$4, %ebx	 #, tmp151
	je	L53	 #,
	cmpl	$5, %ebx	 #, tmp151
	je	L54	 #,
	cmpl	$6, %ebx	 #, tmp151
	je	L55	 #,
	movaps	%xmm0, (%eax)	 # vect_vec_iv_.27, MEM[base: _99, offset: 0B]
	paddd	%xmm1, %xmm0	 # vect_cst_.26, vect_vec_iv_.27
	leal	32(%edi), %eax	 #, ivtmp.33
	movl	$2, %edx	 #, ivtmp.32
L55:
	movaps	%xmm0, (%eax)	 # vect_vec_iv_.27, MEM[base: _99, offset: 0B]
	paddd	%xmm1, %xmm0	 # vect_cst_.26, vect_vec_iv_.27
	addl	$1, %edx	 #, ivtmp.32
	addl	$16, %eax	 #, ivtmp.33
L54:
	movaps	%xmm0, (%eax)	 # vect_vec_iv_.27, MEM[base: _99, offset: 0B]
	paddd	%xmm1, %xmm0	 # vect_cst_.26, vect_vec_iv_.27
	addl	$1, %edx	 #, ivtmp.32
	addl	$16, %eax	 #, ivtmp.33
L53:
	movaps	%xmm0, (%eax)	 # vect_vec_iv_.27, MEM[base: _99, offset: 0B]
	paddd	%xmm1, %xmm0	 # vect_cst_.26, vect_vec_iv_.27
	addl	$1, %edx	 #, ivtmp.32
	addl	$16, %eax	 #, ivtmp.33
L52:
	movaps	%xmm0, (%eax)	 # vect_vec_iv_.27, MEM[base: _99, offset: 0B]
	paddd	%xmm1, %xmm0	 # vect_cst_.26, vect_vec_iv_.27
	addl	$1, %edx	 #, ivtmp.32
	addl	$16, %eax	 #, ivtmp.33
L51:
	movaps	%xmm0, (%eax)	 # vect_vec_iv_.27, MEM[base: _99, offset: 0B]
	paddd	%xmm1, %xmm0	 # vect_cst_.26, vect_vec_iv_.27
	addl	$1, %edx	 #, ivtmp.32
	addl	$16, %eax	 #, ivtmp.33
L50:
	movaps	%xmm0, (%eax)	 # vect_vec_iv_.27, MEM[base: _99, offset: 0B]
	paddd	%xmm1, %xmm0	 # vect_cst_.26, vect_vec_iv_.27
	addl	$1, %edx	 #, ivtmp.32
	addl	$16, %eax	 #, ivtmp.33
	cmpl	%edx, 500(%esp)	 # ivtmp.32, %sfp
	jbe	L67	 #,
L10:
	movdqa	%xmm0, %xmm3	 # vect_vec_iv_.27, vect_vec_iv_.27
	addl	$8, %edx	 #, ivtmp.32
	subl	$-128, %eax	 #, ivtmp.33
	movaps	%xmm0, -128(%eax)	 # vect_vec_iv_.27, MEM[base: _99, offset: 0B]
	paddd	%xmm1, %xmm3	 # vect_cst_.26, vect_vec_iv_.27
	movdqa	%xmm3, %xmm2	 # vect_vec_iv_.27, vect_vec_iv_.27
	movaps	%xmm3, -112(%eax)	 # vect_vec_iv_.27, MEM[base: _99, offset: 0B]
	paddd	%xmm1, %xmm2	 # vect_cst_.26, vect_vec_iv_.27
	movdqa	%xmm2, %xmm5	 # vect_vec_iv_.27, vect_vec_iv_.27
	movaps	%xmm2, -96(%eax)	 # vect_vec_iv_.27, MEM[base: _99, offset: 0B]
	paddd	%xmm1, %xmm5	 # vect_cst_.26, vect_vec_iv_.27
	movdqa	%xmm5, %xmm6	 # vect_vec_iv_.27, vect_vec_iv_.27
	movaps	%xmm5, -80(%eax)	 # vect_vec_iv_.27, MEM[base: _99, offset: 0B]
	paddd	%xmm1, %xmm6	 # vect_cst_.26, vect_vec_iv_.27
	movdqa	%xmm6, %xmm7	 # vect_vec_iv_.27, vect_vec_iv_.27
	movaps	%xmm6, -64(%eax)	 # vect_vec_iv_.27, MEM[base: _99, offset: 0B]
	paddd	%xmm1, %xmm7	 # vect_cst_.26, vect_vec_iv_.27
	movdqa	%xmm7, %xmm4	 # vect_vec_iv_.27, vect_vec_iv_.27
	movaps	%xmm7, -48(%eax)	 # vect_vec_iv_.27, MEM[base: _99, offset: 0B]
	paddd	%xmm1, %xmm4	 # vect_cst_.26, vect_vec_iv_.27
	movdqa	%xmm4, %xmm0	 # vect_vec_iv_.27, vect_vec_iv_.27
	movaps	%xmm4, -32(%eax)	 # vect_vec_iv_.27, MEM[base: _99, offset: 0B]
	paddd	%xmm1, %xmm0	 # vect_cst_.26, vect_vec_iv_.27
	movaps	%xmm0, -16(%eax)	 # vect_vec_iv_.27, MEM[base: _99, offset: 0B]
	paddd	%xmm1, %xmm0	 # vect_cst_.26, vect_vec_iv_.27
	cmpl	%edx, 500(%esp)	 # ivtmp.32, %sfp
	ja	L10	 #,
	.p2align 4,,10
L67:
	movl	508(%esp), %ebx	 # %sfp, ratio_mult_vf.21
	subl	%ebx, %ecx	 # ratio_mult_vf.21, row
	cmpl	%ebx, 504(%esp)	 # ratio_mult_vf.21, %sfp
	leal	(%esi,%ebx,4), %esi	 #, idx
	je	L14	 #,
L9:
LVL44:
	.loc 1 44 0
	movl	496(%esp), %ebx	 # %sfp, idx_end
	.loc 1 46 0
	leal	4(%esi), %edx	 #, idx
	.loc 1 45 0
	leal	-1(%ecx), %edi	 #, row
LVL45:
	movl	%ecx, (%esi)	 # row, MEM[(uint32_t *)idx_71]
	.loc 1 44 0
	cmpl	%edx, %ebx	 # idx, idx_end
	jb	L14	 #,
	.loc 1 46 0
	leal	8(%esi), %eax	 #, idx
	.loc 1 45 0
	subl	$2, %ecx	 #, row
LVL46:
	movl	%edi, 4(%esi)	 # row, MEM[(uint32_t *)idx_71 + 4B]
	.loc 1 44 0
	cmpl	%eax, %ebx	 # idx, idx_end
	jb	L14	 #,
LVL47:
	.loc 1 45 0
	movl	%ecx, 8(%esi)	 # row, MEM[(uint32_t *)idx_71 + 8B]
LVL48:
L14:
	.loc 1 49 0
	movl	8(%ebp), %eax	 # this_5(D)->matrix_dim, this_5(D)->matrix_dim
LBE3:
	.loc 1 50 0
	addl	$748, %esp	 #,
	.cfi_remember_state
	.cfi_def_cfa_offset 20
	popl	%ebx	 #
	.cfi_restore 3
	.cfi_def_cfa_offset 16
	popl	%esi	 #
	.cfi_restore 6
	.cfi_def_cfa_offset 12
	popl	%edi	 #
	.cfi_restore 7
	.cfi_def_cfa_offset 8
	popl	%ebp	 #
	.cfi_restore 5
	.cfi_def_cfa_offset 4
	ret	$12	 #
LVL49:
	.p2align 4,,10
L72:
	.cfi_restore_state
	testl	%eax, %eax	 # prologue_after_cost_adjust.18
	jne	L15	 #,
LBB4:
	.loc 1 44 0
	movl	%edx, %esi	 # idx, idx
LVL50:
	movl	%ebx, %ecx	 # a_rowsize, row
	jmp	L6	 #
LVL51:
	.p2align 4,,10
L19:
	.loc 1 45 0
	movl	500(%esp), %ecx	 # %sfp, row
	jmp	L7	 #
LBE4:
	.cfi_endproc
LFE699:
	.section	.text.unlikely,"x"
LCOLDE3:
	.text
LHOTE3:
	.section	.text.unlikely,"x"
	.align 2
LCOLDB4:
	.text
LHOTB4:
	.align 2
	.p2align 4,,15
	.globl	__ZN3stk11compression16__bwt_compressor4saveEPc@8
	.def	__ZN3stk11compression16__bwt_compressor4saveEPc@8;	.scl	2;	.type	32;	.endef
__ZN3stk11compression16__bwt_compressor4saveEPc@8:
LFB700:
	.loc 1 54 0
	.cfi_startproc
LVL52:
	pushl	%ebp	 #
	.cfi_def_cfa_offset 8
	.cfi_offset 5, -8
	pushl	%edi	 #
	.cfi_def_cfa_offset 12
	.cfi_offset 7, -12
	pushl	%esi	 #
	.cfi_def_cfa_offset 16
	.cfi_offset 6, -16
	pushl	%ebx	 #
	.cfi_def_cfa_offset 20
	.cfi_offset 3, -20
	.loc 1 54 0
	movl	20(%esp), %ebp	 # this, this
LBB5:
	.loc 1 65 0
	movl	4(%ebp), %esi	 # this_5(D)->matrix_idx_ptr, idx
	.loc 1 60 0
	movl	8(%ebp), %eax	 # this_5(D)->matrix_dim, row_max
	.loc 1 59 0
	movl	0(%ebp), %ecx	 # this_5(D)->matrix_ptr, ptr
LVL53:
	.loc 1 66 0
	leal	-4(%esi,%eax,4), %edi	 #, idx_end
LVL54:
	.loc 1 67 0
	cmpl	%edi, %esi	 # idx_end, idx
	ja	L74	 #,
	.loc 1 68 0
	movl	(%esi), %eax	 # MEM[base: idx_25, offset: 0B], MEM[base: idx_25, offset: 0B]
LVL55:
	movl	24(%esp), %edx	 # a_dst_ptr, tmp158
	movl	%edi, %ebx	 # idx_end, tmp102
	subl	%esi, %ebx	 # idx, tmp102
	shrl	$2, %ebx	 #, tmp101
	movzbl	(%ecx,%eax), %eax	 # *_15, D.29597
	andl	$7, %ebx	 #, tmp103
	.loc 1 69 0
	leal	1(%edx), %edx	 #, a_dst_ptr
	.loc 1 68 0
	movb	%al, -1(%edx)	 # D.29597, MEM[base: a_dst_ptr_24, offset: 0B]
LVL56:
	.loc 1 70 0
	leal	4(%esi), %eax	 #, idx
	.loc 1 67 0
	cmpl	%eax, %edi	 # idx, idx_end
	jb	L114	 #,
	testl	%ebx, %ebx	 # tmp103
	je	L75	 #,
	cmpl	$1, %ebx	 #, tmp103
	je	L101	 #,
	cmpl	$2, %ebx	 #, tmp103
	je	L102	 #,
	cmpl	$3, %ebx	 #, tmp103
	je	L103	 #,
	cmpl	$4, %ebx	 #, tmp103
	je	L104	 #,
	cmpl	$5, %ebx	 #, tmp103
	je	L105	 #,
	cmpl	$6, %ebx	 #, tmp103
	je	L106	 #,
	.loc 1 68 0
	movl	(%eax), %ebx	 # MEM[base: idx_25, offset: 0B], MEM[base: idx_25, offset: 0B]
	movzbl	(%ecx,%ebx), %eax	 # *_15, D.29597
	movb	%al, (%edx)	 # D.29597, MEM[base: a_dst_ptr_24, offset: 0B]
	.loc 1 69 0
	movl	24(%esp), %edx	 # a_dst_ptr, tmp160
	.loc 1 70 0
	leal	8(%esi), %eax	 #, idx
	.loc 1 69 0
	leal	2(%edx), %edx	 #, a_dst_ptr
L106:
	.loc 1 68 0
	movl	(%eax), %esi	 # MEM[base: idx_25, offset: 0B], MEM[base: idx_25, offset: 0B]
LVL57:
	.loc 1 69 0
	addl	$1, %edx	 #, a_dst_ptr
	.loc 1 70 0
	addl	$4, %eax	 #, idx
	.loc 1 68 0
	movzbl	(%ecx,%esi), %ebx	 # *_15, D.29597
	movb	%bl, -1(%edx)	 # D.29597, MEM[base: a_dst_ptr_24, offset: 0B]
L105:
	movl	(%eax), %esi	 # MEM[base: idx_25, offset: 0B], MEM[base: idx_25, offset: 0B]
	.loc 1 69 0
	addl	$1, %edx	 #, a_dst_ptr
	.loc 1 70 0
	addl	$4, %eax	 #, idx
	.loc 1 68 0
	movzbl	(%ecx,%esi), %ebx	 # *_15, D.29597
	movb	%bl, -1(%edx)	 # D.29597, MEM[base: a_dst_ptr_24, offset: 0B]
L104:
	movl	(%eax), %esi	 # MEM[base: idx_25, offset: 0B], MEM[base: idx_25, offset: 0B]
	.loc 1 69 0
	addl	$1, %edx	 #, a_dst_ptr
	.loc 1 70 0
	addl	$4, %eax	 #, idx
	.loc 1 68 0
	movzbl	(%ecx,%esi), %ebx	 # *_15, D.29597
	movb	%bl, -1(%edx)	 # D.29597, MEM[base: a_dst_ptr_24, offset: 0B]
L103:
	movl	(%eax), %esi	 # MEM[base: idx_25, offset: 0B], MEM[base: idx_25, offset: 0B]
	.loc 1 69 0
	addl	$1, %edx	 #, a_dst_ptr
	.loc 1 70 0
	addl	$4, %eax	 #, idx
	.loc 1 68 0
	movzbl	(%ecx,%esi), %ebx	 # *_15, D.29597
	movb	%bl, -1(%edx)	 # D.29597, MEM[base: a_dst_ptr_24, offset: 0B]
L102:
	movl	(%eax), %esi	 # MEM[base: idx_25, offset: 0B], MEM[base: idx_25, offset: 0B]
	.loc 1 69 0
	addl	$1, %edx	 #, a_dst_ptr
	.loc 1 70 0
	addl	$4, %eax	 #, idx
	.loc 1 68 0
	movzbl	(%ecx,%esi), %ebx	 # *_15, D.29597
	movb	%bl, -1(%edx)	 # D.29597, MEM[base: a_dst_ptr_24, offset: 0B]
L101:
	movl	(%eax), %esi	 # MEM[base: idx_25, offset: 0B], MEM[base: idx_25, offset: 0B]
	.loc 1 70 0
	addl	$4, %eax	 #, idx
	.loc 1 69 0
	addl	$1, %edx	 #, a_dst_ptr
	.loc 1 68 0
	movzbl	(%ecx,%esi), %ebx	 # *_15, D.29597
	movb	%bl, -1(%edx)	 # D.29597, MEM[base: a_dst_ptr_24, offset: 0B]
	.loc 1 67 0
	cmpl	%eax, %edi	 # idx, idx_end
	jb	L114	 #,
L75:
	.loc 1 68 0
	movl	(%eax), %esi	 # MEM[base: idx_25, offset: 0B], MEM[base: idx_25, offset: 0B]
	.loc 1 70 0
	addl	$32, %eax	 #, idx
	.loc 1 69 0
	addl	$8, %edx	 #, a_dst_ptr
	.loc 1 68 0
	movzbl	(%ecx,%esi), %ebx	 # *_15, D.29597
	movb	%bl, -8(%edx)	 # D.29597, MEM[base: a_dst_ptr_24, offset: 0B]
	movl	-28(%eax), %esi	 # MEM[base: idx_25, offset: 0B], MEM[base: idx_25, offset: 0B]
	movzbl	(%ecx,%esi), %ebx	 # *_15, D.29597
	movb	%bl, -7(%edx)	 # D.29597, MEM[base: a_dst_ptr_24, offset: 0B]
	movl	-24(%eax), %esi	 # MEM[base: idx_25, offset: 0B], MEM[base: idx_25, offset: 0B]
	movzbl	(%ecx,%esi), %ebx	 # *_15, D.29597
	movb	%bl, -6(%edx)	 # D.29597, MEM[base: a_dst_ptr_24, offset: 0B]
	movl	-20(%eax), %esi	 # MEM[base: idx_25, offset: 0B], MEM[base: idx_25, offset: 0B]
	movzbl	(%ecx,%esi), %ebx	 # *_15, D.29597
	movb	%bl, -5(%edx)	 # D.29597, MEM[base: a_dst_ptr_24, offset: 0B]
	movl	-16(%eax), %esi	 # MEM[base: idx_25, offset: 0B], MEM[base: idx_25, offset: 0B]
	movzbl	(%ecx,%esi), %ebx	 # *_15, D.29597
	movb	%bl, -4(%edx)	 # D.29597, MEM[base: a_dst_ptr_24, offset: 0B]
	movl	-12(%eax), %esi	 # MEM[base: idx_25, offset: 0B], MEM[base: idx_25, offset: 0B]
	movzbl	(%ecx,%esi), %ebx	 # *_15, D.29597
	movb	%bl, -3(%edx)	 # D.29597, MEM[base: a_dst_ptr_24, offset: 0B]
	movl	-8(%eax), %esi	 # MEM[base: idx_25, offset: 0B], MEM[base: idx_25, offset: 0B]
	movzbl	(%ecx,%esi), %ebx	 # *_15, D.29597
	movb	%bl, -2(%edx)	 # D.29597, MEM[base: a_dst_ptr_24, offset: 0B]
	movl	-4(%eax), %esi	 # MEM[base: idx_25, offset: 0B], MEM[base: idx_25, offset: 0B]
	movzbl	(%ecx,%esi), %ebx	 # *_15, D.29597
	movb	%bl, -1(%edx)	 # D.29597, MEM[base: a_dst_ptr_24, offset: 0B]
	.loc 1 67 0
	cmpl	%eax, %edi	 # idx, idx_end
	jae	L75	 #,
L114:
	movl	8(%ebp), %eax	 # this_5(D)->matrix_dim, D.29598
LVL58:
L74:
LBE5:
	.loc 1 74 0
	popl	%ebx	 #
	.cfi_restore 3
	.cfi_def_cfa_offset 16
	popl	%esi	 #
	.cfi_restore 6
	.cfi_def_cfa_offset 12
	popl	%edi	 #
	.cfi_restore 7
	.cfi_def_cfa_offset 8
LVL59:
	popl	%ebp	 #
	.cfi_restore 5
	.cfi_def_cfa_offset 4
LVL60:
	ret	$8	 #
	.cfi_endproc
LFE700:
	.section	.text.unlikely,"x"
LCOLDE4:
	.text
LHOTE4:
	.section	.text.unlikely,"x"
	.align 2
LCOLDB5:
	.text
LHOTB5:
	.align 2
	.p2align 4,,15
	.globl	__ZN3stk11compression16__bwt_compressor4sortEv@4
	.def	__ZN3stk11compression16__bwt_compressor4sortEv@4;	.scl	2;	.type	32;	.endef
__ZN3stk11compression16__bwt_compressor4sortEv@4:
LFB701:
	.loc 1 78 0
	.cfi_startproc
LVL61:
L119:
L120:
	pushl	%ebp	 #
	.cfi_def_cfa_offset 8
	.cfi_offset 5, -8
	pushl	%edi	 #
	.cfi_def_cfa_offset 12
	.cfi_offset 7, -12
	pushl	%esi	 #
	.cfi_def_cfa_offset 16
	.cfi_offset 6, -16
	pushl	%ebx	 #
	.cfi_def_cfa_offset 20
	.cfi_offset 3, -20
	subl	$40, %esp	 #,
	.cfi_def_cfa_offset 60
LBB15:
	.loc 1 84 0
	movl	60(%esp), %esi	 # this, tmp246
	.loc 1 83 0
	movl	60(%esp), %eax	 # this, tmp242
	movl	60(%esp), %ecx	 # this, tmp244
	.loc 1 84 0
	movl	8(%esi), %ebp	 # this_14(D)->matrix_dim, this_14(D)->matrix_dim
	.loc 1 83 0
	movl	20(%eax), %edx	 # this_14(D)->groups_end, gl_end_new
	.loc 1 85 0
	movl	60(%esp), %eax	 # this, tmp250
	.loc 1 83 0
	movl	24(%ecx), %ebx	 # this_14(D)->groups_end, gl_end_new
	.loc 1 85 0
	movl	60(%esp), %ecx	 # this, tmp252
	.loc 1 84 0
	subl	$1, %ebp	 #, D.29669
	.loc 1 83 0
	movl	%edx, %edi	 # gl_end_new, gl_end_new
	movl	%edx, 24(%esp)	 # gl_end_new, %sfp
LVL62:
	.loc 1 84 0
	movl	%ebp, (%edx)	 # D.29669, *gl_end_new_15
	.loc 1 85 0
	movl	12(%eax), %edx	 # this_14(D)->groups_bgn, gl_bgn_new
LVL63:
	movl	60(%esp), %eax	 # this, tmp257
	.loc 1 83 0
	movl	%ebx, 12(%esp)	 # gl_end_new, %sfp
LVL64:
	.loc 1 85 0
	movl	16(%ecx), %ebx	 # this_14(D)->groups_bgn, gl_bgn_new
LVL65:
	.loc 1 86 0
	movl	$0, (%edx)	 #, *gl_bgn_new_20
	movl	(%edi), %esi	 # *gl_end_new_15, D.29669
LBB16:
	.loc 1 89 0
	movl	8(%eax), %ecx	 # this_14(D)->matrix_dim, this_14(D)->matrix_dim
LBE16:
	.loc 1 85 0
	movl	%edx, 28(%esp)	 # gl_bgn_new, %sfp
LVL66:
	movl	4(%eax), %ebp	 # this_14(D)->matrix_idx_ptr, D.29670
	movl	%ebx, 16(%esp)	 # gl_bgn_new, %sfp
LVL67:
	movl	%esi, 4(%esp)	 # D.29669, %sfp
LBB32:
LBB17:
	.loc 1 93 0
	movl	4(%esp), %edx	 # %sfp,
LVL68:
LBE17:
	.loc 1 89 0
	movl	%ecx, (%esp)	 # this_14(D)->matrix_dim, %sfp
	shrl	$2, %ecx	 #, D.29669
LVL69:
	subl	$2, %ecx	 #, ivtmp.85
	movl	%ebp, %edi	 # D.29670, D.29670
LVL70:
	movl	%ecx, 32(%esp)	 # ivtmp.85, %sfp
	addl	$1, %ecx	 #, col
LVL71:
LBB30:
	.loc 1 93 0
	testl	%edx, %edx	 #
	je	L121	 #,
LVL72:
L281:
	movl	60(%esp), %ebx	 # this, tmp264
	movl	$0, 20(%esp)	 #, %sfp
	movl	(%ebx), %esi	 # this_14(D)->matrix_ptr, D.29671
	leal	(%esi,%ecx), %eax	 #, D.29671
	movl	%esi, 36(%esp)	 # D.29671, %sfp
	movl	%eax, %esi	 # D.29671, D.29671
LVL73:
	.p2align 4,,10
L123:
	.loc 1 94 0 discriminator 3
	movl	28(%esp), %ebp	 # %sfp, gl_bgn_new
	movl	20(%esp), %edx	 # %sfp, row
	movl	0(%ebp,%edx,4), %ecx	 # MEM[base: gl_bgn_new_3, index: row_127, step: 4, offset: 0B], row_fnd
LBB18:
LBB19:
	.loc 1 141 0 discriminator 3
	cmpl	4(%esp), %ecx	 # %sfp, row_fnd
LBE19:
LBE18:
	.loc 1 94 0 discriminator 3
	movl	%ecx, (%esp)	 # row_fnd, %sfp
LVL74:
LBB21:
LBB20:
	.loc 1 141 0 discriminator 3
	ja	L130	 #,
LVL75:
	.p2align 4,,10
L156:
	.loc 1 143 0
	movl	(%esp), %ebp	 # %sfp, row_fnd
	movl	4(%esp), %ebx	 # %sfp, tmp165
	movl	(%edi,%ebp,4), %eax	 # MEM[base: _213, index: row_fnd_145, step: 4, offset: 0B], D.29669
	subl	%ebp, %ebx	 # row_fnd, tmp165
	movl	%ebp, %ecx	 # row_fnd, row_fnd
	andl	$7, %ebx	 #, tmp166
	movl	%eax, 8(%esp)	 # D.29669, %sfp
	movl	(%esi,%eax), %edx	 # *_57, cmp
LVL76:
	movl	%ebp, %eax	 # row_fnd, row_fnd
	je	L125	 #,
	movl	%ebp, %eax	 # row_fnd, row_fnd
LVL77:
	addl	$1, %eax	 #, row_fnd
LVL78:
	cmpl	4(%esp), %eax	 # %sfp, row_fnd
	ja	L259	 #,
	.loc 1 144 0
	movl	(%edi,%eax,4), %ebp	 # MEM[base: _213, index: row_fnd_59, step: 4, offset: 0B], MEM[base: _213, index: row_fnd_59, step: 4, offset: 0B]
	movl	(%esi,%ebp), %ebp	 # *_63, cmp
	cmpl	%edx, %ebp	 # cmp, cmp
	jae	L223	 #,
	movl	%ebp, %edx	 # cmp, cmp
LVL79:
	movl	%eax, %ecx	 # row_fnd, row_fnd
L223:
	cmpl	$1, %ebx	 #, tmp166
	je	L125	 #,
	cmpl	$2, %ebx	 #, tmp166
	je	L224	 #,
	cmpl	$3, %ebx	 #, tmp166
	je	L225	 #,
	cmpl	$4, %ebx	 #, tmp166
	je	L226	 #,
	cmpl	$5, %ebx	 #, tmp166
	je	L227	 #,
	cmpl	$6, %ebx	 #, tmp166
	je	L228	 #,
LVL80:
	.loc 1 143 0
	addl	$1, %eax	 #, row_fnd
LVL81:
	.loc 1 144 0
	movl	(%edi,%eax,4), %ebx	 # MEM[base: _213, index: row_fnd_59, step: 4, offset: 0B], MEM[base: _213, index: row_fnd_59, step: 4, offset: 0B]
	movl	(%esi,%ebx), %ebp	 # *_63, cmp
	cmpl	%edx, %ebp	 # cmp, cmp
	jae	L228	 #,
	movl	%ebp, %edx	 # cmp, cmp
LVL82:
	movl	%eax, %ecx	 # row_fnd, row_fnd
L228:
LVL83:
	.loc 1 143 0
	addl	$1, %eax	 #, row_fnd
LVL84:
	.loc 1 144 0
	movl	(%edi,%eax,4), %ebx	 # MEM[base: _213, index: row_fnd_59, step: 4, offset: 0B], MEM[base: _213, index: row_fnd_59, step: 4, offset: 0B]
	movl	(%esi,%ebx), %ebp	 # *_63, cmp
	cmpl	%edx, %ebp	 # cmp, cmp
	jae	L227	 #,
	movl	%ebp, %edx	 # cmp, cmp
LVL85:
	movl	%eax, %ecx	 # row_fnd, row_fnd
L227:
LVL86:
	.loc 1 143 0
	addl	$1, %eax	 #, row_fnd
LVL87:
	.loc 1 144 0
	movl	(%edi,%eax,4), %ebx	 # MEM[base: _213, index: row_fnd_59, step: 4, offset: 0B], MEM[base: _213, index: row_fnd_59, step: 4, offset: 0B]
	movl	(%esi,%ebx), %ebp	 # *_63, cmp
	cmpl	%edx, %ebp	 # cmp, cmp
	jae	L226	 #,
	movl	%ebp, %edx	 # cmp, cmp
LVL88:
	movl	%eax, %ecx	 # row_fnd, row_fnd
L226:
LVL89:
	.loc 1 143 0
	addl	$1, %eax	 #, row_fnd
LVL90:
	.loc 1 144 0
	movl	(%edi,%eax,4), %ebx	 # MEM[base: _213, index: row_fnd_59, step: 4, offset: 0B], MEM[base: _213, index: row_fnd_59, step: 4, offset: 0B]
	movl	(%esi,%ebx), %ebp	 # *_63, cmp
	cmpl	%edx, %ebp	 # cmp, cmp
	jae	L225	 #,
	movl	%ebp, %edx	 # cmp, cmp
LVL91:
	movl	%eax, %ecx	 # row_fnd, row_fnd
L225:
LVL92:
	.loc 1 143 0
	addl	$1, %eax	 #, row_fnd
LVL93:
	.loc 1 144 0
	movl	(%edi,%eax,4), %ebx	 # MEM[base: _213, index: row_fnd_59, step: 4, offset: 0B], MEM[base: _213, index: row_fnd_59, step: 4, offset: 0B]
	movl	(%esi,%ebx), %ebp	 # *_63, cmp
	cmpl	%edx, %ebp	 # cmp, cmp
	jae	L224	 #,
	movl	%ebp, %edx	 # cmp, cmp
LVL94:
	movl	%eax, %ecx	 # row_fnd, row_fnd
L224:
LVL95:
	.loc 1 143 0
	addl	$1, %eax	 #, row_fnd
LVL96:
	.loc 1 144 0
	movl	(%edi,%eax,4), %ebx	 # MEM[base: _213, index: row_fnd_59, step: 4, offset: 0B], MEM[base: _213, index: row_fnd_59, step: 4, offset: 0B]
	movl	(%esi,%ebx), %ebp	 # *_63, cmp
	cmpl	%edx, %ebp	 # cmp, cmp
	jae	L125	 #,
L275:
	movl	%ebp, %edx	 # cmp, cmp
LVL97:
	movl	%eax, %ecx	 # row_fnd, row_fnd
LVL98:
L125:
	.loc 1 143 0
	addl	$1, %eax	 #, tmp167
LVL99:
	cmpl	4(%esp), %eax	 # %sfp, tmp167
	ja	L259	 #,
LVL100:
L127:
	.loc 1 144 0
	movl	(%edi,%eax,4), %ebx	 # MEM[base: _213, index: row_fnd_59, step: 4, offset: 0B], MEM[base: _213, index: row_fnd_59, step: 4, offset: 0B]
	movl	(%esi,%ebx), %ebp	 # *_63, cmp
	cmpl	%edx, %ebp	 # cmp, cmp
	jae	L217	 #,
	movl	%ebp, %edx	 # cmp, cmp
LVL101:
	movl	%eax, %ecx	 # tmp167, row_fnd
L217:
LVL102:
	.loc 1 143 0
	leal	1(%eax), %ebx	 #, row_fnd
	.loc 1 144 0
	movl	(%edi,%ebx,4), %ebp	 # MEM[base: _213, index: row_fnd_59, step: 4, offset: 0B], MEM[base: _213, index: row_fnd_59, step: 4, offset: 0B]
	movl	(%esi,%ebp), %ebp	 # *_63, cmp
	cmpl	%edx, %ebp	 # cmp, cmp
	jae	L229	 #,
	movl	%ebp, %edx	 # cmp, cmp
LVL103:
	movl	%ebx, %ecx	 # row_fnd, row_fnd
L229:
LVL104:
	.loc 1 143 0
	leal	2(%eax), %ebx	 #, row_fnd
	.loc 1 144 0
	movl	(%edi,%ebx,4), %ebp	 # MEM[base: _213, index: row_fnd_59, step: 4, offset: 0B], MEM[base: _213, index: row_fnd_59, step: 4, offset: 0B]
	movl	(%esi,%ebp), %ebp	 # *_63, cmp
	cmpl	%edx, %ebp	 # cmp, cmp
	jae	L230	 #,
	movl	%ebp, %edx	 # cmp, cmp
LVL105:
	movl	%ebx, %ecx	 # row_fnd, row_fnd
L230:
LVL106:
	.loc 1 143 0
	leal	3(%eax), %ebx	 #, row_fnd
	.loc 1 144 0
	movl	(%edi,%ebx,4), %ebp	 # MEM[base: _213, index: row_fnd_59, step: 4, offset: 0B], MEM[base: _213, index: row_fnd_59, step: 4, offset: 0B]
	movl	(%esi,%ebp), %ebp	 # *_63, cmp
	cmpl	%edx, %ebp	 # cmp, cmp
	jae	L231	 #,
	movl	%ebp, %edx	 # cmp, cmp
LVL107:
	movl	%ebx, %ecx	 # row_fnd, row_fnd
L231:
LVL108:
	.loc 1 143 0
	leal	4(%eax), %ebx	 #, row_fnd
	.loc 1 144 0
	movl	(%edi,%ebx,4), %ebp	 # MEM[base: _213, index: row_fnd_59, step: 4, offset: 0B], MEM[base: _213, index: row_fnd_59, step: 4, offset: 0B]
	movl	(%esi,%ebp), %ebp	 # *_63, cmp
	cmpl	%edx, %ebp	 # cmp, cmp
	jae	L232	 #,
	movl	%ebp, %edx	 # cmp, cmp
LVL109:
	movl	%ebx, %ecx	 # row_fnd, row_fnd
L232:
LVL110:
	.loc 1 143 0
	leal	5(%eax), %ebx	 #, row_fnd
	.loc 1 144 0
	movl	(%edi,%ebx,4), %ebp	 # MEM[base: _213, index: row_fnd_59, step: 4, offset: 0B], MEM[base: _213, index: row_fnd_59, step: 4, offset: 0B]
	movl	(%esi,%ebp), %ebp	 # *_63, cmp
	cmpl	%edx, %ebp	 # cmp, cmp
	jae	L233	 #,
	movl	%ebp, %edx	 # cmp, cmp
LVL111:
	movl	%ebx, %ecx	 # row_fnd, row_fnd
L233:
LVL112:
	.loc 1 143 0
	leal	6(%eax), %ebx	 #, row_fnd
	.loc 1 144 0
	movl	(%edi,%ebx,4), %ebp	 # MEM[base: _213, index: row_fnd_59, step: 4, offset: 0B], MEM[base: _213, index: row_fnd_59, step: 4, offset: 0B]
	movl	(%esi,%ebp), %ebp	 # *_63, cmp
	cmpl	%edx, %ebp	 # cmp, cmp
	jae	L234	 #,
	movl	%ebp, %edx	 # cmp, cmp
LVL113:
	movl	%ebx, %ecx	 # row_fnd, row_fnd
L234:
LVL114:
	.loc 1 143 0
	addl	$7, %eax	 #, row_fnd
LVL115:
	.loc 1 144 0
	movl	(%edi,%eax,4), %ebx	 # MEM[base: _213, index: row_fnd_59, step: 4, offset: 0B], MEM[base: _213, index: row_fnd_59, step: 4, offset: 0B]
	movl	(%esi,%ebx), %ebp	 # *_63, cmp
	cmpl	%edx, %ebp	 # cmp, cmp
	jb	L275	 #,
	.loc 1 143 0
	addl	$1, %eax	 #, tmp167
LVL116:
	cmpl	4(%esp), %eax	 # %sfp, tmp167
	jbe	L127	 #,
LVL117:
L259:
	.loc 1 148 0
	movl	(%esp), %ebp	 # %sfp, row_fnd
	cmpl	%ecx, %ebp	 # row_fnd, row_fnd
	je	L128	 #,
LVL118:
	.loc 1 150 0
	leal	(%edi,%ecx,4), %ebx	 #, D.29670
	movl	(%ebx), %edx	 # *_69, D.29669
	movl	%edx, (%edi,%ebp,4)	 # D.29669, MEM[base: _213, index: row_fnd_145, step: 4, offset: 0B]
	.loc 1 151 0
	movl	8(%esp), %ebp	 # %sfp, D.29669
	movl	%ebp, (%ebx)	 # D.29669, *_69
LVL119:
L128:
	.loc 1 141 0
	addl	$1, (%esp)	 #, %sfp
LVL120:
	movl	(%esp), %eax	 # %sfp, row_fnd
LVL121:
	cmpl	4(%esp), %eax	 # %sfp, row_fnd
	jbe	L156	 #,
LVL122:
L130:
LBE20:
LBE21:
	.loc 1 93 0
	addl	$1, 20(%esp)	 #, %sfp
LVL123:
	movl	24(%esp), %edx	 # %sfp, gl_end_new
	movl	20(%esp), %ebx	 # %sfp, row
LVL124:
	movl	(%edx,%ebx,4), %ecx	 # MEM[base: gl_end_new_1, index: row_32, step: 4, offset: 0B], D.29669
	testl	%ecx, %ecx	 # D.29669
	movl	%ecx, 4(%esp)	 # D.29669, %sfp
LVL125:
	jne	L123	 #,
LVL126:
	.loc 1 96 0
	movl	32(%esp), %esi	 # %sfp,
	testl	%esi, %esi	 #
	je	L263	 #,
L131:
LVL127:
	.loc 1 100 0 discriminator 1
	movl	24(%esp), %ebp	 # %sfp, gl_end_new
	movl	0(%ebp), %eax	 # *gl_end_new_1, D.29669
	testl	%eax, %eax	 # D.29669
	movl	%eax, 4(%esp)	 # D.29669, %sfp
	je	L134	 #,
	movl	36(%esp), %ebp	 # %sfp, D.29671
	addl	32(%esp), %ebp	 # %sfp, D.29671
	.loc 1 100 0 is_stmt 0
	movl	$0, 20(%esp)	 #, %sfp
LVL128:
	.p2align 4,,10
L141:
	.loc 1 101 0 is_stmt 1 discriminator 3
	movl	28(%esp), %ebx	 # %sfp, gl_bgn_new
	movl	20(%esp), %edx	 # %sfp, row
	movl	(%ebx,%edx,4), %ecx	 # MEM[base: gl_bgn_new_3, index: row_120, step: 4, offset: 0B], row
LBB22:
LBB23:
	.loc 1 170 0 discriminator 3
	cmpl	4(%esp), %ecx	 # %sfp, row
LBE23:
LBE22:
	.loc 1 101 0 discriminator 3
	movl	%ecx, (%esp)	 # row, %sfp
LVL129:
LBB27:
LBB24:
	.loc 1 170 0 discriminator 3
	ja	L147	 #,
	movl	(%edi,%ecx,4), %esi	 # *_216, *_216
	movl	(%esp), %eax	 # %sfp, row
	.loc 1 170 0 is_stmt 0
	movl	$0, 8(%esp)	 #, %sfp
	movl	0(%ebp,%esi), %ebx	 # MEM[(uint32_t *)_219], D.29672
LVL130:
	.p2align 4,,10
L136:
	movl	4(%esp), %esi	 # %sfp, tmp162
	movl	%eax, %ecx	 # row, row
	subl	%eax, %esi	 # row, tmp162
	andl	$7, %esi	 #, tmp163
	je	L137	 #,
	.loc 1 172 0 is_stmt 1
	addl	$1, %eax	 #, row
LVL131:
	cmpl	4(%esp), %eax	 # %sfp, row
	ja	L258	 #,
	.loc 1 173 0
	movl	(%edi,%eax,4), %edx	 # MEM[base: _213, index: row_83, step: 4, offset: 0B], MEM[base: _213, index: row_83, step: 4, offset: 0B]
	movl	0(%ebp,%edx), %edx	 # *_87, D.29669
	cmpl	%ebx, %edx	 # D.29672, D.29669
	jne	L138	 #,
	cmpl	$1, %esi	 #, tmp163
	movl	%eax, %ecx	 # row, row
	je	L137	 #,
	cmpl	$2, %esi	 #, tmp163
	je	L218	 #,
	cmpl	$3, %esi	 #, tmp163
	je	L219	 #,
	cmpl	$4, %esi	 #, tmp163
	je	L220	 #,
	cmpl	$5, %esi	 #, tmp163
	je	L221	 #,
	cmpl	$6, %esi	 #, tmp163
	je	L222	 #,
LVL132:
	.loc 1 172 0
	movl	(%esp), %eax	 # %sfp, row
	addl	$2, %eax	 #, row
	.loc 1 173 0
	movl	(%edi,%eax,4), %esi	 # MEM[base: _213, index: row_83, step: 4, offset: 0B], MEM[base: _213, index: row_83, step: 4, offset: 0B]
	movl	0(%ebp,%esi), %edx	 # *_87, D.29669
	cmpl	%ebx, %edx	 # D.29672, D.29669
	jne	L138	 #,
	movl	%eax, %ecx	 # row, row
L222:
LVL133:
	.loc 1 172 0
	addl	$1, %eax	 #, row
LVL134:
	.loc 1 173 0
	movl	(%edi,%eax,4), %edx	 # MEM[base: _213, index: row_83, step: 4, offset: 0B], MEM[base: _213, index: row_83, step: 4, offset: 0B]
	movl	0(%ebp,%edx), %edx	 # *_87, D.29669
	cmpl	%ebx, %edx	 # D.29672, D.29669
	jne	L138	 #,
	movl	%eax, %ecx	 # row, row
LVL135:
L221:
	.loc 1 172 0
	addl	$1, %eax	 #, row
LVL136:
	.loc 1 173 0
	movl	(%edi,%eax,4), %esi	 # MEM[base: _213, index: row_83, step: 4, offset: 0B], MEM[base: _213, index: row_83, step: 4, offset: 0B]
	movl	0(%ebp,%esi), %edx	 # *_87, D.29669
	cmpl	%ebx, %edx	 # D.29672, D.29669
	jne	L138	 #,
	movl	%eax, %ecx	 # row, row
LVL137:
L220:
	.loc 1 172 0
	addl	$1, %eax	 #, row
LVL138:
	.loc 1 173 0
	movl	(%edi,%eax,4), %edx	 # MEM[base: _213, index: row_83, step: 4, offset: 0B], MEM[base: _213, index: row_83, step: 4, offset: 0B]
	movl	0(%ebp,%edx), %edx	 # *_87, D.29669
	cmpl	%ebx, %edx	 # D.29672, D.29669
	jne	L138	 #,
	movl	%eax, %ecx	 # row, row
LVL139:
L219:
	.loc 1 172 0
	addl	$1, %eax	 #, row
LVL140:
	.loc 1 173 0
	movl	(%edi,%eax,4), %esi	 # MEM[base: _213, index: row_83, step: 4, offset: 0B], MEM[base: _213, index: row_83, step: 4, offset: 0B]
	movl	0(%ebp,%esi), %edx	 # *_87, D.29669
	cmpl	%ebx, %edx	 # D.29672, D.29669
	jne	L138	 #,
	movl	%eax, %ecx	 # row, row
LVL141:
L218:
	.loc 1 172 0
	addl	$1, %eax	 #, row
LVL142:
	.loc 1 173 0
	movl	(%edi,%eax,4), %edx	 # MEM[base: _213, index: row_83, step: 4, offset: 0B], MEM[base: _213, index: row_83, step: 4, offset: 0B]
	movl	0(%ebp,%edx), %edx	 # *_87, D.29669
	cmpl	%ebx, %edx	 # D.29672, D.29669
	jne	L138	 #,
LVL143:
L276:
	movl	%eax, %ecx	 # row, row
L137:
LVL144:
	.loc 1 172 0
	leal	1(%ecx), %eax	 #, row
LVL145:
	cmpl	4(%esp), %eax	 # %sfp, row
	ja	L258	 #,
	.loc 1 173 0
	movl	(%edi,%eax,4), %edx	 # MEM[base: _213, index: row_83, step: 4, offset: 0B], MEM[base: _213, index: row_83, step: 4, offset: 0B]
	movl	0(%ebp,%edx), %edx	 # *_87, D.29669
	cmpl	%ebx, %edx	 # D.29672, D.29669
	jne	L138	 #,
	movl	%eax, %esi	 # row, row
	movl	%eax, %ecx	 # row, row
	.loc 1 172 0
	leal	1(%eax), %eax	 #, row
LVL146:
	.loc 1 173 0
	movl	(%edi,%eax,4), %edx	 # MEM[base: _213, index: row_83, step: 4, offset: 0B], MEM[base: _213, index: row_83, step: 4, offset: 0B]
	movl	0(%ebp,%edx), %edx	 # *_87, D.29669
	cmpl	%ebx, %edx	 # D.29672, D.29669
	jne	L138	 #,
	movl	%eax, %ecx	 # row, row
	.loc 1 172 0
	leal	1(%eax), %eax	 #, row
LVL147:
	.loc 1 173 0
	movl	(%edi,%eax,4), %edx	 # MEM[base: _213, index: row_83, step: 4, offset: 0B], MEM[base: _213, index: row_83, step: 4, offset: 0B]
	movl	0(%ebp,%edx), %edx	 # *_87, D.29669
	cmpl	%ebx, %edx	 # D.29672, D.29669
	jne	L138	 #,
	.loc 1 172 0
	leal	3(%esi), %eax	 #, row
LVL148:
	.loc 1 173 0
	leal	2(%esi), %ecx	 #, row
LVL149:
	movl	(%edi,%eax,4), %edx	 # MEM[base: _213, index: row_83, step: 4, offset: 0B], MEM[base: _213, index: row_83, step: 4, offset: 0B]
	movl	0(%ebp,%edx), %edx	 # *_87, D.29669
	cmpl	%ebx, %edx	 # D.29672, D.29669
	jne	L138	 #,
	movl	%eax, %ecx	 # row, row
LVL150:
	.loc 1 172 0
	leal	4(%esi), %eax	 #, row
LVL151:
	.loc 1 173 0
	movl	(%edi,%eax,4), %edx	 # MEM[base: _213, index: row_83, step: 4, offset: 0B], MEM[base: _213, index: row_83, step: 4, offset: 0B]
	movl	0(%ebp,%edx), %edx	 # *_87, D.29669
	cmpl	%ebx, %edx	 # D.29672, D.29669
	jne	L138	 #,
	movl	%eax, %ecx	 # row, row
LVL152:
	.loc 1 172 0
	leal	5(%esi), %eax	 #, row
LVL153:
	.loc 1 173 0
	movl	(%edi,%eax,4), %edx	 # MEM[base: _213, index: row_83, step: 4, offset: 0B], MEM[base: _213, index: row_83, step: 4, offset: 0B]
	movl	0(%ebp,%edx), %edx	 # *_87, D.29669
	cmpl	%ebx, %edx	 # D.29672, D.29669
	jne	L138	 #,
	movl	%eax, %ecx	 # row, row
LVL154:
	.loc 1 172 0
	leal	6(%esi), %eax	 #, row
LVL155:
	.loc 1 173 0
	movl	(%edi,%eax,4), %edx	 # MEM[base: _213, index: row_83, step: 4, offset: 0B], MEM[base: _213, index: row_83, step: 4, offset: 0B]
	movl	0(%ebp,%edx), %edx	 # *_87, D.29669
	cmpl	%ebx, %edx	 # D.29672, D.29669
	jne	L138	 #,
	movl	%eax, %ecx	 # row, row
LVL156:
	.loc 1 172 0
	leal	7(%esi), %eax	 #, row
LVL157:
	.loc 1 173 0
	movl	(%edi,%eax,4), %esi	 # MEM[base: _213, index: row_83, step: 4, offset: 0B], MEM[base: _213, index: row_83, step: 4, offset: 0B]
	movl	0(%ebp,%esi), %edx	 # *_87, D.29669
	cmpl	%ebx, %edx	 # D.29672, D.29669
	je	L276	 #,
LVL158:
	.p2align 4,,10
L138:
	.loc 1 176 0
	cmpl	%ecx, (%esp)	 # row, %sfp
	jae	L148	 #,
	.loc 1 177 0
	movl	8(%esp), %esi	 # %sfp, list_count
	movl	(%esp), %ebx	 # %sfp, row
LVL159:
	movl	16(%esp), %edx	 # %sfp, gl_bgn_new
	.loc 1 172 0
	movl	%eax, (%esp)	 # row, %sfp
LVL160:
	.loc 1 177 0
	movl	%ebx, (%edx,%esi,4)	 # row, *_143
	.loc 1 178 0
	movl	12(%esp), %edx	 # %sfp, gl_end_new
	movl	%ecx, (%edx,%esi,4)	 # row, *_35
	movl	(%edi,%eax,4), %ecx	 # *_198, *_198
	.loc 1 179 0
	addl	$1, %esi	 #, list_count
	movl	%esi, 8(%esp)	 # list_count, %sfp
LVL161:
	movl	0(%ebp,%ecx), %ebx	 # MEM[(uint32_t *)_202], D.29672
	jmp	L136	 #
LVL162:
	.p2align 4,,10
L258:
	.loc 1 176 0
	cmpl	%ecx, (%esp)	 # row, %sfp
	jae	L280	 #,
	.loc 1 177 0
	movl	8(%esp), %eax	 # %sfp, list_count
	movl	16(%esp), %ebx	 # %sfp, gl_bgn_new
LVL163:
	movl	(%esp), %esi	 # %sfp, row
	.loc 1 178 0
	movl	12(%esp), %edx	 # %sfp, gl_end_new
	.loc 1 177 0
	movl	%esi, (%ebx,%eax,4)	 # row, *_114
	leal	4(,%eax,4), %ebx	 #, D.29669
	.loc 1 178 0
	movl	%ecx, (%edx,%eax,4)	 # row, *_201
LVL164:
	movl	%edx, %ecx	 # gl_end_new, gl_end_new
LVL165:
L135:
LBE24:
LBE27:
	.loc 1 100 0
	addl	$1, 20(%esp)	 #, %sfp
LVL166:
	movl	24(%esp), %esi	 # %sfp, gl_end_new
	movl	20(%esp), %eax	 # %sfp, row
LVL167:
LBB28:
LBB25:
	.loc 1 184 0
	movl	$0, (%ecx,%ebx)	 #, *_98
LBE25:
LBE28:
	.loc 1 100 0
	movl	(%esi,%eax,4), %edx	 # MEM[base: gl_end_new_1, index: row_40, step: 4, offset: 0B], D.29669
	testl	%edx, %edx	 # D.29669
	movl	%edx, 4(%esp)	 # D.29669, %sfp
LVL168:
	jne	L141	 #,
LVL169:
L134:
	.loc 1 103 0
	movl	12(%esp), %ebp	 # %sfp, gl_end_new
	movl	24(%esp), %ecx	 # %sfp, gl_end_new
	movl	28(%esp), %esi	 # %sfp, gl_bgn_new
	subl	$1, 32(%esp)	 #, %sfp
	.loc 1 110 0
	movl	16(%esp), %eax	 # %sfp, gl_bgn_new
	.loc 1 103 0
	movl	0(%ebp), %ebx	 # *gl_end_new_2, D.29669
	movl	%ecx, 12(%esp)	 # gl_end_new, %sfp
	movl	%esi, 16(%esp)	 # gl_bgn_new, %sfp
	testl	%ebx, %ebx	 # D.29669
	movl	%ebx, 4(%esp)	 # D.29669, %sfp
	je	L263	 #,
	movl	32(%esp), %ecx	 # %sfp, ivtmp.85
	.loc 1 93 0
	movl	4(%esp), %edx	 # %sfp,
	.loc 1 110 0
	movl	%eax, 28(%esp)	 # gl_bgn_new, %sfp
	movl	%ebp, 24(%esp)	 # gl_end_new, %sfp
	addl	$1, %ecx	 #, col
LVL170:
	.loc 1 93 0
	testl	%edx, %edx	 #
	jne	L281	 #,
LVL171:
L121:
	.loc 1 96 0
	movl	32(%esp), %ecx	 # %sfp,
	testl	%ecx, %ecx	 #
	jne	L134	 #,
LVL172:
L263:
LDL1:
LBE30:
LBE32:
	.loc 1 120 0
	movl	60(%esp), %eax	 # this, tmp290
	movl	8(%eax), %ebp	 # this_14(D)->matrix_dim, idx_bgn
LVL173:
	.loc 1 122 0
	xorl	%eax, %eax	 # row
	cmpl	%ebp, (%edi)	 # idx_bgn, *_213
	je	L254	 #,
LVL174:
L155:
	.loc 1 123 0
	addl	$1, %eax	 #, row
LVL175:
	.loc 1 122 0
	cmpl	%ebp, (%edi,%eax,4)	 # idx_bgn, MEM[base: _213, index: row_48, step: 4, offset: 0B]
	jne	L155	 #,
LVL176:
L254:
LBE15:
	.loc 1 127 0
	addl	$40, %esp	 #,
	.cfi_remember_state
	.cfi_def_cfa_offset 20
	popl	%ebx	 #
	.cfi_restore 3
	.cfi_def_cfa_offset 16
	popl	%esi	 #
	.cfi_restore 6
	.cfi_def_cfa_offset 12
	popl	%edi	 #
	.cfi_restore 7
	.cfi_def_cfa_offset 8
LVL177:
	popl	%ebp	 #
	.cfi_restore 5
	.cfi_def_cfa_offset 4
LVL178:
	ret	$4	 #
LVL179:
	.p2align 4,,10
L280:
	.cfi_restore_state
	movl	8(%esp), %ebx	 # %sfp, D.29669
LVL180:
	movl	12(%esp), %ecx	 # %sfp, gl_end_new
	sall	$2, %ebx	 #, D.29669
	jmp	L135	 #
LVL181:
	.p2align 4,,10
L148:
LBB34:
LBB33:
LBB31:
LBB29:
LBB26:
	.loc 1 172 0
	movl	%eax, (%esp)	 # row, %sfp
LVL182:
	.loc 1 173 0
	movl	%edx, %ebx	 # D.29669, D.29672
LVL183:
	jmp	L136	 #
LVL184:
L147:
	.loc 1 170 0
	xorl	%ebx, %ebx	 # D.29669
	movl	12(%esp), %ecx	 # %sfp, gl_end_new
LVL185:
	jmp	L135	 #
LBE26:
LBE29:
LBE31:
LBE33:
LBE34:
	.cfi_endproc
LFE701:
	.section	.text.unlikely,"x"
LCOLDE5:
	.text
LHOTE5:
	.section	.text.unlikely,"x"
	.align 2
LCOLDB6:
	.text
LHOTB6:
	.align 2
	.p2align 4,,15
	.globl	__ZN3stk11compression16__bwt_compressor11sort_groupsEjjj@16
	.def	__ZN3stk11compression16__bwt_compressor11sort_groupsEjjj@16;	.scl	2;	.type	32;	.endef
__ZN3stk11compression16__bwt_compressor11sort_groupsEjjj@16:
LFB702:
	.loc 1 131 0
	.cfi_startproc
LVL186:
	pushl	%ebp	 #
	.cfi_def_cfa_offset 8
	.cfi_offset 5, -8
	pushl	%edi	 #
	.cfi_def_cfa_offset 12
	.cfi_offset 7, -12
	pushl	%esi	 #
	.cfi_def_cfa_offset 16
	.cfi_offset 6, -16
	pushl	%ebx	 #
	.cfi_def_cfa_offset 20
	.cfi_offset 3, -20
	subl	$8, %esp	 #,
	.cfi_def_cfa_offset 28
LVL187:
	.loc 1 131 0
	movl	28(%esp), %eax	 # this, this
LBB35:
	.loc 1 137 0
	movl	32(%esp), %edi	 # acolumn, ptr
	.loc 1 141 0
	movl	36(%esp), %ebx	 # arow_bgn, row_fnd
	.loc 1 137 0
	movl	(%eax), %edx	 # this_10(D)->matrix_ptr, this_10(D)->matrix_ptr
	.loc 1 138 0
	movl	4(%eax), %ecx	 # this_10(D)->matrix_idx_ptr, idx_ptr
	.loc 1 141 0
	movl	%ebx, (%esp)	 # row_fnd, %sfp
	.loc 1 137 0
	addl	%edx, %edi	 # this_10(D)->matrix_ptr, ptr
LVL188:
	.loc 1 141 0
	cmpl	40(%esp), %ebx	 # arow_end, row_fnd
	ja	L282	 #,
LVL189:
	.p2align 4,,10
L290:
	.loc 1 143 0
	movl	(%esp), %ebp	 # %sfp, row_fnd
	movl	40(%esp), %esi	 # arow_end, tmp105
	movl	(%ecx,%ebp,4), %eax	 # MEM[base: idx_ptr_14, index: row_fnd_36, step: 4, offset: 0B], D.29687
	subl	%ebp, %esi	 # row_fnd, tmp105
	movl	%ebp, %ebx	 # row_fnd, row_fnd
	andl	$7, %esi	 #, tmp106
	movl	%eax, 4(%esp)	 # D.29687, %sfp
	movl	(%edi,%eax), %edx	 # *_18, cmp
LVL190:
	movl	%ebp, %eax	 # row_fnd, row_fnd
	je	L284	 #,
	movl	%ebp, %eax	 # row_fnd, row_fnd
LVL191:
	addl	$1, %eax	 #, row_fnd
LVL192:
	cmpl	%eax, 40(%esp)	 # row_fnd, arow_end
	jb	L348	 #,
	.loc 1 144 0
	movl	(%ecx,%eax,4), %ebp	 # MEM[base: idx_ptr_14, index: row_fnd_20, step: 4, offset: 0B], MEM[base: idx_ptr_14, index: row_fnd_20, step: 4, offset: 0B]
	movl	(%edi,%ebp), %ebp	 # *_24, cmp
	cmpl	%ebp, %edx	 # cmp, cmp
	jbe	L328	 #,
	movl	%ebp, %edx	 # cmp, cmp
LVL193:
	movl	%eax, %ebx	 # row_fnd, row_fnd
L328:
	cmpl	$1, %esi	 #, tmp106
	je	L284	 #,
	cmpl	$2, %esi	 #, tmp106
	je	L329	 #,
	cmpl	$3, %esi	 #, tmp106
	je	L330	 #,
	cmpl	$4, %esi	 #, tmp106
	je	L331	 #,
	cmpl	$5, %esi	 #, tmp106
	je	L332	 #,
	cmpl	$6, %esi	 #, tmp106
	je	L333	 #,
LVL194:
	.loc 1 143 0
	addl	$1, %eax	 #, row_fnd
LVL195:
	.loc 1 144 0
	movl	(%ecx,%eax,4), %esi	 # MEM[base: idx_ptr_14, index: row_fnd_20, step: 4, offset: 0B], MEM[base: idx_ptr_14, index: row_fnd_20, step: 4, offset: 0B]
	movl	(%edi,%esi), %ebp	 # *_24, cmp
	cmpl	%ebp, %edx	 # cmp, cmp
	jbe	L333	 #,
	movl	%ebp, %edx	 # cmp, cmp
LVL196:
	movl	%eax, %ebx	 # row_fnd, row_fnd
L333:
LVL197:
	.loc 1 143 0
	addl	$1, %eax	 #, row_fnd
LVL198:
	.loc 1 144 0
	movl	(%ecx,%eax,4), %esi	 # MEM[base: idx_ptr_14, index: row_fnd_20, step: 4, offset: 0B], MEM[base: idx_ptr_14, index: row_fnd_20, step: 4, offset: 0B]
	movl	(%edi,%esi), %ebp	 # *_24, cmp
	cmpl	%ebp, %edx	 # cmp, cmp
	jbe	L332	 #,
	movl	%ebp, %edx	 # cmp, cmp
LVL199:
	movl	%eax, %ebx	 # row_fnd, row_fnd
L332:
LVL200:
	.loc 1 143 0
	addl	$1, %eax	 #, row_fnd
LVL201:
	.loc 1 144 0
	movl	(%ecx,%eax,4), %esi	 # MEM[base: idx_ptr_14, index: row_fnd_20, step: 4, offset: 0B], MEM[base: idx_ptr_14, index: row_fnd_20, step: 4, offset: 0B]
	movl	(%edi,%esi), %ebp	 # *_24, cmp
	cmpl	%ebp, %edx	 # cmp, cmp
	jbe	L331	 #,
	movl	%ebp, %edx	 # cmp, cmp
LVL202:
	movl	%eax, %ebx	 # row_fnd, row_fnd
L331:
LVL203:
	.loc 1 143 0
	addl	$1, %eax	 #, row_fnd
LVL204:
	.loc 1 144 0
	movl	(%ecx,%eax,4), %esi	 # MEM[base: idx_ptr_14, index: row_fnd_20, step: 4, offset: 0B], MEM[base: idx_ptr_14, index: row_fnd_20, step: 4, offset: 0B]
	movl	(%edi,%esi), %ebp	 # *_24, cmp
	cmpl	%ebp, %edx	 # cmp, cmp
	jbe	L330	 #,
	movl	%ebp, %edx	 # cmp, cmp
LVL205:
	movl	%eax, %ebx	 # row_fnd, row_fnd
L330:
LVL206:
	.loc 1 143 0
	addl	$1, %eax	 #, row_fnd
LVL207:
	.loc 1 144 0
	movl	(%ecx,%eax,4), %esi	 # MEM[base: idx_ptr_14, index: row_fnd_20, step: 4, offset: 0B], MEM[base: idx_ptr_14, index: row_fnd_20, step: 4, offset: 0B]
	movl	(%edi,%esi), %ebp	 # *_24, cmp
	cmpl	%ebp, %edx	 # cmp, cmp
	jbe	L329	 #,
	movl	%ebp, %edx	 # cmp, cmp
LVL208:
	movl	%eax, %ebx	 # row_fnd, row_fnd
L329:
LVL209:
	.loc 1 143 0
	addl	$1, %eax	 #, row_fnd
LVL210:
	.loc 1 144 0
	movl	(%ecx,%eax,4), %esi	 # MEM[base: idx_ptr_14, index: row_fnd_20, step: 4, offset: 0B], MEM[base: idx_ptr_14, index: row_fnd_20, step: 4, offset: 0B]
	movl	(%edi,%esi), %ebp	 # *_24, cmp
	cmpl	%ebp, %edx	 # cmp, cmp
	jbe	L284	 #,
L352:
	movl	%ebp, %edx	 # cmp, cmp
LVL211:
	movl	%eax, %ebx	 # row_fnd, row_fnd
LVL212:
L284:
	.loc 1 143 0 discriminator 1
	addl	$1, %eax	 #, tmp107
LVL213:
	cmpl	%eax, 40(%esp)	 # tmp107, arow_end
	jb	L348	 #,
LVL214:
L286:
	.loc 1 144 0
	movl	(%ecx,%eax,4), %esi	 # MEM[base: idx_ptr_14, index: row_fnd_20, step: 4, offset: 0B], MEM[base: idx_ptr_14, index: row_fnd_20, step: 4, offset: 0B]
	movl	(%edi,%esi), %ebp	 # *_24, cmp
	cmpl	%ebp, %edx	 # cmp, cmp
	jbe	L327	 #,
	movl	%ebp, %edx	 # cmp, cmp
LVL215:
	movl	%eax, %ebx	 # tmp107, row_fnd
L327:
LVL216:
	.loc 1 143 0
	leal	1(%eax), %esi	 #, row_fnd
	.loc 1 144 0
	movl	(%ecx,%esi,4), %ebp	 # MEM[base: idx_ptr_14, index: row_fnd_20, step: 4, offset: 0B], MEM[base: idx_ptr_14, index: row_fnd_20, step: 4, offset: 0B]
	movl	(%edi,%ebp), %ebp	 # *_24, cmp
	cmpl	%ebp, %edx	 # cmp, cmp
	jbe	L334	 #,
	movl	%ebp, %edx	 # cmp, cmp
LVL217:
	movl	%esi, %ebx	 # row_fnd, row_fnd
L334:
LVL218:
	.loc 1 143 0
	leal	2(%eax), %esi	 #, row_fnd
	.loc 1 144 0
	movl	(%ecx,%esi,4), %ebp	 # MEM[base: idx_ptr_14, index: row_fnd_20, step: 4, offset: 0B], MEM[base: idx_ptr_14, index: row_fnd_20, step: 4, offset: 0B]
	movl	(%edi,%ebp), %ebp	 # *_24, cmp
	cmpl	%ebp, %edx	 # cmp, cmp
	jbe	L335	 #,
	movl	%ebp, %edx	 # cmp, cmp
LVL219:
	movl	%esi, %ebx	 # row_fnd, row_fnd
L335:
LVL220:
	.loc 1 143 0
	leal	3(%eax), %esi	 #, row_fnd
	.loc 1 144 0
	movl	(%ecx,%esi,4), %ebp	 # MEM[base: idx_ptr_14, index: row_fnd_20, step: 4, offset: 0B], MEM[base: idx_ptr_14, index: row_fnd_20, step: 4, offset: 0B]
	movl	(%edi,%ebp), %ebp	 # *_24, cmp
	cmpl	%ebp, %edx	 # cmp, cmp
	jbe	L336	 #,
	movl	%ebp, %edx	 # cmp, cmp
LVL221:
	movl	%esi, %ebx	 # row_fnd, row_fnd
L336:
LVL222:
	.loc 1 143 0
	leal	4(%eax), %esi	 #, row_fnd
	.loc 1 144 0
	movl	(%ecx,%esi,4), %ebp	 # MEM[base: idx_ptr_14, index: row_fnd_20, step: 4, offset: 0B], MEM[base: idx_ptr_14, index: row_fnd_20, step: 4, offset: 0B]
	movl	(%edi,%ebp), %ebp	 # *_24, cmp
	cmpl	%ebp, %edx	 # cmp, cmp
	jbe	L337	 #,
	movl	%ebp, %edx	 # cmp, cmp
LVL223:
	movl	%esi, %ebx	 # row_fnd, row_fnd
L337:
LVL224:
	.loc 1 143 0
	leal	5(%eax), %esi	 #, row_fnd
	.loc 1 144 0
	movl	(%ecx,%esi,4), %ebp	 # MEM[base: idx_ptr_14, index: row_fnd_20, step: 4, offset: 0B], MEM[base: idx_ptr_14, index: row_fnd_20, step: 4, offset: 0B]
	movl	(%edi,%ebp), %ebp	 # *_24, cmp
	cmpl	%ebp, %edx	 # cmp, cmp
	jbe	L338	 #,
	movl	%ebp, %edx	 # cmp, cmp
LVL225:
	movl	%esi, %ebx	 # row_fnd, row_fnd
L338:
LVL226:
	.loc 1 143 0
	leal	6(%eax), %esi	 #, row_fnd
	.loc 1 144 0
	movl	(%ecx,%esi,4), %ebp	 # MEM[base: idx_ptr_14, index: row_fnd_20, step: 4, offset: 0B], MEM[base: idx_ptr_14, index: row_fnd_20, step: 4, offset: 0B]
	movl	(%edi,%ebp), %ebp	 # *_24, cmp
	cmpl	%ebp, %edx	 # cmp, cmp
	jbe	L339	 #,
	movl	%ebp, %edx	 # cmp, cmp
LVL227:
	movl	%esi, %ebx	 # row_fnd, row_fnd
L339:
LVL228:
	.loc 1 143 0
	addl	$7, %eax	 #, row_fnd
LVL229:
	.loc 1 144 0
	movl	(%ecx,%eax,4), %esi	 # MEM[base: idx_ptr_14, index: row_fnd_20, step: 4, offset: 0B], MEM[base: idx_ptr_14, index: row_fnd_20, step: 4, offset: 0B]
	movl	(%edi,%esi), %ebp	 # *_24, cmp
	cmpl	%ebp, %edx	 # cmp, cmp
	ja	L352	 #,
	.loc 1 143 0
	addl	$1, %eax	 #, tmp107
LVL230:
	cmpl	%eax, 40(%esp)	 # tmp107, arow_end
	jae	L286	 #,
LVL231:
L348:
	.loc 1 148 0
	movl	(%esp), %ebp	 # %sfp, row_fnd
	cmpl	%ebx, %ebp	 # row_fnd, row_fnd
	je	L287	 #,
LVL232:
	.loc 1 150 0
	leal	(%ecx,%ebx,4), %esi	 #, D.29688
	movl	(%esi), %edx	 # *_30, D.29687
	movl	%edx, (%ecx,%ebp,4)	 # D.29687, MEM[base: idx_ptr_14, index: row_fnd_36, step: 4, offset: 0B]
	.loc 1 151 0
	movl	4(%esp), %ebp	 # %sfp, D.29687
	movl	%ebp, (%esi)	 # D.29687, *_30
LVL233:
L287:
	.loc 1 141 0 discriminator 2
	addl	$1, (%esp)	 #, %sfp
LVL234:
	movl	(%esp), %eax	 # %sfp, row_fnd
LVL235:
	cmpl	%eax, 40(%esp)	 # row_fnd, arow_end
	jae	L290	 #,
LVL236:
L282:
LBE35:
	.loc 1 156 0
	addl	$8, %esp	 #,
	.cfi_def_cfa_offset 20
LVL237:
	popl	%ebx	 #
	.cfi_restore 3
	.cfi_def_cfa_offset 16
	popl	%esi	 #
	.cfi_restore 6
	.cfi_def_cfa_offset 12
	popl	%edi	 #
	.cfi_restore 7
	.cfi_def_cfa_offset 8
LVL238:
	popl	%ebp	 #
	.cfi_restore 5
	.cfi_def_cfa_offset 4
	ret	$16	 #
	.cfi_endproc
LFE702:
	.section	.text.unlikely,"x"
LCOLDE6:
	.text
LHOTE6:
	.section	.text.unlikely,"x"
	.align 2
LCOLDB7:
	.text
LHOTB7:
	.align 2
	.p2align 4,,15
	.globl	__ZN3stk11compression16__bwt_compressor11find_groupsEjjjPjS2_@24
	.def	__ZN3stk11compression16__bwt_compressor11find_groupsEjjjPjS2_@24;	.scl	2;	.type	32;	.endef
__ZN3stk11compression16__bwt_compressor11find_groupsEjjjPjS2_@24:
LFB703:
	.loc 1 159 0
	.cfi_startproc
LVL239:
	pushl	%ebp	 #
	.cfi_def_cfa_offset 8
	.cfi_offset 5, -8
	pushl	%edi	 #
	.cfi_def_cfa_offset 12
	.cfi_offset 7, -12
	pushl	%esi	 #
	.cfi_def_cfa_offset 16
	.cfi_offset 6, -16
	pushl	%ebx	 #
	.cfi_def_cfa_offset 20
	.cfi_offset 3, -20
	subl	$8, %esp	 #,
	.cfi_def_cfa_offset 28
	.loc 1 159 0
	movl	28(%esp), %edx	 # this, this
	movl	36(%esp), %eax	 # arow_bgn, arow_bgn
LVL240:
LBB36:
	.loc 1 166 0
	movl	(%edx), %ebx	 # this_10(D)->matrix_ptr, this_10(D)->matrix_ptr
	addl	32(%esp), %ebx	 # acolumn, ptr
LVL241:
	.loc 1 170 0
	cmpl	40(%esp), %eax	 # arow_end, arow_bgn
	.loc 1 167 0
	movl	4(%edx), %edi	 # this_10(D)->matrix_idx_ptr, idx_ptr
LVL242:
	.loc 1 170 0
	ja	L364	 #,
	movl	(%edi,%eax,4), %ecx	 # *_74, *_74
	movl	%eax, (%esp)	 # arow_bgn, %sfp
	movl	$0, 4(%esp)	 #, %sfp
	movl	(%ebx,%ecx), %esi	 # MEM[(uint32_t *)_77], D.29700
LVL243:
	.p2align 4,,10
L356:
	movl	40(%esp), %ebp	 # arow_end, tmp125
	.loc 1 172 0
	movl	%eax, %ecx	 # row, row
	subl	%eax, %ebp	 # row, tmp125
	andl	$7, %ebp	 #, tmp126
	je	L357	 #,
	addl	$1, %eax	 #, row
LVL244:
	cmpl	%eax, 40(%esp)	 # row, arow_end
	jb	L403	 #,
	.loc 1 173 0
	movl	(%edi,%eax,4), %edx	 # MEM[base: idx_ptr_14, index: row_20, step: 4, offset: 0B], MEM[base: idx_ptr_14, index: row_20, step: 4, offset: 0B]
	movl	(%ebx,%edx), %edx	 # *_24, D.29697
	cmpl	%esi, %edx	 # D.29700, D.29697
	jne	L358	 #,
	cmpl	$1, %ebp	 #, tmp126
	movl	%eax, %ecx	 # row, row
	je	L357	 #,
	cmpl	$2, %ebp	 #, tmp126
	je	L387	 #,
	cmpl	$3, %ebp	 #, tmp126
	je	L388	 #,
	cmpl	$4, %ebp	 #, tmp126
	je	L389	 #,
	cmpl	$5, %ebp	 #, tmp126
	je	L390	 #,
	cmpl	$6, %ebp	 #, tmp126
	je	L391	 #,
LVL245:
	.loc 1 172 0
	movl	(%esp), %eax	 # %sfp, row
	addl	$2, %eax	 #, row
	.loc 1 173 0
	movl	(%edi,%eax,4), %ebp	 # MEM[base: idx_ptr_14, index: row_20, step: 4, offset: 0B], MEM[base: idx_ptr_14, index: row_20, step: 4, offset: 0B]
	movl	(%ebx,%ebp), %edx	 # *_24, D.29697
	cmpl	%esi, %edx	 # D.29700, D.29697
	jne	L358	 #,
	movl	%eax, %ecx	 # row, row
L391:
LVL246:
	.loc 1 172 0
	addl	$1, %eax	 #, row
LVL247:
	.loc 1 173 0
	movl	(%edi,%eax,4), %edx	 # MEM[base: idx_ptr_14, index: row_20, step: 4, offset: 0B], MEM[base: idx_ptr_14, index: row_20, step: 4, offset: 0B]
	movl	(%ebx,%edx), %edx	 # *_24, D.29697
	cmpl	%esi, %edx	 # D.29700, D.29697
	jne	L358	 #,
	movl	%eax, %ecx	 # row, row
LVL248:
L390:
	.loc 1 172 0
	addl	$1, %eax	 #, row
LVL249:
	.loc 1 173 0
	movl	(%edi,%eax,4), %ebp	 # MEM[base: idx_ptr_14, index: row_20, step: 4, offset: 0B], MEM[base: idx_ptr_14, index: row_20, step: 4, offset: 0B]
	movl	(%ebx,%ebp), %edx	 # *_24, D.29697
	cmpl	%esi, %edx	 # D.29700, D.29697
	jne	L358	 #,
	movl	%eax, %ecx	 # row, row
LVL250:
L389:
	.loc 1 172 0
	addl	$1, %eax	 #, row
LVL251:
	.loc 1 173 0
	movl	(%edi,%eax,4), %edx	 # MEM[base: idx_ptr_14, index: row_20, step: 4, offset: 0B], MEM[base: idx_ptr_14, index: row_20, step: 4, offset: 0B]
	movl	(%ebx,%edx), %edx	 # *_24, D.29697
	cmpl	%esi, %edx	 # D.29700, D.29697
	jne	L358	 #,
	movl	%eax, %ecx	 # row, row
LVL252:
L388:
	.loc 1 172 0
	addl	$1, %eax	 #, row
LVL253:
	.loc 1 173 0
	movl	(%edi,%eax,4), %ebp	 # MEM[base: idx_ptr_14, index: row_20, step: 4, offset: 0B], MEM[base: idx_ptr_14, index: row_20, step: 4, offset: 0B]
	movl	(%ebx,%ebp), %edx	 # *_24, D.29697
	cmpl	%esi, %edx	 # D.29700, D.29697
	jne	L358	 #,
	movl	%eax, %ecx	 # row, row
LVL254:
L387:
	.loc 1 172 0
	addl	$1, %eax	 #, row
LVL255:
	.loc 1 173 0
	movl	(%edi,%eax,4), %edx	 # MEM[base: idx_ptr_14, index: row_20, step: 4, offset: 0B], MEM[base: idx_ptr_14, index: row_20, step: 4, offset: 0B]
	movl	(%ebx,%edx), %edx	 # *_24, D.29697
	cmpl	%esi, %edx	 # D.29700, D.29697
	jne	L358	 #,
LVL256:
L414:
	movl	%eax, %ecx	 # row, row
L357:
LVL257:
	.loc 1 172 0 discriminator 1
	leal	1(%ecx), %eax	 #, row
LVL258:
	cmpl	%eax, 40(%esp)	 # row, arow_end
	jb	L403	 #,
	.loc 1 173 0
	movl	(%edi,%eax,4), %ebp	 # MEM[base: idx_ptr_14, index: row_20, step: 4, offset: 0B], MEM[base: idx_ptr_14, index: row_20, step: 4, offset: 0B]
	movl	(%ebx,%ebp), %edx	 # *_24, D.29697
	cmpl	%esi, %edx	 # D.29700, D.29697
	jne	L358	 #,
	movl	%eax, %ebp	 # row, row
	movl	%eax, %ecx	 # row, row
	.loc 1 172 0
	leal	1(%eax), %eax	 #, row
LVL259:
	.loc 1 173 0
	movl	(%edi,%eax,4), %edx	 # MEM[base: idx_ptr_14, index: row_20, step: 4, offset: 0B], MEM[base: idx_ptr_14, index: row_20, step: 4, offset: 0B]
	movl	(%ebx,%edx), %edx	 # *_24, D.29697
	cmpl	%esi, %edx	 # D.29700, D.29697
	jne	L358	 #,
	movl	%eax, %ecx	 # row, row
	.loc 1 172 0
	leal	1(%eax), %eax	 #, row
LVL260:
	.loc 1 173 0
	movl	(%edi,%eax,4), %edx	 # MEM[base: idx_ptr_14, index: row_20, step: 4, offset: 0B], MEM[base: idx_ptr_14, index: row_20, step: 4, offset: 0B]
	movl	(%ebx,%edx), %edx	 # *_24, D.29697
	cmpl	%esi, %edx	 # D.29700, D.29697
	jne	L358	 #,
	.loc 1 172 0
	leal	3(%ebp), %eax	 #, row
LVL261:
	leal	2(%ebp), %ecx	 #, row
LVL262:
	.loc 1 173 0
	movl	(%edi,%eax,4), %edx	 # MEM[base: idx_ptr_14, index: row_20, step: 4, offset: 0B], MEM[base: idx_ptr_14, index: row_20, step: 4, offset: 0B]
	movl	(%ebx,%edx), %edx	 # *_24, D.29697
	cmpl	%esi, %edx	 # D.29700, D.29697
	jne	L358	 #,
	movl	%eax, %ecx	 # row, row
LVL263:
	.loc 1 172 0
	leal	4(%ebp), %eax	 #, row
LVL264:
	.loc 1 173 0
	movl	(%edi,%eax,4), %edx	 # MEM[base: idx_ptr_14, index: row_20, step: 4, offset: 0B], MEM[base: idx_ptr_14, index: row_20, step: 4, offset: 0B]
	movl	(%ebx,%edx), %edx	 # *_24, D.29697
	cmpl	%esi, %edx	 # D.29700, D.29697
	jne	L358	 #,
	movl	%eax, %ecx	 # row, row
LVL265:
	.loc 1 172 0
	leal	5(%ebp), %eax	 #, row
LVL266:
	.loc 1 173 0
	movl	(%edi,%eax,4), %edx	 # MEM[base: idx_ptr_14, index: row_20, step: 4, offset: 0B], MEM[base: idx_ptr_14, index: row_20, step: 4, offset: 0B]
	movl	(%ebx,%edx), %edx	 # *_24, D.29697
	cmpl	%esi, %edx	 # D.29700, D.29697
	jne	L358	 #,
	movl	%eax, %ecx	 # row, row
LVL267:
	.loc 1 172 0
	leal	6(%ebp), %eax	 #, row
LVL268:
	.loc 1 173 0
	movl	(%edi,%eax,4), %edx	 # MEM[base: idx_ptr_14, index: row_20, step: 4, offset: 0B], MEM[base: idx_ptr_14, index: row_20, step: 4, offset: 0B]
	movl	(%ebx,%edx), %edx	 # *_24, D.29697
	cmpl	%esi, %edx	 # D.29700, D.29697
	jne	L358	 #,
	movl	%eax, %ecx	 # row, row
LVL269:
	.loc 1 172 0
	leal	7(%ebp), %eax	 #, row
LVL270:
	.loc 1 173 0
	movl	(%edi,%eax,4), %ebp	 # MEM[base: idx_ptr_14, index: row_20, step: 4, offset: 0B], MEM[base: idx_ptr_14, index: row_20, step: 4, offset: 0B]
	movl	(%ebx,%ebp), %edx	 # *_24, D.29697
	cmpl	%esi, %edx	 # D.29700, D.29697
	je	L414	 #,
LVL271:
	.p2align 4,,10
L358:
	.loc 1 176 0
	cmpl	%ecx, (%esp)	 # row, %sfp
	jae	L365	 #,
	.loc 1 177 0
	movl	4(%esp), %esi	 # %sfp, list_count
LVL272:
	movl	44(%esp), %edx	 # alist_bgn, tmp158
	movl	(%esp), %ebp	 # %sfp, row
	.loc 1 172 0
	movl	%eax, (%esp)	 # row, %sfp
LVL273:
	.loc 1 177 0
	movl	%ebp, (%edx,%esi,4)	 # row, *_40
	.loc 1 178 0
	movl	48(%esp), %edx	 # alist_end, tmp161
	movl	%ecx, (%edx,%esi,4)	 # row, *_68
	movl	(%edi,%eax,4), %ecx	 # *_65, *_65
	.loc 1 179 0
	addl	$1, %esi	 #, list_count
	movl	%esi, 4(%esp)	 # list_count, %sfp
LVL274:
	movl	(%ebx,%ecx), %esi	 # MEM[(uint32_t *)_69], D.29700
LVL275:
	jmp	L356	 #
LVL276:
	.p2align 4,,10
L403:
	.loc 1 176 0
	cmpl	%ecx, (%esp)	 # row, %sfp
	jae	L416	 #,
	.loc 1 177 0
	movl	4(%esp), %eax	 # %sfp, list_count
	.loc 1 178 0
	movl	48(%esp), %esi	 # alist_end, tmp167
LVL277:
	.loc 1 177 0
	movl	44(%esp), %edi	 # alist_bgn, tmp164
LVL278:
	movl	(%esp), %ebx	 # %sfp, row
LVL279:
	leal	4(,%eax,4), %ebp	 #, D.29697
	movl	%esi, %edx	 # tmp167, tmp155
	movl	%ebx, (%edi,%eax,4)	 # row, *_19
	.loc 1 178 0
	movl	%ecx, (%esi,%eax,4)	 # row, *_47
LVL280:
L355:
	.loc 1 184 0
	movl	$0, (%edx,%ebp)	 #, *_38
LBE36:
	.loc 1 185 0
	addl	$8, %esp	 #,
	.cfi_remember_state
	.cfi_def_cfa_offset 20
	popl	%ebx	 #
	.cfi_restore 3
	.cfi_def_cfa_offset 16
	popl	%esi	 #
	.cfi_restore 6
	.cfi_def_cfa_offset 12
	popl	%edi	 #
	.cfi_restore 7
	.cfi_def_cfa_offset 8
	popl	%ebp	 #
	.cfi_restore 5
	.cfi_def_cfa_offset 4
	ret	$24	 #
LVL281:
	.p2align 4,,10
L416:
	.cfi_restore_state
	movl	4(%esp), %ebp	 # %sfp, D.29697
	movl	48(%esp), %edx	 # alist_end, tmp155
	sall	$2, %ebp	 #, D.29697
	jmp	L355	 #
	.p2align 4,,10
L365:
LBB37:
	.loc 1 172 0
	movl	%eax, (%esp)	 # row, %sfp
LVL282:
	.loc 1 173 0
	movl	%edx, %esi	 # D.29697, D.29700
LVL283:
	jmp	L356	 #
LVL284:
L364:
	.loc 1 170 0
	xorl	%ebp, %ebp	 # D.29697
	movl	48(%esp), %edx	 # alist_end, tmp155
	jmp	L355	 #
LBE37:
	.cfi_endproc
LFE703:
	.section	.text.unlikely,"x"
LCOLDE7:
	.text
LHOTE7:
	.section	.text.unlikely,"x"
	.align 2
LCOLDB8:
	.text
LHOTB8:
	.align 2
	.p2align 4,,15
	.globl	__ZN3stk11compression16__bwt_compressorD2Ev
	.def	__ZN3stk11compression16__bwt_compressorD2Ev;	.scl	2;	.type	32;	.endef
__ZN3stk11compression16__bwt_compressorD2Ev:
LFB705:
	.loc 1 188 0
	.cfi_startproc
	.cfi_personality 0,___gxx_personality_v0
	.cfi_lsda 0,LLSDA705
LVL285:
	pushl	%ebx	 #
	.cfi_def_cfa_offset 8
	.cfi_offset 3, -8
	movl	%ecx, %ebx	 # this, this
	subl	$504, %esp	 #,
	.cfi_def_cfa_offset 512
LBB38:
	.loc 1 194 0
	movl	12(%ecx), %eax	 # this_2(D)->groups_bgn, this_2(D)->groups_bgn
	movl	%eax, (%esp)	 # this_2(D)->groups_bgn,
	call	__ZN3stk3mem4freeEPv@4	 #
	.cfi_def_cfa_offset 508
LVL286:
	.loc 1 195 0
	movl	16(%ebx), %edx	 # this_2(D)->groups_bgn, this_2(D)->groups_bgn
	.loc 1 194 0
	subl	$4, %esp	 #,
	.cfi_def_cfa_offset 512
	.loc 1 195 0
	movl	%edx, (%esp)	 # this_2(D)->groups_bgn,
	call	__ZN3stk3mem4freeEPv@4	 #
	.cfi_def_cfa_offset 508
LVL287:
	.loc 1 196 0
	movl	20(%ebx), %ecx	 # this_2(D)->groups_end, this_2(D)->groups_end
	.loc 1 195 0
	subl	$4, %esp	 #,
	.cfi_def_cfa_offset 512
	.loc 1 196 0
	movl	%ecx, (%esp)	 # this_2(D)->groups_end,
	call	__ZN3stk3mem4freeEPv@4	 #
	.cfi_def_cfa_offset 508
LVL288:
	.loc 1 197 0
	movl	24(%ebx), %eax	 # this_2(D)->groups_end, this_2(D)->groups_end
	.loc 1 196 0
	subl	$4, %esp	 #,
	.cfi_def_cfa_offset 512
	.loc 1 197 0
	movl	%eax, (%esp)	 # this_2(D)->groups_end,
	call	__ZN3stk3mem4freeEPv@4	 #
	.cfi_def_cfa_offset 508
LVL289:
	.loc 1 198 0
	movl	(%ebx), %edx	 # this_2(D)->matrix_ptr, this_2(D)->matrix_ptr
	.loc 1 197 0
	subl	$4, %esp	 #,
	.cfi_def_cfa_offset 512
	.loc 1 198 0
	movl	%edx, (%esp)	 # this_2(D)->matrix_ptr,
	call	__ZN3stk3mem4freeEPv@4	 #
	.cfi_def_cfa_offset 508
LVL290:
	.loc 1 199 0
	movl	4(%ebx), %ebx	 # this_2(D)->matrix_idx_ptr, this_2(D)->matrix_idx_ptr
LVL291:
	.loc 1 198 0
	subl	$4, %esp	 #,
	.cfi_def_cfa_offset 512
	.loc 1 199 0
	movl	%ebx, (%esp)	 # this_2(D)->matrix_idx_ptr,
	call	__ZN3stk3mem4freeEPv@4	 #
	.cfi_def_cfa_offset 508
LVL292:
	subl	$4, %esp	 #,
	.cfi_def_cfa_offset 512
LBE38:
	.loc 1 200 0
	addl	$504, %esp	 #,
	.cfi_def_cfa_offset 8
	popl	%ebx	 #
	.cfi_restore 3
	.cfi_def_cfa_offset 4
	ret
	.cfi_endproc
LFE705:
	.def	___gxx_personality_v0;	.scl	2;	.type	32;	.endef
	.section	.gcc_except_table,"w"
LLSDA705:
	.byte	0xff
	.byte	0xff
	.byte	0x1
	.uleb128 LLSDACSE705-LLSDACSB705
LLSDACSB705:
LLSDACSE705:
	.text
	.section	.text.unlikely,"x"
LCOLDE8:
	.text
LHOTE8:
	.globl	__ZN3stk11compression16__bwt_compressorD1Ev
	.def	__ZN3stk11compression16__bwt_compressorD1Ev;	.scl	2;	.type	32;	.endef
	.set	__ZN3stk11compression16__bwt_compressorD1Ev,__ZN3stk11compression16__bwt_compressorD2Ev
	.section .rdata,"dr"
	.align 16
LC1:
	.long	0
	.long	-1
	.long	-2
	.long	-3
	.align 16
LC2:
	.long	-4
	.long	-4
	.long	-4
	.long	-4
	.text
Letext0:
	.section	.text.unlikely,"x"
Letext_cold0:
	.file 2 "C:/Qt/Qt5.5.0/Tools/mingw492_32/i686-w64-mingw32/include/_mingw.h"
	.file 3 "C:/Qt/Qt5.5.0/Tools/mingw492_32/i686-w64-mingw32/include/stdint.h"
	.file 4 "C:/Qt/Qt5.5.0/Tools/mingw492_32/i686-w64-mingw32/include/stdio.h"
	.file 5 "compression/./.././time/stk_time.h"
	.file 6 "compression/stk_compression_bwt_matrix2.h"
	.file 7 "compression/./../mem/stk_mem.h"
	.file 8 "<built-in>"
	.file 9 "C:/Qt/Qt5.5.0/Tools/mingw492_32/i686-w64-mingw32/include/c++/bits/exception_ptr.h"
	.file 10 "C:/Qt/Qt5.5.0/Tools/mingw492_32/i686-w64-mingw32/include/c++/i686-w64-mingw32/bits/c++config.h"