	.file	"stk_compression_static_huff.cpp"
 # GNU C++ (i686-posix-dwarf-rev1, Built by MinGW-W64 project) version 4.9.2 (i686-w64-mingw32)
 #	compiled by GNU C version 4.9.2, GMP version 6.0.0, MPFR version 3.1.2-p9, MPC version 1.0.2
 # warning: MPFR header version 3.1.2-p9 differs from library version 3.1.2-p10.
 # GGC heuristics: --param ggc-min-expand=100 --param ggc-min-heapsize=131072
 # options passed:  -fpreprocessed stk_compression_static_huff.ii
 # -malign-double -momit-leaf-frame-pointer -m32 -mfpmath=sse
 # -mpreferred-stack-boundary=8 -mmmx -msse -msse2 -mthreads -mtune=generic
 # -march=i686 -auxbase-strip debug\stk_compression_static_huff.o -g -g -O3
 # -Wno-write-strings -Wno-multichar -Wno-unused-variable
 # -Wno-unused-parameter -Wno-unused-value -Wno-unused-label
 # -Wno-unused-but-set-variable -Wattributes -Winline -Wshadow
 # -Wunknown-pragmas -Wall -Wextra -std=gnu++11 -std=c++11
 # -fno-keep-inline-dllexport -fno-use-linker-plugin -fverbose-asm
 # -fstrict-aliasing -fwrapv -funroll-loops -flto -fexceptions -frtti
 # options enabled:  -faggressive-loop-optimizations
 # -fasynchronous-unwind-tables -fauto-inc-dec -fbranch-count-reg
 # -fcaller-saves -fcombine-stack-adjustments -fcommon -fcompare-elim
 # -fcprop-registers -fcrossjumping -fcse-follow-jumps -fdefer-pop
 # -fdelete-null-pointer-checks -fdevirtualize -fdevirtualize-speculatively
 # -fdwarf2-cfi-asm -fearly-inlining -feliminate-unused-debug-types
 # -fexceptions -fexpensive-optimizations -fforward-propagate
 # -ffunction-cse -fgcse -fgcse-after-reload -fgcse-lm -fgnu-runtime
 # -fgnu-unique -fguess-branch-probability -fhoist-adjacent-loads -fident
 # -fif-conversion -fif-conversion2 -findirect-inlining -finline
 # -finline-atomics -finline-functions -finline-functions-called-once
 # -finline-small-functions -fipa-cp -fipa-cp-clone -fipa-profile
 # -fipa-pure-const -fipa-reference -fipa-sra -fira-hoist-pressure
 # -fira-share-save-slots -fira-share-spill-slots
 # -fisolate-erroneous-paths-dereference -fivopts -fkeep-static-consts
 # -fleading-underscore -fmath-errno -fmerge-constants
 # -fmerge-debug-strings -fmove-loop-invariants -fomit-frame-pointer
 # -foptimize-sibling-calls -foptimize-strlen -fpartial-inlining -fpeephole
 # -fpeephole2 -fpredictive-commoning -fprefetch-loop-arrays -free
 # -freg-struct-return -frename-registers -freorder-blocks
 # -freorder-blocks-and-partition -freorder-functions
 # -frerun-cse-after-loop -fsched-critical-path-heuristic
 # -fsched-dep-count-heuristic -fsched-group-heuristic -fsched-interblock
 # -fsched-last-insn-heuristic -fsched-rank-heuristic -fsched-spec
 # -fsched-spec-insn-heuristic -fsched-stalled-insns-dep -fschedule-insns2
 # -fset-stack-executable -fshow-column -fshrink-wrap -fsigned-zeros
 # -fsplit-ivs-in-unroller -fsplit-wide-types -fstrict-aliasing
 # -fstrict-overflow -fstrict-volatile-bitfields -fsync-libcalls
 # -fthread-jumps -ftoplevel-reorder -ftrapping-math -ftree-bit-ccp
 # -ftree-builtin-call-dce -ftree-ccp -ftree-ch -ftree-coalesce-vars
 # -ftree-copy-prop -ftree-copyrename -ftree-cselim -ftree-dce
 # -ftree-dominator-opts -ftree-dse -ftree-forwprop -ftree-fre
 # -ftree-loop-distribute-patterns -ftree-loop-if-convert -ftree-loop-im
 # -ftree-loop-ivcanon -ftree-loop-optimize -ftree-loop-vectorize
 # -ftree-parallelize-loops= -ftree-partial-pre -ftree-phiprop -ftree-pre
 # -ftree-pta -ftree-reassoc -ftree-scev-cprop -ftree-sink
 # -ftree-slp-vectorize -ftree-slsr -ftree-sra -ftree-switch-conversion
 # -ftree-tail-merge -ftree-ter -ftree-vrp -funit-at-a-time -funroll-loops
 # -funswitch-loops -funwind-tables -fvar-tracking
 # -fvar-tracking-assignments -fverbose-asm -fweb -fwrapv
 # -fzero-initialized-in-bss -m32 -m80387 -m96bit-long-double
 # -maccumulate-outgoing-args -malign-double -malign-stringops
 # -mavx256-split-unaligned-load -mavx256-split-unaligned-store
 # -mfancy-math-387 -mfp-ret-in-387 -mieee-fp -mlong-double-80 -mmmx
 # -mms-bitfields -mno-red-zone -mno-sse4 -mpush-args -msahf -msse -msse2
 # -mstack-arg-probe -mvzeroupper

	.text
Ltext0:
	.section	.gnu.lto_.profile.f4398a61,"dr0"
	.ascii "x\234cf```c\200\0F\206\11\354\217\230\1\4\276\1\207"
	.text
	.section	.gnu.lto_.jmpfuncs.f4398a61,"dr0"
	.ascii "x\234\215\224\317KTQ\24\307\317\271o\336\314h\301\4-\214Z\314\203pU\333"
	.ascii "0\\E$\376\5\366\17\324\10\3"
	.ascii "5\206M\314J\346-\242\262\300\331D\10R)\205f\226\226\225\331hNY\226\225Yi\332\17\255fS\314\242\215\4\321\370\3:\347\274;;/\334\341\301\343\235\357\375r\276\237s\357\\\7"
	.ascii "6\377\235\10\3\354\247w\4\20"
	.ascii "1\213jE\341\225\371\216A\325\266\346\237\363\243e\5\33\212T\354\305"
	.ascii "6\20\261\230\237\271\32-\251\262B\177\33`\37\356\14\312\335g\212gCR^\257\1\274Q)\237/-LW\7\345\30`?\225].\257\345:z\242q\274\354wze\245\200*]\327\376tUQ\317N\356\351\340M\214S\323\1j\12\300\206\321\215\177\23\321x]`\10\261\241\257\330^\210U\14.\336\22\303m2\360\362\361\\n*\302m\303q\300A\352\12`$\33\342&F\365\16\251\256L\206>\344\261\3\270+y\206\355\1\356\211\341\276\6\350\31\233-\310\224\303{\0\37\230\1"
	.ascii "8\322\210\21\200\325\207\244n1n-1\342(#ZA=\222\214y{\250"
	.ascii "11\214k(\177\365R{\225@\325\1>6Cq\250\11#\24\253\5RcF(\207V<\241\25Np\302\365\313\16\361\251$\236\264G|&\206\347\32q`\261wu\253 N\"\340\224\231\221"
	.ascii "3\276"
	.ascii "02\262\372\222\324\355\12\321\311nN\31\242"
	.ascii "5\323\374\257t2\326t\257$\354k{\272"
	.ascii "7b\230\321t\177\373W\226]\241;\14\370\326\14\307\321f\215p\254\276#\265&D;\210\261,\32\0]Z\367\236\317\246\223\301`\13\25\356\346\236J\210m\231?\10\302\234=\363\274\30>j\346\237C\245\271\200\371\2\355\350\202\31\232\343.\32\241Y\375D\352.\15\235"
	.ascii "5\234]\272\215\361"
	.ascii "3\267\256"
	.ascii "0jj'\243@\3\374\36>}Qq\242\310\16\300/\326W\352W\301Z\262\237\303\262\30\276\351"
	.ascii "9\214\24\362\277P\346p\235\346\360\335<\7&\370a\234\3\253EV\367\35j8\330\324X\357\325\236\254\367\32R\351D\253\327|*u$\235lIq\355@\355Q\357X2\225\330\353"
	.ascii "5\267\264z\364\221N\36OT\363\375\373\37Q\246 \311"
	.text
	.section	.gnu.lto_.inline.f4398a61,"dr0"
	.ascii "x\234cf\300\16$\230 4;\3\203\316\21\6F\6&\331\31M\214\14\234"
	.ascii "7\314\300\342L\334\14@1f\36t\222\215\237\201\201\225a\202\37\3\20#\324@%Y\31T\17\202L\222\304"
	.ascii "0\11\252\30N\341"
	.ascii "5\206\233\341\14\303\\y\240"
	.ascii "9Y+^\35`f\340;p^\5\311Mx\265\362"
	.ascii "3\374ah\262\0j\335\316\370\356\374cV\6\301\15\237"
	.ascii "4\220\364\262\360\2UO\360\3A$&^\23\205\31n2\234`g\4\2\240H\23\343\271I\5\14\\\23Z\231\231\30\230.\360\263 L&\306_\342,\26\213\30\31\231\230\201&1\201L3\376\266\233\227\201\275C\235\211\201e\201<\13\232\17A\16\3\231\2\322\312D\320\225\322,\26k\200N\4\33mzt\26\37\3\347\365VF\264\210D2\205\1l:^\23\31\0-QB0"
	.text
	.section	.gnu.lto_.pureconst.f4398a61,"dr0"
	.ascii "x\234cf``\20f\200\0N\206(\26\11V).\11\356(\376(\341(\361J\351(\0\30\363\3\27"
	.text
	.section	.gnu.lto__ZN3stk11compression24__static_huff_compressorC2Ev.f4398a61,"dr0"
	.ascii "x\234\225\226kpSE\24\307\367\354\275\271\271I_\241h\240AI\264v\360\3\350\27\31g\230q\306adt\306/~\361\233"
	.ascii "3\31\246\266C\225\26\206\204\17~\310p\323\306Z*B\5\31\252\265\310\303\226b\245\274\21J\205\240<\212R*\320B\213<R\355\213\307\14`\200\22!\326sv\223\30B\242\322\231n\356\331{\316\331\337\376\367\354\356U\330\243\177\345\370\377\201\205\261J\374\5+\3^w\222"
	.ascii "1\277\316\271\322cg\206U\353x\231\31\331\12W\223,\225\243\177\215n\222\236&\320\344\203\306\315a\33:\351\215\257\240\223\31t\331\255\3\320\3\263"
	.ascii "0`K\270\242\232"
	.ascii "4\263n\201%p\205\337\342P\27l\255\317\232\326d\30\306\315\323\233\215\267\202\20\341\214\205\271D\203f\230\206>\275;\256\267g+/\2\303\347}m\267\273\262Fy\204\203\213\314\366\225\235\365\32\231\\%s\323\236\375\315\326\242\215F]e\250cW\265\36x#\302\25\330\4\12&\204\26p\300fp0\354b\360\15\24\221\377\255@\364\\\226\26\300\321mrPh\5\15\30"
	.ascii "3E9\213r\220-\372m\35\335\265'OyI\20\4\207.wk\205\353\15\243"
	.ascii "2t\360\336\307\272\321i\4B\343\343\316\10W\341\333\207G\212Mb\13\24n\315\17\32\343\343#]|\12\10[E\12\223\206\215\246cc\266`\243\347\220\231KM>6\226\211@\220vz,\240\206]\345\240\260k\34(%\343\354\6>\301mN\320\203\330\220\302Ch\341\257r\36*\357\326\376\265s&\302nX\325\37\320\225\331\2|\335@\323vU\200\7\357W\251I\330m\351\260\37V\7\266B!\201\13\201\20`\33hc\\E\237\265g\226\267q\337}\243\306\320#\334\32Em)\362\362`\367)\235\226E\25f\213?\360%4B\203\337"
	.ascii "0\202\255\12N\35\266\203\17v\320X\260\23_\260^\10\364)\377$\365"
	.ascii "7\357_f\246\360,t\330\25C\32\302\334=v\345\2\4\236\227\236Z\352\360\331aR\7v\203\217\375"
	.ascii "7\231U\230\177n\\\235#\301\320)\7\366 \326w4\36\275Z\326~\324\202\361\24\15{\221\222Fe\260\17|\21\236K\304\375"
	.ascii "1b\15\12\343\204*;\256!a\354\205\236J\221\27\246\365\202v\4\214p\333"
	.ascii "0\321\16q\23\305\340\222\235\326d\224\5\3\31\332+\305\200\230\342\330\356\273-Z<\305\204(\227\213\223\320h\202"
	.ascii "0\327u\\\270\10\211\231\350\260\37g\322!\4\376\36\273"
	.ascii "1+\213\13\367\210"
	.ascii "6\371a\322\6\16\374\233l):\35\314\244S0\241\323!\322i\242PE\23Uy\26*\215F+\275\244b\302\300\216\3\335}\271N\336h\324\273\"\374\11Ju\343N\270#\17S\325S\262'\341\7p\"\327\217\310E\261\333\363D\354\26\21{\352\213\346\252<Q`\270\13\16#\11y\254\262'y\14\217\254m\22'\203\311C\251\303\17\252\373\23\323R\341\210\220\346\250Lmc\261\230\264N\307\320\211\352\263\252mzlA\322ab\367\330\207"
	.ascii "7\227ZiDK\266(\372\335\327\332-\244Y\35\271\231\240\23"
	.ascii "5;\36\323\354\320'5gM\361\14*\374D{\200\301\317\350q8Q\355f\26\266\11\321\326"
	.ascii "8\222\246\225V\242\23\210H!z\\h9\243"
	.ascii "1,0*\244\201q\263,\255\234\324j\262G\251\6\223\253\311\236\246\232"
	.ascii "4\350B\262\223B\215nB=\17U+c\325\232\213Y\341"
	.ascii "9\207\30g\375\341\311\351J61Hj\326_\22YO\211\32\315\305\32\235\234\266D'\205\351$\201\323\262D\357\257X\276^w\276)\13g2\365"
	.ascii "4l\14"
	.ascii "7X\342\252\24\300\31p\312\"\354\1\337\230"
	.ascii "8\300\367F\357\35\320\235~\220"
	.ascii "1\16qW\204\226\36L(9\5z\343"
	.ascii "1g\301G\305\271b\305\21!\210\346dp\16\34H\27\341O\321&\12\256\36\312\226s\317O\305|:\214\273\231A\237\304\254\35\355\355\24\365"
	.ascii "0\365A\36\203~pD\270S\352\324\25\337\332\211\323\310%\4\252\365\177}\303L\2\331\"\374\231"
	.ascii "1>\21\316\307\352eU\317g\237f\317h5\204p\317\302\257(\327\37\342\216\204\13"
	.ascii "0\3A\4\327\232\246\34\311e\317\300uQr\255\253\16}\244J\256I\14.%q\365\306\271\376/\310e\1\"\256\244\20\201\330\5\310\347wb\2\25d\0\31\220 \241\366\23_\211\331O\305\353\27~K\2\351~\\\220\337\5\210\270\301\7\11\244\200]\2\177\260\301$\257+6\14\220y\337\246n\324\241\314\33uXn\324\21\360i\231\22\302(\370\314\17F6(\270\37\361+I\351\3\277\215\321=\215\312\264\334|/\323\11L\227\352\225\307"
	.ascii "8\201\257f:\201\257%N\340\353\362\4\36\4RW|&\0\235\17(\322\364\342\5\345\13\27\225x<e\13*\336\361x\337w'\331n\217w\256\267\254\330=oqi\351\13\305\13\27"
	.ascii "2\325;\257\314\223\343v\227\226\315/qW\314-/q\273\365\230\345\236\371\332\234\331o\277>\313U\344\231\345\232S\341-Y\344*]\\Q\354\305"
	.ascii "4\324\367j\321\273\256\371e\25%\323]\245\13\26\271\320\360\226\225\227X\351\363\345o\361\231\202\""
	.text
	.section	.gnu.lto__ZN3stk11compression24__static_huff_compressorD2Ev.f4398a61,"dr0"
	.ascii "x\234\225VmL\233U\24\276\347\276o\337\276-e\224!\14\361\243"
	.ascii "5Hf\"\350\37"
	.ascii "7\223%&fq\321\304?\376\361\227\232f\301\222\21\307Gh\367\263\341\5\352\262\315"
	.ascii "9\21"
	.ascii "4\22'\313\330\204\241"
	.ascii "8\220\15p\3d\335\334\7S\7\262"
	.ascii "1\6\214\361\241\343c\316\270a\347X\305\6\317\271o\333\325\256\350F\302m\317\275\347\234\347"
	.ascii "9\317=\367\336J\354\336\277"
	.ascii "7\360\337`b\254\34?Ae\300+\373\30+S9\227\6\323\230f6t?\317"
	.ascii "4\213\304\345(K\6\203\356d\340\212\337\212\323\306\332\27pZ\1\243>m\4\240/\14X)\227d\203b\204R\270\306\347"
	.ascii "9T\372\232j\22V\327k\232v\263\352\240\366\232\17\2\234"
	.ascii "1?\327\211@\3\254F\237\213\207~\353\264H\317\2\303\357G\233o\235K\230\343\1\16v2;\253zk\24"
	.ascii "2\271L\346\201\216\256\6s\326~\255\262|r\270c\253\352}%\300%8\0\22&\204F\310\200/ \203\341\24\203/!\213\374\347\275\301K\11\212\27\321\255:(4\201\2X}\220\263 \7}D\277\226\271\266\216$\351"
	.ascii "9\301\300"
	.ascii "7=\321\257d\326iZ\371\344\345;\357\251Z\257\346\235\\Z\262\5\270\14_\375\33)T\304A\310lY\351\323\226\226f\257\361t\20\266\214,\14\12\16\212\212\203\321\204\203j!3\221\6+\20\277d\374jJ\241!\225\6\366+\7\316~\347\310\16\251\202"
	.ascii "7\201\321"
	.ascii "7v\25Y\223\262\323\234\323\247"
	.ascii "4\12\345\267w\214\267\257A\242\373\252G\274\252\264^\220\336;U\337*\13\322\276\305\12"
	.ascii "9\212rs<\312"
	.ascii "1\312\220(\261\223\320\2\231T\11\203\257i\21ZAY\340"
	.ascii "2\372\354\271\260\253\231{\26\265m\232\32\340\346 \322\242\310\211\253\375\3*\355\223,\314\306"
	.ascii "2\357gP\13\273\313"
	.ascii "4\315\327$\241\26p\10<p\230\10@\33.\260\213\340\35\226\356&-k\350\332i\244\360\4th\17\361\234\306\215\34L\223\306\300\373\224\356\251\304\302[\374\4\17\35\340a\377\317\314,\314\277\366\177\234\250\23C\247D\370\6i\35!<Z\332\331y\332\204\361\24\15G\221%\241"
	.ascii "2\350\4O\200\257 \306#!\306\12d\206\31\312\354\254\202\14C\13j,\213$?\326\300\240\13\11\6\270u\206\227\342\366\235Wtg\23\372"
	.ascii "3\264\253\4\16F\236i\277\335\250\204#\223\203\\\337\250\210"
	.ascii "4\311\302\334\333=v\5\"\5\250\320\215\5|+t\355\301i\314\312\302z\335#\311J?\355\16\34\373/\265b\344\361-'\317\361\210<'H\236\24!\206At\350\20\224k\265fZ\244\36\302\300\356\236\376\341\25"
	.ascii "6^\253\325\330\3\374!Ju\343O\177w\22\246\252\241d\251\360\35\330\220\327I\344E\261\255I\"\366\240\210\35\370\264\241\"I\364\25\36\254S\310\204<\252\323\242<ff\367\324\213\33\302\340\242\324\376\277\267\216D\312\222\341\264\220\346\214\236\332\312B1q\235z\321\211\332\262\242"
	.ascii "9;\264!\361h\342\364\302\273"
	.ascii "7\267\233\11"
	.ascii "1\315\"z\275\375z\247\211"
	.ascii "4\253$7\3\234E\315\276\17iv\374\375mC\206p\6\31~\240\326g\360#z\234\212"
	.ascii "4\271\302\374V!\332'\31Qe\305\225\350\34R\244\20cXh\275\242\5\274"
	.ascii "4\250\221\246\226\214zkYb\273iU\220\356\225\350nZ\25\247\233\24\350Cf\375B\215\237\210\352(TT\205\272"
	.ascii "5\21\263\302\223\31\2\247\356dz\274\226\215\200\304f\35\210d=/z4\21{4=n\213\246\373\261\211\30\\\320[t\361\203]u\252\355U\275q\36\246\231\335\373\375\273MaU2`\20lz\23^\4\317\202\270\310\217\4\357\364\250\266"
	.ascii "2\320c\36\21o\306\344\366c\21%\37\205\241p\314%\360\340j]W\337"
	.ascii "1q=(O3\30\206\14d\27\340\217\351'\265\243\265%G\257>9\372\"y\\\24\271\243\354\363\33F*\322\32\340\266\5n\205\221\320\236W\17~\364\241%\247I\23\305\233`\24K\376C\274wp\31r\350tjo\305\255\335\356\347t\321\216a\355\10\30\340O\204H\314\207I\244<\0\352\25\201J/\10\214\337\17\352\204@M\271\213\332\332\26BM}\0\324I\201*\336\331\251\373A\375Y\240\246\206QO\14\317\267\1\275"
	.ascii "7\321\220\342T\335\5\205_\20\3\327\265\343#\13\312\332"
	.ascii "6m\33\376\240\260"
	.ascii "1\270\12k\305\11\247\247\354\26\335\271\343\0\372\263\306f\0\226?\313\261\207wz\371\303;\243\37\336Y\360\30\226K\10s\340Q\272\257\357\223\360\331\6:\243(EvnQAq\211\323\345\312/*|\323\345~\307\21e;\\\356\215\356\374\\\307\246-yy\317\344\26\27"
	.ascii "3\331\275)\337\225\350p\344\345ov:\12"
	.ascii "7\26"
	.ascii "8\35\16"
	.ascii "5d9\326\274\264a\375\353/\257\263g\271\326\331"
	.ascii "7\24\272\235%\366\274-\205\271nLCs/f\275m\337\234_\350\314\266\347\25\225\330\321p\347\27"
	.ascii "8\315\364\203\354\37\1YXB"
	.text
	.section	.gnu.lto__ZN3stk11compression24__static_huff_compressor10initializeEv@4.f4398a61,"dr0"
	.ascii "x\234\225WkPU\327\25\336k\237\373~p\211\246\210W\"\327\340[\361"
	.ascii "1\201\1"
	.ascii "1\216\30c\372\263\277\362\257"
	.ascii "34cq\302"
	.ascii "4\242#\370\223\311\271pE0\306PLS&V\353\243\32\23\23)\211\22\203\250`\255Z+\22\23\37\240\4\261\5\242Q\213\4\"\\\4\351Zk\237{\275\340\245)w\206\315\331{\257\307\267\327\372\326:\373h\342\331_#\376\245?'D1\376\207X\1\262\354\222\20~\233\224\332\225"
	.ascii "8\241;,\265iBwi\322\24"
	.ascii "13I\217\20%6\263\222"
	.ascii "4\203E=X\244\265\305\211B\266#\247\5JY\301\246\326m\340P\17v\365PosH\373\247\15(\343p\266\223\244\23\334\264\16.\365\277\336\346\226.\265\37\303\373"
	.ascii "1\0\264.<\2\304\333R3\231-V\233\335\341t\271c<\360\266\346\20\240K\376\303\237[\300"
	.ascii "0\360\37\376\356\312n\11eu\207*\234\263\366\353\272\376\360t\303:\375\375\337\4Q\260G\252\303\303\1\230\205"
	.ascii "2W?\277_\343\322\26\202\300\347\257\16\367"
	.ascii "68\357\310\240\4\37Mk\312\317WXh*M4\375\250\372\370\1\307\214}zY\241^V\266\33\227"
	.ascii "5\370\10"
	.ascii "44\7\7\301\13\37\203W\340\222\200O`\6Iw\7\206\256;-\1\364\35\253\\\302!\260 4\363\220\24C\270-\241\362\316\221j\217\226\302\236\353:n5Z\222\366\350za[W\377;6\375\274\36h\33\36N\14J\23|:\322\207\1\376"
	.ascii "3HB\265\336\315\225"
	.ascii "7\255\332+lb\347\226\223\365&2\241\267\15"
	.ascii "4e\326\5\366\352O\206\207!(\315p8\252\205J\266\320r\242\373\214C{\225-|\322z\341=\27[\250\253\334\255gFX\370kT\13U\220T9\241N\37\36\356\251\256\377\332\262\12\30\225d\313\32\217&\226\261c\\,N\34\254n\34l18\330'\320t\"\15q@\21\233\204\217\216x\34\234\223i\240P:\246\320v\2M\247\322"
	.ascii "4\21\7\351\243a\32M\223h\230N\303L\366"
	.ascii "5\213\36g\223\364\34\32\346\322t\36=%\323\323\2\226YH\363E4_\314\310^\"k)4\244\322b\32\15\351"
	.ascii "4,\241!\203\244\227\322\323\313\364\264\214\206\345l'\223\265W\320\326J\32\304\17\22"
	.ascii "4qO\22\363@H\321\205O\320+)\353\355"
	.ascii "8 \221;p\322.\264\33P\370h\313\223\352T\14\366\336\355\315\1\233\366\32\7~\367\355\375U\234\272\302\272\307E\246\210\334\177\36-\356#\311"
	.ascii "5$5\305(\370\2\222(\1\4\220\340"
	.ascii "1\341\20\317\21\260\364I;*\355\372v\333aY\360X/\321mA\351\32BR\223\251[\355\215\227mDr5=\350\17\374\11v\302\16?\222\340\220\206\211\203\243P\0\325\344\34\276\304\15q\25\2M\332S\243\376\3\307\267ZI\335\215\2\307\14\214\35X\7/h-\20\230\255\4\235\243\275\307\364P\254\340+(\20?\17\314\305\323\201}\177p+\\(\344\201\32Du\234\334\321\326\326\232\263v\324'm\250E\220\344U\300\11(\10\312X\2\334l\0vBR\10\240I\330\20\240\261\356\36\15\342\271\36J\36\234D|A9\241\223\300vH3\252`\2\277\261(\245\30\324\23"
	.ascii "8/gwh\341\334\321G\7-!\13\23\207\244JU8@\23y\272\273\266\345;\10\237\303\16\247\360\34u\34\335z\\F\253\"\24\266g\"\363|\17\206U\300\351\377\25\264QQ\372\333XQ:\23\216\322\337)J\277\340\230X\210\242\327\240P\337\351\240=\"\24\352\325\236ll\212I\224;\365\12_P\306\221\245\256\237zj=h\251\202lM\202\263\220\210\260\316!,\322\255\362\260\256\352O\227?<P\344araA\234G $\261=.B\242\363\373]\373\271\307Z\362\310t\317`qs\370T&\370\7G\346\202"
	.ascii "2\35\33\352zQ\205\376\211B\304\315\242\303\363\215|D\203\211\313}\233\36\226:\310c\274\213\11\177\364^\215\235BVFb\26\270\210!k0BV\377n\311"
	.ascii "5s\310\202\11.\21\377\5"
	.ascii "4\242\304\371"
	.ascii "0\323\255\302\303"
	.ascii "1\373\243"
	.ascii "7\342TQ#\364"
	.ascii "5\"$\15\233\21fu\236>$\27\261\350\366\260U\361j\302h*M\36\"\376ERir\24*Y\341"
	.ascii "2\342\372\206c\361-\1\275\1E\345\6U'\242U\230\356e?{\316\304G\343k\330\311h\253W\302V\257"
	.ascii "2A'\"A\343\243\362\323\333C$\204k\212\237\217\337\333\266\307\226\370+E\233)\264\262c_\317\16{((\11p\35\22\25\3\233\240\240\217_\210\307\206\372O\332\22"
	.ascii "7\201\322y\201\337\271m\245\247\302\201\234\12\315!\235\33P\200\273\372\300\7\245v\12\210"
	.ascii "5M\300M\360\"\272\240L$\256\324\5"
	.ascii "7r:\250\27R\315w\2\214\315\210\321\24h\31\233\2\337)\12\264B\201e,\203p\13\12\254\203\17\366j\230j\273\300\273\14"
	.ascii "5\215\352\252S^\225\213I\221\255\315\307>\266\370\377\322e%\377\261A9\255O\306A\233\341|\373\225\367\177\357J>\244s*\34p\33\235\377\310\267\27\370\27$S6[\15\316\304\367a\277\302\204\177`$|2.E^`\234\370&\376"
	.ascii "7\20\1\212*\14\21\14\326$\24d\232\24\267\33\215p\12\332A\275\362\346c'\230h\326a|\221\267\263ba\353\346AC*\1\5Gt\276\360y\34\14\373h\377\237\37\30]\250\316\33\224/\242"
	.ascii "3\350`\12u2\205\22H\271\272\373T\206"
	.ascii "27u\34!\370\236C\300\357\331;\34\202"
	.ascii "0\307\23\325\221\303\320%A\277\253\316\34\12\213\17\305\370E\32\21\7\364"
	.ascii "6\25wT\15&\32\7\212<A\6\237`\232q\202\37\370\4\361|\202\252"
	.ascii "3{\214\210$\215\343\10\367\370\10|#\274\257\216\20\202"
	.ascii "2\35\15\251\224\24>l\363D\201\242\202"
	.ascii "9\335\200\362\0\15E\366\330\27\261\307\376G\35\256\274\270"
	.ascii "3M\331\234\251"
	.ascii "2\32\26"
	.ascii "2\243P\27"
	.ascii "7b\31*\20\24\342\276\344\20x\323"
	.ascii "6\32\23/Kj\250\15\306\21\311J\305\216\340I\16\256\231.\332\17U\17\354DKI^[\223\206v\354\351h\307I\375\15\227\27\340\262\243\266\252\15\263\276\30\225\217_\374\270R2\251\350\312\336\15^\7"
	.ascii "9u\205+\244\373l(\232\263\306\21\315\37\237\326D\317\310\232\230\335\207\355(\"\371spit\21\314Eg\270c\320\33\324\342\274>|\317F\322\373\331\24\314"
	.ascii "5R\320\313l\230\247\330p\256\336\300\237<\16\374?=%\364#\305\206\20\336\205hx4\336Eh\34w\24Y\237\217\2/\201\341-2\340\365"
	.ascii "1\274\331\212\21\3\361\312\306Kdw\316\210\272H\301\325\321u\221\312\256R~\316U\252\341\252?\354\12#q1\224\311\264qD\"\370\264.\6F\326E:\32RY*\252(n\221jq\11/r(\36"
	.ascii "9\324RF\4B`tK\14t\217\215\27bEq\257\201l)\253\247D\252\277\374\214\372RC}0\364>-\276ox_\206\336Pc\354\256\241x\222n\30\30\342\350,S6ZC\347Z\216DC\265\17\257w\364j\\\30X\27OF\327\346\362\310&\227\211\234\36Q\276U$\222\311\345\353\246\362\5U\276\274l\22\21\265\254E\326\262\11\275\236\32\330\25"
	.ascii "0\263\327'\32}4\33\265\214U\274\300\211X\227\273pb\352\223\213i\222\351\"\7"
	.ascii "1\306\27LuU\203\337\250\261\25\343\310\257.\303L\367\313d\325\344BW\265/\313J\212"
	.ascii "9\4\216~\17\251"
	.ascii "\336,k8\21\212d:Gr\5\24J\212d\221\344\246\347\357\362o\213\341\246"
	.ascii "7\214?<@@z\25\367.\325\233\25\266\225\343\300\266I\206\271W\34\302"
	.ascii "6\323\300V\32\250\274\0\214m\220\261}\326z\356\256\325\300"
	.ascii "6\237\261\255\204\315\214\255Da+o\254lq364\257c\243,\305\335V\360\327]~M}\222Q0=BhM\340\217\25\364\231\210W\376\203\375"
	.ascii "7\257\302X\327~3\32\337\"\377\377k\377;r\214k\377V\31\272\366\277+\371\332\337\16:2\204\277S\1\323\213\21\230\277z\335\332\365\33\262\363\362r\326\345\376:/\377wY\21\363\254\274\374"
	.ascii "7\362sVg\275\271q\315\232\5\253\327\257\27\246\374"
	.ascii "7s\362\334YYkr\336\312\316\312}cmvV\26\344@\266\315X\311J}u\325+\257\377"
	.ascii "2\303"
	.ascii "7#/\303\267*7?{\203o\315\306\334\325\371h\212\326"
	.ascii "2g\374\326\367VNn\366|\337\232u\33|8\311\317Y\233\355\240O\350\377\2\273E\31\350"
	.text
	.section	.gnu.lto__ZN3stk11compression24__static_huff_compressor11reconstructEv@4.f4398a61,"dr0"
	.ascii "x\234\225XyTU\325\32?\337>w\276\227IF/$$\32"
	.ascii "6h\223\246\215\16\251\275\354"
	.ascii "5\254Z\332`EfP\274\312\\Ak\275\177X\35\270Hj\250"
	.ascii "8\324\303&5\323\354iZ\221\244d\212fe\357\211>sH\13\21S\260\301"
	.ascii "2D\305[\"\357\373\276\275\317\235\270T\260\26{\355\263\367\267\177\337o\377\316o\17\367\350Z\327\277i\240io\246jZ\5\326\341\2\15D\345\16M+q\10\241\357I\321\14\227m\303P\315\360\350\302\22\362d\21\31\232"
	.ascii "6\335a\225\221V\260\311\212M\330\33\334\30\344\370p\213\206Qvp\310v\7xd\305)\\\323s0\300M\245\307\5n\331\354\226\375\233\35\36\341\\U\217C]1G\11 \6\222\250\35b!^\6\306\311\312fG\274\210\253\370\202\2\23\312\354\30\230 \22\211\227\253\27q\364\364\202D\31\236(\307ov$\211X\211\233\314\270\311\340e\334\24\221\312t\322\230N*\364\226\303\322\314Jo\31\267\331\341\25)r|:\217O\7\240v-C\3\355y\241[\254"
	.ascii "6\273\303\351r{bb\343\342\23z%&%\247\244\246\365\366\246g\300\363V\217\6\235:\377\343_\22V\200\377\361\317\33\332\23\257\301\371\316NY\327~\20\255\2*\353VV\271s\226\31\206\361\353\311C\347b\214\5\217\370\205\246\265\11\371\316`9\344`\320\336\17\216\327z\364\313A\303\372\372\325\247\352\335\337\13\277\200,z\254\235\267\255\312F\217\302B\217o\327|\274\334\325\177\251QYjTV.\306f\35\336\6\35\341`\5x\341\35\360j\330\244\301\277\241?E\267\226u|\355\266\225a\362x\231\22V\202\15Y;:\204\326\201\335\2\326|\377aM\234>\230"
	.ascii "3\327"
	.ascii "5\37\332i\313^b\30\245M3\337\336\4\225\306\342\322J\243\263s8\370\205\5V\205gQ\364\337\205l\34x\352\205"
	.ascii "5\337\332\365Q\14R_^uDH\220Y\307f;\214m\213\313\232:;3\375\302\12\253\243B\254a\210\206OZ\267\272\364\321\14Q\275\361\347e\261\14Q\267q\261"
	.ascii "1\242\354M\3"
	.ascii "5\5Bx/*\302\373\22aa\323Y\213>\226\21\326\35\352<m\227\10_\206#|\20\25\241\232\21\352\347V\276\33\253\377\215\21\26Ok\336(\265\250\333\36\216\360aT\204\265\214\360\325g\247\322\365q\14\340k\334\275GQ\330\31\16P\23\25\340#\310^\323\253\16\345\256\336:\177\305"
	.ascii "5\372?\200\305\25\254\217\316\245\205K+\317\327\306\245\235\231;\270L\300\27oK\304\302\236\214\205#\5\13'\231\301\236NE\37 Kdb\325\225\205\205\373B\252\365\245Z6\25\375\350\361\"*r\250\30@\305\305\324q\11\25\227R1\220"
	.ascii "3\16b\16\227S\377\25\324z%\325\256\242\332\325X\210\301T\14\241\266k\250m(\353"
	.ascii "2\214\252\327R\343\365\324}\3\25"
	.ascii "7\322\343M\324"
	.ascii "1\234\331\217\240\352HVa\24u\335L\317\243\261\360\214\241\360\261T\334B\35\267R1\216Y\334F\325\333\251\270\203"
	.ascii "1\356\244\360\273\350\371n*\356\241b<GN\340\376{\271~\37"
	.ascii "5\337O\360\17Pm\"w=H\325\207\250\361a\252=B\305$z|\224j\217Q\221G\24\362\251x\234\36\13\30L\373Q\200\256\375$h#\0Mh'\260\6\247\4\255\264\243X8\265f\254;\365o\240\364\314\314}\353\366\333\320\27o\316?P\346\320\377.Mvx\331\373\26\351\221s>\313"
	.ascii "6C\255\24\13\254\213f\221\360\365\334!t\271\210a=d\223U\210\17\275\"\232\17\311NZ\362zGj\265`k\27\11\10\360\306\356\331\253E\361\357\306t\303\341\27"
	.ascii "1\35\270\247\20\354\241\243;w9h\217\221\217+J\312^\203\327\341\325\22\303\250[\245\243\255\340c(\206\15D\4>\301\16m/\224\355\327\203\240%\313?\256\260\323\360X\14\330\250\370"
	.ascii "6\343"
	.ascii "6\244\353\15P6@\6&Ff\217k#\331`\23\24k\177N,\206\37\177[\372R\214\344\205A\361P\207\254"
	.ascii "6S:\352\252\250\375\334\211\343i4lA\222\224U\203O\241\330/\22\210\360\1E8\21\262M\202\270\240\220\240jO\216$\321\253\215\336#lE~~\221\330Bd\233\5\256>z\233_\331\344\240\24\34\247\341\363<N\207\10_\254=\263\302f\"$u\10\371\332\2\2%\361\343\342\15\15\7!0\17'|\206\363\370\234\325\375\2\233\21U3e\353\242Lr\33\312\252\301\266?\22-B\245/\273S\351?\1\225\376K*\245\260&6\264\353>(5\26\271\250\213\274\205\303"
	.ascii "6l\334\271?6S\274nTe\371E*\1\235"
	.ascii "8\335\266!\16\201\252\10*\15\266C&\262\252GV4\266:\216\307\312\263a\327+\313}q\354-\\\32;\220\7E\274\224\22\22\321r\354\215e|\302\331\12\11\272\355\\\371\201\300\244,\260\223\205\371\237\204\216"
	.ascii "7O\234\250A\273"
	.ascii "0\210\254\351\373\340"
	.ascii "2\365:\242\321\304\346\366i\277\316pQ\306\336\36\366\373\332\237j\235\244X%\205\331\340+Tl\267Rl\363\254\351\373\254&\202\5\366\220\375"
	.ascii "5\330\213\21;\2F\307m\230"
	.ascii "5[\350\15\231UT\205\366!C\32\341\220*\313\351\264\243\265\310CK\266\246IWy#\215\344\355 \367\205\32\311\33\305Hv\370\32i\355g)\16\20\317o\300"
	.ascii "7O\31"
	.ascii "5\35Q\241\237\227\363\34\226y\272M\22\211\372M\0\365[\266g:\332"
	.ascii "3-\252;\323\333\310\202\320 \335\371\373\234\331K\34\231\343\245k2\250\345\325\245m\257:MM.\200\203\220)\375\327\10\305\355|\33Y\327qv\243#\363E\220c\372\360\205\247i\306\246\200\216\231p\310\34\323\4\305\330\273r\337\362\337<$\210}\13\332\353"
	.ascii "0x\221\236_d\221W\352\26\315\226.\223\27\214\300VbE\206\337\261\17\5w\323\226I\317Z\13@\367\226\211\364\310\221\356=rTz\244\31\212m\335\1B\13\24\333W\265\276"
	.ascii "7\30\275\340\324\312\354\264\247\324\264n?\242\366\242\314P\276\27r\216\231%o\235\260S\376x\277\350\333.\372\300"
	.ascii "1\225|\376\236\5s=\3W\32\374\262\\\360=&?\311\227K\370\1\6\222\5^V\26\310j\27t\37}k\327\241]:\353\200\333\337\217@\226\360U\251\220\13"
	.ascii "15\6\222K\316\270dS\337P*.\316\270\366\354\242\237i\203\241\313\14\216\201\237\330\33\307\325\301\260\303\227\22\34\271\372\225\223sd\262\363x\207\371"
	.ascii "9\260b\\\332\26]'n\345\373\326\17\223\341\270\14l\221|\372"
	.ascii "1\237l\271:R\225i\315\364t:e0\205~\212\302/l\317\276\24^\263\253^iyQ\17\304;\301\342\361a\376\253\24\317d\222\203@\222\211\257\252\374\270\220\215\3\270"
	.ascii "1L\256\213\273\350"
	.ascii "3@\221k5Wd\371)5\374\22\31\36\330 \255\350\340\223R\200\306\362\355\212\376\245\30g.\334%}\272\225 Geic\11.\225\211Z\326\17\226 \3I\333\223\341\236\307V~\25n\262\237\334\213\270\325*\307\236_\247f>\10m\23"
	.ascii "6v\15E\15\242\345\202ymNL7\320\265\275\355\11\204\362h\263\302\240lj\313\346\21\202\314Q\357\333\364\232\232\230"
	.ascii "0\355\320\202\270\270\376\34\333\20n\220{X\13\246"
	.ascii "0\37\255n@\330\30\334,1j\34"
	.ascii "5{*N7\341\342\271\3E\370\366\273\372\205\202u3\360\252t\12\373h:\261\346jz\177\257\271\232.\357\201\3N\7\35p"
	.ascii "&|\371\\\321\216?\265\"\374y%\202cO\250\1\256\352b\200+\325\253i\17\30\300|\267W\23\344\305\336\320,\203\261\225\257|!Y\206p\226\301\241Y\256\351\222e\210\312r6\220e\217\312"
	.ascii "2\24I\341\210\300\373[Koc('-o\254U\16\31\326\216\33}\304\354\256\345\274\303\344\231\21\27\305z^\316|\255\312\354g\353\15\345\255\367\300\16y\5\250\246\\v\366Y\234\206?\364uf\366K\255Z\363\303\333\205\3"
	.ascii "1\317\373v\327\0\277I\374\351\334\31\247\301o!vc\210\341\14\21\257\341\257ue0nv(\237\327\376S\342]/\361\336\251[\224\301\277\230;\371\247"
	.ascii "8\374\16a\32\337\200\201\221\32\337\310s\275!T\343\233\272h|\243\232\351\271\310\255\356&\232"
	.ascii "7[\331\201\323\215=\253#\343\270\206\323S\221s\202\364\243oA\371\371\332\253d\364\10\214Q\334\33\312\317\201l\34\211\355\264\316\315i\177D\363\33)\257"
	.ascii "3G^\267\252 yP\261\30\275\264iB\32\375\240\317-\273G\365\300\350\35A\243\237\17"
	.ascii "7\372\315\310-\322\12\243\21\34{Bo\24c(,\334\274c\261"
	.ascii "5 l\371q\345\277[X\332\261xi(7\252!\352\275!\273\215O\345N\274"
	.ascii "7p<\246\33\351\27\375x#o=\270T\1\335\332\203\351\31\"0\275\22\21\266\223\337\206@r*\177\350\352\333\324\273.\25\322\325\254t\243\251\364\355=\240\342\23\201\23\271,\234\312\235\10\244T\15\312u\27"
	.ascii "7\376\25\271\246\11\222\353.\306\11\312\325h\312uw\17"
	.ascii "8\226\7"
	.ascii "9\276\20\316\361\36\4\372\13r\335\243\344\232\316r\351\354\320De\375y\345\237\327*\264\361\330\207\343w6}:\207omV\334\271g\210\210\263e|\250\315&\320\306\324\345\350\232\300\11\222\360\274\201\220\363\306\36z\336\350|\336(-\354\301\303\6\327\346\270\30\344"
	.ascii "8>\21\37p\35\336A\17\23\22\11/Y\36"
	.ascii "4\367\322*K\252\360\27aSJ\340"
	.ascii "8i6\217\223\373z\240\353\314\240\256/\212\260Uv\177;\336\24#V\331\3\10\216=\274\11\315"
	.ascii "47\206\211\21z\367a\275\37PzW`\2\376E5<\270YN\224{\323\232"
	.ascii "7\324\256"
	.ascii "11\344\342\225*/^\245"
	.ascii "5\207\373\311\316\7{0\233Y<\33\376\214"
	.ascii "8;|6\17Q\226\210\331<\214\340\330#o.9Q\234s+\317\344a5\223"
	.ascii "9\354\34\13\263L3Y\266\266|\252T\177\244\7<+\203<\347\206\363\234\24\205\347\243\10\216=\322\341I\335\336\260\36U<\347\205\360\354m\272c\356"
	.ascii "1E\363\261\36\320\234\37\244\271@\322"
	.ascii "4M\237G4\303\367\326|l\215<\264\36\307|\330\363g\314\37W\314_R\314\345\222\334\240@\12\310\210]\356w\5<?op\201q\253%tMY\202k\312\322.\356MF\354\202\336"
	.ascii "4*\35\227Q#\224\324U\337)\277>Q[\206\246\351\373\241$^\243\217c\15P\266b\377w\207\275\335}\341\240/V/\213\277\376\205\343_\242\233/\34U\302\374\302\261P\360\27\216\243`\340\\\370\353\34hN\224\376\262\311\317<=\365\331\274\302\302\202g\246<XX\364dn\310sna\321\244\242\202\311\271O<\227\237?h\362\324\251\232\245\350\211\202\302\230\334\334\374\202\247\362r\247Lz:/7\27\12 \17\236\204|x\312\241\332s\207\214\36"
	.ascii "3j\374-\327e\365/\274.k\314\224\242\274g\263\362\237\233"
	.ascii "2\271\10\1\251mD\377\307\262\236*\230\222wYV\376"
	.ascii "3\317f\341CQ\301\323y.\372z\370\177\17\263@j"
	.text
	.section	.gnu.lto__ZN3stk11compression24__static_huff_compressor6updateEc@8.f4398a61,"dr0"
	.ascii "x\234\225X{T\224e\32\177\237\367\233\33"
	.ascii "3\303\14\2\2\222\11\202D\22\336\261-\317)S\327\263\307\375k\367\217\366\354\236\323"
	.ascii "9,Gac\313\313\12\356\351\37\266\217\213h\254)\202[ny\241L\303,\12\23\361\32C\271@nj\226\232(^\23\324\254\214"
	.ascii "0p\322i\366y\236\367\33\234\231\6[=g>\336\367y\237\333\373{~\357MM\374\374\337c D[\234\20\37c\33F\10\220\325\207\205(\265I\251\35K\20\272\335\262\357WBwj\322\24\324"
	.ascii "3\311\4!\226\333\314J\323\14\26\325\260Hk\227\3\225l;>\24\250e\5\233\222\333d\24\33\333\331"
	.ascii "8\12\354Jl\7\207j8\300I\15p\312\341\37j\250\27}\370 \331G\203K\215\273d\322\212v\224\330\335\25V\224')\371\14\267LdE{\14Y9\23\225\227\31"
	.ascii "1r\330\362L\224\306\322\327"
	.ascii "9\14b\225\223X\31\307\342x\26\307A\274\22\307\253$Zm\303\1\250!\22\4\210\347\245f2[\254\266(\273\303\31\355Jr'\306\14\213\215\213\37\236\0\317\233\34\12"
	.ascii "4\227\200\237\374~\277\306\35\247\222]\225\275\22\252=\333\326:27\353\272\376\335\366\246\333.}\315\237\275R\210>\251T`\13d\242\322\361\355_\357qj\23@`{w\303\215C\216+\322+!\225\272{j:\326Z\250+M\324}s\347\336-\366\214Mzu\231^]]\207b\15\336\4\15\335A=$\303VH\26(\22\360\26d\220\333\366\201\203\240\345\260\333C\337\336X'\311P\367|\374\221\226\344\225&\330\246\14\263\223a,\231\231\5\274\15\31\244\333[\341\373\302a\251\300\234cnHqC\202\312\27\336\1\13r\303\352\223\322'5\324{\367\312\216\235nm\26\373\367t\237;bI\177M\327\313\316"
	.ascii "7\224\267@\265^WV\255\373\375\323\301+-\320\20\232\242"
	.ascii "1\367w!\35\15{\256\\l\213\326~\317N\226\356|o\225U9i\371r\245M\357\250\253"
	.ascii "8\357\367\247x\245\25\336\213\350\242\221],{k\231?J\373\23\273h\257\376\252\323\305.<\237\324\351OT\274\256c]\200<l\217\350\341}\366\260\272\352\373\177Gky\252\0uK\353\243T\22\35aI\354\210\350\242\211]\264^\364\254qk\205\354b\327\301\365\315\16\225\304\267\241I\354\214\350\241\31\322\337\215\365 \\\357\237X]\237.\177\13\14\216\344\1\215\277v,\220\315IUr\341'\312\215\37{\34u\343\351\223\10T\361$l:F\340\307y\37P)G\322\320\375\364\31\305>Rh<\225\306GS+\215\205\351\324\34C\302\14j=@\255L\372\214\305\217\314\242\317C4\220M\262q\324\32O\237\11<\355\211$\234D\375\311\214\344\24j\346pY\246\322\320\303\324\177\204|<J\237i\324}\234\6\246Sk\6\311f\322g\26ugs>s\370+\276\222\240\211k\310<DGHq\35[p\3\227\200\20\227\220\212Y\242[J\221\245\235\202\262\376\252\376WNX\20\363\327k;+l\332|\306\277\356\302\346F\223\302\377V\271\251C7\12h\201]\221\340G\203\216\253g^qh\177g\343w\274\33\266k\6\11"
	.ascii "7\275\34R\377=C\230\373\332"
	.ascii "7vZ\264\177\260\371\326\236\35G\"\327~\337\20\326\376\323\347Z4\255\14\330\274\253\323\327nD\357(\257\15\211\376\301\20\366ol\177i\257]\253R\366\372\247\265o\333U\370"
	.ascii "3\241\341=C\230\7\255v\237"
	.ascii "4\253\305\15\273!\235(H\225\244\302\302^\374\355\307\37\26\35Z\360\327\212?\252\23\355\11X\242\17\301"
	.ascii "2 \355\350l\303\347+\33d\311-}\271n\363\312h\237\264p\210s\227\216\34\265\321&\246\272\365\245\25\353`=\274Z\252\353\347\33\276\374+2\33>\202\22"
	.ascii "8@Y\301\177pD\34\207\212\223\332\35\257\245[\366\256\260\222\275\13\25\332\214\344\273q\243sj]P\361\240Rt\206\207w\367\21\177\240\35J\304/g\26\315\335\37"
	.ascii "7\375+Z%\206J1\320\201Y}L\341hh\305\236\266(\264'k8\210IRT\1\377\205\22\257\34F\11w\32\11;!=\220\240I\230"
	.ascii "0AC\356\12O\"\266\17I,\340\23\314\317+\343z(\331n\334\205MD\353\317,\312\310\215v\2\373"
	.ascii "5\34\216\366\267\246\376zK\300C\274\217<\4\3\24\317\335\272}]g`p\36v8\204\363"
	.ascii "8\314\350\36A1z\25\1\330~\206\314\360>\204U\300\247w\3-\14\245\243C\241\364\331 J\237\23J\11\214\211\5\327\355\11(\323\327\333i\210\210\206f\373>8r\322\225\"\327\353kS\275"
	.ascii "2\221\34]\377\241o\237\33\35\255%WIp\14R0\253\343\230\25\331"
	.ascii "6\272\331V\35 G_\331R\356fr\341\36q\2\363 \215\332\204 \215\236\313\33"
	.ascii "6\363\31j+\"\327}\267+;\7'e\201/\30\230\223\312uL\340X\212\250\324\211JD\315\362\206l\243\34\221\322D\361\300\322\357^\260S\304\21N&|\323\265=Q\204X5\251\331\340\24\"v\332@\254\365\305\345'\314\1\17\26\350\"\372\13"
	.ascii "8\203\32'\6\211n\25\26\306\354\345\344\240YED\350,fH\26"
	.ascii "6\205\262\232\316\0R\213"
	.ascii "8t\301oU\254\212\13'R\262\217\252\36L\244\344\10D2\303"
	.ascii "9L\353<Cq\201\362<\5\345"
	.ascii "5\6Q\343\321+\214I\346"
	.ascii "8\257\35H\212\304\326\301 \341^/\16z\375\222\351\31\217\364L\212\310\316\373\372\350\14\200K\212\235\267V\255|\315\226R\3\212"
	.ascii "6#I\364\352\246\276W\243\2\240\334\17\335\220\242\10\330\3%\210\2\35\315\276\233\37\330R:\14\233Q|\247:\377B\313 \220)p9`s\5Jp\264\177ko\227\231\20"
	.ascii "1\377A\300UH\306\364\274"
	.ascii "2\225\346\271\263\367l\253\1hR\360V2\232'YU\372\306u+M2\306+\323\6d\"|e\24\274\366\330\232\325\316q\333t\236\274\3\256\341\224\277\347\353 |\15\343\310o\277]9\35\201\312\315\325\313+5r\352\270\351&\343\323\325\207\366\323\332\243\35\35\303\302"
	.ascii "7\14\333\267\306\236y\270\334u\307\364Z\357\361\\\262\264\342\275\364y\1\327\25\233z\0\206\246m8O\277\33\232\247\275\212\247\337C\211e(\207\320\7%\326\257\233\336\316A>F\251\255\332s\253\355\261\210\205M\357\303\235\17\217x,,b\345\225c\230\305vu\306\237]\326\266n\207\301\263\221\3\362\276`\336\335\217\"tV\323\271k?\363\326\214wp\370\1\230\210g\227]\32\241\264F\241\".o\311\313\247\231V\304(\16\340\20\237\13\15"
	.ascii "1\231\215\2;F\236\23\277\356\350s(w\212\6+\250\365\303\332\32\327\273\261g\265Y\371K\271\207\2\367s\201\371&3\300\5.\177\311\310=u\200\257\321o\34=w\224kl5\11\270\311\251\227\257"
	.ascii "5TFc\254\1E\267\376\252cR\11\323\202\331\346\340\230M77~c\354\311\236\261\314\215\321\340en\374H\205\242\315\343\311;\223OS\273X\363J\363\35\207[=\33G\222\277\14?\277c\340V\200/\332\200\234\355\300U\231\226\370\311\356z@p\242E\205Uc\376_n5\316\266\364{\300\343\366\35\302\373B\361\30\203A\302\1\310@\347"
	.ascii "8\22\274.\36\10\232\257Z\7\31\306\\\177\12lJ\225\267A\351f*\365\301"
	.ascii "3\302\212g\204_\261c\360H\15\306nd\210?]\322v\224\311\7\3)"
	.ascii "\323S\210:\236\346\366DF\263\205\320\344q\317\356\366\341,\332\257\0&v\271\4\276 \215m\230\305R%w\300\200},J\350\355\25\4A\26J\371z\26\4\301C\14AV0\4\331?\203\340!#\345R\31\330\12\22\6\21\310V\205\224\230W\364.3FH\372#^\243\223\4>\242\241\33/\3XN\346\203\327\330=\244\232\0\335\265\23\305i\13\352\304\210\7\265\223Pj\200 \324j\350\277`\314c\334=T\277LR\365\371"
	.ascii "9Y.\307\5Os<:\12T\272\352\266A\365\11a\365\31\317\223\35oL\266B\32\334\316e\350\233\10\343\11\\\215S\326\340\372\20\300\225\375\33\236R>'\22\354a4\233\304\30O\14\15>9b\360IF\360\245\241\301\337\247P\223\331g\345O\201PSxNans\"\272\235b\270\255\14u\333Hns\324\14\332"
	.ascii "6\376Ny\230\212\323\14\237\301\303\274SLU\7}b\4j?\310a\36"
	.ascii "6\302,cjK\242\312\241\362\313\253\314w\340\366\354\361\325\362m\311\352\303m`\271\14\\B\206\211x\215\351\333eD|\204\262\10\245\357\243(\15\247\357"
	.ascii "4N\354Qu3x,Bb\317pb\323\214\304^0\22\243\220\261H;2k\364\365\232\207\\\254\1"
	.ascii "2T\261a\16\307\351\275\233A`u\377\223\15&+l{\2\330>\216>\302\261\235\316Sx\374\227\260\235n8^\301\216\323\24\266\3\1ls\202\260\214\13\307r\6\215\207b9\23\245\341X\316\342Df\376\22\226\263\214D^4\22\241\220\361\1,\375w\201&@\302\225l8Aay7\203\300bXe\354\224lp\340\242q,\314\241B\206\34\273s8\227\341x\256\237\205R\317\372vVT\230\340\363\200\367\30A\357|\274+\324\237\274v2y\250"
	.ascii "7\12=:\253\345\377\377FY-\207x\243\324\310\300\33\245V\362\33\345\22\350\270]\363\346\7\"\13y\230=w\341\374E\213\363\213\212\12\27.x\252\250\370\231\334\240~nQq^q\341\334\334\247\227\24\24\214\237\273h\221"
	.ascii "0\25?]X\344\312{n^^q^\356\222\5s\27\316\313\237\27\235\233[P\370l~\356\202\274\371\371\271\271\326\"4\313\177\356/\326\202\305\177\343\277\324\237\273d\261\206?\233\241\231k\235\227"
	.ascii "7\217\6\265\200\"\16\262\14\377N\375\365\354\231O\376fZjF\321\264\324\331\13\212\363\27\247\26`\240b\314\206dOd\314K}\266pA~vj\301\302\305\251\330).\234\237o\247\377E\371\37\5\356"
	.ascii "3\13"
	.text
	.section	.gnu.lto__ZN3stk11compression24__static_huff_compressor6encodeEPccc@16.f4398a61,"dr0"
	.ascii "x\234\225W{PT\327\31?\337\271\227\335\273\17\36\246\202\4\37\273\272\240!\301:\231\261i'3\235\264\235f\332\277:\235\316\364\277d\266Da\302D\221\201u&\377"
	.ascii "0\271\300\2>)1\232\322\252\210"
	.ascii "1\"J\352\203\200\17 \262\276\11U) \6R\202\330\12!\1E\263\350\262*\265\337w\316\335\315\212K;e\206\313y|\317\337\367\373\316"
	.ascii "9(\354\331\237*\374\375i\34cW\361/\304"
	.ascii "2\340\225"
	.ascii "8*\322"
	.ascii "8W\256%1\335jj\375"
	.ascii "1\323\355\12W#f*\267"
	.ascii "1\266A\213\221\222"
	.ascii "1`\222\3\23"
	.ascii "7\17\330PHk<\313P\312\14\232\\\327\300\"\7\26n\337r\11\267\254V\257\31\5\354r\375\347V\0\372\313l\14\330{\\QcLf\315b\267\332\340=n\221"
	.ascii "1~\303\357q\270\363~W\213\266l\277\256\353w\213{\356&Vl\377C\220"
	.ascii "3\346\347\14"
	.ascii "2R =\205\302\257\205e(\330\333"
	.ascii "0\336lWV\0\303\361\251\303\223Wl\243<\310\301I\323\346m\355U&\232r\225\246\7\216\267\324Z\323\366\351\225\305zee\15.+p\0\24"
	.ascii "2Y\7)p\20R\30.18\4i(\\~\341\364yPV\12\263\237\37\235\350\260\243\242^\354k-Q\177\35\344*\324\317TT\31|\"\24\317\215\335\377\211\362\232\320\233\252o\277\30K\16u\337\330"
	.ascii "9%9\310c\340\257RO\346\20\344&\6\207\205V\357\245@\7(\277\21jW\356L\356\342R\255\372\202T;\362\214\332QH#\331{\336\351/l&/\302\224@\340 *\307\300\4\214\231\247"
	.ascii "9\233\306m\16GF\33\217\307+o\12\313\276\341\33\235&\327^Ldh\347\376"
	.ascii "6\250\324k\212+\365'O^\3J\251\341\351\224\344\17|\12.T\374\360DG\261\246\274#\214"
	.ascii "4\16}\\a##\372Pu\351fMo\257\361\16=y\342\10r34F5\321$Ll\231\330"
	.ascii "8WyWX\330\25\330\32\0a\241fO\251\32\241\177<\252\376\11\241_\275y\357a\213R(\14"
	.ascii "4\224\336\336d\344Qw\241\302\254W\205Lhp2\22)\303\300)a\340\340\300}_\234R\16\302\302\271\255]W\355h\301\247\17\265\14\227a\22z8\210\346\250A\264\200\353\310s>\4\313\177y[\373\12\376"
	.ascii "2\10h\270\310N\21"
	.ascii "1\252\302\221\31\313\303,T#\33~,v\374X\23h:\207>s\201\350\225\210C[\22P\15\347\341\220'\323\347y\372Pqm\363\361c_ ,/$\245E\370\211u\10\37N\341c1\11,\241\217\213\344Si\224&\344\227\222|:\315_\4b\326K8\214\313\240\305\345@\374\\A\321\261o9\217al\214\13\276"
	.ascii "0\246\260\11\16\214O\212"
	.ascii "9\273\205_l\330a\234y\315\312\227P\374`\323\340\301>\23b\366\321\7\375^M\251\220\0\326\334\334\177L\25%\360=.Q\303\360\251\320\32\15\276\247\231:\315\25IO\370\14\\\4#\205N\351Qr\204\264`1\306v\32L\1n\246\342\367T\34\346\205\217\364\15\272\26\344\361\323\330md\362\306\255\316.\215\372[N\353\212\274\273`7\354,\322u\337'\12&\12mP\10>\12\2\316\340\6\353\5o\237\362\275\321\242\332\226-fRO@\201\263F\254\303x\4\224re\0\274/HI\313L\367s\374\210\26\203sP\310\376wd\361b\372p\337\216X\31\30\12=\7\347"
	.ascii "1\254\13\344\217\266\266"
	.ascii "4_\264\240>i\303E\214\222\274"
	.ascii "2\270\4\205A\376\3\212\270\337\210\330\2\256P\204*\273\314"
	.ascii "0Bc\303"
	.ascii "63\212\271~\252$\264c\200A\236"
	.ascii "8B\321\16c\301Q\7\253\331m\222ZvTd8\337&\34\242\211KM\17\352L!\23I\323\\V-\214Q\222\230\326\264\16|\5\341L\254\360"
	.ascii "9f\322!\0\376\33.\243U\26\2\356\31l\346\371\21Y\6\227\377\33l3p\272"
	.ascii "2\33NW\303"
	.ascii "8u\22N\311\2\25\23\361\365:\24\353{\254\264G\334B\275\326\323\235}q\16\276[\257r\6\261\307pe\342\276\277"
	.ascii "5\36-U\221\255\24\370;80\254.\14\213t?\215\27\272\362\324\353\372KmI\274\340\27v{7\6B\22;\222\"$F\276\256\336/n\30V@\246\375\217\313\372\303Y\251\320#\220\271&M'\204\316\322\250B\275(D\364,i\310"
	.ascii "0\352\21-L\\\16\224\336\335h%\217\363\355\202\363Mc\315\26\202\254\222\304\30\\G\310\276"
	.ascii "0 ;\263u\303\365\230\220\5\25\372\250\5\30\364\243Dw\230\354fV\16\2\264?\247D\244\25\25\242/1DR\321\14\234eB\1\244\27\321h\357\371dI\254\204\231\\Z0M\14\214\344\322\202(\\2\301?0\260\1\1\6-\243\321\222m\6W\347\240UHM\21~nJ?\263:\231iu0l\365\206`\350\34dhrT\202.\364\23\13aH\22\364\321\37+\366j\216?\201$\316\"Z\332\271\317\277\323\22B\305\1"
	.ascii "7\301!9\370O(\14\210\253\366\344\364\324i\315q\305\320\21O\220\3C\33\333\302H.\206\177\205tnA!\356\16\37\31\355\216!DL\233\221a\303\220\202\361\5\371\22J\364\370\261\316\356\227e\372\211\221\7\212Kd\271\251\350\343\11"
	.ascii "3e\231\20\344\251\1>\27F\214\232\177pm\373\373\366\345\365\272\310\336\6_c\316\337\211c\35Fa9\331\35"
	.ascii "4K\243\363\2\330\322\21\30'\343\22\352o\353?\371\231\250\21\177\202\267\332"
	.ascii "7@\240\227|h\310<\217b\342P\307\265*c\15CN\304\35"
	.ascii "2\375\300*\227\346G\306k\23a5M\355\271M\235\215\17\215"
	.ascii "4\324\201oEE\306d\235\303"
	.ascii "1-@]l\25.\230\330D\334Z@\235\343k\353X(\226\350\206p\211.\364umZ&\226\344\325\36\366\246\241\325q\262=\2"
	.ascii "0{\17\315l\232\333\263"
	.ascii "7\315\35\331"
	.ascii "4\23Ph\232\315 \334\205Bsk\317\321\225\330\33\26\206o[\243"
	.ascii "9NQ\2\252\321\372'h\242\30\23\221\32'\24\7\312F\16\375N&\277\20\367%\311K\246\312&U\271\270\10\345\210\352\273G\33T\312/\26irO\26`\262\354\226Q\2\207P^\24FN\370r\210\342\226\335"
	.ascii "9\364[)\344\304X\"\217"
	.ascii "4\15-}'\216"
	.ascii "4\36\2\22\205D5\312\37\34\252\2\251\265\330\210"
	.ascii "3\304\200%\270\24\371\260\266\343\243\307\377"
	.ascii "4!\\\202\20K\"\11\221\372\14\3\\\6\3&C\14(\37"
	.ascii "72\306\315\324\247"
	.ascii "9\220&n\301\222\372\35\306}G\317\345\266\207\325^\331"
	.ascii "8\377F\232\336\227\307\331\10pd\214"
	.ascii "6\336\323\210\227[\232}\274\267\221\217\340%\351J\321\36\367\214c\353;\354\227{\217*#\240\22E\264-\275'Q\334i\37\350\255\1|\364\330\31\376\263\2\303\334j\274z\6\313\257\327\347I\207K\251U\6\240T/\210zn,\365\323k\12\36\340\271\201\235\210\342A\276L\34U\367\276:\33#\322h\11\25\4\255\216\324o7\200J\17\341m\260\377\245\0\177"
	.ascii "1r\236\201K\350\266J\277\373VT\277/\370"
	.ascii "9\275\221\2\302\357r\224G\201\321\311\201j\5\5D\373\247\223cy\334L!\303]\330\252\351A\303G\371\235\372\225\322\315\12\31\306\331\276p\254hG?\323\37"
	.ascii "0\275\322\250o\300r\231\31\4\341\25"
	.ascii "6\10\6'V\210[\0\373Z\351\203\242\4F\317F\274\364\353\246jo\246\314v\361\233"
	.ascii "1\316\207\377\307\305\377h\266\213\377q\370\342\237\226\27\377-\300\177|"
	.ascii "\270x\266\2V\16G\31\253\326\255\315\313\317*(\310Y\227\373F\201\347\35w\304\334]\340\311\364\344\254r\277\275>;\373\207\253\362\362\230\352y;\247\300\232\211"
	.ascii "2\253\263\334y\236\374\270\357\207\356\267r<q\231\357\256\316\364d\272\327\347\322\352\352X\267;;gM\226;7sm\226\333m_\265>??+\327\343\316\305=\225\4,B\27\365\12L\350p\375\32\217f(\270\177\364\313\327\177\361\373_\275\352L+x\325\371z\256'+\337\231\215"
	.ascii "6=\30\22\255\375,m\265sMNnV\206"
	.ascii "3{]\276\23'\236\234\265YVz\233\377\7\324g0E"
	.text
	.section	.gnu.lto__ZN3stk11compression24__static_huff_compressor6decodeEPcPKcc@16.f4398a61,"dr0"
	.ascii "x\234\225W}PT\327\25\277\347\276\307\356\333\17\4SE\304\"\253\210\240%\266\177\330\264\223\351L\332N2\315\177\355?\375\257\323-A\230"
	.ascii "0Ud`\355\244\323!>`\371\360#d\203\306\322\250\11F1$* \2*\22@\342W,J\375\206\210\210\255\254&~\240\256\272l\4\351"
	.ascii "9\367\276]W\262\264\23fx\373\356}\347\374\356\357\234\363;\367\335\247\260\357\376U\343\177\367"
	.ascii "4\306\316\341/D3\340\236\323\214\25i\234+\347\343\230n5\265\377\214\351v\205\253a#\225\333\30\253\320\242\244e\24\230\344\215\211\233\7lh\244"
	.ascii "5w3\264"
	.ascii "2\203&\347"
	.ascii "5\260\310\33\13\267\257?\216\217\254V\267\31\15\354r\376WV\0\372e6\6l5W\324(\223Y\263\330\255"
	.ascii "6X\315-\222\343\327\374>\207\273\357\235"
	.ascii "9\244\245\326\352\272~\257\252\177tf\345\306?\5"
	.ascii "8c>\316 =\1\26%\20\375\235\220\212\206\27\232n\267\331\225\37\3\303\373\203\365\17O\331n\362\0\7\7\15\333\252NT\233h\310U\32~\322zh\247"
	.ascii "5e\273\356)\326=\236\32\234V\340\23P\10\262\16\22\340SH`8\305\340"
	.ascii "3HA\343\3\177\357\36S\225\245\2\266\343\370\245Q\13:\352\305]\355%\352\353\1\256\302\256\311\216*\203\335\302\261\374h\307\21P^\25\216_6\216\234\264K\307\200p\214\202=\223\35\243\30\324\13\307/n=\372\271\362[\341"
	.ascii "7\272\353\304\261hb\252w\325\35U\342\3\334\4\15\322O\6\37\340f\6\215\220B\266\367\335\343\227l&7&*\226\322\203y\331\13&`\314<\316\331"
	.ascii "8>\346\320p\263\271"
	.ascii "5F\371\243@\356\32\276\332kJ\336\206\214\206zj;\301\243\327\24{\364\211\211W\200\202jz\236\233\374\203}\220\214\216\233\366\237,\326\224\345\2\244yhG\245\215@\364\241\336\322u\232~\242\306=41\221\24\340\32"
	.ascii "4G\204h\21\20\353G\326\314P\376*\20\266\370\337\361\203@\250\351+U\303\374[#\372\357\27\376\37\256\333VoQ\336\26\0M\245w\326\32q\364\37\255"
	.ascii "4\353\325A\10\13\34\10\317\224\1pP\0\\\255\336S\7J\5\10\204\215G\216w\22\205.}\350\362p\31\6\241\207H\264E$q\10\222\33^\350\302d\355\33\256\252x\205\377\4Dj\270\210N\21\34U\261\220\31\313\303,T#\33^\254v\274\330bi8\235.3\200\4"
	.ascii "6\23o\355qx\211\236%\374\343\201\312"
	.ascii "9\33'\246\211\352\316\1\22E\242@\235\213\23"
	.ascii "1I\302\314!&\346\211e\346\23D2A,\240K\12\15\27\322]\252"
	.ascii "0M\23\327E\304e1\220"
	.ascii "4\323\11w\11\215\331"
	.ascii "7\34U\307nq\241\26\306\24"
	.ascii "6\302\201\361\207b\314\256\343\25\33v\30Gn\263\362\25\24?^\353\335\335g\302\214}\274\241\337\255)\33d\372j\256\325\356UE\1\272\306J\324P\362Th\217\224\274\347u:\316\25)N\370\34\222)\211D\225\"\243\270(\317B\303\310\255\3L~n\246\322\237\253\254\347\205O\364\12]\13p\364W\5\344\325\353\275g4\352o9\254+ro\201\255\260\271H\327\273v+\30(tB!t\21\11"
	.ascii "8\214\17\330\5p\367)\317@\213v\36Zo&\367\351h\320mp\35\306-\240\224+\3\340N\223\226\226\311\313\277\340\303l1\370\2\12\331\377g\26+\206\337n\177?Z\22C\243\37\300\21\244u\224\326\243G\353\333\216Y\320\237\274\341\30\262\244U\31\34\207\302\0\237A\214\373\15\306\26H\16"
	.ascii "2TY\17C\206\306\3\333d\26"
	.ascii "3}TI8\201\4\3<\316Kl\207\261\340\350\203\325<k\222^vtd8\256\22\13\"\304\361\226\307u\246 \304\254q.\253\26\312\321,1\254i\37\270\2\241Hl\360%FrR$\370\237"
	.ascii "8\215\250,\230\270\357\344&\336\207\231e\320\363\277\322"
	.ascii "6)O\247\246\312\323\351P\236z)O\263EVL\244\327\213P\254\177d\245g\244-\364k\357\350\355\233\226\304\267\352\325\216\0O \244\221G\276\366\30D\252&\254"
	.ascii "9\360/HBZg\220\26\371\356\213\21\276r\317;\363\301\316\222\30\241/\354\365\263H\204,\336\217\13\263\360\336\370\260V\274aX\1A\373\306\312\372CQ\251pNd\346\274\204\216\15\356\244\21\215.\240\21\311\263\244)\335\250G$\232"
	.ascii "8\355/\275\267\306J+\376\320.4\337r\253\315B)\363\220\31\203\213\230\262KF\312\16\277Sq1*\210\240B\37\265\0\203~\264"
	.ascii "8\33\22\273\231\225\203H\332?\22\302\302\212\230\242\257\220\"\271hF\236e@~\224\27\311h\333\221x)\254\330\311ZJ\34'\5\206k)1\202\226\314p\31\211\15\210d\320"
	.ascii "4\202\226T\31Z\235\216\250\260 A\254sM\256"
	.ascii "3\345\"\223Q\7C\250W\205B\247\243B\343#\12t\256\217T\10CR\240O\336\255\334\246%\341~\"\204\223DS\233\267\373"
	.ascii "6[\202Yq\300"
	.ascii "5H\222\32\374"
	.ascii "7\24\372\305\213\366\300\370h\207\226t\326\360\231'\316\34Ck:C\231\234\17\377\11\372\\\207B|\332\332\331\346\5\312\210y\7*l\30\22\220_\200'S\240\255\367o\24\307\310\360g\206o(\13D\224k\213v\214\230)\312\330\0O\361\363\31\340"
	.ascii "5j\276\341\374\306\367\354/\356\322E\364v\270\201"
	.ascii "1?\20\333:\334\204\27\11\367\261U\202\306\241\361~OE\231B\240\366\321\30r\276\354"
	.ascii "9\365"
	.ascii "9\365\37\36\6\26\342\262\360\265\310\333"
	.ascii "7\262\32\305\203f\351"
	.ascii "9\13\235Q\320\\\350\245\205\24"
	.ascii "0\213\364\335\265o]\252\230"
	.ascii "2\336\265A\302x\250\203[ \212"
	.ascii "7X\356\335\363\24$\312l?\217\17G\305\320gci\252u\317\33\21\253\223\352\243w\26\334\226\325\271w\264\266~\32>\22a\246\321+C\246\365\16V;\31\241\346  \232\335nro\344DbQ<\203\273\220\20\340\213\205\210\356\337\355\216\222\313&\212\327M0\232\375\24\15\252\323\13"
	.ascii "0u\7Nn\271\221\251[\356\236l\271\373Ph\232\12\20\36@\241\271\247\277q)v\226\205\341\311\330h\255\203DE56\16\301K1\6\"\345\234\372c\264\354t\375_d\34s\361"
	.ascii "9\365\304\326\233M*\5\34\203z\362\211\254\227<,\353"
	.ascii "1\202M\22v\374\371\342%\221\315`\331\305\372_H#\7\"Q\263=\227\23\207h\307\262\301\372\337I\243y\310-|\203\264\340r\17\341\231\223`?O\350x\357\343&\213t\232\377=\204\373\350\231p\37K\341\6\205\22\244\274\311\330\34\26\340T\370Y?\32Oa~\31y\265a\202\13\315G\303p\371/\14\227\250]0h\31\375\350\316"
	.ascii "3\365\247\300\250P\177 \250\376\362\353\252tME\357\347S\230J[\367\251\222\211M\306\33\231>K\352?x\360\256\350-\355)\36\16\277\225\33\256\27"
	.ascii "8v\213"
	.ascii "6\326?\244\240\225\275\347J#\367\2\336&j\3\227\33qsr\330w_y\313\13*5\214\266\345\362\1\264\236go\277R\3x*\263"
	.ascii "3\374\232\202an\225\307"
	.ascii "2\254\306\261\206\267\345zir\311s\347?\336-^\15Z\321\330\204\374\203\325\360$\254,\202m\32\205\323W~\272\241\331h\305E\306\\\350(\20\314\4\35\244\322Q\342~\276\330"
	.ascii "8F\215\211=t\221L\310\305\206\267$@:M\15@\251\376\267\210\255\373#\37\247\303\334"
	.ascii "8\266.V\34\315\3<]\"\14"
	.ascii "6,\225\10K\244Z\272\373\204R\251'\21D?\334"
	.ascii "\357"
	.ascii "7\275\324\254W`E4\6O\341%6\10\6\347%\342U\204\37\246J\37\24\305"
	.ascii "2:\273\342\311\243\256z\337\265\204\251N\37f\344"
	.ascii "0\361=N\37:\237\342\364Q\304\203\247\217b.N\37\327\1\277\275\270"
	.ascii "8;\3V\7\357\322"
	.ascii "3W\256\310\313\317*(\310Y\231\373\207\2\327\237\235acg\201+\303\225\223\351|sUv\366\222\314\274<\246\272\336\314)\210\311X\236\267,\303\225\341\\\225\233\271rY\326"
	.ascii "2k\206\223~\235y\256\374i\317n\235o\344\270\242\235\316\354\234\345Y\316\334\214\25YN\247=sU~~V\256\313\231\213&*\331Y\204"
	.ascii "1\32\26Xsr\363V\271\234\4\253\31N\316\237\276\372\332\257\177\377\233\227\35)\5/;^\313ue\345;\262qE\27\362\242\271_\246,s,\317\311\315Jwd\257\314w\340\300\225\263\"\313J_\11\377\5\225\211e\373"
	.text
	.section	.gnu.lto_.symbol_nodes.f4398a61,"dr0"
	.ascii "x\234U\217Mk\324P\24\206Or\372\266\231\246\231L\33!\213,b\325\326\215?\307_\341\306\237p\6\11E\20F\327.\372"
	.ascii "1\216Z\277\255\212Z\332J\305\241\212\342\270\21\301\215\202\314NQ\4\267\202\367\236\233+I6\357y/\317sr/\23\321Y&\367\205[\20\242+\23\"\21Z\337\214\10\33\240\315P\30\217"
	.ascii "1\247\371\24\221\315p\10\11<\270\326\357Px\35\22\266\314k\10\324\330GG\363\0\363"
	.ascii "6\203=\10;\220\372\27#\12o@fZ\233\266!\360\7\3\273\351&B\335p\210X\363%\26\364\16\17!\263-\360\1X\201\367H4'\350*x\33"
	.ascii "2\327\2oaF\201WH5\307\350)x\27\22\265\300;\200\2GX\324|\215%\5\357C:-\360\36f\25x\213L\363\35\216\351kw!\363\376\265\375\210\202\347\220\270\331\237A\26\232\375\11$i\366G\220n\263\357@\322f\177\1\351"
	.ascii "5\373\7\310b\263\277\201,5:\323)\232n\257"
	.ascii "2\235\244\321N\302t\202\252\265O\1\323"
	.ascii "2U\227~l\364\230\216\323\310\17\323\377'\3\35J\32\245\14\347\303\371\250}\250_2Vh\\g5\250\273\315\330Y\261\261\266\22\216\255\365"
	.ascii "1\340\330\377"
	.ascii "56\253\317qj\240?g85\320\337.\247\6:\372\25p\352\241t\225\252\357\207\237\177/\333i\372\323M%M\207\1g\326\\\341\314\232\11g\326\374jN\275\231\245ta\362\245"
	.ascii "2'%U\347"
	.ascii "9w\227\311\335\23\362\372\11\271\247\363\214\276]\325\341"
	.ascii "4U\353:\230\353\225\\8\255pZQk\205\327\12C_\326!\243\241jEI\343\222\376\1\330\356\351\267"
	.text
	.section	.gnu.lto_.refs.f4398a61,"dr0"
	.ascii "x\234%\311A\26\301@\20\4\320\252jI7\6\231L\304\210$7\341r\16\344,\366\16\303{\376\366\33\200\27\376\34 E\243\\\14X\246\25q\341\306~\327\240\245Z\243\273\332@dF\321\26\334Y\3\337#Q\311xp\245\300"
	.ascii "1\363X\224\336\360\23:\252"
	.ascii "3fW\27\350"
	.ascii "3\373\242\356I/\30\250\301xv\15\201"
	.ascii "1s,\32>\360\13*U\215WW\15L\231SQ\275\373\15"
	.ascii "35\33\27\327\34X3\327\242\371\201/\254\356\10\370"
	.text
	.section	.gnu.lto_.decls.f4398a61,"dr0"
	.ascii "x\234\275Y\11TT\307\232\356\352j\240i\20\222\270>\317\234\243\321"
	.ascii "7N|&1*\361\231\234I\302{J\342"
	.ascii "33\232\274Lf\346x\336\231\16\1\214dT|\200&/3gr\331d\25\331\4\4\225F\21\331\4\225U\326\26dQd\213\342\206b#\"\210\262(\210\250,\363W\325\275\335\367BwF4\231>\374tW\365__}\377\367\377U\267\356m,\223\311\2,d\262qx\255X \223\275>M&SB\337\6\31{O\1[\13\226\3\226\13V\0v\12l\35X\251\214\275\246\203]\7\273\11\326\15v\27\254\7l\0l\10l\24\314\2\311d\257\202\315\6\233\7\366\6\330\22\260U`\37\200\255\6\373\24l#\330L\360\377\13\274\377\7\330W`_\203"
	.ascii "9\203m\2\333\14\266\5\314\15l'\330\367`?\200\375"
	.ascii "7\330\377\200q`\336`\276`\273\300\2\300\202\300B\220L\362\"|\27\362q\332\200Y\203\355\6\237qx\317\340\343\3"
	.ascii "9d\37\202\255\347ux\25,\24|f\300\373\373\360\276\7l\5\341\17\355"
	.ascii "0x\237\16\26\15\26\3\366\7\350\213E\223u[\10}\373\20\323t.\274_\206\367\13`\347\300"
	.ascii "0X3\330%\260F\242\31\317\363\3^\247%\274n\363x\35\25"
	.ascii "2\203\26q\210i&~u\363"
	.ascii "1<O\214\347^ F\242\313\317\305)\304\26\17\237\355\21\213\257\221\217\257\231\217\217pLD\223c\\\315\307'\344\230\324\302\241\11\361\15\374L\16\223\221\361\30\327\376\212q\236"
	.ascii "5\222Cs\236\347\304\370H\376\314d\206\332M\1\313\344\353]\374\"\353\347\357M\304x\326D\36I\214\37\377\212qf\221\372E\206X\205\234Z\360|'\306\372\251(^a\215\36\7;\311\257m\361\213\354\25\213\214\304\233\311\307)\216\373\377+\257\331\360\271\237\217\317X\15\217\32\211\231\350@b&\337\347\302{\276h_*\0+DlO\23\277\310\36\271\204\217mb\256\205\370I]\177\206&\307N\352l\326\257\250\1\321\274\10\332O\341\275\30\336K\300\376\15\14\361Z(y\376\23u \332l\24\345_\330\223K\301\264\210\355\351\342\27\271F\274eB\3K\364\177\353"
	.ascii "0\213\327\342\327\324A\210\237\\\377\210\6\202.\210\257\11%\37\307D-6\362z\10Z\10\327\245\323`\25\210]\333\304\257\7rt*s\260\316\252K\216lT\363I\263"
	.ascii "0\242&\326\34\232\326*\5i\372\24\4\246+\255\203"
	.ascii "8\316\233\374Y\326\330\240\31*\224\214\346\242\243h.\320IAD=\372\16\316"
	.ascii "5\351\7\276\302r\4\343\24}M#\247\246\241\271sU\213b\271\0nx\36\312@*\31\371\250\355\32\37\377q\234\275\366X\320\356\0\16^\272p\16\317\221\241"
	.ascii "7\347\242\305se\350\30ZD\277\222\241t\230+\15\346J\2\237"
	.ascii "0\177\356\217"
	.ascii "2\322\217R\21\226F\21\37\223\331g\246\342\221\2~\26\11\274w\237\11\277fKcN\301\244\35:\332\343\253\244A\277K\232\343y\227\333\20m\332\221f\320\263\214"
	.ascii "1\314\260y\15\254\305\32\234\244\350o\314E'\30\370\255\300\310^\325ka\304\33\376\315G\224p\26\270\37\247\356\331\350"
	.ascii "5a\20\361Nk\270\224$\27{g\232\364F9\350"
	.ascii "5\30q?8\"\334B\222\22\350\27\361\311\345s\222Ks2\236\\\232\252"
	.ascii "4M>O \377\6\345~?\364@\11\317]\347%pgJ\312P>\345\222'0\277}~\374\356"
	.ascii "4\261o\246\11_T@y\337\326D]6\223\360.\220\360>\305\363>Ey\27'\237"
	.ascii "0\303\323I-\241vmx\273\325\233i0\17\224O#6$\335+\271(\304\2\362\264VE\233"
	.ascii "7\343\237$Y\322&).[\350\222\37\354\250.Q\"\325\242\0\303\254"
	.ascii "2\375\224\250\14j\203\214E\305\320S\302\27Y\177\355P\314l\216S\240R\10\247\20aT\204\336$\264\210#\345\7\375"
	.ascii "0\331\361\262\364@KZB_\221\271\37\373\365\7\252h\311X\223f\353\235\210]r\274\211\322/\352,\11\265\301?\202D\244\25\236\330\32g\205\203\21\337\324\346?\312\262X|\224\323p\375\11~U\266d\336\15\263\320\31\375\264\372X\307N\264'[1\307{G\252\376\201w\254\0\307J\264X\354XV:\\\245\302\255\210\314-\337SU\25g\215\26\251h`\15\376\321"
	.ascii "3\311\270\263\20X\365\344\300\214kT3Q#\230\"7\251\256c\232$\223\4\322\220\311s,\223\340y\255\371A\271"
	.ascii "9N\243{\2*?\325\332e\206"
	.ascii "3Y\343|pN\263\2\237d\215\223\207\217\344"
	.ascii "11\355\241\251\374)\254\376K\4G\330\5\213\246O_\264`A\14B\27\320tR\245\0\252\201)\373\357\371\5\333\204yin!2\25\252\203X\300\301\300\231"
	.ascii "8\242zB\205fTw0\314k\215\22\375\4.\345\314\225\204\315\336\340\25\316ia\355i9{O\31\322\2\304i\2\321\4a\23\314*\264\30]\204\317\315h\1\272\4\326\10\6\337\21\200\6B\321\350\340\213\317"
	.ascii "98\11\262\251\215\341\274\255)\33J\256J\224L\32\253.\265@\253\320\236\301"
	.ascii "4\322Z\243\221\376N\320E\223\246\361\266\347]\317\33uM\246\242\200\342Y{\237\25)$)\24;\313\320e}\12\177\352\31\276\217\24r\326\207"
	.ascii "6\322\253\302\276\336\346s\346s\242\371\245\377\12\"\245(\254\374\253h\16\374\277\202\24Lb\262.o\36\265\303y,\323\241\327\222\316X\343\12\326\30\250\177t\302l\376AN\243\351\357\15\336\20\312i\274\264c\343\343\210b\240k\372T\311P\13\277\335\243\353h>\214\253\316\257\35\264\305\207"
	.ascii "1\5\271\324\31\321f\206\217\263\306\276\312\241H\25E\344\0\16i\340ZC\301n\210\300Z\5\260\233\24\314\357jr\210\331s\307r\276\267\326\333\22\267\263\331\342\16\345z#\334\317\32\345\15\5\321L\247\365\202L\31\21E\221J\241\253\35\321\276\250\273{\233\315i\337\2\25\272\315\372\242o\207\217[\323\276u*\324\301\372z\363j\206\315f\357"
	.ascii "5\320Zg\330\\;\321l\370\177\7)X\206\216D\266\207X\343\303\12J#\263\241\377\261\202(\300uyEX\367\303>H\334Q\227\20\264\360\201P\271\347\227;\215\270\36\327\\\331\317\331{s >F:\220\253M$\327-2\0\335E\363\341\177"
	.ascii "7U\354qIO\224"
	.ascii "9.`\363\305$\370<1\303\225\254ql\350N\210\222\"R\371\265D~\202wO\204w_`\322C\301\352w\207\344a<\314\306k\372O\364\23!P/u\202\236\234\304\326\216i\306\262\203\372HV\372'%\350\316n\256\21a_3\212W\227\232\230\207\360\36\326h\313((\261\242\265\241\273\37\375\236\326\233\33\201p)\4z \342\367P\340"
	.ascii "7@\371\215\304\336?a\201\353\31\304\225[\343w-\360"
	.ascii "5\326\270\33\232\224\212\1O\247\321\214W\342\24\16\242\375\210\242\15\212\320\36\11hC\24mr\200\245\5g?\247\251'WZV6\205\15\276{\15+n\230\257\233Kw46F\205xL\242\177J\205x\"\22\242\365x\\\236\2\307\231S\256\311'\262K\254p\"k<\13,\273i\311\210\247W\10\304\1\0=\23\21\37\21\210\217\232 >z1\353\216\364r\236!\271\10\214\353w\20#!\16\247\15\366L\323\367qr\332YRZ:\306\342\206\261\310\213u\266\325\27\266\330\352\305\360f\235\255"
	.ascii "9\373\333\221X\14\375"
	.ascii "1\5\215\21\11|\345D\15\37\271A\215"
	.ascii "\324"
	.ascii "3\331O\24\270\205\11\320\240\211\17\266\301\267X\243\256\317\347\201\234\226\205&V\237F\0@~r\203\32p1gj\370\313\215\253\321\20\226\366LzN\316\224\250\21(\377\31"
	.ascii "5N\5\366G\261\30\301\15\5\261\30\17\27\326U*\365j\4\263\316\364\204\363\307\254\364j\204\260\316>\356`\243\255q5\2\210\4\241T\215\335\"5\16<n\355\260\306\32\13*@uS\375\347\370(\373|q\240\372\1bb\234\325\213\1\343\321\36\221\30a\202\30\341T\214\323\3\267\"Y.S\364\27\210\4\316?\332\\\274{\211"
	.ascii "6\325H9\331\275\"\344\374\356\345\37\20\337c\216;\331\374U\336"
	.ascii "9\327U\370\11k\354\367\325]V\21\225\367\312y\225o\367\35\31\264!\225\33\246+\273\264\313\")\226;\3\4)$\212\242N(\232\204\31%0\214"
	.ascii "1\221\256\7O\357\245\313)\347R}\26\216\225\353\316 1g\330\264\231\212\261\4"
	.ascii "3\216\322\336'\320n\314\210\211\267\301c\26\374"
	.ascii "9\256\364\316\303X[\354\253\344\233e\332\346~\25;\255\305"
	.ascii "6\351\276\367\341\354\211\2\373\345\223Nk\273\37\207\25(q\212\222\6\314u\346\357\261%\341q\272\3\205\357\225{\361;\24\314\214\342a\350\1"
	.ascii "9\35\212\16\12\321%\320\350\232/\345\345\331\340R\6q,!'\201\4\206"
	.ascii "4\202fWR\212\222\24Bq\321\236\263\305\371e6\306\222\203\22I\240\207i\240\207\204@}B|Z,q\215\20Yl\337\361 k\334 4\17\306\367\16(X\240\351\27\222\376\306\7zdr\240\25\272^\255\2\17"
	.ascii "1\226\367\357\307&X\263@\263\216\33\2\205\231Q\22\14M\346\3=*\4\232B\3=\360lh9\16\265"
	.ascii "4Q\33%\301\307\374\24\264"
	.ascii "6\372{\357"
	.ascii "5|\331\346\25\21\302\335\32\37\237\307\252#\225UG\32\11"
	.ascii "0U\200M\247\260I{\243"
	.ascii "3\314\350\321]I7\332\376\202+\226\370\20\233F\270\303X\300\356"
	.ascii "0\236\370\7\372\252hs\\x\321cv\301\203S\245H\270\315\10\363\346^\365:\361w\364\4\212"
	.ascii "2\344p\364:!_D\21P\246|.\312\222\363\367\31\15\325\321o\221\343\370q\271\12\35\223\353\217\343\13Tz\315&\327mv\177l\242\205"
	.ascii "8ud0\313\335I\22Z6\315\335F>u\211y=\267\255p\272%\237\253\354#O\203\20\316f\221\371\236\313\11\260\25n<v\375\226\277\237\310\235\234\270\312\252\206^%.`\243\"\33\232\236\330\260\304\305\27\33\22\7\323\242\34\30\232\307'._P\270\340\371w\10\321\371\246\220FqJ\250\300\301\260\323\33p\223\251\274k\306\2\272-\215\346\35`P\21\313{1\21\247H`UbbW0r\204\323\264\214\214Y\30]+\245\4RK\231\226\11LO\225D\226+p\207 \370\276seE\12\334\315\230'_J\212\261\242\322\301\226"
	.ascii "0\362U\207WX\10\247\243<\1\4\235\26\255\357r\201g\305\24v\257\210"
	.ascii "2\335(\246}\37[\243Jva\360\13|z\332V\210\247\212\365\25\365\347\315"
	.ascii "7\272\311\235!\361\324\320x\252\205x\12\7\207\357\233cN\305\307s\246=\253_\201}U\354\256\374d\301\177\261JH\335o\250\4\0@gE\261\234\23b\251"
	.ascii "5\21KL\323\225|\5>\250\222,\267Yl\271\205\326\306\235\306\264\311\226Y\313Q\35\224)\277\314\244\17\214\232`\211\221Q\250\36\226X\203~\211\371_\240\267\362\215\260J\352\14Kl\226a\211\31\223\322\277\342n2\223\215\214\373\211\351\226\263/\342\206\231\240\357\5\326\347\337z-\304\340x\221u\236\275\27\274X\320\274\231u\5u\337\364W\30-\242\363D\364\313T\364K\202\350\334\263\252\32\204\223\5\321u\3\217;,p&\23\350h\340\265#\346B\21\351\276\270c(\"\0AWD\302_\25\204\277F\205\37;\31x\335\6\327"
	.ascii "3\224\274\322g\367\314\27&rZ\15Y2+\303\243"
	.ascii "4! \326\370G\363\310\303\275\26\30\250\337\272d\264I`\256\313\27\302\310\33?=,\261\305\241V\24f4\251k?\203\321\264\34J\261\217\345(\25\202qC\212q\203\307h\245\30=yM\231\346\270\236a\350\32\367\336\224"
	.ascii "3\214>)\306M)\306M\36CG1\22\222\323Rmq\254"
	.ascii "5\305xx1\352\221-\305\320\5U\267(\375\2|8Z\215\4\245M\212\322\306\243\334\242(\251\325\345\307\340f\216\241\\\275\352w\225E\243\313<<\1\245]\212\322\316\243\334\246(\373/\336\212\223\343\224i\24%\377\334\365\21\25C\211\257\234\200\322!E\351\340Q\356P\224\240\312\21\270\363\350g(\376\335\203\31\274*\347\217\370\232\211A:\245 \235<H\27\5)m\253\354\263\306\205"
	.ascii "6\24\244\363\244\217\27=\313q\272\342r\237\5)\\#9\314\221\273a\303S\20\303"
	.ascii "6\337\362\360Z\223\31\256`C[\36>\275\254\204\371"
	.ascii "9\215\256\354Z\"\322\12i\371\320\12\335\205\32\353\226\317\27Q\270\307S\270O)DU\324\324Ya/[\212\223\226\321\354\257\302a\254\321x\353\252\277\31\5\325\236\365Q\324\360\220\260\355\367\360\220\206\323r/\201D\277\205u\335GA\15\33\363:a\221\36jH9\214\365'\341~\266\320\22\253\253\37*L\334\313?\244\247\340\7\242Sp\315\236\374"
	.ascii "2\325s{\27\235,\216\262dr^\241r\352\210\234\3r\343r\16\4\344\232\341f\26\370pSf7bj\266\30QsP\242\346#^\315!\32x~\365\356:%\216|\205\342d\245](\235fJ\300A\211\200\217\365\2\16S\234\340\14\337\231\370\12\203i;\360(\233On\37\243\343+\246\3\267\275\":Ox:O)\314\261\262\303eVX\363*\305\351\352\31y\212Dt|\305t\10\212\201\316"
	.ascii "3=\235\21\212\323\365\244\0\316\224}\14\347\360@\334{\214NPu\374\14.\300G\313\212\235\347"
	.ascii "3$\341"
	.ascii "3\312\363\31\243"
	.ascii "8\305\336W\353lp\301k\24gw\354P\25/\317\271I|\206$|\306\365|8Lp\32w5<\303"
	.ascii "8\200=n\326\334\250MU1B\231\207\215\20\32\225\20\362\302\214\220"
	.ascii "7\5\12(\311\216R\342Z\6\344\247\251\12R\231\22hTB\310\7\13\204|)\316.\277\313U\346x\357\14\366\0\371l\212\237-#\24_i\204\220\277\244\200\374xB\273(POg\360J\334\302pr\6\37U\311M\11\344/\251\37\177=\237\0\12\323\236\330\6\233x\312LV\207\225\335O1\343s\336\30\237p\11\237@\236O\20\5zr=h\14\266"
	.ascii "9\6\24S_\224\241"
	.ascii "0E(\\B(XO(\204\342\324\355\212\215\260\26\356\267\3L>\277D\273"
	.ascii "1\371"
	.ascii "1\341\342\340\335\"\351\263\12r64x\207b\346\35J\275k\363\32#E\336k\351\361\326\340\274\207w\336c\2:R\342\35\306{\207Q\357\212\232\304\26"
	.ascii "3\372\240[''\12\\k8\321fC\357=\336\244\373WQ}\31\373\35j\11=~\205\356[e\372\247\233(\314\377t\23\211\351Sy\377\16M\242|\342\357N\341x.\212\300\304}/~M\30D\274o\215\\\234"
	.ascii "1\361g'\343\316(\32\223\237o\202\213\257\373ZI\2\205~\21\235\30>\320\30\32\250_y\371 \222x\37\226\310\22\313{\307R\357K\255\7\273\254\304\212\307I\234\367\361\316\373\250sR\305\235\363\266\257'\220\237\203\264\345J\330\264\351cav\330\211\303\257\223\25\\\251\371R\214\246\225\240"
	.ascii "\305\363h\361\24\255\247.g\261\211\7\25\373\261\370f*\240\246\335W\216\313f\361\307\262\\m\307#\214\317\12\315\270h\357\\\376\206\337\2\301-:\26\375>\11_\37\31,=b\205\353f\261\207\34e\321>\364\261w8\27\32\346\30@\36\222\302T\350\0\306(\1\263\323\233\206\37\217\22"
	.ascii "19\275=\356"
	.ascii "\363?\256\242!\367\367\6_\372g/\316^F\37\306"
	.ascii "2\237C4\350\242N\357\253\26\370\6\233\"\363F\305wPG\353T$\260az\237\372#9\233^hh4\243\375\244\313\202\234\251\37=*L\343\177!\23\312L\364\353\317Q\274\10\234a\216$(\215#X8Vw^\260!\307\352d\254B\207\261\376X\275N\370\205\14\372\311\265\253aW\242\271"
	.ascii "4O\3\2\345\24JYwQ\323\251\304\35\214\362`WR?^D\361\375\11"
	.ascii "8\331\7R\305"
	.ascii "2\322\343zN\334\210\225\260$\2\244\\\323&r\5\377\276\332\340a\5\276\313f\320"
	.ascii "4\267\247\333\342a\326\270\333\351\373>l=\261\344\10\34?3\214\323x\207q\344\202\216\322!\250\14<\361\12v\214\356?G\20\334\272d\322\15\250it@c!.\262\32I\221e\361E\226E\213,-v\360\341\204\222\35\22\244"
	.ascii "8N\245\30\335\227\324\204p\365l\366\24\256v\177\276\234\222\323\4\371\353\367E\201\230\364Rv\302@\354$%\226U\27\330b+&F\36I\33\374\263yb\331\224XBty\277-\216\231\303n.Fs\24\224\244\256k!!\211r0\275N\311\204\11r)\325z\355\245\16\5NgcZ\223GSXd\232\253\230\256\236\274\11\203\362\351\240\306\261\252kH\252\300\250\240@\1\365Ho\274_a\213\213\31l\305\225\210b\25U@\227Y\21\244\344&j \275z\236"
	.ascii "2hPH5\310\271\331\251U\211"
	.ascii "5x*\321\240\210\327\240\210j\260"
	.ascii "7u\344<\22;_\226d\262\230w.f\327\206sO\343\244?}\222E`\360.\341\275K\250w\354\365g\221\23\362\16\327Y\26u)\215\272;-\367\3\274\353"
	.ascii "74\350=\373\233\316\231\263\264\307\373MJ\273\364\2]f\10YKC\356\276w\275W!\235*\\\230\352"
	.ascii "4\235j\274\255"
	.ascii "6]\211/\260\271J\270\275\7\254\331\\\347'\317%\275\366\226\33\346\252\300\13e\12\247\315\216\356V\377\370\365\16\327-\236o\271n\373Pf\356\341\372\203\213\332S\371\311\372/\347\257^\262D\366\307\325\357/\375\334\23\376\336}\373\335\267\337Y\372/nn[<\226nu\335\366\315wv\357-W\257X\276\324u\345\252\225o}\267\322\356-\332I:\266"
	.ascii "9m\331\341\354\262TM;\336\336,\233\243V{x:z\272:\251"
	.ascii "7\357\330\264I\355\344\266u\273\273\213\207\207\233\273\225\360\321\325m\33\366\360\374\317\205\242\366_\336^\372"
	.ascii "6\374-\365t\335\352\262\24\276S\223\17\0\366;\261\17\351\27\265\305\323\200\253r\207\353"
	.ascii "6\317\25\313\325\236/\36\203\207\247"
	.ascii "3`\0\26\366\0\212\316\216\316x\223\373_\255\325\352\257\35=\\\324N\236n\356\363\227\253"
	.ascii "7\256_\1<\226-\23\21Yng*\344\325\313\35v\276\371\274!8m\337.\203\311\310\327/6\331"
	.ascii "2\207\235\2Y\347\27\30\277\6\310\316P\253\277\371\376{\365v\27wP\300q\213\253\347\337\324;\337\21H\275\20(\220\262\"_:;9n\331\242V\253\\\267\271z\272\2\362\17.\37N\15i\331;\206\241\16;\355\355\254\334]\234\334\266yx\272\357p\362\374h\212P\313Dc\11\226\371\216\355\316\216\236.\357M\15f%\33\345\340d\277\312\334e\233\223\233\263\313\7S\4`\243\34>srr\262_\266\322\334\331\205"
	.ascii "4\247\30\314J6\12@>\373\224\302\274\12\351\372\336Q\375\315\16Gwg\265\343\327n\356\236\212-.\216\233\314@\177"
	.ascii "7'\274\325e\353\274I\13\17:\351\252\203w\250\376\231<\201\25\320|\227\216r\370\326\336\316\22`a*\310\241\371vwX&\36\30$\\0\11\312\325m)+\362m\36n[\310\22\236-\240A\327J6\322\1\230\376"
	.ascii "0]L\323\335\5(z\270\320"
	.ascii "5\274\322N\355iA\326\277z\253\207\202\274\317\341\21\354H\343\367\374"
	.ascii "7\220\266w$\20\216N\177\335\341\352\356\242\330\344\356\342\"\216\300\216t8|\6Y\306[\335v\376F\364\315\12h\303\27\237}\272\363[\373e\313-\310\334\253`\352\257]=\325\360\315<\221\347\357\371>\360\336\14\356\233\277\265_\376\16\244\351\223\177\235\332\2\265s\330\351\260JM\367"
	.ascii "6\365\262\251\217_#\31\377\247)\217\227\256 \3\322\272\251#I\27\220\1j\315\224\241\364\213\310\0\362\311\324AD\13\351e\24\222\256%\3\222R\370\0\13\374%Rn\243V\273l\363tqwq\246\35k^\4l\231\235\24d\252\214\244E4U\12k\214Q\370d\212 \246\352p\375\313\341L\244\265v\252p\246\212z\303K\2M$\366\307)\342\31Y\"\177za\210\211d\34\246\212dt\251\375\323\313\240\274l=\231Z\265S\255\247\11"
	.ascii "8\23iY\302G81\202\214pzu\266Uo\374\302\363=}\327N\13\376\364\211\341]\264\316\267\270ns\371\5\353\232\300\375\222\345H\360\246\257\375\362\343\217\325\16\377\276z\355\37\326\177\342\240^\277a\215\303\27\257\320\276\325k\35V\177\252\336\360\347"
	.ascii "5\16\177\376e\12\216L\367\213\225\312\213H\373"
	.ascii "3)&p\377\13Zu<\17"
	.text
	.section	.gnu.lto_.symtab.f4398a61,"dr0"
	.ascii "__ZN3stk11compression24__static_huff_compressorC2Ev\0\0\0\0\0\0\0\0\0\0\0\0\334\0\0\0__ZN3stk11compression24__static_huff_compressorC1Ev\0\0\0\0\0\0\0\0\0\0\0\0\337\0\0\0__ZN3stk11compression24__static_huff_compressorD2Ev\0\0\0\0\0\0\0\0\0\0\0\0\352\0\0\0__ZN3stk11compression24__static_huff_compressorD1Ev\0\0\0\0\0\0\0\0\0\0\0\0\355\0\0\0__ZN3stk11compression24__static_huff_compressor10initializeEv@4\0\0\0\0\0\0\0\0\0\0\0\0\363\0\0\0__ZN3stk11compression24__static_huff_compressor11reconstructEv@4\0\0\0\0\0\0\0\0\0\0\0\0\366\0\0\0__ZN3stk11compression24__static_huff_compressor6updateEc@8\0\0\0\0\0\0\0\0\0\0\0\0\375\0\0\0__ZN3stk11compression24__static_huff_compressor6encodeEPccc@16\0\0\0\0\0\0\0\0\0\0\0\0\7\1\0\0__ZN3stk11compression24__static_huff_compressor6decodeEPcPKcc@16\0\0\0\0\0\0\0\0\0\0\0\0\21\1\0\0___gxx_personality_v0\0\0\2\0\0\0\0\0\0\0\0\0\351\0\0\0___cxa_guard_abort\0\0\2\0\0\0\0\0\0\0\0\0\27\1\0\0__ZN3stk3mem5allocEj@4\0\0\2\0\0\0\0\0\0\0\0\0\37\1\0\0__ZN3stk3con6printsEPKcz\0\0\2\0\0\0\0\0\0\0\0\0(\1\0\0___cxa_guard_release\0\0\2\0\0\0\0\0\0\0\0\0+\1\0\0__ZN3stk4time7time_msEv@0\0\0\2\0\0\0\0\0\0\0\0\0"
	.ascii "8\1\0\0___cxa_guard_acquire\0\0\2\0\0\0\0\0\0\0\0\0=\1\0\0__ZN3stk3mem4freeEPv@4\0\0\2\0\0\0\0\0\0\0\0\0C\1\0\0__ZN3stk3mem3movEPvPKvj@12\0\0\2\0\0\0\0\0\0\0\0\0K\1\0\0__ZN3stk3mem7bit_mo"
	.ascii "vEPvhPKvhj@20\0\0\2\0\0\0\0\0\0\0\0\0Z\1\0\0"
	.text
	.section	.gnu.lto_.opts,"dr0"
	.ascii "'-fno-trapv' '-dD' '-malign-double' '-momit-leaf-frame-pointer' '-m32' '-mfpmath=sse' '-mpreferred-stack-boundary=8' '-mmmx' '-msse' '-msse2' '-mthreads' '-mtune=generic' '-march=i686' '-g' '-g' '-O3' '-fno-use-linker-plugin' '-fverbose-asm' '-fstrict-aliasing' '-fwrapv' '-funroll-loops' '-flto' '-fexceptions'\0"
	.text
	.section .rdata,"dr"
LC1:
	.ascii "\0"
	.align 4
LC2:
	.ascii "compression\\stk_compression_static_huff.cpp\0"
	.align 4
LC3:
	.ascii "DEBUG: %s: Enter function: %s@%d line, for %d time\12\0\0"
	.section	.text.unlikely,"x"
	.align 2
LCOLDB5:
	.text
LHOTB5:
	.align 2
	.p2align 4,,15
	.section	.text.unlikely,"x"
Ltext_cold0:
	.text
	.globl	__ZN3stk11compression24__static_huff_compressorC2Ev
	.def	__ZN3stk11compression24__static_huff_compressorC2Ev;	.scl	2;	.type	32;	.endef
__ZN3stk11compression24__static_huff_compressorC2Ev:
LFB703:
	.file 1 "compression/stk_compression_static_huff.cpp"
	.loc 1 28 0
	.cfi_startproc
	.cfi_personality 0,___gxx_personality_v0
	.cfi_lsda 0,LLSDA703
LVL0:
	pushl	%ebx	 #
	.cfi_def_cfa_offset 8
	.cfi_offset 3, -8
	movl	%ecx, %ebx	 # this, this
	subl	$760, %esp	 #,
	.cfi_def_cfa_offset 768
LBB2:
	.loc 1 31 0
	cmpb	$0, __ZGVZN3stk11compression24__static_huff_compressorC4EvE8__time_1	 #, MEM[(char *)&_ZGVZN3stk11compression24__static_huff_compressorC4EvE8__time_1]
	je	L14	 #,
LVL1:
L3:
	.loc 1 31 0 is_stmt 0 discriminator 2
	movl	__ZZN3stk11compression24__static_huff_compressorC4EvE14__entered_time, %edx	 # __entered_time, tmp100
	movl	$31, 12(%esp)	 #,
	movl	$LC1, 8(%esp)	 #,
	movl	$LC2+12, 4(%esp)	 #,
	movl	$LC3, (%esp)	 #,
	addl	$1, %edx	 #, D.30257
	movl	%edx, 16(%esp)	 # D.30257,
	movl	%edx, __ZZN3stk11compression24__static_huff_compressorC4EvE14__entered_time	 # D.30257, __entered_time
LEHB0:
	call	__ZN3stk3con6printsEPKcz	 #
LVL2:
	.loc 1 34 0 is_stmt 1 discriminator 2
	movl	$2044, (%esp)	 #,
	call	__ZN3stk3mem5allocEj@4	 #
	.cfi_def_cfa_offset 764
LVL3:
	subl	$4, %esp	 #,
	.cfi_def_cfa_offset 768
	movl	%eax, (%ebx)	 # D.30260, this_19(D)->son
	.loc 1 35 0 discriminator 2
	movl	$3068, (%esp)	 #,
	call	__ZN3stk3mem5allocEj@4	 #
	.cfi_def_cfa_offset 764
LVL4:
	subl	$4, %esp	 #,
	.cfi_def_cfa_offset 768
	movl	%eax, 4(%ebx)	 # D.30260, this_19(D)->dad
	.loc 1 36 0 discriminator 2
	movl	$2048, (%esp)	 #,
	call	__ZN3stk3mem5allocEj@4	 #
	.cfi_def_cfa_offset 764
LEHE0:
LVL5:
	subl	$4, %esp	 #,
	.cfi_def_cfa_offset 768
	movl	%eax, 8(%ebx)	 # D.30260, this_19(D)->frq
LBE2:
	.loc 1 37 0 discriminator 2
	addl	$760, %esp	 #,
	.cfi_remember_state
	.cfi_def_cfa_offset 8
	popl	%ebx	 #
	.cfi_restore 3
	.cfi_def_cfa_offset 4
LVL6:
	ret
LVL7:
	.p2align 4,,10
L14:
	.cfi_restore_state
LBB3:
	.loc 1 31 0 discriminator 1
	movl	$__ZGVZN3stk11compression24__static_huff_compressorC4EvE8__time_1, (%esp)	 #,
	call	___cxa_guard_acquire	 #
LVL8:
	testl	%eax, %eax	 # D.30257
	je	L3	 #,
LEHB1:
	.loc 1 31 0 is_stmt 0 discriminator 3
	call	__ZN3stk4time7time_msEv@0	 #
LEHE1:
LVL9:
	movl	%eax, 496(%esp)	 #, %sfp
	movl	%edx, 500(%esp)	 #, %sfp
	movl	500(%esp), %eax	 # %sfp,
	fildq	496(%esp)	 # %sfp
	testl	%eax, %eax	 #
	js	L15	 #,
L5:
	.loc 1 31 0 discriminator 5
	movl	$__ZGVZN3stk11compression24__static_huff_compressorC4EvE8__time_1, (%esp)	 #,
	fstpl	__ZZN3stk11compression24__static_huff_compressorC4EvE8__time_1	 # __time_1
	call	___cxa_guard_release	 #
LVL10:
	jmp	L3	 #
	.p2align 4,,10
L15:
	fadds	LC0	 #
	jmp	L5	 #
L7:
	movl	%eax, %ebx	 #, tmp99
LVL11:
	.loc 1 31 0
	movl	$__ZGVZN3stk11compression24__static_huff_compressorC4EvE8__time_1, (%esp)	 #,
	call	___cxa_guard_abort	 #
LVL12:
	movl	%ebx, (%esp)	 # tmp99,
LEHB2:
	call	__Unwind_Resume	 #
LEHE2:
LVL13:
LBE3:
	.cfi_endproc
LFE703:
	.def	___gxx_personality_v0;	.scl	2;	.type	32;	.endef
	.section	.gcc_except_table,"w"
LLSDA703:
	.byte	0xff
	.byte	0xff
	.byte	0x1
	.uleb128 LLSDACSE703-LLSDACSB703
LLSDACSB703:
	.uleb128 LEHB0-LFB703
	.uleb128 LEHE0-LEHB0
	.uleb128 0
	.uleb128 0
	.uleb128 LEHB1-LFB703
	.uleb128 LEHE1-LEHB1
	.uleb128 L7-LFB703
	.uleb128 0
	.uleb128 LEHB2-LFB703
	.uleb128 LEHE2-LEHB2
	.uleb128 0
	.uleb128 0
LLSDACSE703:
	.text
	.section	.text.unlikely,"x"
LCOLDE5:
	.text
LHOTE5:
	.globl	__ZN3stk11compression24__static_huff_compressorC1Ev
	.def	__ZN3stk11compression24__static_huff_compressorC1Ev;	.scl	2;	.type	32;	.endef
	.set	__ZN3stk11compression24__static_huff_compressorC1Ev,__ZN3stk11compression24__static_huff_compressorC2Ev
	.section	.text.unlikely,"x"
	.align 2
LCOLDB6:
	.text
LHOTB6:
	.align 2
	.p2align 4,,15
	.globl	__ZN3stk11compression24__static_huff_compressorD2Ev
	.def	__ZN3stk11compression24__static_huff_compressorD2Ev;	.scl	2;	.type	32;	.endef
__ZN3stk11compression24__static_huff_compressorD2Ev:
LFB706:
	.loc 1 40 0 is_stmt 1
	.cfi_startproc
	.cfi_personality 0,___gxx_personality_v0
	.cfi_lsda 0,LLSDA706
LVL14:
	pushl	%ebx	 #
	.cfi_def_cfa_offset 8
	.cfi_offset 3, -8
	movl	%ecx, %ebx	 # this, this
	subl	$760, %esp	 #,
	.cfi_def_cfa_offset 768
LBB4:
	.loc 1 43 0
	cmpb	$0, __ZGVZN3stk11compression24__static_huff_compressorD4EvE8__time_1	 #, MEM[(char *)&_ZGVZN3stk11compression24__static_huff_compressorD4EvE8__time_1]
	je	L25	 #,
LVL15:
L18:
	.loc 1 43 0 is_stmt 0 discriminator 2
	movl	__ZZN3stk11compression24__static_huff_compressorD4EvE14__entered_time, %edx	 # __entered_time, tmp101
	movl	$43, 12(%esp)	 #,
	movl	$LC1, 8(%esp)	 #,
	movl	$LC2+12, 4(%esp)	 #,
	movl	$LC3, (%esp)	 #,
	addl	$1, %edx	 #, D.30268
	movl	%edx, 16(%esp)	 # D.30268,
	movl	%edx, __ZZN3stk11compression24__static_huff_compressorD4EvE14__entered_time	 # D.30268, __entered_time
	call	__ZN3stk3con6printsEPKcz	 #
LVL16:
	.loc 1 46 0 is_stmt 1 discriminator 2
	movl	8(%ebx), %ecx	 # this_16(D)->frq, this_16(D)->frq
	movl	%ecx, (%esp)	 # this_16(D)->frq,
	call	__ZN3stk3mem4freeEPv@4	 #
	.cfi_def_cfa_offset 764
LVL17:
	.loc 1 47 0 discriminator 2
	movl	4(%ebx), %eax	 # this_16(D)->dad, this_16(D)->dad
	.loc 1 46 0 discriminator 2
	subl	$4, %esp	 #,
	.cfi_def_cfa_offset 768
	.loc 1 47 0 discriminator 2
	movl	%eax, (%esp)	 # this_16(D)->dad,
	call	__ZN3stk3mem4freeEPv@4	 #
	.cfi_def_cfa_offset 764
LVL18:
	.loc 1 48 0 discriminator 2
	movl	(%ebx), %ebx	 # this_16(D)->son, this_16(D)->son
LVL19:
	.loc 1 47 0 discriminator 2
	subl	$4, %esp	 #,
	.cfi_def_cfa_offset 768
	.loc 1 48 0 discriminator 2
	movl	%ebx, (%esp)	 # this_16(D)->son,
	call	__ZN3stk3mem4freeEPv@4	 #
	.cfi_def_cfa_offset 764
LVL20:
	subl	$4, %esp	 #,
	.cfi_def_cfa_offset 768
LBE4:
	.loc 1 49 0 discriminator 2
	addl	$760, %esp	 #,
	.cfi_remember_state
	.cfi_def_cfa_offset 8
	popl	%ebx	 #
	.cfi_restore 3
	.cfi_def_cfa_offset 4
	ret
LVL21:
	.p2align 4,,10
L25:
	.cfi_restore_state
LBB5:
	.loc 1 43 0 discriminator 1
	movl	$__ZGVZN3stk11compression24__static_huff_compressorD4EvE8__time_1, (%esp)	 #,
	call	___cxa_guard_acquire	 #
LVL22:
	testl	%eax, %eax	 # D.30268
	je	L18	 #,
	.loc 1 43 0 is_stmt 0 discriminator 3
	call	__ZN3stk4time7time_msEv@0	 #
LVL23:
	movl	%eax, 496(%esp)	 #, %sfp
	movl	%edx, 500(%esp)	 #, %sfp
	movl	500(%esp), %eax	 # %sfp,
	fildq	496(%esp)	 # %sfp
	testl	%eax, %eax	 #
	js	L26	 #,
L20:
	movl	$__ZGVZN3stk11compression24__static_huff_compressorD4EvE8__time_1, (%esp)	 #,
	fstpl	__ZZN3stk11compression24__static_huff_compressorD4EvE8__time_1	 # __time_1
	call	___cxa_guard_release	 #
LVL24:
	jmp	L18	 #
	.p2align 4,,10
L26:
	fadds	LC0	 #
	jmp	L20	 #
LBE5:
	.cfi_endproc
LFE706:
	.section	.gcc_except_table,"w"
LLSDA706:
	.byte	0xff
	.byte	0xff
	.byte	0x1
	.uleb128 LLSDACSE706-LLSDACSB706
LLSDACSB706:
LLSDACSE706:
	.text
	.section	.text.unlikely,"x"
LCOLDE6:
	.text
LHOTE6:
	.globl	__ZN3stk11compression24__static_huff_compressorD1Ev
	.def	__ZN3stk11compression24__static_huff_compressorD1Ev;	.scl	2;	.type	32;	.endef
	.set	__ZN3stk11compression24__static_huff_compressorD1Ev,__ZN3stk11compression24__static_huff_compressorD2Ev
	.section	.text.unlikely,"x"
	.align 2
LCOLDB11:
	.text
LHOTB11:
	.align 2
	.p2align 4,,15
	.globl	__ZN3stk11compression24__static_huff_compressor10initializeEv@4
	.def	__ZN3stk11compression24__static_huff_compressor10initializeEv@4;	.scl	2;	.type	32;	.endef
__ZN3stk11compression24__static_huff_compressor10initializeEv@4:
LFB708:
	.loc 1 53 0 is_stmt 1
	.cfi_startproc
	.cfi_personality 0,___gxx_personality_v0
	.cfi_lsda 0,LLSDA708
LVL25:
	pushl	%ebp	 #
	.cfi_def_cfa_offset 8
	.cfi_offset 5, -8
	pushl	%edi	 #
	.cfi_def_cfa_offset 12
	.cfi_offset 7, -12
	pushl	%esi	 #
	.cfi_def_cfa_offset 16
	.cfi_offset 6, -16
	pushl	%ebx	 #
	.cfi_def_cfa_offset 20
	.cfi_offset 3, -20
	subl	$748, %esp	 #,
	.cfi_def_cfa_offset 768
LBB6:
	.loc 1 55 0
	cmpb	$0, __ZGVZN3stk11compression24__static_huff_compressor10initializeEvE8__time_1	 #, MEM[(char *)&_ZGVZN3stk11compression24__static_huff_compressor10initializeEvE8__time_1]
LBE6:
	.loc 1 53 0
	movl	768(%esp), %ebx	 # this, this
LBB7:
	.loc 1 55 0
	je	L118	 #,
L29:
LVL26:
	.loc 1 55 0 is_stmt 0 discriminator 2
	movl	__ZZN3stk11compression24__static_huff_compressor10initializeEvE14__entered_time, %edx	 # __entered_time, tmp362
	movl	$55, 12(%esp)	 #,
	movl	$LC1, 8(%esp)	 #,
	movl	$LC2+12, 4(%esp)	 #,
	movl	$LC3, (%esp)	 #,
	addl	$1, %edx	 #, D.30368
	movl	%edx, 16(%esp)	 # D.30368,
	movl	%edx, __ZZN3stk11compression24__static_huff_compressor10initializeEvE14__entered_time	 # D.30368, __entered_time
LEHB3:
	call	__ZN3stk3con6printsEPKcz	 #
LEHE3:
LVL27:
	movl	8(%ebx), %eax	 # this_22(D)->frq, D.30372
	movl	(%ebx), %ecx	 # this_22(D)->son, D.30372
	movl	4(%ebx), %edx	 # this_22(D)->dad, D.30372
	leal	16(%eax), %ebp	 #, D.30372
	leal	16(%ecx), %ebx	 #, D.30372
	movl	%ecx, 464(%esp)	 # D.30372, %sfp
	leal	2060(%edx), %edi	 #, D.30372
	leal	2044(%edx), %esi	 #, D.30372
	cmpl	%ebp, %ecx	 # D.30372, D.30372
	setae	476(%esp)	 #, %sfp
	cmpl	%ebx, %eax	 # D.30372, D.30372
	movzbl	476(%esp), %ecx	 # %sfp, D.30374
	setae	476(%esp)	 #, %sfp
	orb	476(%esp), %cl	 # %sfp, D.30374
	cmpl	%edi, 464(%esp)	 # D.30372, %sfp
	setae	476(%esp)	 #, %sfp
	cmpl	%esi, %ebx	 # D.30372, D.30372
	setbe	%bl	 #, D.30374
	orb	476(%esp), %bl	 # %sfp, D.30374
	testb	%bl, %cl	 # D.30374, D.30374
	je	L42	 #,
	cmpl	%ebp, %esi	 # D.30372, D.30372
	setae	%cl	 #, D.30374
	cmpl	%edi, %eax	 # D.30372, D.30372
	setae	%bl	 #, D.30374
	orb	%bl, %cl	 # D.30374, tmp361
	je	L42	 #,
	movl	464(%esp), %edi	 # %sfp, D.30372
	movl	%edi, %esi	 # D.30372, D.30373
	andl	$15, %esi	 #, D.30373
	shrl	$2, %esi	 #, D.30373
	negl	%esi	 # D.30373
	andl	$3, %esi	 #, prolog_loop_niters.88
	je	L43	 #,
	cmpl	$1, %esi	 #, prolog_loop_niters.88
	.loc 1 62 0 is_stmt 1
	movl	$511, (%edi)	 #, *_80
	.loc 1 63 0
	movl	$0, 2044(%edx)	 #, MEM[(uint32_t *)_86 + 2044B]
	.loc 1 64 0
	movl	$1, (%eax)	 #, *_90
LVL28:
	je	L44	 #,
	cmpl	$3, %esi	 #, prolog_loop_niters.88
	.loc 1 62 0
	movl	$512, 4(%edi)	 #, MEM[(uint32_t *)_80 + 4B]
	.loc 1 63 0
	movl	$1, 2048(%edx)	 #, MEM[(uint32_t *)_86 + 2048B]
	.loc 1 64 0
	movl	$1, 4(%eax)	 #, MEM[(uint32_t *)_90 + 4B]
LVL29:
	jne	L45	 #,
	.loc 1 62 0
	movl	$513, 8(%edi)	 #, MEM[(uint32_t *)_80 + 8B]
	.loc 1 64 0
	movl	$253, 488(%esp)	 #, %sfp
	.loc 1 63 0
	movl	$2, 2052(%edx)	 #, MEM[(uint32_t *)_86 + 2052B]
	.loc 1 60 0
	movl	$3, 480(%esp)	 #, %sfp
	.loc 1 64 0
	movl	$1, 8(%eax)	 #, MEM[(uint32_t *)_90 + 8B]
LVL30:
L34:
	movl	$256, %ebp	 #, tmp197
	.loc 1 60 0
	movl	$252, 492(%esp)	 #, %sfp
	movl	$63, 484(%esp)	 #, %sfp
	subl	%esi, %ebp	 # prolog_loop_niters.88, niters.89
	movl	%ebp, 496(%esp)	 # niters.89, %sfp
L33:
	movl	464(%esp), %ecx	 # %sfp, D.30372
	sall	$2, %esi	 #, D.30371
	movd	480(%esp), %xmm6	 # %sfp, i
	leal	2044(%edx,%esi), %edi	 #, vectp_pretmp.105
	movl	$1, 476(%esp)	 #, %sfp
	pshufd	$0, %xmm6, %xmm0	 # i, D.30375
	movdqa	LC8, %xmm1	 #, vect_cst_.96
	leal	(%ecx,%esi), %ebp	 #, vectp_pretmp.103
	movl	484(%esp), %ecx	 # %sfp, bnd.90
	addl	%eax, %esi	 # D.30372, vectp_pretmp.108
	movdqa	LC9, %xmm3	 #, tmp218
	paddd	LC7, %xmm0	 #, vect_vec_iv_.97
	.loc 1 62 0
	movdqa	%xmm0, %xmm4	 # vect_vec_iv_.97, vect__27.99
	leal	-1(%ecx), %ebx	 #, tmp223
	movdqa	LC10, %xmm2	 #, tmp219
	paddd	%xmm3, %xmm4	 # tmp218, vect__27.99
	andl	$7, %ebx	 #, tmp225
	cmpl	%ecx, 476(%esp)	 # bnd.90, %sfp
	movaps	%xmm4, 0(%ebp)	 # vect__27.99, MEM[base: vectp_pretmp.103_284, index: ivtmp.143_190, offset: 0B]
	movl	%ebx, 500(%esp)	 # tmp225, %sfp
	movl	$16, %ebx	 #, ivtmp.143
	.loc 1 63 0
	movups	%xmm0, (%edi)	 # vect_vec_iv_.97, MEM[base: vectp_pretmp.105_29, index: ivtmp.143_190, offset: 0B]
	paddd	%xmm1, %xmm0	 # vect_cst_.96, vect_vec_iv_.97
	.loc 1 64 0
	movups	%xmm2, (%esi)	 # tmp219, MEM[base: vectp_pretmp.108_294, index: ivtmp.143_190, offset: 0B]
	jae	L113	 #,
	movl	500(%esp), %ecx	 # %sfp, tmp225
	testl	%ecx, %ecx	 # tmp225
	je	L116	 #,
	cmpl	$1, %ecx	 #, tmp225
	je	L96	 #,
	cmpl	$2, %ecx	 #, tmp225
	je	L97	 #,
	cmpl	$3, %ecx	 #, tmp225
	je	L98	 #,
	cmpl	$4, %ecx	 #, tmp225
	je	L99	 #,
	cmpl	$5, %ecx	 #, tmp225
	je	L100	 #,
	cmpl	$6, %ecx	 #, tmp225
	je	L101	 #,
	.loc 1 62 0
	movdqa	%xmm0, %xmm5	 # vect_vec_iv_.97, vect__27.99
	movl	$2, 476(%esp)	 #, %sfp
	movl	$32, %ebx	 #, ivtmp.143
	paddd	%xmm3, %xmm5	 # tmp218, vect__27.99
	movaps	%xmm5, 16(%ebp)	 # vect__27.99, MEM[base: vectp_pretmp.103_284, index: ivtmp.143_190, offset: 0B]
	.loc 1 63 0
	movups	%xmm0, 16(%edi)	 # vect_vec_iv_.97, MEM[base: vectp_pretmp.105_29, index: ivtmp.143_190, offset: 0B]
	paddd	%xmm1, %xmm0	 # vect_cst_.96, vect_vec_iv_.97
	.loc 1 64 0
	movups	%xmm2, 16(%esi)	 # tmp219, MEM[base: vectp_pretmp.108_294, index: ivtmp.143_190, offset: 0B]
L101:
	.loc 1 62 0
	movdqa	%xmm0, %xmm7	 # vect_vec_iv_.97, vect__27.99
	paddd	%xmm3, %xmm7	 # tmp218, vect__27.99
	movaps	%xmm7, 0(%ebp,%ebx)	 # vect__27.99, MEM[base: vectp_pretmp.103_284, index: ivtmp.143_190, offset: 0B]
	addl	$1, 476(%esp)	 #, %sfp
	.loc 1 63 0
	movups	%xmm0, (%edi,%ebx)	 # vect_vec_iv_.97, MEM[base: vectp_pretmp.105_29, index: ivtmp.143_190, offset: 0B]
	paddd	%xmm1, %xmm0	 # vect_cst_.96, vect_vec_iv_.97
	.loc 1 64 0
	movups	%xmm2, (%esi,%ebx)	 # tmp219, MEM[base: vectp_pretmp.108_294, index: ivtmp.143_190, offset: 0B]
	addl	$16, %ebx	 #, ivtmp.143
L100:
	.loc 1 62 0
	movdqa	%xmm0, %xmm6	 # vect_vec_iv_.97, vect__27.99
	addl	$1, 476(%esp)	 #, %sfp
	paddd	%xmm3, %xmm6	 # tmp218, vect__27.99
	movaps	%xmm6, 0(%ebp,%ebx)	 # vect__27.99, MEM[base: vectp_pretmp.103_284, index: ivtmp.143_190, offset: 0B]
	.loc 1 63 0
	movups	%xmm0, (%edi,%ebx)	 # vect_vec_iv_.97, MEM[base: vectp_pretmp.105_29, index: ivtmp.143_190, offset: 0B]
	paddd	%xmm1, %xmm0	 # vect_cst_.96, vect_vec_iv_.97
	.loc 1 64 0
	movups	%xmm2, (%esi,%ebx)	 # tmp219, MEM[base: vectp_pretmp.108_294, index: ivtmp.143_190, offset: 0B]
	addl	$16, %ebx	 #, ivtmp.143
L99:
	.loc 1 62 0
	movdqa	%xmm0, %xmm4	 # vect_vec_iv_.97, vect__27.99
	addl	$1, 476(%esp)	 #, %sfp
	paddd	%xmm3, %xmm4	 # tmp218, vect__27.99
	movaps	%xmm4, 0(%ebp,%ebx)	 # vect__27.99, MEM[base: vectp_pretmp.103_284, index: ivtmp.143_190, offset: 0B]
	.loc 1 63 0
	movups	%xmm0, (%edi,%ebx)	 # vect_vec_iv_.97, MEM[base: vectp_pretmp.105_29, index: ivtmp.143_190, offset: 0B]
	paddd	%xmm1, %xmm0	 # vect_cst_.96, vect_vec_iv_.97
	.loc 1 64 0
	movups	%xmm2, (%esi,%ebx)	 # tmp219, MEM[base: vectp_pretmp.108_294, index: ivtmp.143_190, offset: 0B]
	addl	$16, %ebx	 #, ivtmp.143
L98:
	.loc 1 62 0
	movdqa	%xmm0, %xmm5	 # vect_vec_iv_.97, vect__27.99
	addl	$1, 476(%esp)	 #, %sfp
	paddd	%xmm3, %xmm5	 # tmp218, vect__27.99
	movaps	%xmm5, 0(%ebp,%ebx)	 # vect__27.99, MEM[base: vectp_pretmp.103_284, index: ivtmp.143_190, offset: 0B]
	.loc 1 63 0
	movups	%xmm0, (%edi,%ebx)	 # vect_vec_iv_.97, MEM[base: vectp_pretmp.105_29, index: ivtmp.143_190, offset: 0B]
	paddd	%xmm1, %xmm0	 # vect_cst_.96, vect_vec_iv_.97
	.loc 1 64 0
	movups	%xmm2, (%esi,%ebx)	 # tmp219, MEM[base: vectp_pretmp.108_294, index: ivtmp.143_190, offset: 0B]
	addl	$16, %ebx	 #, ivtmp.143
L97:
	.loc 1 62 0
	movdqa	%xmm0, %xmm7	 # vect_vec_iv_.97, vect__27.99
	addl	$1, 476(%esp)	 #, %sfp
	paddd	%xmm3, %xmm7	 # tmp218, vect__27.99
	movaps	%xmm7, 0(%ebp,%ebx)	 # vect__27.99, MEM[base: vectp_pretmp.103_284, index: ivtmp.143_190, offset: 0B]
	.loc 1 63 0
	movups	%xmm0, (%edi,%ebx)	 # vect_vec_iv_.97, MEM[base: vectp_pretmp.105_29, index: ivtmp.143_190, offset: 0B]
	paddd	%xmm1, %xmm0	 # vect_cst_.96, vect_vec_iv_.97
	.loc 1 64 0
	movups	%xmm2, (%esi,%ebx)	 # tmp219, MEM[base: vectp_pretmp.108_294, index: ivtmp.143_190, offset: 0B]
	addl	$16, %ebx	 #, ivtmp.143
L96:
	.loc 1 62 0
	movdqa	%xmm0, %xmm6	 # vect_vec_iv_.97, vect__27.99
	addl	$1, 476(%esp)	 #, %sfp
	paddd	%xmm3, %xmm6	 # tmp218, vect__27.99
	movl	476(%esp), %ecx	 # %sfp, ivtmp.141
	movaps	%xmm6, 0(%ebp,%ebx)	 # vect__27.99, MEM[base: vectp_pretmp.103_284, index: ivtmp.143_190, offset: 0B]
	.loc 1 63 0
	movups	%xmm0, (%edi,%ebx)	 # vect_vec_iv_.97, MEM[base: vectp_pretmp.105_29, index: ivtmp.143_190, offset: 0B]
	paddd	%xmm1, %xmm0	 # vect_cst_.96, vect_vec_iv_.97
	.loc 1 64 0
	movups	%xmm2, (%esi,%ebx)	 # tmp219, MEM[base: vectp_pretmp.108_294, index: ivtmp.143_190, offset: 0B]
	addl	$16, %ebx	 #, ivtmp.143
	cmpl	484(%esp), %ecx	 # %sfp, ivtmp.141
	jae	L113	 #,
L116:
	movl	484(%esp), %ecx	 # %sfp, bnd.90
	movl	%edx, 484(%esp)	 # D.30372, %sfp
	movl	476(%esp), %edx	 # %sfp, ivtmp.141
	.p2align 4,,10
L35:
	movdqa	%xmm0, %xmm5	 # vect_vec_iv_.97, vect_vec_iv_.97
	.loc 1 62 0 discriminator 3
	movdqa	%xmm0, %xmm4	 # vect_vec_iv_.97, vect__27.99
	addl	$8, %edx	 #, ivtmp.141
	paddd	%xmm1, %xmm5	 # vect_cst_.96, vect_vec_iv_.97
	paddd	%xmm3, %xmm4	 # tmp218, vect__27.99
	movdqa	%xmm5, %xmm7	 # vect_vec_iv_.97, vect_vec_iv_.97
	movaps	%xmm4, 0(%ebp,%ebx)	 # vect__27.99, MEM[base: vectp_pretmp.103_284, index: ivtmp.143_190, offset: 0B]
	paddd	%xmm1, %xmm7	 # vect_cst_.96, vect_vec_iv_.97
	movdqa	%xmm7, %xmm6	 # vect_vec_iv_.97, vect_vec_iv_.97
	.loc 1 63 0 discriminator 3
	movups	%xmm0, (%edi,%ebx)	 # vect_vec_iv_.97, MEM[base: vectp_pretmp.105_29, index: ivtmp.143_190, offset: 0B]
	.loc 1 62 0 discriminator 3
	movdqa	%xmm5, %xmm0	 # vect_vec_iv_.97, vect__27.99
	paddd	%xmm1, %xmm6	 # vect_cst_.96, vect_vec_iv_.97
	.loc 1 64 0 discriminator 3
	movups	%xmm2, (%esi,%ebx)	 # tmp219, MEM[base: vectp_pretmp.108_294, index: ivtmp.143_190, offset: 0B]
	.loc 1 62 0 discriminator 3
	paddd	%xmm3, %xmm0	 # tmp218, vect__27.99
	movdqa	%xmm6, %xmm4	 # vect_vec_iv_.97, vect_vec_iv_.97
	movaps	%xmm0, 16(%ebp,%ebx)	 # vect__27.99, MEM[base: vectp_pretmp.103_284, index: ivtmp.143_190, offset: 0B]
	paddd	%xmm1, %xmm4	 # vect_cst_.96, vect_vec_iv_.97
	movdqa	%xmm4, %xmm0	 # vect_vec_iv_.97, vect_vec_iv_.97
	.loc 1 63 0 discriminator 3
	movups	%xmm5, 16(%edi,%ebx)	 # vect_vec_iv_.97, MEM[base: vectp_pretmp.105_29, index: ivtmp.143_190, offset: 0B]
	.loc 1 62 0 discriminator 3
	movdqa	%xmm7, %xmm5	 # vect_vec_iv_.97, vect__27.99
	paddd	%xmm1, %xmm0	 # vect_cst_.96, vect_vec_iv_.97
	.loc 1 64 0 discriminator 3
	movups	%xmm2, 16(%esi,%ebx)	 # tmp219, MEM[base: vectp_pretmp.108_294, index: ivtmp.143_190, offset: 0B]
	.loc 1 62 0 discriminator 3
	paddd	%xmm3, %xmm5	 # tmp218, vect__27.99
	movaps	%xmm5, 32(%ebp,%ebx)	 # vect__27.99, MEM[base: vectp_pretmp.103_284, index: ivtmp.143_190, offset: 0B]
	movdqa	%xmm0, %xmm5	 # vect_vec_iv_.97, vect__27.99
	.loc 1 63 0 discriminator 3
	movups	%xmm7, 32(%edi,%ebx)	 # vect_vec_iv_.97, MEM[base: vectp_pretmp.105_29, index: ivtmp.143_190, offset: 0B]
	.loc 1 62 0 discriminator 3
	movdqa	%xmm6, %xmm7	 # vect_vec_iv_.97, vect__27.99
	paddd	%xmm3, %xmm5	 # tmp218, vect__27.99
	.loc 1 64 0 discriminator 3
	movups	%xmm2, 32(%esi,%ebx)	 # tmp219, MEM[base: vectp_pretmp.108_294, index: ivtmp.143_190, offset: 0B]
	.loc 1 62 0 discriminator 3
	paddd	%xmm3, %xmm7	 # tmp218, vect__27.99
	movaps	%xmm7, 48(%ebp,%ebx)	 # vect__27.99, MEM[base: vectp_pretmp.103_284, index: ivtmp.143_190, offset: 0B]
	.loc 1 63 0 discriminator 3
	movups	%xmm6, 48(%edi,%ebx)	 # vect_vec_iv_.97, MEM[base: vectp_pretmp.105_29, index: ivtmp.143_190, offset: 0B]
	.loc 1 62 0 discriminator 3
	movdqa	%xmm4, %xmm6	 # vect_vec_iv_.97, vect__27.99
	.loc 1 64 0 discriminator 3
	movups	%xmm2, 48(%esi,%ebx)	 # tmp219, MEM[base: vectp_pretmp.108_294, index: ivtmp.143_190, offset: 0B]
	.loc 1 62 0 discriminator 3
	paddd	%xmm3, %xmm6	 # tmp218, vect__27.99
	movaps	%xmm6, 64(%ebp,%ebx)	 # vect__27.99, MEM[base: vectp_pretmp.103_284, index: ivtmp.143_190, offset: 0B]
	.loc 1 63 0 discriminator 3
	movups	%xmm4, 64(%edi,%ebx)	 # vect_vec_iv_.97, MEM[base: vectp_pretmp.105_29, index: ivtmp.143_190, offset: 0B]
	movdqa	%xmm0, %xmm4	 # vect_vec_iv_.97, vect_vec_iv_.97
	.loc 1 64 0 discriminator 3
	movups	%xmm2, 64(%esi,%ebx)	 # tmp219, MEM[base: vectp_pretmp.108_294, index: ivtmp.143_190, offset: 0B]
	paddd	%xmm1, %xmm4	 # vect_cst_.96, vect_vec_iv_.97
	.loc 1 62 0 discriminator 3
	movdqa	%xmm4, %xmm7	 # vect_vec_iv_.97, vect__27.99
	movaps	%xmm5, 80(%ebp,%ebx)	 # vect__27.99, MEM[base: vectp_pretmp.103_284, index: ivtmp.143_190, offset: 0B]
	paddd	%xmm3, %xmm7	 # tmp218, vect__27.99
	.loc 1 63 0 discriminator 3
	movups	%xmm0, 80(%edi,%ebx)	 # vect_vec_iv_.97, MEM[base: vectp_pretmp.105_29, index: ivtmp.143_190, offset: 0B]
	movdqa	%xmm4, %xmm0	 # vect_vec_iv_.97, vect_vec_iv_.97
	.loc 1 64 0 discriminator 3
	movups	%xmm2, 80(%esi,%ebx)	 # tmp219, MEM[base: vectp_pretmp.108_294, index: ivtmp.143_190, offset: 0B]
	paddd	%xmm1, %xmm0	 # vect_cst_.96, vect_vec_iv_.97
	.loc 1 62 0 discriminator 3
	movdqa	%xmm0, %xmm6	 # vect_vec_iv_.97, vect__27.99
	movaps	%xmm7, 96(%ebp,%ebx)	 # vect__27.99, MEM[base: vectp_pretmp.103_284, index: ivtmp.143_190, offset: 0B]
	paddd	%xmm3, %xmm6	 # tmp218, vect__27.99
	.loc 1 63 0 discriminator 3
	movups	%xmm4, 96(%edi,%ebx)	 # vect_vec_iv_.97, MEM[base: vectp_pretmp.105_29, index: ivtmp.143_190, offset: 0B]
	.loc 1 64 0 discriminator 3
	movups	%xmm2, 96(%esi,%ebx)	 # tmp219, MEM[base: vectp_pretmp.108_294, index: ivtmp.143_190, offset: 0B]
	.loc 1 62 0 discriminator 3
	movaps	%xmm6, 112(%ebp,%ebx)	 # vect__27.99, MEM[base: vectp_pretmp.103_284, index: ivtmp.143_190, offset: 0B]
	.loc 1 63 0 discriminator 3
	movups	%xmm0, 112(%edi,%ebx)	 # vect_vec_iv_.97, MEM[base: vectp_pretmp.105_29, index: ivtmp.143_190, offset: 0B]
	paddd	%xmm1, %xmm0	 # vect_cst_.96, vect_vec_iv_.97
	.loc 1 64 0 discriminator 3
	movups	%xmm2, 112(%esi,%ebx)	 # tmp219, MEM[base: vectp_pretmp.108_294, index: ivtmp.143_190, offset: 0B]
	subl	$-128, %ebx	 #, ivtmp.143
	cmpl	%ecx, %edx	 # bnd.90, ivtmp.141
	jb	L35	 #,
	movl	484(%esp), %edx	 # %sfp, D.30372
L113:
	movl	492(%esp), %ebp	 # %sfp, ratio_mult_vf.91
	movl	480(%esp), %ebx	 # %sfp, i
	movl	488(%esp), %esi	 # %sfp, D.30373
	addl	%ebp, %ebx	 # ratio_mult_vf.91, i
	subl	%ebp, %esi	 # ratio_mult_vf.91, D.30373
	cmpl	%ebp, 496(%esp)	 # ratio_mult_vf.91, %sfp
	je	L39	 #,
LVL31:
	.loc 1 62 0
	movl	464(%esp), %ecx	 # %sfp, D.30372
	leal	511(%ebx), %edi	 #, tmp205
	.loc 1 60 0
	cmpl	$1, %esi	 #, D.30373
	.loc 1 62 0
	movl	%edi, (%ecx,%ebx,4)	 # tmp205, *_35
	.loc 1 63 0
	movl	%ebx, 2044(%edx,%ebx,4)	 # i, *_25
	.loc 1 60 0
	leal	1(%ebx), %edi	 #, i
LVL32:
	.loc 1 64 0
	movl	$1, (%eax,%ebx,4)	 #, *_27
	.loc 1 60 0
	je	L39	 #,
	.loc 1 62 0
	leal	512(%ebx), %ebp	 #, tmp207
	.loc 1 60 0
	cmpl	$2, %esi	 #, D.30373
	.loc 1 62 0
	movl	%ebp, (%ecx,%edi,4)	 # tmp207, *_140
	.loc 1 63 0
	movl	%edi, 2044(%edx,%edi,4)	 # i, *_165
	.loc 1 64 0
	movl	$1, (%eax,%edi,4)	 #, *_50
	.loc 1 60 0
	leal	2(%ebx), %edi	 #, i
LVL33:
	je	L39	 #,
	.loc 1 62 0
	movl	464(%esp), %esi	 # %sfp, D.30372
	addl	$513, %ebx	 #, tmp204
	movl	%ebx, (%esi,%edi,4)	 # tmp204, *_248
	.loc 1 63 0
	movl	%edi, 2044(%edx,%edi,4)	 # i, *_254
	.loc 1 64 0
	movl	$1, (%eax,%edi,4)	 #, *_256
LVL34:
L39:
	movl	464(%esp), %ecx	 # %sfp, D.30372
	movl	$0, 1024(%ecx)	 #, MEM[base: _80, index: _110, step: 4, offset: 0B]
	.loc 1 70 0
	movl	$256, (%edx)	 #, MEM[base: _86, index: _110, step: 8, offset: 4294965248B]
	.loc 1 71 0
	movl	$256, 4(%edx)	 #, MEM[base: _86, index: _110, step: 8, offset: 4294965252B]
	.loc 1 72 0
	movl	(%eax), %ebx	 # MEM[base: _90, index: _110, step: 8, offset: 4294965248B], MEM[base: _90, index: _110, step: 8, offset: 4294965248B]
	addl	4(%eax), %ebx	 # MEM[base: _90, index: _110, step: 8, offset: 4294965252B], D.30366
	movl	%ebx, 1024(%eax)	 # D.30366, MEM[base: _90, index: _110, step: 4, offset: 0B]
	movl	$2, 1028(%ecx)	 #, MEM[base: _80, index: _110, step: 4, offset: 0B]
	.loc 1 67 0
	movl	$259, %ebx	 #, e
	.loc 1 70 0
	movl	$257, 8(%edx)	 #, MEM[base: _86, index: _110, step: 8, offset: 4294965248B]
	.loc 1 71 0
	movl	$257, 12(%edx)	 #, MEM[base: _86, index: _110, step: 8, offset: 4294965252B]
	.loc 1 72 0
	movl	8(%eax), %esi	 # MEM[base: _90, index: _110, step: 8, offset: 4294965248B], MEM[base: _90, index: _110, step: 8, offset: 4294965248B]
	addl	12(%eax), %esi	 # MEM[base: _90, index: _110, step: 8, offset: 4294965252B], D.30366
	movl	%esi, 1028(%eax)	 # D.30366, MEM[base: _90, index: _110, step: 4, offset: 0B]
	movl	$4, 1032(%ecx)	 #, MEM[base: _80, index: _110, step: 4, offset: 0B]
	.loc 1 70 0
	movl	$258, 16(%edx)	 #, MEM[base: _86, index: _110, step: 8, offset: 4294965248B]
	.loc 1 71 0
	movl	$258, 20(%edx)	 #, MEM[base: _86, index: _110, step: 8, offset: 4294965252B]
	.loc 1 72 0
	movl	16(%eax), %ebp	 # MEM[base: _90, index: _110, step: 8, offset: 4294965248B], MEM[base: _90, index: _110, step: 8, offset: 4294965248B]
	addl	20(%eax), %ebp	 # MEM[base: _90, index: _110, step: 8, offset: 4294965252B], D.30366
	movl	%ebp, 1032(%eax)	 # D.30366, MEM[base: _90, index: _110, step: 4, offset: 0B]
LVL35:
L40:
	leal	-512(%ebx,%ebx), %edi	 #, tmp296
	.loc 1 67 0
	leal	1(%ebx), %ebp	 #, tmp221
	movl	%edi, (%ecx,%ebx,4)	 # tmp296, MEM[base: _80, index: _110, step: 4, offset: 0B]
	.loc 1 70 0
	movl	%ebx, -2048(%edx,%ebx,8)	 # e, MEM[base: _86, index: _110, step: 8, offset: 4294965248B]
	leal	-510(%ebx,%ebx), %edi	 #, tmp302
	.loc 1 71 0
	movl	%ebx, -2044(%edx,%ebx,8)	 # e, MEM[base: _86, index: _110, step: 8, offset: 4294965252B]
	.loc 1 72 0
	movl	-2048(%eax,%ebx,8), %esi	 # MEM[base: _90, index: _110, step: 8, offset: 4294965248B], MEM[base: _90, index: _110, step: 8, offset: 4294965248B]
	addl	-2044(%eax,%ebx,8), %esi	 # MEM[base: _90, index: _110, step: 8, offset: 4294965252B], D.30366
	movl	%esi, (%eax,%ebx,4)	 # D.30366, MEM[base: _90, index: _110, step: 4, offset: 0B]
LVL36:
	movl	%edi, (%ecx,%ebp,4)	 # tmp302, MEM[base: _80, index: _110, step: 4, offset: 0B]
	leal	-508(%ebx,%ebx), %edi	 #, tmp308
	.loc 1 70 0
	movl	%ebp, -2048(%edx,%ebp,8)	 # tmp221, MEM[base: _86, index: _110, step: 8, offset: 4294965248B]
	.loc 1 71 0
	movl	%ebp, -2044(%edx,%ebp,8)	 # tmp221, MEM[base: _86, index: _110, step: 8, offset: 4294965252B]
	.loc 1 72 0
	movl	-2048(%eax,%ebp,8), %esi	 # MEM[base: _90, index: _110, step: 8, offset: 4294965248B], MEM[base: _90, index: _110, step: 8, offset: 4294965248B]
	addl	-2044(%eax,%ebp,8), %esi	 # MEM[base: _90, index: _110, step: 8, offset: 4294965252B], D.30366
	movl	%esi, (%eax,%ebp,4)	 # D.30366, MEM[base: _90, index: _110, step: 4, offset: 0B]
LVL37:
	.loc 1 67 0
	leal	2(%ebx), %ebp	 #, e
LVL38:
	movl	%edi, (%ecx,%ebp,4)	 # tmp308, MEM[base: _80, index: _110, step: 4, offset: 0B]
	.loc 1 70 0
	movl	%ebp, -2048(%edx,%ebp,8)	 # e, MEM[base: _86, index: _110, step: 8, offset: 4294965248B]
	leal	-506(%ebx,%ebx), %edi	 #, tmp314
	.loc 1 71 0
	movl	%ebp, -2044(%edx,%ebp,8)	 # e, MEM[base: _86, index: _110, step: 8, offset: 4294965252B]
	.loc 1 72 0
	movl	-2048(%eax,%ebp,8), %esi	 # MEM[base: _90, index: _110, step: 8, offset: 4294965248B], MEM[base: _90, index: _110, step: 8, offset: 4294965248B]
	addl	-2044(%eax,%ebp,8), %esi	 # MEM[base: _90, index: _110, step: 8, offset: 4294965252B], D.30366
	movl	%esi, (%eax,%ebp,4)	 # D.30366, MEM[base: _90, index: _110, step: 4, offset: 0B]
LVL39:
	.loc 1 67 0
	leal	3(%ebx), %ebp	 #, e
LVL40:
	movl	%edi, (%ecx,%ebp,4)	 # tmp314, MEM[base: _80, index: _110, step: 4, offset: 0B]
	.loc 1 70 0
	movl	%ebp, -2048(%edx,%ebp,8)	 # e, MEM[base: _86, index: _110, step: 8, offset: 4294965248B]
	leal	-504(%ebx,%ebx), %edi	 #, tmp320
	.loc 1 71 0
	movl	%ebp, -2044(%edx,%ebp,8)	 # e, MEM[base: _86, index: _110, step: 8, offset: 4294965252B]
	.loc 1 72 0
	movl	-2048(%eax,%ebp,8), %esi	 # MEM[base: _90, index: _110, step: 8, offset: 4294965248B], MEM[base: _90, index: _110, step: 8, offset: 4294965248B]
	addl	-2044(%eax,%ebp,8), %esi	 # MEM[base: _90, index: _110, step: 8, offset: 4294965252B], D.30366
	movl	%esi, (%eax,%ebp,4)	 # D.30366, MEM[base: _90, index: _110, step: 4, offset: 0B]
LVL41:
	.loc 1 67 0
	leal	4(%ebx), %ebp	 #, e
LVL42:
	movl	%edi, (%ecx,%ebp,4)	 # tmp320, MEM[base: _80, index: _110, step: 4, offset: 0B]
	.loc 1 70 0
	movl	%ebp, -2048(%edx,%ebp,8)	 # e, MEM[base: _86, index: _110, step: 8, offset: 4294965248B]
	leal	-502(%ebx,%ebx), %edi	 #, tmp326
	.loc 1 71 0
	movl	%ebp, -2044(%edx,%ebp,8)	 # e, MEM[base: _86, index: _110, step: 8, offset: 4294965252B]
	.loc 1 72 0
	movl	-2048(%eax,%ebp,8), %esi	 # MEM[base: _90, index: _110, step: 8, offset: 4294965248B], MEM[base: _90, index: _110, step: 8, offset: 4294965248B]
	addl	-2044(%eax,%ebp,8), %esi	 # MEM[base: _90, index: _110, step: 8, offset: 4294965252B], D.30366
	movl	%esi, (%eax,%ebp,4)	 # D.30366, MEM[base: _90, index: _110, step: 4, offset: 0B]
LVL43:
	.loc 1 67 0
	leal	5(%ebx), %ebp	 #, e
LVL44:
	addl	$6, %ebx	 #, e
	movl	%edi, (%ecx,%ebp,4)	 # tmp326, MEM[base: _80, index: _110, step: 4, offset: 0B]
	.loc 1 70 0
	movl	%ebp, -2048(%edx,%ebp,8)	 # e, MEM[base: _86, index: _110, step: 8, offset: 4294965248B]
	.loc 1 71 0
	movl	%ebp, -2044(%edx,%ebp,8)	 # e, MEM[base: _86, index: _110, step: 8, offset: 4294965252B]
	.loc 1 72 0
	movl	-2048(%eax,%ebp,8), %esi	 # MEM[base: _90, index: _110, step: 8, offset: 4294965248B], MEM[base: _90, index: _110, step: 8, offset: 4294965248B]
	addl	-2044(%eax,%ebp,8), %esi	 # MEM[base: _90, index: _110, step: 8, offset: 4294965252B], D.30366
	.loc 1 67 0
	cmpl	$511, %ebx	 #, e
	.loc 1 72 0
	movl	%esi, (%eax,%ebp,4)	 # D.30366, MEM[base: _90, index: _110, step: 4, offset: 0B]
LVL45:
	.loc 1 67 0
	jne	L40	 #,
	.loc 1 74 0
	movl	$1073741823, 2040(%edx)	 #, MEM[(uint32_t *)_86 + 2040B]
	.loc 1 76 0
	movl	$268435456, 2044(%eax)	 #, MEM[(uint32_t *)_90 + 2044B]
LBE7:
	.loc 1 80 0
	addl	$748, %esp	 #,
	.cfi_remember_state
	.cfi_def_cfa_offset 20
	popl	%ebx	 #
	.cfi_restore 3
	.cfi_def_cfa_offset 16
	popl	%esi	 #
	.cfi_restore 6
	.cfi_def_cfa_offset 12
	popl	%edi	 #
	.cfi_restore 7
	.cfi_def_cfa_offset 8
	popl	%ebp	 #
	.cfi_restore 5
	.cfi_def_cfa_offset 4
	ret	$4	 #
LVL46:
	.p2align 4,,10
L118:
	.cfi_restore_state
LBB8:
	.loc 1 55 0 discriminator 1
	movl	$__ZGVZN3stk11compression24__static_huff_compressor10initializeEvE8__time_1, (%esp)	 #,
	call	___cxa_guard_acquire	 #
LVL47:
	testl	%eax, %eax	 # D.30368
	je	L29	 #,
LEHB4:
	.loc 1 55 0 is_stmt 0 discriminator 3
	call	__ZN3stk4time7time_msEv@0	 #
LEHE4:
LVL48:
	movl	%eax, 464(%esp)	 #, %sfp
	movl	%edx, 468(%esp)	 #, %sfp
	movl	468(%esp), %eax	 # %sfp,
	fildq	464(%esp)	 # %sfp
	testl	%eax, %eax	 #
	js	L119	 #,
L31:
	.loc 1 55 0 discriminator 5
	movl	$__ZGVZN3stk11compression24__static_huff_compressor10initializeEvE8__time_1, (%esp)	 #,
	fstpl	__ZZN3stk11compression24__static_huff_compressor10initializeEvE8__time_1	 # __time_1
	call	___cxa_guard_release	 #
LVL49:
	jmp	L29	 #
LVL50:
	.p2align 4,,10
L43:
	.loc 1 55 0
	movl	$256, 492(%esp)	 #, %sfp
	movl	$64, 484(%esp)	 #, %sfp
	movl	$256, 496(%esp)	 #, %sfp
	movl	$256, 488(%esp)	 #, %sfp
	.loc 1 60 0 is_stmt 1
	movl	$0, 480(%esp)	 #, %sfp
	jmp	L33	 #
	.p2align 4,,10
L42:
	.loc 1 55 0
	movl	464(%esp), %ecx	 # %sfp, D.30372
	xorl	%ebx, %ebx	 # i
LVL51:
	.p2align 4,,10
L32:
	.loc 1 60 0
	leal	1(%ebx), %esi	 #, tmp222
	leal	511(%ebx), %ebp	 #, tmp208
	leal	512(%ebx), %edi	 #, tmp269
	movl	%ebp, (%ecx,%ebx,4)	 # tmp208, MEM[base: _80, index: _189, step: 4, offset: 0B]
	.loc 1 63 0
	movl	%ebx, 2044(%edx,%ebx,4)	 # i, MEM[base: _86, index: _189, step: 4, offset: 2044B]
	.loc 1 60 0
	leal	2(%ebx), %ebp	 #, i
	.loc 1 64 0
	movl	$1, (%eax,%ebx,4)	 #, MEM[base: _90, index: _189, step: 4, offset: 0B]
	movl	%edi, (%ecx,%esi,4)	 # tmp269, MEM[base: _80, index: _189, step: 4, offset: 0B]
	leal	514(%ebx), %edi	 #, tmp273
	.loc 1 63 0
	movl	%esi, 2044(%edx,%esi,4)	 # tmp222, MEM[base: _86, index: _189, step: 4, offset: 2044B]
	.loc 1 64 0
	movl	$1, (%eax,%esi,4)	 #, MEM[base: _90, index: _189, step: 4, offset: 0B]
	leal	513(%ebx), %esi	 #, tmp271
	movl	%esi, (%ecx,%ebp,4)	 # tmp271, MEM[base: _80, index: _189, step: 4, offset: 0B]
	.loc 1 63 0
	movl	%ebp, 2044(%edx,%ebp,4)	 # i, MEM[base: _86, index: _189, step: 4, offset: 2044B]
	.loc 1 60 0
	leal	4(%ebx), %esi	 #, i
	.loc 1 64 0
	movl	$1, (%eax,%ebp,4)	 #, MEM[base: _90, index: _189, step: 4, offset: 0B]
	.loc 1 60 0
	leal	3(%ebx), %ebp	 #, i
	movl	%edi, (%ecx,%ebp,4)	 # tmp273, MEM[base: _80, index: _189, step: 4, offset: 0B]
	.loc 1 63 0
	movl	%ebp, 2044(%edx,%ebp,4)	 # i, MEM[base: _86, index: _189, step: 4, offset: 2044B]
	leal	516(%ebx), %edi	 #, tmp277
	.loc 1 64 0
	movl	$1, (%eax,%ebp,4)	 #, MEM[base: _90, index: _189, step: 4, offset: 0B]
	leal	515(%ebx), %ebp	 #, tmp275
	movl	%ebp, (%ecx,%esi,4)	 # tmp275, MEM[base: _80, index: _189, step: 4, offset: 0B]
	.loc 1 63 0
	movl	%esi, 2044(%edx,%esi,4)	 # i, MEM[base: _86, index: _189, step: 4, offset: 2044B]
	.loc 1 60 0
	leal	6(%ebx), %ebp	 #, i
	.loc 1 64 0
	movl	$1, (%eax,%esi,4)	 #, MEM[base: _90, index: _189, step: 4, offset: 0B]
	.loc 1 60 0
	leal	5(%ebx), %esi	 #, i
	movl	%edi, (%ecx,%esi,4)	 # tmp277, MEM[base: _80, index: _189, step: 4, offset: 0B]
	.loc 1 63 0
	movl	%esi, 2044(%edx,%esi,4)	 # i, MEM[base: _86, index: _189, step: 4, offset: 2044B]
	leal	518(%ebx), %edi	 #, tmp281
	.loc 1 64 0
	movl	$1, (%eax,%esi,4)	 #, MEM[base: _90, index: _189, step: 4, offset: 0B]
	leal	517(%ebx), %esi	 #, tmp279
	movl	%esi, (%ecx,%ebp,4)	 # tmp279, MEM[base: _80, index: _189, step: 4, offset: 0B]
	.loc 1 63 0
	movl	%ebp, 2044(%edx,%ebp,4)	 # i, MEM[base: _86, index: _189, step: 4, offset: 2044B]
	.loc 1 64 0
	movl	$1, (%eax,%ebp,4)	 #, MEM[base: _90, index: _189, step: 4, offset: 0B]
	.loc 1 60 0
	leal	7(%ebx), %ebp	 #, i
	addl	$8, %ebx	 #, i
	cmpl	$256, %ebx	 #, i
	movl	%edi, (%ecx,%ebp,4)	 # tmp281, MEM[base: _80, index: _189, step: 4, offset: 0B]
	.loc 1 63 0
	movl	%ebp, 2044(%edx,%ebp,4)	 # i, MEM[base: _86, index: _189, step: 4, offset: 2044B]
	.loc 1 64 0
	movl	$1, (%eax,%ebp,4)	 #, MEM[base: _90, index: _189, step: 4, offset: 0B]
LVL52:
	.loc 1 60 0
	jne	L32	 #,
	movl	%ecx, 464(%esp)	 # D.30372, %sfp
	jmp	L39	 #
LVL53:
	.p2align 4,,10
L44:
	.loc 1 64 0
	movl	$255, 488(%esp)	 #, %sfp
	.loc 1 60 0
	movl	$1, 480(%esp)	 #, %sfp
	jmp	L34	 #
LVL54:
	.p2align 4,,10
L45:
	.loc 1 64 0
	movl	$254, 488(%esp)	 #, %sfp
	.loc 1 60 0
	movl	$2, 480(%esp)	 #, %sfp
	jmp	L34	 #
LVL55:
L119:
	.loc 1 55 0 discriminator 5
	fadds	LC0	 #
	jmp	L31	 #
L46:
	movl	%eax, %ebx	 #, tmp217
	.loc 1 55 0 is_stmt 0
	movl	$__ZGVZN3stk11compression24__static_huff_compressor10initializeEvE8__time_1, (%esp)	 #,
	call	___cxa_guard_abort	 #
LVL56:
	movl	%ebx, (%esp)	 # tmp217,
LEHB5:
	call	__Unwind_Resume	 #
LEHE5:
LVL57:
LBE8:
	.cfi_endproc
LFE708:
	.section	.gcc_except_table,"w"
LLSDA708:
	.byte	0xff
	.byte	0xff
	.byte	0x1
	.uleb128 LLSDACSE708-LLSDACSB708
LLSDACSB708:
	.uleb128 LEHB3-LFB708
	.uleb128 LEHE3-LEHB3
	.uleb128 0
	.uleb128 0
	.uleb128 LEHB4-LFB708
	.uleb128 LEHE4-LEHB4
	.uleb128 L46-LFB708
	.uleb128 0
	.uleb128 LEHB5-LFB708
	.uleb128 LEHE5-LEHB5
	.uleb128 0
	.uleb128 0
LLSDACSE708:
	.text
	.section	.text.unlikely,"x"
LCOLDE11:
	.text
LHOTE11:
	.section	.text.unlikely,"x"
	.align 2
LCOLDB12:
	.text
LHOTB12:
	.align 2
	.p2align 4,,15
	.globl	__ZN3stk11compression24__static_huff_compressor11reconstructEv@4
	.def	__ZN3stk11compression24__static_huff_compressor11reconstructEv@4;	.scl	2;	.type	32;	.endef
__ZN3stk11compression24__static_huff_compressor11reconstructEv@4:
LFB712:
	.loc 1 192 0 is_stmt 1
	.cfi_startproc
	.cfi_personality 0,___gxx_personality_v0
	.cfi_lsda 0,LLSDA712
LVL58:
	pushl	%ebp	 #
	.cfi_def_cfa_offset 8
	.cfi_offset 5, -8
	pushl	%edi	 #
	.cfi_def_cfa_offset 12
	.cfi_offset 7, -12
	pushl	%esi	 #
	.cfi_def_cfa_offset 16
	.cfi_offset 6, -16
	pushl	%ebx	 #
	.cfi_def_cfa_offset 20
	.cfi_offset 3, -20
	subl	$748, %esp	 #,
	.cfi_def_cfa_offset 768
LBB9:
	.loc 1 194 0
	cmpb	$0, __ZGVZN3stk11compression24__static_huff_compressor11reconstructEvE8__time_1	 #, MEM[(char *)&_ZGVZN3stk11compression24__static_huff_compressor11reconstructEvE8__time_1]
	je	L214	 #,
L122:
LVL59:
	.loc 1 194 0 is_stmt 0 discriminator 2
	movl	__ZZN3stk11compression24__static_huff_compressor11reconstructEvE14__entered_time, %edx	 # __entered_time, tmp280
	movl	$194, 12(%esp)	 #,
	.loc 1 199 0 is_stmt 1 discriminator 2
	xorl	%ebp, %ebp	 # e
	.loc 1 194 0 discriminator 2
	movl	$LC1, 8(%esp)	 #,
	movl	$LC2+12, 4(%esp)	 #,
	movl	$LC3, (%esp)	 #,
	addl	$1, %edx	 #, D.30428
	movl	%edx, 16(%esp)	 # D.30428,
	movl	%edx, __ZZN3stk11compression24__static_huff_compressor11reconstructEvE14__entered_time	 # D.30428, __entered_time
LEHB6:
	call	__ZN3stk3con6printsEPKcz	 #
LVL60:
	movl	768(%esp), %ecx	 # this, tmp281
	movl	(%ecx), %edx	 # this_30(D)->son, D.30432
	movl	8(%ecx), %eax	 # this_30(D)->frq, this_30(D)->frq
	.loc 1 201 0 discriminator 2
	movl	(%edx), %ebx	 # MEM[base: _166, index: i_110, step: 4, offset: 0B], D.30431
	cmpl	$510, %ebx	 #, D.30431
	jbe	L163	 #,
	.loc 1 202 0
	movl	%ebx, (%edx,%ebp)	 # D.30431, *_36
	.loc 1 203 0
	movl	(%eax), %edi	 # MEM[base: _200, index: i_110, step: 4, offset: 0B], tmp296
	leal	1(%edi), %esi	 #, D.30431
	shrl	%esi	 # tmp210
	movl	%esi, (%eax,%ebp)	 # tmp210, *_39
	.loc 1 204 0
	movl	$1, %ebp	 #, e
LVL61:
L163:
	.loc 1 199 0
	movl	$1, %ecx	 #, i
	.p2align 4,,10
L126:
	.loc 1 201 0
	movl	(%edx,%ecx,4), %ebx	 # MEM[base: _166, index: i_110, step: 4, offset: 0B], D.30431
	cmpl	$510, %ebx	 #, D.30431
	jbe	L125	 #,
	.loc 1 202 0
	movl	%ebx, (%edx,%ebp,4)	 # D.30431, *_36
	.loc 1 203 0
	movl	(%eax,%ecx,4), %edi	 # MEM[base: _200, index: i_110, step: 4, offset: 0B], tmp283
	leal	1(%edi), %esi	 #, D.30431
	shrl	%esi	 # tmp154
	movl	%esi, (%eax,%ebp,4)	 # tmp154, *_39
	.loc 1 204 0
	addl	$1, %ebp	 #, e
LVL62:
L125:
	.loc 1 199 0 discriminator 2
	addl	$1, %ecx	 #, tmp172
	.loc 1 201 0 discriminator 2
	movl	(%edx,%ecx,4), %ebx	 # MEM[base: _166, index: i_110, step: 4, offset: 0B], D.30431
	cmpl	$510, %ebx	 #, D.30431
	jbe	L165	 #,
	.loc 1 202 0
	movl	%ebx, (%edx,%ebp,4)	 # D.30431, *_36
	.loc 1 203 0
	movl	(%eax,%ecx,4), %edi	 # MEM[base: _200, index: i_110, step: 4, offset: 0B], tmp297
	leal	1(%edi), %esi	 #, D.30431
	shrl	%esi	 # tmp214
	movl	%esi, (%eax,%ebp,4)	 # tmp214, *_39
	.loc 1 204 0
	addl	$1, %ebp	 #, e
LVL63:
L165:
	.loc 1 199 0
	leal	1(%ecx), %ebx	 #, i
	.loc 1 201 0
	movl	(%edx,%ebx,4), %edi	 # MEM[base: _166, index: i_110, step: 4, offset: 0B], D.30431
	cmpl	$510, %edi	 #, D.30431
	jbe	L167	 #,
	.loc 1 202 0
	movl	%edi, (%edx,%ebp,4)	 # D.30431, *_36
	.loc 1 203 0
	movl	(%eax,%ebx,4), %esi	 # MEM[base: _200, index: i_110, step: 4, offset: 0B], MEM[base: _200, index: i_110, step: 4, offset: 0B]
	addl	$1, %esi	 #, D.30431
	shrl	%esi	 # tmp220
	movl	%esi, (%eax,%ebp,4)	 # tmp220, *_39
	.loc 1 204 0
	addl	$1, %ebp	 #, e
LVL64:
L167:
	.loc 1 199 0
	leal	2(%ecx), %ebx	 #, i
	.loc 1 201 0
	movl	(%edx,%ebx,4), %edi	 # MEM[base: _166, index: i_110, step: 4, offset: 0B], D.30431
	cmpl	$510, %edi	 #, D.30431
	jbe	L169	 #,
	.loc 1 202 0
	movl	%edi, (%edx,%ebp,4)	 # D.30431, *_36
	.loc 1 203 0
	movl	(%eax,%ebx,4), %esi	 # MEM[base: _200, index: i_110, step: 4, offset: 0B], MEM[base: _200, index: i_110, step: 4, offset: 0B]
	addl	$1, %esi	 #, D.30431
	shrl	%esi	 # tmp226
	movl	%esi, (%eax,%ebp,4)	 # tmp226, *_39
	.loc 1 204 0
	addl	$1, %ebp	 #, e
LVL65:
L169:
	.loc 1 199 0
	leal	3(%ecx), %ebx	 #, i
	.loc 1 201 0
	movl	(%edx,%ebx,4), %edi	 # MEM[base: _166, index: i_110, step: 4, offset: 0B], D.30431
	cmpl	$510, %edi	 #, D.30431
	jbe	L171	 #,
	.loc 1 202 0
	movl	%edi, (%edx,%ebp,4)	 # D.30431, *_36
	.loc 1 203 0
	movl	(%eax,%ebx,4), %esi	 # MEM[base: _200, index: i_110, step: 4, offset: 0B], MEM[base: _200, index: i_110, step: 4, offset: 0B]
	addl	$1, %esi	 #, D.30431
	shrl	%esi	 # tmp232
	movl	%esi, (%eax,%ebp,4)	 # tmp232, *_39
	.loc 1 204 0
	addl	$1, %ebp	 #, e
LVL66:
L171:
	.loc 1 199 0
	leal	4(%ecx), %ebx	 #, i
	.loc 1 201 0
	movl	(%edx,%ebx,4), %edi	 # MEM[base: _166, index: i_110, step: 4, offset: 0B], D.30431
	cmpl	$510, %edi	 #, D.30431
	jbe	L173	 #,
	.loc 1 202 0
	movl	%edi, (%edx,%ebp,4)	 # D.30431, *_36
	.loc 1 203 0
	movl	(%eax,%ebx,4), %esi	 # MEM[base: _200, index: i_110, step: 4, offset: 0B], MEM[base: _200, index: i_110, step: 4, offset: 0B]
	addl	$1, %esi	 #, D.30431
	shrl	%esi	 # tmp238
	movl	%esi, (%eax,%ebp,4)	 # tmp238, *_39
	.loc 1 204 0
	addl	$1, %ebp	 #, e
LVL67:
L173:
	.loc 1 199 0
	leal	5(%ecx), %ebx	 #, i
	.loc 1 201 0
	movl	(%edx,%ebx,4), %edi	 # MEM[base: _166, index: i_110, step: 4, offset: 0B], D.30431
	cmpl	$510, %edi	 #, D.30431
	jbe	L175	 #,
	.loc 1 202 0
	movl	%edi, (%edx,%ebp,4)	 # D.30431, *_36
	.loc 1 203 0
	movl	(%eax,%ebx,4), %esi	 # MEM[base: _200, index: i_110, step: 4, offset: 0B], MEM[base: _200, index: i_110, step: 4, offset: 0B]
	addl	$1, %esi	 #, D.30431
	shrl	%esi	 # tmp244
	movl	%esi, (%eax,%ebp,4)	 # tmp244, *_39
	.loc 1 204 0
	addl	$1, %ebp	 #, e
LVL68:
L175:
	.loc 1 199 0
	leal	6(%ecx), %ebx	 #, i
	.loc 1 201 0
	movl	(%edx,%ebx,4), %edi	 # MEM[base: _166, index: i_110, step: 4, offset: 0B], D.30431
	cmpl	$510, %edi	 #, D.30431
	jbe	L177	 #,
	.loc 1 202 0
	movl	%edi, (%edx,%ebp,4)	 # D.30431, *_36
	.loc 1 203 0
	movl	(%eax,%ebx,4), %esi	 # MEM[base: _200, index: i_110, step: 4, offset: 0B], MEM[base: _200, index: i_110, step: 4, offset: 0B]
	addl	$1, %esi	 #, D.30431
	shrl	%esi	 # tmp250
	movl	%esi, (%eax,%ebp,4)	 # tmp250, *_39
	.loc 1 204 0
	addl	$1, %ebp	 #, e
LVL69:
L177:
	.loc 1 199 0
	leal	7(%ecx), %ebx	 #, i
	.loc 1 201 0
	movl	(%edx,%ebx,4), %edi	 # MEM[base: _166, index: i_110, step: 4, offset: 0B], D.30431
	cmpl	$510, %edi	 #, D.30431
	jbe	L179	 #,
	.loc 1 202 0
	movl	%edi, (%edx,%ebp,4)	 # D.30431, *_36
	.loc 1 203 0
	movl	(%eax,%ebx,4), %esi	 # MEM[base: _200, index: i_110, step: 4, offset: 0B], MEM[base: _200, index: i_110, step: 4, offset: 0B]
	addl	$1, %esi	 #, D.30431
	shrl	%esi	 # tmp256
	movl	%esi, (%eax,%ebp,4)	 # tmp256, *_39
	.loc 1 204 0
	addl	$1, %ebp	 #, e
LVL70:
L179:
	.loc 1 199 0
	leal	8(%ecx), %ebx	 #, i
	.loc 1 201 0
	movl	(%edx,%ebx,4), %edi	 # MEM[base: _166, index: i_110, step: 4, offset: 0B], D.30431
	cmpl	$510, %edi	 #, D.30431
	jbe	L181	 #,
	.loc 1 202 0
	movl	%edi, (%edx,%ebp,4)	 # D.30431, *_36
	.loc 1 203 0
	movl	(%eax,%ebx,4), %esi	 # MEM[base: _200, index: i_110, step: 4, offset: 0B], MEM[base: _200, index: i_110, step: 4, offset: 0B]
	addl	$1, %esi	 #, D.30431
	shrl	%esi	 # tmp262
	movl	%esi, (%eax,%ebp,4)	 # tmp262, *_39
	.loc 1 204 0
	addl	$1, %ebp	 #, e
LVL71:
L181:
	.loc 1 199 0
	addl	$9, %ecx	 #, i
	cmpl	$511, %ecx	 #, i
	jne	L126	 #,
	movl	$256, %ebp	 #, k
LVL72:
	movl	%edx, 496(%esp)	 # D.30432, %sfp
	movl	%ebp, %edi	 # k, k
	movl	768(%esp), %ebp	 # this, this
LVL73:
	.p2align 4,,10
L130:
	.loc 1 210 0
	movl	-2044(%eax,%edi,8), %esi	 # *_53, *_49
	addl	-2048(%eax,%edi,8), %esi	 # *_49, f
	leal	-512(%edi,%edi), %edx	 #, D.30431
	.loc 1 212 0
	cmpl	-4(%eax,%edi,4), %esi	 # *_109, f
	movl	%edx, 492(%esp)	 # D.30431, %sfp
LVL74:
	.loc 1 211 0
	movl	%esi, (%eax,%edi,4)	 # f, *_57
LVL75:
	.loc 1 212 0
	jae	L127	 #,
	movl	%edi, %edx	 # k, k
LVL76:
	jmp	L128	 #
LVL77:
	.p2align 4,,10
L135:
	.loc 1 213 0
	movl	%ebx, %edx	 # k, k
LVL78:
L128:
	leal	-1(%edx), %ebx	 #, k
LVL79:
	.loc 1 212 0
	cmpl	-4(%eax,%ebx,4), %esi	 # MEM[base: _174, index: k_63, step: 4, offset: 4294967292B], f
	jb	L135	 #,
	.loc 1 215 0
	movl	%edi, %ecx	 # k, D.30431
	subl	%ebx, %ecx	 # k, D.30431
LVL80:
	.loc 1 216 0
	addl	%ecx, %ecx	 # l
LVL81:
	movl	%ecx, 480(%esp)	 # l, %sfp
	jne	L215	 #,
LVL82:
L127:
	.loc 1 208 0 discriminator 2
	addl	$1, %edi	 #, k
LVL83:
	cmpl	$511, %edi	 #, k
	je	L129	 #,
LVL84:
L216:
	movl	8(%ebp), %eax	 # this_30(D)->frq, this_30(D)->frq
	jmp	L130	 #
LVL85:
	.p2align 4,,10
L215:
	.loc 1 218 0
	leal	0(,%ebx,4), %ecx	 #, D.30431
LVL86:
	sall	$2, %edx	 #, D.30433
	.loc 1 208 0
	addl	$1, %edi	 #, k
LVL87:
	.loc 1 218 0
	movl	%edx, 496(%esp)	 # D.30433, %sfp
	movl	480(%esp), %edx	 # %sfp, l
	movl	%ecx, 500(%esp)	 # D.30431, %sfp
	leal	(%eax,%ecx), %ecx	 #, D.30434
	addl	496(%esp), %eax	 # %sfp, D.30432
	movl	%edx, 8(%esp)	 # l,
	movl	%ecx, 4(%esp)	 # D.30434,
	movl	%eax, (%esp)	 # D.30432,
	call	__ZN3stk3mem3movEPvPKvj@12	 #
	.cfi_def_cfa_offset 756
LVL88:
	subl	$12, %esp	 #,
	.cfi_def_cfa_offset 768
	.loc 1 219 0
	movl	8(%ebp), %eax	 # this_30(D)->frq, this_30(D)->frq
	.loc 1 220 0
	movl	0(%ebp), %edx	 # this_30(D)->son, D.30432
	movl	500(%esp), %ecx	 # %sfp, D.30431
	.loc 1 219 0
	movl	%esi, (%eax,%ebx,4)	 # f, *_75
	.loc 1 220 0
	movl	480(%esp), %esi	 # %sfp, l
LVL89:
	leal	(%edx,%ecx), %eax	 #, D.30434
LVL90:
	addl	496(%esp), %edx	 # %sfp, D.30432
	movl	%esi, 8(%esp)	 # l,
LVL91:
	movl	%eax, 4(%esp)	 # D.30434,
	movl	%edx, (%esp)	 # D.30432,
	call	__ZN3stk3mem3movEPvPKvj@12	 #
	.cfi_def_cfa_offset 756
LEHE6:
LVL92:
	subl	$12, %esp	 #,
	.cfi_def_cfa_offset 768
	.loc 1 221 0
	movl	0(%ebp), %edx	 # this_30(D)->son, D.30432
	.loc 1 208 0
	cmpl	$511, %edi	 #, k
	.loc 1 221 0
	movl	492(%esp), %esi	 # %sfp, D.30431
	movl	%edx, 496(%esp)	 # D.30432, %sfp
	movl	%esi, (%edx,%ebx,4)	 # D.30431, *_83
LVL93:
	.loc 1 208 0
	jne	L216	 #,
LVL94:
L129:
	movl	496(%esp), %edi	 # %sfp, D.30432
LVL95:
	movl	768(%esp), %ebp	 # this, tmp295
	.loc 1 224 0
	movl	$1, %ecx	 #, i
	movl	4(%ebp), %eax	 # this_30(D)->dad, D.30432
LVL96:
	.loc 1 226 0
	movl	(%edi), %ebx	 # MEM[base: _191, index: i_111, step: 4, offset: 0B], k
LVL97:
	.loc 1 227 0
	movl	$0, (%eax,%ebx,4)	 #,* D.30432
LVL98:
	.loc 1 230 0
	movl	$0, 4(%eax,%ebx,4)	 #, *_103
	.p2align 4,,10
L133:
	.loc 1 226 0
	movl	(%edi,%ecx,4), %edx	 # MEM[base: _191, index: i_111, step: 4, offset: 0B], k
	.loc 1 227 0
	movl	%ecx, (%eax,%edx,4)	 # i,* D.30432
	.loc 1 230 0
	movl	%ecx, 4(%eax,%edx,4)	 # i, *_103
	.loc 1 224 0
	addl	$1, %ecx	 #, tmp171
	.loc 1 226 0
	movl	(%edi,%ecx,4), %esi	 # MEM[base: _191, index: i_111, step: 4, offset: 0B], k
	.loc 1 224 0
	leal	1(%ecx), %ebp	 #, i
	leal	2(%ecx), %edx	 #, i
	.loc 1 227 0
	movl	%ecx, (%eax,%esi,4)	 # tmp171,* D.30432
	.loc 1 230 0
	movl	%ecx, 4(%eax,%esi,4)	 # tmp171, *_103
	.loc 1 226 0
	movl	(%edi,%ebp,4), %ebx	 # MEM[base: _191, index: i_111, step: 4, offset: 0B], k
	.loc 1 227 0
	movl	%ebp, (%eax,%ebx,4)	 # i,* D.30432
	.loc 1 230 0
	movl	%ebp, 4(%eax,%ebx,4)	 # i, *_103
	.loc 1 224 0
	leal	3(%ecx), %ebp	 #, i
	.loc 1 226 0
	movl	(%edi,%edx,4), %esi	 # MEM[base: _191, index: i_111, step: 4, offset: 0B], k
	.loc 1 227 0
	movl	%edx, (%eax,%esi,4)	 # i,* D.30432
	.loc 1 230 0
	movl	%edx, 4(%eax,%esi,4)	 # i, *_103
	.loc 1 224 0
	leal	4(%ecx), %edx	 #, i
	.loc 1 226 0
	movl	(%edi,%ebp,4), %ebx	 # MEM[base: _191, index: i_111, step: 4, offset: 0B], k
	.loc 1 227 0
	movl	%ebp, (%eax,%ebx,4)	 # i,* D.30432
	.loc 1 230 0
	movl	%ebp, 4(%eax,%ebx,4)	 # i, *_103
	.loc 1 224 0
	leal	5(%ecx), %ebp	 #, i
	.loc 1 226 0
	movl	(%edi,%edx,4), %esi	 # MEM[base: _191, index: i_111, step: 4, offset: 0B], k
	.loc 1 227 0
	movl	%edx, (%eax,%esi,4)	 # i,* D.30432
	.loc 1 230 0
	movl	%edx, 4(%eax,%esi,4)	 # i, *_103
	.loc 1 224 0
	leal	6(%ecx), %edx	 #, i
	.loc 1 226 0
	movl	(%edi,%ebp,4), %ebx	 # MEM[base: _191, index: i_111, step: 4, offset: 0B], k
	.loc 1 227 0
	movl	%ebp, (%eax,%ebx,4)	 # i,* D.30432
	.loc 1 230 0
	movl	%ebp, 4(%eax,%ebx,4)	 # i, *_103
	.loc 1 224 0
	leal	7(%ecx), %ebp	 #, i
	.loc 1 226 0
	movl	(%edi,%edx,4), %esi	 # MEM[base: _191, index: i_111, step: 4, offset: 0B], k
	.loc 1 227 0
	movl	%edx, (%eax,%esi,4)	 # i,* D.30432
	.loc 1 230 0
	movl	%edx, 4(%eax,%esi,4)	 # i, *_103
	.loc 1 224 0
	leal	8(%ecx), %edx	 #, i
	.loc 1 226 0
	movl	(%edi,%ebp,4), %ebx	 # MEM[base: _191, index: i_111, step: 4, offset: 0B], k
	.loc 1 224 0
	addl	$9, %ecx	 #, i
	cmpl	$511, %ecx	 #, i
	.loc 1 227 0
	movl	%ebp, (%eax,%ebx,4)	 # i,* D.30432
	.loc 1 230 0
	movl	%ebp, 4(%eax,%ebx,4)	 # i, *_103
	.loc 1 226 0
	movl	(%edi,%edx,4), %esi	 # MEM[base: _191, index: i_111, step: 4, offset: 0B], k
	.loc 1 227 0
	movl	%edx, (%eax,%esi,4)	 # i,* D.30432
	.loc 1 230 0
	movl	%edx, 4(%eax,%esi,4)	 # i, *_103
	.loc 1 224 0
	jne	L133	 #,
LBE9:
	.loc 1 233 0
	addl	$748, %esp	 #,
	.cfi_remember_state
	.cfi_def_cfa_offset 20
	popl	%ebx	 #
	.cfi_restore 3
	.cfi_def_cfa_offset 16
	popl	%esi	 #
	.cfi_restore 6
	.cfi_def_cfa_offset 12
	popl	%edi	 #
	.cfi_restore 7
	.cfi_def_cfa_offset 8
	popl	%ebp	 #
	.cfi_restore 5
	.cfi_def_cfa_offset 4
	ret	$4	 #
LVL99:
L214:
	.cfi_restore_state
LBB10:
	.loc 1 194 0 discriminator 1
	movl	$__ZGVZN3stk11compression24__static_huff_compressor11reconstructEvE8__time_1, (%esp)	 #,
	call	___cxa_guard_acquire	 #
LVL100:
	testl	%eax, %eax	 # D.30428
	je	L122	 #,
LEHB7:
	.loc 1 194 0 is_stmt 0 discriminator 3
	call	__ZN3stk4time7time_msEv@0	 #
LEHE7:
LVL101:
	movl	%eax, 480(%esp)	 #, %sfp
	movl	%edx, 484(%esp)	 #, %sfp
	movl	484(%esp), %eax	 # %sfp,
	fildq	480(%esp)	 # %sfp
	testl	%eax, %eax	 #
	js	L217	 #,
L124:
	.loc 1 194 0 discriminator 5
	movl	$__ZGVZN3stk11compression24__static_huff_compressor11reconstructEvE8__time_1, (%esp)	 #,
	fstpl	__ZZN3stk11compression24__static_huff_compressor11reconstructEvE8__time_1	 # __time_1
	call	___cxa_guard_release	 #
LVL102:
	jmp	L122	 #
L136:
	movl	%eax, %ebx	 #, tmp168
	.loc 1 194 0
	movl	$__ZGVZN3stk11compression24__static_huff_compressor11reconstructEvE8__time_1, (%esp)	 #,
	call	___cxa_guard_abort	 #
LVL103:
	movl	%ebx, (%esp)	 # tmp168,
LEHB8:
	call	__Unwind_Resume	 #
LEHE8:
LVL104:
L217:
	.loc 1 194 0 discriminator 5
	fadds	LC0	 #
	jmp	L124	 #
LBE10:
	.cfi_endproc
LFE712:
	.section	.gcc_except_table,"w"
LLSDA712:
	.byte	0xff
	.byte	0xff
	.byte	0x1
	.uleb128 LLSDACSE712-LLSDACSB712
LLSDACSB712:
	.uleb128 LEHB6-LFB712
	.uleb128 LEHE6-LEHB6
	.uleb128 0
	.uleb128 0
	.uleb128 LEHB7-LFB712
	.uleb128 LEHE7-LEHB7
	.uleb128 L136-LFB712
	.uleb128 0
	.uleb128 LEHB8-LFB712
	.uleb128 LEHE8-LEHB8
	.uleb128 0
	.uleb128 0
LLSDACSE712:
	.text
	.section	.text.unlikely,"x"
LCOLDE12:
	.text
LHOTE12:
	.section	.text.unlikely,"x"
	.align 2
LCOLDB13:
	.text
LHOTB13:
	.align 2
	.p2align 4,,15
	.globl	__ZN3stk11compression24__static_huff_compressor6updateEc@8
	.def	__ZN3stk11compression24__static_huff_compressor6updateEc@8;	.scl	2;	.type	32;	.endef
__ZN3stk11compression24__static_huff_compressor6updateEc@8:
LFB709:
	.loc 1 84 0 is_stmt 1
	.cfi_startproc
	.cfi_personality 0,___gxx_personality_v0
	.cfi_lsda 0,LLSDA709
LVL105:
	pushl	%ebp	 #
	.cfi_def_cfa_offset 8
	.cfi_offset 5, -8
	pushl	%edi	 #
	.cfi_def_cfa_offset 12
	.cfi_offset 7, -12
	pushl	%esi	 #
	.cfi_def_cfa_offset 16
	.cfi_offset 6, -16
	pushl	%ebx	 #
	.cfi_def_cfa_offset 20
	.cfi_offset 3, -20
	subl	$748, %esp	 #,
	.cfi_def_cfa_offset 768
LBB11:
	.loc 1 86 0
	cmpb	$0, __ZGVZN3stk11compression24__static_huff_compressor6updateEcE8__time_1	 #, MEM[(char *)&_ZGVZN3stk11compression24__static_huff_compressor6updateEcE8__time_1]
LBE11:
	.loc 1 84 0
	movl	772(%esp), %ebx	 # axdata_uncoded, axdata_uncoded
LBB12:
	.loc 1 86 0
	je	L238	 #,
L220:
LVL106:
	.loc 1 86 0 is_stmt 0 discriminator 2
	movl	__ZZN3stk11compression24__static_huff_compressor6updateEcE14__entered_time, %edx	 # __entered_time, tmp148
	movl	$86, 12(%esp)	 #,
	movl	$LC1, 8(%esp)	 #,
	movl	$LC2+12, 4(%esp)	 #,
	movl	$LC3, (%esp)	 #,
	addl	$1, %edx	 #, D.30445
	movl	%edx, 16(%esp)	 # D.30445,
	movl	%edx, __ZZN3stk11compression24__static_huff_compressor6updateEcE14__entered_time	 # D.30445, __entered_time
LEHB9:
	call	__ZN3stk3con6printsEPKcz	 #
LVL107:
	.loc 1 93 0 is_stmt 1 discriminator 2
	movl	768(%esp), %ecx	 # this, tmp149
	movl	8(%ecx), %esi	 # this_23(D)->frq, this_23(D)->frq
	cmpl	$268435455, 2040(%esi)	 #, MEM[(uint32_t *)_24 + 2040B]
	ja	L239	 #,
L223:
	.loc 1 96 0
	movsbl	%bl, %ebp	 # axdata_uncoded, D.30445
	movl	768(%esp), %ebx	 # this, tmp151
	leal	511(%ebp), %edi	 #, cur
LVL108:
	movl	4(%ebx), %eax	 # this_23(D)->dad, D.30448
	movl	%eax, 472(%esp)	 # D.30448, %sfp
LVL109:
	.p2align 4,,10
L226:
	.loc 1 100 0
	movl	472(%esp), %edx	 # %sfp, D.30448
	movl	(%edx,%edi,4), %edi	 # *_33, cur
LVL110:
	.loc 1 101 0
	cmpl	$1073741823, %edi	 #, cur
	je	L218	 #,
	.loc 1 103 0
	movl	768(%esp), %ecx	 # this, tmp154
	leal	0(,%edi,4), %esi	 #, D.30449
	.loc 1 108 0
	movl	%edi, %eax	 # cur, cur
	.loc 1 103 0
	movl	8(%ecx), %ecx	 # this_23(D)->frq, D.30448
	leal	(%ecx,%esi), %ebx	 #, D.30448
	movl	(%ebx), %ebp	 # *_37, tmp155
	leal	1(%ebp), %edx	 #, D.30449
	movl	%edx, (%ebx)	 # D.30449, *_37
LDL1:
LVL111:
	.loc 1 108 0
	jmp	L225	 #
LVL112:
	.p2align 4,,10
L231:
	movl	%ebp, %eax	 # cur, cur
LVL113:
L225:
	.loc 1 108 0 is_stmt 0 discriminator 1
	leal	1(%eax), %ebp	 #, cur
	cmpl	(%ecx,%ebp,4), %edx	 # MEM[base: _35, index: cur_41, step: 4, offset: 0B], D.30449
	ja	L231	 #,
	.loc 1 110 0 is_stmt 1
	cmpl	%eax, %edi	 # cur, cur
	je	L226	 #,
LDL2:
	.loc 1 116 0
	movl	768(%esp), %ebp	 # this, tmp156
	movl	0(%ebp), %ebp	 # this_23(D)->son, D.30448
	addl	%ebp, %esi	 # D.30448, D.30448
	movl	%ebp, 484(%esp)	 # D.30448, %sfp
	.loc 1 118 0
	leal	0(,%eax,4), %ebp	 #, D.30449
	.loc 1 116 0
	movl	%esi, 488(%esp)	 # D.30448, %sfp
	movl	(%esi), %esi	 # *_46, son_cur
LVL114:
	.loc 1 118 0
	addl	%ebp, %ecx	 # D.30449, D.30448
	.loc 1 119 0
	addl	484(%esp), %ebp	 # %sfp, D.30448
	.loc 1 118 0
	movl	%ecx, 492(%esp)	 # D.30448, %sfp
	movl	(%ecx), %ecx	 # *_49, frq_exg
	.loc 1 121 0
	cmpl	$509, %esi	 #, son_cur
	.loc 1 118 0
	movl	%ecx, 496(%esp)	 # frq_exg, %sfp
LVL115:
	.loc 1 119 0
	movl	0(%ebp), %ecx	 # *_51, son_exg
LVL116:
	movl	%ebp, 484(%esp)	 # D.30448, %sfp
	.loc 1 120 0
	leal	0(,%esi,4), %ebp	 #, D.30449
	.loc 1 119 0
	movl	%ecx, 500(%esp)	 # son_exg, %sfp
LVL117:
	.loc 1 120 0
	movl	%ebp, %ecx	 # D.30449, D.30449
LVL118:
	movl	472(%esp), %ebp	 # %sfp, D.30448
	movl	%eax, 0(%ebp,%esi,4)	 # cur, *_54
LVL119:
	.loc 1 121 0
	ja	L227	 #,
	.loc 1 121 0 is_stmt 0 discriminator 1
	movl	%eax, 4(%ebp,%ecx)	 # cur, *_58
L227:
	.loc 1 122 0 is_stmt 1
	movl	500(%esp), %ecx	 # %sfp, son_exg
	movl	488(%esp), %ebp	 # %sfp, D.30448
	movl	%ecx, 0(%ebp)	 # son_exg, *_46
	.loc 1 123 0
	movl	496(%esp), %ebp	 # %sfp, frq_exg
	.loc 1 125 0
	cmpl	$509, %ecx	 #, son_exg
	.loc 1 123 0
	movl	%ebp, (%ebx)	 # frq_exg, *_102
	.loc 1 124 0
	movl	472(%esp), %ebp	 # %sfp, D.30448
	leal	0(,%ecx,4), %ebx	 #, D.30449
	movl	%edi, 0(%ebp,%ecx,4)	 # cur, *_63
	.loc 1 125 0
	ja	L228	 #,
	.loc 1 125 0 is_stmt 0 discriminator 1
	movl	%edi, 4(%ebp,%ebx)	 # cur, *_67
L228:
	.loc 1 126 0 is_stmt 1
	movl	484(%esp), %edi	 # %sfp, D.30448
LVL120:
	movl	%esi, (%edi)	 # son_cur, *_51
	.loc 1 127 0
	movl	492(%esp), %esi	 # %sfp, D.30448
LVL121:
	movl	%eax, %edi	 # cur, cur
LVL122:
	movl	%edx, (%esi)	 # D.30449, *_49
LVL123:
	jmp	L226	 #
LVL124:
L218:
LBE12:
	.loc 1 133 0
	addl	$748, %esp	 #,
	.cfi_remember_state
	.cfi_def_cfa_offset 20
	popl	%ebx	 #
	.cfi_restore 3
	.cfi_def_cfa_offset 16
	popl	%esi	 #
	.cfi_restore 6
	.cfi_def_cfa_offset 12
	popl	%edi	 #
	.cfi_restore 7
	.cfi_def_cfa_offset 8
LVL125:
	popl	%ebp	 #
	.cfi_restore 5
	.cfi_def_cfa_offset 4
	ret	$8	 #
L239:
	.cfi_restore_state
LBB13:
	.loc 1 93 0 discriminator 1
	movl	768(%esp), %edi	 # this, tmp150
	movl	%edi, (%esp)	 # tmp150,
	call	__ZN3stk11compression24__static_huff_compressor11reconstructEv@4	 #
	.cfi_def_cfa_offset 764
LEHE9:
LVL126:
	subl	$4, %esp	 #,
	.cfi_def_cfa_offset 768
	jmp	L223	 #
LVL127:
L238:
	.loc 1 86 0 discriminator 1
	movl	$__ZGVZN3stk11compression24__static_huff_compressor6updateEcE8__time_1, (%esp)	 #,
	call	___cxa_guard_acquire	 #
LVL128:
	testl	%eax, %eax	 # D.30445
	je	L220	 #,
LEHB10:
	.loc 1 86 0 is_stmt 0 discriminator 3
	call	__ZN3stk4time7time_msEv@0	 #
LEHE10:
LVL129:
	movl	%eax, 472(%esp)	 #, %sfp
	movl	%edx, 476(%esp)	 #, %sfp
	movl	476(%esp), %eax	 # %sfp,
	fildq	472(%esp)	 # %sfp
	testl	%eax, %eax	 #
	js	L240	 #,
L222:
	.loc 1 86 0 discriminator 5
	movl	$__ZGVZN3stk11compression24__static_huff_compressor6updateEcE8__time_1, (%esp)	 #,
	fstpl	__ZZN3stk11compression24__static_huff_compressor6updateEcE8__time_1	 # __time_1
	call	___cxa_guard_release	 #
LVL130:
	jmp	L220	 #
L240:
	fadds	LC0	 #
	jmp	L222	 #
L232:
	movl	%eax, %ebp	 #, tmp136
	.loc 1 86 0
	movl	$__ZGVZN3stk11compression24__static_huff_compressor6updateEcE8__time_1, (%esp)	 #,
	call	___cxa_guard_abort	 #
LVL131:
	movl	%ebp, (%esp)	 # tmp136,
LEHB11:
	call	__Unwind_Resume	 #
LEHE11:
LVL132:
LBE13:
	.cfi_endproc
LFE709:
	.section	.gcc_except_table,"w"
LLSDA709:
	.byte	0xff
	.byte	0xff
	.byte	0x1
	.uleb128 LLSDACSE709-LLSDACSB709
LLSDACSB709:
	.uleb128 LEHB9-LFB709
	.uleb128 LEHE9-LEHB9
	.uleb128 0
	.uleb128 0
	.uleb128 LEHB10-LFB709
	.uleb128 LEHE10-LEHB10
	.uleb128 L232-LFB709
	.uleb128 0
	.uleb128 LEHB11-LFB709
	.uleb128 LEHE11-LEHB11
	.uleb128 0
	.uleb128 0
LLSDACSE709:
	.text
	.section	.text.unlikely,"x"
LCOLDE13:
	.text
LHOTE13:
	.section	.text.unlikely,"x"
	.align 2
LCOLDB14:
	.text
LHOTB14:
	.align 2
	.p2align 4,,15
	.globl	__ZN3stk11compression24__static_huff_compressor6encodeEPccc@16
	.def	__ZN3stk11compression24__static_huff_compressor6encodeEPccc@16;	.scl	2;	.type	32;	.endef
__ZN3stk11compression24__static_huff_compressor6encodeEPccc@16:
LFB710:
	.loc 1 137 0 is_stmt 1
	.cfi_startproc
	.cfi_personality 0,___gxx_personality_v0
	.cfi_lsda 0,LLSDA710
LVL133:
	pushl	%ebp	 #
	.cfi_def_cfa_offset 8
	.cfi_offset 5, -8
	pushl	%edi	 #
	.cfi_def_cfa_offset 12
	.cfi_offset 7, -12
	pushl	%esi	 #
	.cfi_def_cfa_offset 16
	.cfi_offset 6, -16
	pushl	%ebx	 #
	.cfi_def_cfa_offset 20
	.cfi_offset 3, -20
	subl	$1004, %esp	 #,
	.cfi_def_cfa_offset 1024
LBB14:
	.loc 1 139 0
	cmpb	$0, __ZGVZN3stk11compression24__static_huff_compressor6encodeEPcccE8__time_1	 #, MEM[(char *)&_ZGVZN3stk11compression24__static_huff_compressor6encodeEPcccE8__time_1]
LBE14:
	.loc 1 137 0
	movl	1032(%esp), %eax	 # a_code_ptr_bit, a_code_ptr_bit
	movl	1036(%esp), %ebx	 # axdata_uncoded, axdata_uncoded
	movl	%eax, 492(%esp)	 # a_code_ptr_bit, %sfp
LBB15:
	.loc 1 139 0
	je	L257	 #,
L243:
LVL134:
	.loc 1 139 0 is_stmt 0 discriminator 2
	movl	__ZZN3stk11compression24__static_huff_compressor6encodeEPcccE14__entered_time, %ecx	 # __entered_time, tmp139
	movl	$139, 12(%esp)	 #,
	.loc 1 142 0 is_stmt 1 discriminator 2
	movsbl	%bl, %ebp	 # axdata_uncoded, axdata_uncoded
	.loc 1 139 0 discriminator 2
	movl	$LC1, 8(%esp)	 #,
	movl	$LC2+12, 4(%esp)	 #,
	.loc 1 144 0 discriminator 2
	xorl	%edi, %edi	 # code_bits
	.loc 1 139 0 discriminator 2
	movl	$LC3, (%esp)	 #,
	addl	$1, %ecx	 #, D.30459
	movl	%ecx, 16(%esp)	 # D.30459,
	movl	%ecx, __ZZN3stk11compression24__static_huff_compressor6encodeEPcccE14__entered_time	 # D.30459, __entered_time
LEHB12:
	call	__ZN3stk3con6printsEPKcz	 #
LVL135:
	.loc 1 142 0 discriminator 2
	movl	1024(%esp), %esi	 # this, tmp140
	movl	4(%esi), %eax	 # this_20(D)->dad, D.30462
	.loc 1 143 0 discriminator 2
	xorl	%esi, %esi	 # code
	.loc 1 142 0 discriminator 2
	movl	2044(%eax,%ebp,4), %ebx	 # *_26, current_node
LVL136:
	.p2align 4,,10
L246:
	.loc 1 148 0 discriminator 1
	movl	%ebx, %edx	 # current_node, D.30465
	.loc 1 150 0 discriminator 1
	movl	(%eax,%ebx,4), %ebx	 # *_35, current_node
LVL137:
	.loc 1 148 0 discriminator 1
	addl	%esi, %esi	 # D.30459
LVL138:
	andl	$1, %edx	 #, D.30465
LVL139:
	.loc 1 149 0 discriminator 1
	addl	$1, %edi	 #, code_bits
LVL140:
	.loc 1 148 0 discriminator 1
	orl	%edx, %esi	 # D.30465, code
LVL141:
	.loc 1 146 0 discriminator 1
	cmpl	$510, %ebx	 #, current_node
	jne	L246	 #,
	.loc 1 154 0
	movl	1024(%esp), %ecx	 # this, tmp142
	movl	%ebp, 4(%esp)	 # axdata_uncoded,
	movl	%ecx, (%esp)	 # tmp142,
	call	__ZN3stk11compression24__static_huff_compressor6updateEc@8	 #
	.cfi_def_cfa_offset 1016
LVL142:
	subl	$8, %esp	 #,
	.cfi_def_cfa_offset 1024
	.loc 1 156 0
	movl	%edi, %eax	 # code_bits, code_bits
	movzbl	492(%esp), %edx	 # %sfp, a_code_ptr_bit
	movl	1028(%esp), %ebx	 # a_code_ptr, a_code_ptr
LVL143:
	movzbl	%al, %ebp	 # code_bits, code_bits
	.loc 1 155 0
	movl	%esi, 764(%esp)	 # code, result
	.loc 1 156 0
	leal	764(%esp), %esi	 #, tmp128
LVL144:
	movl	%ebp, 16(%esp)	 # code_bits,
	movl	$0, 12(%esp)	 #,
	movl	%esi, 8(%esp)	 # tmp128,
	movl	%ebx, (%esp)	 # a_code_ptr,
	movl	%edx, 4(%esp)	 # a_code_ptr_bit,
	call	__ZN3stk3mem7bit_movEPvhPKvhj@20	 #
	.cfi_def_cfa_offset 1004
LEHE12:
LVL145:
	subl	$20, %esp	 #,
	.cfi_def_cfa_offset 1024
LBE15:
	.loc 1 158 0
	movl	%edi, %eax	 # code_bits,
	addl	$1004, %esp	 #,
	.cfi_remember_state
	.cfi_def_cfa_offset 20
	popl	%ebx	 #
	.cfi_restore 3
	.cfi_def_cfa_offset 16
	popl	%esi	 #
	.cfi_restore 6
	.cfi_def_cfa_offset 12
	popl	%edi	 #
	.cfi_restore 7
	.cfi_def_cfa_offset 8
LVL146:
	popl	%ebp	 #
	.cfi_restore 5
	.cfi_def_cfa_offset 4
	ret	$16	 #
LVL147:
	.p2align 4,,10
L257:
	.cfi_restore_state
LBB16:
	.loc 1 139 0 discriminator 1
	movl	$__ZGVZN3stk11compression24__static_huff_compressor6encodeEPcccE8__time_1, (%esp)	 #,
	call	___cxa_guard_acquire	 #
LVL148:
	testl	%eax, %eax	 # D.30459
	je	L243	 #,
LEHB13:
	.loc 1 139 0 is_stmt 0 discriminator 3
	call	__ZN3stk4time7time_msEv@0	 #
LEHE13:
LVL149:
	movl	%edx, 500(%esp)	 #, %sfp
	movl	500(%esp), %edx	 # %sfp,
	movl	%eax, 496(%esp)	 #, %sfp
	fildq	496(%esp)	 # %sfp
	testl	%edx, %edx	 #
	js	L258	 #,
L245:
	.loc 1 139 0 discriminator 5
	movl	$__ZGVZN3stk11compression24__static_huff_compressor6encodeEPcccE8__time_1, (%esp)	 #,
	fstpl	__ZZN3stk11compression24__static_huff_compressor6encodeEPcccE8__time_1	 # __time_1
	call	___cxa_guard_release	 #
LVL150:
	jmp	L243	 #
L258:
	fadds	LC0	 #
	jmp	L245	 #
L248:
	movl	%eax, %edi	 #, tmp131
	.loc 1 139 0
	movl	$__ZGVZN3stk11compression24__static_huff_compressor6encodeEPcccE8__time_1, (%esp)	 #,
	call	___cxa_guard_abort	 #
LVL151:
	movl	%edi, (%esp)	 # tmp131,
LEHB14:
	call	__Unwind_Resume	 #
LEHE14:
LVL152:
LBE16:
	.cfi_endproc
LFE710:
	.section	.gcc_except_table,"w"
LLSDA710:
	.byte	0xff
	.byte	0xff
	.byte	0x1
	.uleb128 LLSDACSE710-LLSDACSB710
LLSDACSB710:
	.uleb128 LEHB12-LFB710
	.uleb128 LEHE12-LEHB12
	.uleb128 0
	.uleb128 0
	.uleb128 LEHB13-LFB710
	.uleb128 LEHE13-LEHB13
	.uleb128 L248-LFB710
	.uleb128 0
	.uleb128 LEHB14-LFB710
	.uleb128 LEHE14-LEHB14
	.uleb128 0
	.uleb128 0
LLSDACSE710:
	.text
	.section	.text.unlikely,"x"
LCOLDE14:
	.text
LHOTE14:
	.section	.text.unlikely,"x"
	.align 2
LCOLDB15:
	.text
LHOTB15:
	.align 2
	.p2align 4,,15
	.globl	__ZN3stk11compression24__static_huff_compressor6decodeEPcPKcc@16
	.def	__ZN3stk11compression24__static_huff_compressor6decodeEPcPKcc@16;	.scl	2;	.type	32;	.endef
__ZN3stk11compression24__static_huff_compressor6decodeEPcPKcc@16:
LFB711:
	.loc 1 162 0 is_stmt 1
	.cfi_startproc
	.cfi_personality 0,___gxx_personality_v0
	.cfi_lsda 0,LLSDA711
LVL153:
	pushl	%edi	 #
	.cfi_def_cfa_offset 8
	.cfi_offset 7, -8
	pushl	%esi	 #
	.cfi_def_cfa_offset 12
	.cfi_offset 6, -12
	pushl	%ebx	 #
	.cfi_def_cfa_offset 16
	.cfi_offset 3, -16
	subl	$1008, %esp	 #,
	.cfi_def_cfa_offset 1024
LBB17:
	.loc 1 164 0
	cmpb	$0, __ZGVZN3stk11compression24__static_huff_compressor6decodeEPcPKccE8__time_1	 #, MEM[(char *)&_ZGVZN3stk11compression24__static_huff_compressor6decodeEPcPKccE8__time_1]
LBE17:
	.loc 1 162 0
	movl	1024(%esp), %esi	 # this, this
	movl	1036(%esp), %edi	 # a_code_ptr_bit, a_code_ptr_bit
LBB18:
	.loc 1 164 0
	je	L275	 #,
L261:
LVL154:
	.loc 1 164 0 is_stmt 0 discriminator 2
	movl	__ZZN3stk11compression24__static_huff_compressor6decodeEPcPKccE14__entered_time, %edx	 # __entered_time, tmp128
	movl	$164, 12(%esp)	 #,
	movl	$LC1, 8(%esp)	 #,
	movl	$LC2+12, 4(%esp)	 #,
	movl	$LC3, (%esp)	 #,
	addl	$1, %edx	 #, D.30476
	movl	%edx, 16(%esp)	 # D.30476,
	movl	%edx, __ZZN3stk11compression24__static_huff_compressor6decodeEPcPKccE14__entered_time	 # D.30476, __entered_time
LEHB15:
	call	__ZN3stk3con6printsEPKcz	 #
LVL155:
	.loc 1 167 0 is_stmt 1 discriminator 2
	movl	(%esi), %ecx	 # this_20(D)->son, this_20(D)->son
	.loc 1 172 0 discriminator 2
	movl	1032(%esp), %edx	 # a_code_ptr, a_code_ptr
	movl	%edi, %eax	 # a_code_ptr_bit, tmp129
	movzbl	%al, %edi	 # tmp129, a_code_ptr_bit
	.loc 1 167 0 discriminator 2
	movl	2040(%ecx), %ebx	 # MEM[(uint32_t *)_21 + 2040B], current_node
LVL156:
	.loc 1 172 0 discriminator 2
	leal	764(%esp), %ecx	 #, tmp122
	movl	%edi, 12(%esp)	 # a_code_ptr_bit,
	movl	$24, 16(%esp)	 #,
	movl	%edx, 8(%esp)	 # a_code_ptr,
	.loc 1 169 0 discriminator 2
	xorl	%edi, %edi	 # code_bits
	.loc 1 172 0 discriminator 2
	movl	%ecx, (%esp)	 # tmp122,
	movl	$0, 4(%esp)	 #,
	call	__ZN3stk3mem7bit_movEPvhPKvhj@20	 #
	.cfi_def_cfa_offset 1004
LVL157:
	subl	$20, %esp	 #,
	.cfi_def_cfa_offset 1024
	movl	(%esi), %ecx	 # this_20(D)->son, D.30479
	.loc 1 173 0 discriminator 2
	movl	764(%esp), %eax	 # input_data, code
LVL158:
	.p2align 4,,10
L264:
	.loc 1 177 0 discriminator 1
	movl	%eax, %edx	 # code, D.30482
	.loc 1 179 0 discriminator 1
	addl	$1, %edi	 #, code_bits
LVL159:
	.loc 1 178 0 discriminator 1
	sarl	%eax	 # code
LVL160:
	.loc 1 177 0 discriminator 1
	andl	$1, %edx	 #, D.30482
LVL161:
	orl	%ebx, %edx	 # current_node, current_node
LVL162:
	.loc 1 180 0 discriminator 1
	movl	(%ecx,%edx,4), %ebx	 # *_37, current_node
LVL163:
	.loc 1 175 0 discriminator 1
	cmpl	$510, %ebx	 #, current_node
	jle	L264	 #,
LVL164:
	.loc 1 184 0
	leal	-511(%ebx), %ecx	 #, current_node
LVL165:
	.loc 1 185 0
	movl	1028(%esp), %eax	 # alpdata_uncoded, alpdata_uncoded
LVL166:
	.loc 1 186 0
	movsbl	%cl, %edx	 # current_node, D.30475
	.loc 1 185 0
	movb	%cl, (%eax)	 # current_node, *alpdata_uncoded_42(D)
	.loc 1 186 0
	movl	%esi, (%esp)	 # this,
	movl	%edx, 4(%esp)	 # D.30475,
	call	__ZN3stk11compression24__static_huff_compressor6updateEc@8	 #
	.cfi_def_cfa_offset 1016
LEHE15:
LVL167:
	subl	$8, %esp	 #,
	.cfi_def_cfa_offset 1024
LBE18:
	.loc 1 188 0
	movl	%edi, %eax	 # code_bits,
	addl	$1008, %esp	 #,
	.cfi_remember_state
	.cfi_def_cfa_offset 16
	popl	%ebx	 #
	.cfi_restore 3
	.cfi_def_cfa_offset 12
LVL168:
	popl	%esi	 #
	.cfi_restore 6
	.cfi_def_cfa_offset 8
	popl	%edi	 #
	.cfi_restore 7
	.cfi_def_cfa_offset 4
LVL169:
	ret	$16	 #
LVL170:
	.p2align 4,,10
L275:
	.cfi_restore_state
LBB19:
	.loc 1 164 0 discriminator 1
	movl	$__ZGVZN3stk11compression24__static_huff_compressor6decodeEPcPKccE8__time_1, (%esp)	 #,
	call	___cxa_guard_acquire	 #
LVL171:
	testl	%eax, %eax	 # D.30476
	je	L261	 #,
LEHB16:
	.loc 1 164 0 is_stmt 0 discriminator 3
	call	__ZN3stk4time7time_msEv@0	 #
LEHE16:
LVL172:
	movl	%eax, 496(%esp)	 #, %sfp
	movl	%edx, 500(%esp)	 #, %sfp
	movl	500(%esp), %eax	 # %sfp,
	fildq	496(%esp)	 # %sfp
	testl	%eax, %eax	 #
	js	L276	 #,
L263:
	.loc 1 164 0 discriminator 5
	movl	$__ZGVZN3stk11compression24__static_huff_compressor6decodeEPcPKccE8__time_1, (%esp)	 #,
	fstpl	__ZZN3stk11compression24__static_huff_compressor6decodeEPcPKccE8__time_1	 # __time_1
	call	___cxa_guard_release	 #
LVL173:
	jmp	L261	 #
L276:
	fadds	LC0	 #
	jmp	L263	 #
L266:
	movl	%eax, %esi	 #, tmp127
	.loc 1 164 0
	movl	$__ZGVZN3stk11compression24__static_huff_compressor6decodeEPcPKccE8__time_1, (%esp)	 #,
	call	___cxa_guard_abort	 #
LVL174:
	movl	%esi, (%esp)	 # tmp127,
LEHB17:
	call	__Unwind_Resume	 #
LEHE17:
LVL175:
LBE19:
	.cfi_endproc
LFE711:
	.section	.gcc_except_table,"w"
LLSDA711:
	.byte	0xff
	.byte	0xff
	.byte	0x1
	.uleb128 LLSDACSE711-LLSDACSB711
LLSDACSB711:
	.uleb128 LEHB15-LFB711
	.uleb128 LEHE15-LEHB15
	.uleb128 0
	.uleb128 0
	.uleb128 LEHB16-LFB711
	.uleb128 LEHE16-LEHB16
	.uleb128 L266-LFB711
	.uleb128 0
	.uleb128 LEHB17-LFB711
	.uleb128 LEHE17-LEHB17
	.uleb128 0
	.uleb128 0
LLSDACSE711:
	.text
	.section	.text.unlikely,"x"
LCOLDE15:
	.text
LHOTE15:
	.data
	.align 4
__ZZN3stk11compression24__static_huff_compressor11reconstructEvE14__entered_time:
	.long	1
.lcomm __ZZN3stk11compression24__static_huff_compressor11reconstructEvE8__time_1,8,8
	.align 4
__ZZN3stk11compression24__static_huff_compressor6decodeEPcPKccE14__entered_time:
	.long	1
.lcomm __ZZN3stk11compression24__static_huff_compressor6decodeEPcPKccE8__time_1,8,8
	.align 4
__ZZN3stk11compression24__static_huff_compressor6encodeEPcccE14__entered_time:
	.long	1
.lcomm __ZZN3stk11compression24__static_huff_compressor6encodeEPcccE8__time_1,8,8
	.align 4
__ZZN3stk11compression24__static_huff_compressor6updateEcE14__entered_time:
	.long	1
.lcomm __ZZN3stk11compression24__static_huff_compressor6updateEcE8__time_1,8,8
	.align 4
__ZZN3stk11compression24__static_huff_compressor10initializeEvE14__entered_time:
	.long	1
.lcomm __ZZN3stk11compression24__static_huff_compressor10initializeEvE8__time_1,8,8
	.align 4
__ZZN3stk11compression24__static_huff_compressorD4EvE14__entered_time:
	.long	1
.lcomm __ZZN3stk11compression24__static_huff_compressorD4EvE8__time_1,8,8
	.align 4
__ZZN3stk11compression24__static_huff_compressorC4EvE14__entered_time:
	.long	1
.lcomm __ZZN3stk11compression24__static_huff_compressorC4EvE8__time_1,8,8
.lcomm __ZGVZN3stk11compression24__static_huff_compressor11reconstructEvE8__time_1,8,8
.lcomm __ZGVZN3stk11compression24__static_huff_compressor6decodeEPcPKccE8__time_1,8,8
.lcomm __ZGVZN3stk11compression24__static_huff_compressor6encodeEPcccE8__time_1,8,8
.lcomm __ZGVZN3stk11compression24__static_huff_compressor6updateEcE8__time_1,8,8
.lcomm __ZGVZN3stk11compression24__static_huff_compressor10initializeEvE8__time_1,8,8
.lcomm __ZGVZN3stk11compression24__static_huff_compressorD4EvE8__time_1,8,8
.lcomm __ZGVZN3stk11compression24__static_huff_compressorC4EvE8__time_1,8,8
	.section .rdata,"dr"
	.align 4
LC0:
	.long	1602224128
	.align 16
LC7:
	.long	0
	.long	1
	.long	2
	.long	3
	.align 16
LC8:
	.long	4
	.long	4
	.long	4
	.long	4
	.align 16
LC9:
	.long	511
	.long	511
	.long	511
	.long	511
	.align 16
LC10:
	.long	1
	.long	1
	.long	1
	.long	1
	.text
Letext0:
	.section	.text.unlikely,"x"
Letext_cold0:
	.file 2 "C:/Qt/Qt5.5.0/Tools/mingw492_32/i686-w64-mingw32/include/_mingw.h"
	.file 3 "C:/Qt/Qt5.5.0/Tools/mingw492_32/i686-w64-mingw32/include/stdint.h"
	.file 4 "C:/Qt/Qt5.5.0/Tools/mingw492_32/i686-w64-mingw32/include/stdio.h"
	.file 5 "compression/./.././time/stk_time.h"
	.file 6 "compression/stk_compression_static_huff.h"
	.file 7 "compression/./../io/stk_console.h"
	.file 8 "compression/./../mem/stk_mem.h"
	.file 9 "<built-in>"
	.file 10 "C:/Qt/Qt5.5.0/Tools/mingw492_32/i686-w64-mingw32/include/c++/bits/exception_ptr.h"
	.file 11 "C:/Qt/Qt5.5.0/Tools/mingw492_32/i686-w64-mingw32/include/c++/i686-w64-mingw32/bits/c++config.h"