	.file	"stk_hash_md5.cpp"
 # GNU C++ (i686-posix-dwarf-rev1, Built by MinGW-W64 project) version 4.9.2 (i686-w64-mingw32)
 #	compiled by GNU C version 4.9.2, GMP version 6.0.0, MPFR version 3.1.2-p9, MPC version 1.0.2
 # warning: MPFR header version 3.1.2-p9 differs from library version 3.1.2-p10.
 # GGC heuristics: --param ggc-min-expand=100 --param ggc-min-heapsize=131072
 # options passed:  -fpreprocessed stk_hash_md5.ii -malign-double
 # -momit-leaf-frame-pointer -m32 -mfpmath=sse -mpreferred-stack-boundary=8
 # -mmmx -msse -msse2 -mthreads -mtune=generic -march=i686
 # -auxbase-strip debug\stk_hash_md5.o -g -g -O3 -Wno-write-strings
 # -Wno-multichar -Wno-unused-variable -Wno-unused-parameter
 # -Wno-unused-value -Wno-unused-label -Wno-unused-but-set-variable
 # -Wattributes -Winline -Wshadow -Wunknown-pragmas -Wall -Wextra
 # -std=gnu++11 -std=c++11 -fno-keep-inline-dllexport
 # -fno-use-linker-plugin -fverbose-asm -fstrict-aliasing -fwrapv
 # -funroll-loops -flto -fexceptions -frtti
 # options enabled:  -faggressive-loop-optimizations
 # -fasynchronous-unwind-tables -fauto-inc-dec -fbranch-count-reg
 # -fcaller-saves -fcombine-stack-adjustments -fcommon -fcompare-elim
 # -fcprop-registers -fcrossjumping -fcse-follow-jumps -fdefer-pop
 # -fdelete-null-pointer-checks -fdevirtualize -fdevirtualize-speculatively
 # -fdwarf2-cfi-asm -fearly-inlining -feliminate-unused-debug-types
 # -fexceptions -fexpensive-optimizations -fforward-propagate
 # -ffunction-cse -fgcse -fgcse-after-reload -fgcse-lm -fgnu-runtime
 # -fgnu-unique -fguess-branch-probability -fhoist-adjacent-loads -fident
 # -fif-conversion -fif-conversion2 -findirect-inlining -finline
 # -finline-atomics -finline-functions -finline-functions-called-once
 # -finline-small-functions -fipa-cp -fipa-cp-clone -fipa-profile
 # -fipa-pure-const -fipa-reference -fipa-sra -fira-hoist-pressure
 # -fira-share-save-slots -fira-share-spill-slots
 # -fisolate-erroneous-paths-dereference -fivopts -fkeep-static-consts
 # -fleading-underscore -fmath-errno -fmerge-constants
 # -fmerge-debug-strings -fmove-loop-invariants -fomit-frame-pointer
 # -foptimize-sibling-calls -foptimize-strlen -fpartial-inlining -fpeephole
 # -fpeephole2 -fpredictive-commoning -fprefetch-loop-arrays -free
 # -freg-struct-return -frename-registers -freorder-blocks
 # -freorder-blocks-and-partition -freorder-functions
 # -frerun-cse-after-loop -fsched-critical-path-heuristic
 # -fsched-dep-count-heuristic -fsched-group-heuristic -fsched-interblock
 # -fsched-last-insn-heuristic -fsched-rank-heuristic -fsched-spec
 # -fsched-spec-insn-heuristic -fsched-stalled-insns-dep -fschedule-insns2
 # -fset-stack-executable -fshow-column -fshrink-wrap -fsigned-zeros
 # -fsplit-ivs-in-unroller -fsplit-wide-types -fstrict-aliasing
 # -fstrict-overflow -fstrict-volatile-bitfields -fsync-libcalls
 # -fthread-jumps -ftoplevel-reorder -ftrapping-math -ftree-bit-ccp
 # -ftree-builtin-call-dce -ftree-ccp -ftree-ch -ftree-coalesce-vars
 # -ftree-copy-prop -ftree-copyrename -ftree-cselim -ftree-dce
 # -ftree-dominator-opts -ftree-dse -ftree-forwprop -ftree-fre
 # -ftree-loop-distribute-patterns -ftree-loop-if-convert -ftree-loop-im
 # -ftree-loop-ivcanon -ftree-loop-optimize -ftree-loop-vectorize
 # -ftree-parallelize-loops= -ftree-partial-pre -ftree-phiprop -ftree-pre
 # -ftree-pta -ftree-reassoc -ftree-scev-cprop -ftree-sink
 # -ftree-slp-vectorize -ftree-slsr -ftree-sra -ftree-switch-conversion
 # -ftree-tail-merge -ftree-ter -ftree-vrp -funit-at-a-time -funroll-loops
 # -funswitch-loops -funwind-tables -fvar-tracking
 # -fvar-tracking-assignments -fverbose-asm -fweb -fwrapv
 # -fzero-initialized-in-bss -m32 -m80387 -m96bit-long-double
 # -maccumulate-outgoing-args -malign-double -malign-stringops
 # -mavx256-split-unaligned-load -mavx256-split-unaligned-store
 # -mfancy-math-387 -mfp-ret-in-387 -mieee-fp -mlong-double-80 -mmmx
 # -mms-bitfields -mno-red-zone -mno-sse4 -mpush-args -msahf -msse -msse2
 # -mstack-arg-probe -mvzeroupper

	.text
Ltext0:
	.section	.gnu.lto_.profile.f43a754b,"dr0"
	.ascii "x\234cf```e\200\0F\206F\306h\0\2j\0\347"
	.text
	.section	.gnu.lto_.jmpfuncs.f43a754b,"dr0"
	.ascii "x\234cf\300\16J\241"
	.ascii "4\23\20"
	.ascii "321223\326"
	.ascii "3200\203\205>21.\271x\377\"\363\13\246\237L\14,\14\214\313\30\245\30\230A\242\367\237\234\277\310\1\22\5*e\\\16\22-\7\252g.\7r\231@\362-;\337\256\340\1\311"
	.ascii "3\35\0j[\1T\0\22\275"
	.ascii "8kY3?\330,F\6\306\225@A\6\0O\241\35["
	.text
	.section	.gnu.lto_.inline.f43a754b,"dr0"
	.ascii "x\234cf\300\16\302\241"
	.ascii "4\23\3\3"
	.ascii "3\23#\210b`[ \17\242\30\30[\230\356"
	.ascii "0\374\220c\4\2\240\344\24\306\35\237\357"
	.ascii "0C$\231.\360\263\200"
	.ascii "5q\3UM\360c\341\5\312O\360c`\0"
	.ascii "3\30&\370A\204@\206\0\0-z\14"
	.ascii "8"
	.text
	.section	.gnu.lto_.pureconst.f43a754b,"dr0"
	.ascii "x\234cf```e\200\0&\6\6F)\0\0\253\0&"
	.text
	.section	.gnu.lto__ZN3stk4hash3md59reset_MD5Ev@0.f43a754b,"dr0"
	.ascii "x\234cf\300\4R@\\\12\304\22@\314\310\314\300\310"
	.ascii "4\341\34\3C#\7\23##\210\301\300\310P\317\304X\317\370\222\351#\23\343\204\3\253gp\253/mhh\370\360ieR\303\224\204\237L\14\14\237\231 \346"
	.ascii "0.cTg\0*\372\330\362\367:7[\13P\221\0D\216q9#\33#\220^/t\240\341\377\377\315k\16\356`\4\12?\1b\220\5O\231\230@4\363=FF\220B\220IO\230\30AB@\5b\31\211\305\31"
	.ascii "1\305%\331\361 F|n\212\251^rA\1\3\0\235Z2m"
	.text
	.section	.gnu.lto__ZN3stk4hash3md58calc_MD5EPKcj@8.f43a754b,"dr0"
	.ascii "x\234\235X{T\225U\26\377\366\371\356\233{\271(\346(\215f>\263R2\313R+5{\370\250U\253V-\327\232\326bQ\351\344\352"
	.ascii "1\255\321Y\315\37"
	.ascii "9]\4/\330\370@\22G\20\14\207"
	.ascii "2%\24I\224\227\312\305\367\3$\322\304\7\"\25\342\13\14\205\270\240\10\263\367>\337w\271\27\301\261X~\307s\366\331\217\337\331\337\336\373\354\357\252\312\355\177\347\361\231\332OQ\342\360\177\350\255\200\210?\252(Q\26\1!4\1U\30\226\340\377.\233\321\240\270\354\6"
	.ascii "0\312m#\4\313\211I\230\367\206\342\266\245d\2\356\233\301!\311\26a\215\33\201d\33\215v\253N\266\211 \342\263\331I\306\36\244\223\355\372\304!\325\26[\202\205\251\271\204\314:\223\1"
	.ascii "9\235\22M\261%D\250\371\373\210\336\253\302\202\364^\0DW@\371L\250\6\243\311l\261\332\202\354\216`gH/\370L\15Q\300B\377\360/X\201\311\364\17\377.\211k\2\362"
	.ascii "77\225\6]\24\255B\31\244\340\262 \341\340j\23-\301@\313\365_\325-2\217\370\332\345Z\330p\375\312'\361+\323pG(\215B\201\365\20\6\337@\30\231\334\0#\220\325\273\373\302.\207\332\37H,v\313\211C\366a\351(\346\371"
	.ascii "6\332"
	.ascii "0\255U\250\260\21T\177"
	.ascii "1$)\220\1\303\220y\347\232\246\14U\35\304\202\351\205"
	.ascii "5\271*\12\306/\364\234fA\3|\333U\320\240@&\14#\356k1\267*\202L1.\227+\204"
	.ascii "0!\224M`\2E\261\340\336\251\342\214M&u8k]w9\265\312"
	.ascii "1d\35\302\251\256\273>\331\23\223\346j\357\350\200Va\204\315\201\312\345\37d\301\20\224J:\332r\322\256\216a\15eE\227\16\251\250\301\343J\373"
	.ascii "5\315"
	.ascii "5\331\247\301\4[\272\325\220\315\32"
	.ascii "2/l=\255\252\23XCI\312\316\345\202"
	.ascii "0\270\322Z\2"
	.ascii "5|\327\255\206\255\254\341\273]Ig\202\324)\254\241\340DA\242\220\247hm\362;\205\31r\272\325\260\215"
	.ascii "5\374\262dE\266P\247\262\206\342\233\251M\300\30\252o\370\373\301\4\333\273\325\220\313\32JW\304o\12V\237g\15_\34\310\370\334\311\32<'\3O\221\327\255\206|\326\220\260>\246\316\250\276(5\374\360S\243Uj8\23\250\241\240[\15\205\254\241\240\276\300#\324\351\254\241\272\240\344K\13G,\276v\\\27\226l\314\22\34\262.AkWZ\331&:e\274\253\272\255\335\320yJ\13\354\220\26v\242\205]\235\26\212`HVo\217\253\243ckNq\213\371-`\337\13\366\237\312>0\360h\344\321\304\243\231qY\370|V\236\367\346\250\11\5\212\351>@\1\332\27C\325\330\17\7k\177\34l\367\322r\0\16"
	.ascii "0\220U\337G;\203X\333\375"
	.ascii "4\35\314\323!4\35\312\323a4\35\316\323\21\244\340\1\32F\322\360 \333}\210\246\17\323"
	.ascii "0\212\206\321L\14\247\351#4\214aX\217\322t,o=F\323\307i\30\307[O\320\364I\32\306\363\376\4\232N\344\255\247h\372"
	.ascii "4\331\177\206\206I4L\246a\12\15\317\342`\236J,\317\321\362y\32^\240\345\213"
	.ascii "4\233F\303t\32f0\366\231\254\361%\"\274L\303+4\274J\303k4\274N\303\33"
	.ascii "4\274I\303,v\276\242\324`6\207*\347\261\326\204\252'`\241\347T>\325\252\255I\333nZ\325\231\34\5IqG\276\1\231\15\365\201"
	.ascii "9\355\351.\216P\"cq\305\271`\365/,\355Mi\366\332e6^\15\214\302\335=H/J\330"
	.ascii "3K\235-\213Ajv\235M\246QK\302\24\377"
	.ascii "4\332\333\203\360\332\213\225\230\37\237\262\364\17\325\325\351\301Z\22\266\4$\341\376\36\244\243\342s2\234\352\277X\372\326\257;\\\22\270\247(\20\370\301\36\244\17\346'\376fV]\300\342\273\233.^6I\361\303\201\342\207{\20o\212\315:cV\27J\361+\313\177\334h\226\342\245\201\342%=\210o^\275\324\343Tc\244x\321\272\326"
	.ascii "8\351"
	.ascii "8OU\240\370\321\36\304\375*<\345\27\24\343\263\7\37\254\257\24(\260\17\37L&\12"
	.ascii "48\200\317!|\216\340S\212\17\306"
	.ascii "4\205\36\224\341\203"
	.ascii "9\316\227\3\246\373\367xE\310\2\177\256\246\254\234\13\211\21\311\345h\226\"\355L\275`\26\262\244\323\316n\223\264=,\266\274\241|\251\225\304l.\254\14?h<\327.\251\314C\210\206\204)\247aaB\366\336\25\16\246\25\261\334\252\345\307\363\324\5"
	.ascii "7]\253]\226V\21tK\310\23\372@\4\361r\343\362\225y\220\12k\242\342\211\313\2\307`\1\34'\217\300\217H&\265\15[\366e[I-\305\325\261e\233\5\252\214#f\373-\1\201*\355\274\334\20\25\223\302*]\304\345\200\23\250\262\202TR\355\314\334\365\233"
	.ascii "1|\23\275\221\207[E0\234DF\202Ou\361\24\204#\307\236\304\342F3)\13\216\332\277\262\0\313\337i\340\323"
	.ascii "54\374?\30]\355\236\271\203\335J\262;T\332=\313v\333\27%\236\221v\27Wlo\307\256\245J\263\273e\377\357\264{\316\317nr\305\371&\225\337\35_\25\227n\226\244\7\373\301\250&\30?\311\0\204\237\31\207\247\343\227l;\343h\317\277\262\17\213\375/\372\371\177/\216\232;\234\377<\31\36&\355\326\262\335U\207\313*ll\267y\303\241(\274\224.\240h%,\332\220w\301\323\217\354zE\357\256\246\235\215d\32.\302\2\262\21\223_\277\201\221[=\30\247\227 \14i\345\311\353\243\235D\13A\215\227!\254U\364\302\350\25zR\240N\264\341\366\24\271'\21I\351j\240w#Vd\5\256\240\1J\16\257\10\365\212>\255\"\24\35\22\275\332\275?9\1$\262\276\250\10w\330Oi\243"
	.ascii "4/mk\371\262\336!\375\341\231\336*\372 \33g\230\2uxzj6\317.\272\301\211\325\7\373\325zvs\364*\367\321\344O\245\322~\250\21\271\276J\\\225i\344c\341\375{U\276\214\252\330:\203d\352\217|\234|\214\204\352\4\322$\274\23\311"
	.ascii "9\32\274{\245\357|\211\14\224\310\277\262\177\335\256$\323\235\216\336\200GG\5\324\310$E\35\16\302]~\273f\256H$\7\327`\1\241,?W\316\201\26\202\252\257\223\243C\351\23\3\273\336dP\177\204\230S\321EK\247K4z\302\341\256\201v\371<\307\7\310\315\1\270\317\360Mr=\220=;\300\367\322\266\321\1\7\262\260\221\204\261\24\205(\222*\310\17\5\331g\243\202\244\350}w\35\251\215\267E\352(\12\322&\277\342\360\33\204K\307\227\30\245\366Ah\300\207*\227\354\17b\373\327|\366\357\277k\373\315\335\333\367\372\25\211\226\256\366\7\243\1\237\375\3d\177\260<\177\225n\177\310]\333o\365\263/K\4\333\277\341_\35nv\5"
	.ascii "0\24-\370\0\34\"\0C\245\3|\0\206\335"
	.ascii "5\200\266\356\35p\313\257J\264w\265?\34\15\370\354\37!\373\303\371b\352ps\2\362\225H/\257\26\4F\214\241m\333\305`J?uIn\216\35\243\307\244\340g&Efit\372\262\271R\245\31\315g\355;\262\233?\10MN\5:@\217T\263\222\32\212\221\32\335\342>\232\262E\213\315\21^a\360b\30\"\254\33\356\272"
	.ascii "0I|\0\211\24\300-\32\323H&\231\210\324\344.\271W\22\37d\341\221>\370\371\4\377A\206\237\30{@\246r!\321\314l\334\242\234\32/\241f-\373g'\324\203;\262\22\34\14\365>\5\277\5t\250V\245\356\317\22"
	.ascii "j\255\17\352C\10A\2\363\203\372\260\206K\207:\212I\306@\250\243YxT \324\321\262T]MY\253\211\206KDu\307\326\24p\11\266\341\327C\224\340\212\226\340>\336_2=\202|\24\317H\314qWj \306 \35%\217\374\334\322(%1\235\27\212"
	.ascii "0\237=v\303\30>\230\215\16\306n(\364wC\306\366cy,j\12W \332\347\206 \245\374\36rC\263\273\335\7\363Q\337\33Cr\223\6k,\323M\201'\34+O\270?U\27}\14\215Q,\6\234\350q\244\353\347\354<\322"
	.ascii "8\334\270\375\14\343\30\225]YcV\371-\234H\315\323T?\241\307\207\266~\222I\6\211RW:\236\351\306@\224\343%\312*\37\312\11\322%\336\364\352+\300\336\304/\267\30\35_\233\206z\"\362\335\216o\"\343spZ\310\252\312d\253\"\27l\317\302!Zx\340)\26+#\222\211I;c\237\350\314C#\223v\231;+\203A\272m\377\332v\355Fz\312+TR\307\31]\251\335\357O#\235K\310\272\22\215\355\231\256m\344=\267\350V\362\357\371\356\351\246\215\354\13\213\304\2p\13YPN^\212+5`\357\21B\277\256\304\212T\220i\245@\234\10\227\270t\0\223\30\303"
	.ascii "3\22\225\356\255\311\344\3r\263\346\342)H\362\377\341\310\212\27\336b\351b\375\322z\26/#d$=\315"
	.ascii "6I\232\352\217\331\314\270\364\376\200>\10P\6>'\274\360o!\333^\274\22"
	.ascii "5\0\317\241"
	.ascii "4\343\324\264?\317@\237\223\236:\253y\352\5T\370}Rm\241\23\17\32\217.\370\23"
	.ascii "5\341\372A\227\310\203"
	.ascii "6\270\233\264\244~\221\265\274\240\35T\323;M\177O\332z:\363M\323\336\321HI\234\201\364\300kg\6\277\355cZL\344\312\230`\267\266\257\321\373\243\231"
	.ascii "2,}\335\230\11\273\261\245~\1XJR3\251V[\260\16\232S\362k\34Xd\254{1\350\307\6\265\345\267\330"
	.ascii "1\324\355\231\205\231\216Z\260\242*sf~\36\222\306X+\363"
	.ascii "3\221q\\P\14\206\364D\373\216\302"
	.ascii "6\252\354\301J\374Q=\204K\245\23\344\342\210/^qq\310\27\251\270"
	.ascii "8 \203T.\370\10\252\302\205\246CoZ\10~Y\375\347%\334\343\230&)\260L\26\232Z\300"
	.ascii "8\36d\314\314\255\301"
	.ascii "7nr\244\354\254Qk\1k\314`\343\16&\315p,\331Y\327\247\26\214x=\32K\230dp\264\25\346!\27\335a\306J&\31\35uL2\343\215el\313\275\210\244\231\216\325V<\214\323\327!\325\256\325\333\271\227\10\236\337\213z\31[\21\244v\266\201w}\357.\27\335\265\350\26\272{\343Eg\363\263\202\352\373\313"
	.ascii "2\20.\17\224F_\351\22-\257b?\202\324?\0\"\241g\20_\210\316\16h%\201xU\202\270\256\201xM+\346:\210\327\261'A\352\37\0\221(\272\266@>\20\253\204_\33\364\37B\361\272DqCC\361\206\36\361\32\212"
	.ascii "7\261"
	.ascii "3A\352\37@\261\272gW$\211\316^(\231@\274)\223\354j\362k\322\352,\354\234\351\27\324\364\257\267\313\257\365\311\12\254\361\313\261\255\24\326\263\270\310\207(\233\364\316\231\251\300\301\256j\355"
	.ascii "9*i>\374u\216\354,:T\5R\364P\247\200\300\313E\314r\222\226^J\250Z\11"
	.ascii "1\33N\266\37"
	.ascii "4t\373\11\321\257\21\343T\201TA\237\20\275[\371\273d\367I\243\376\241B?]\26\237\362\232\306\345\270\342\250\6*\260\26/\311N\226\242\333X\360\3\350Kd\251\202(\217"
	.ascii "7v\340\357\362l\332m\236\345\16s]g\224\343F}\372\342=V]U\30\374\27\313\246\2\351\10\237~\240\3%\24\257\236\276\357E\316{\357\255y\363\337\217\240I\304\207\357>>\372\235\217?VL\221\21\357F\316\217"
	.ascii "4FF|0\373#\33M#\336y\357\37\37\275oy{\356\374yD3\375m\316\234y\263\347\303'\20\11s\340\257\360w\347\7\221\363\346GtrZ\347\314\375(\362\3b\355\333e'B\23}\33\336\201wa\256a\376\354\17?\376\37c;\212\""
	.text
	.section	.gnu.lto_.symbol_nodes.f43a754b,"dr0"
	.ascii "x\234M\212\273\15\302P\20\4\347\356XpH\7\224z\16\20H\4@\312\327/\240\20\2b\252 t\13\10dC\360"
	.ascii "6\231\235\325\6\260\343\37?*a\377\204L\266\245\301OJ\253\7]D\361\14\35d#\317\362\201V\224\376;\322\266\15\326)\243\366\253rRy\330\214\307\252_\204MY\256\373n>\224\327f,\342\366\271\277\203/\230\351'\13"
	.text
	.section	.gnu.lto_.refs.f43a754b,"dr0"
	.ascii "x\234%\303M\6\200P\0F\321\373\275\333\357\250yD\264\207\326\327\22[ID4\355\321\341\10\354\374\246P\332\330\305>\16q\304\31\27\\q\243"
	.ascii "9\211W}\327O\375R<\302\7p\353\6"
	.ascii "9"
	.text
	.section	.gnu.lto_.decls.f43a754b,"dr0"
	.ascii "x\234\245YiP\\Wv\356\333\267\331\32\4\266"
	.ascii "2ck\344\314H\211c\315xl\13[\262\24yV'\216\23\25"
	.ascii "3\361"
	.ascii "8U\231?N\252\210\7k\"\215\265LI\330N%\225\370\201\0"
	.ascii "5\22b\25\233@\320-\220X\232U\354t\13\232E\354;\2$\26\1j6-@#\266\26\213:\347\335s\33\272\305\33\273*\351\342\323{\367\274\363\316w\316\271\367\335\367u\213\312d\262\335D&\263\300\347\370\367e\262\237\313e2\12\266\337\310\360\230\5(\0\34\226\341\307\1P\11\350\2\14\2&\0&\356\373\337\20'\0\320Ddv\37\321\237\360\230"
	.ascii "2~^)\333\372\21c\276\2p\7\270\1j\1-\200\32\236\303\2\240\31n^\343\371x\211\327a\334\12\360\3T\303\270\215`\316\17\1\355p>\12\307\33\200\16"
	.ascii "8\17\2,\301y'\34{E>\236\247\202s\233x=\203\337R\317\234\234\224\345,\264\272N\311\211\273r\267"
	.ascii "8,\217l\210s\204\241\233R!\16\365\327\363\35\250\234\210\247FC\204\321\365\315LA\20T\202\241\201lF\360\273\256\13q\202[\16+\331p8\341i\252\13\33\212"
	.ascii "3\341\1&y\322x\375Mg\242\334\243\22\4\177\361\317\245\301]F\256\223\235$\215\354\224\221l\262\207\335K2\301\242\5K*p\230"
	.ascii "2\227b_\26\4\5\311\"J\222N(\311 o\212\15\27\35Y\347\301\16d\311\1\253\6G\372[\226`\365xe\264"
	.ascii "3\20\277\250\24,\374C\276\6{\367\263\266\32\302\354_\213\311\350\202f\2\25d\217\222\261\350\215]/\211,7\200%g\223\345E\316\2\11\13\302H\204@w\310\310\233;\311\353\220m>d+^&\271\220m\36d\13\14MY\363#Nn\347"
	.ascii "7\253c\361\254\5\312H\1qc9\303\21\274\333.\206\24S\232LX\322jS\276\311M!\227\221BB\261\235"
	.ascii "3\15a*\345\313\321\214\331Ox\201\220\337\274\204\334\244\210(d\244\230\274\14\221>Q\240s\347X\311\244\234j\211\237\300f/\251$\265\333\205\26Y\207\202\20v\333\203\226Y\207\21\232{\227]i\205uh(Y\314uz=MP\13\246\363\347\352<\304"
	.ascii "6\0U\371F\27"
	.ascii "6&\370\376\374D\267"
	.ascii "3:\336\231\324\310\271c\31"
	.ascii "8\352\310\353\266\216S\231\361\225\204"
	.ascii "9\32\246\4\301Y&\272\225\202\233\336\336\255i\241"
	.ascii "4\324\203\256c\3\236\346\32[\224\273\223\204\274<\223\376A\367k\241\302\210 <\203\231c\225\222\22\270\373&\336M*X\207\340\244\222\354\206\33++\314uJZ\300\26\247<\254\256\356\262\333\306\244\236\215\371\256\230d5L\202a\353\322\221^\205U\317\257B\240\10\231"
	.ascii "5\367;+\271\277\352\333\375W\243\227"
	.ascii "4.v\353\240\306n\35\324\342:\220\234\366\6\355\225\177\243zV\215b\266s\255l\33\331\271S\271'\16\36"
	.ascii "6\363.\322H\224"
	.ascii "2\361\324"
	.ascii "0e\261|\315\327v\230\23"
	.ascii "3K,\321&HM\274$#\15@]o}\242\202]\3\210h'u\274\221\33\23\222\20\233"
	.ascii "3\353\240\344\221T\337\30\11\274\333\303"
	.ascii "3W\235\355\252l\266\253\262e\243\312\350\206<\225\7T)cS\361\11\333Q\306jc\203\235\230\15\374H+a\306\320\374sO\210\355\232\207N\361E\177K\\\364\355l\321\267\21\276\352/\214\345\265"
	.ascii "8\321V9_\310\201\332\202\2J{q\233\312\277t\251H\1\353I\255\206\365\24\353i\263\236 \10\351\260YO\235\326\365\324\305\326SOoq\261;]\306(\331\311\205\311rq~\272\255\363S\335^\32CX\336\37\271\361RF\273\323T.\222O\352m1\351^\226t\217"
	.ascii "5\351\262\233Q\325\12\352Gy\322\271\303\252(w\32d\35\326\371\27\16*i(e\354\211\1#}J\221\375\256\225\375\352\275\350~\261\223\344\16XH?v\255U_nr\207RG\302M\332V\335\277\214\371\205\207\10\367-\226]g\5\303OEv\322g]\374d@L\250\317Z\360 +x\353\32\234[y\244\225\263\32\263"
	.ascii "6\346+\262rd\235"
	.ascii "2\333\337\273\221{H\34\30\274R\345a\355\305"
	.ascii "0\332t\246\342\335\266\275\370\310:\201C\"\365(\353\305\210\265\27\345\13\346\307\216\264\327Z|\305\304\223"
	.ascii "8\17\332o\35V\32zLJ\334o*\302\352v\361\375\306\270u\277\251"
	.ascii "5\346\232\24t\31\233f\274Q\372_b3\204\221\214\304\367\252\375\204"
	.ascii "5\213\205"
	.ascii "2br\37\356\34\343\223>n\355\301\4\353\301\326y\226\352\301Dx\357\12\331\260Ma\301\352\224\271\0'\311\212'\305\212\37\262\212\37X+^+\355\350s\245\21\12^bJm\212\326\201\306Y\207\351\263\347\226\335\305"
	.ascii "4\36[\323\310\210\320\366;X\227\0\231F\312;\261\376\363\312\215U0\303\363xX\233\343\304WA\266\316gs\25\370\217\34\24\263 \217"
	.ascii "6V\301\254\230\330#k\7L\254\3"
	.ascii "9C5_\301\313\321K)\26b\336xi6v\267w80\273hrb3<\351\177\327\211&+\330\206\273\270X\236\311_\351\302\326\315t\21\366\15/q\333\230\3\313\23\353\6\244"
	.ascii "7v\273\213\223\271\0M\234\337\334\227\275\224\33\23Z\231U\34\256T\362\230\252o\211\11\376#\345-\311\316L\274\10/\260\24[2r\345L\275\10r\266\331\264\367T8\261\361/\305\341\343U\335\377(m2\6\273\315\276\265\302"
	.ascii "6\272\37\355$O1x\325H\375#\307\355\341\242"
	.ascii "7\374\263\333\27\330\311"
	.ascii "2x\233\231\367*\331n\275Gt.\271\367\310\350l\353\274D\276\301;{\370\354}\7\232\306ZI\312\247\313\15r\232\205\3\277\225\252T\307W5\20\304\244\17\36\336\345'\250\375\303A\316\374\222\220"
	.ascii "5\262\235<\203\256\301n\265\31\330\332\270\345\224\221G\204M\27\233\252\345@S\260\222\15\335\304\341\345\276\361\5\312\332\300\272b\276\377\244\225\262\253/\262\315"
	.ascii "7'u\336\203]\245\342p\250\252\246\337\211]}I\"\362\343\356\204r7\346\354 A\24\31XZ\352\316\256:J\20YC\271a\250\347\210R\243c\262\34\330Ug\11\336;\15\261\7\330E\27\11\332\213+s\255H\253\224\240\235\14O\317\305\224]\245\352\343\241\334"
	.ascii "0\324\363\345\336P\327"
	.ascii "9\263\253\333$x\363"
	.ascii "5\3\313\330Ww\11\336;#\376M\256\354\252\207\4o\363}\363<f\365\202m_\275\260\257\326Pn<\24V\357\205\325\253\246\343\303"
	.ascii "0\360v\333,\274"
	.ascii "0\213\370\346X\336\214?c\357\340\346\322!L\371;\266C7\34>G[\31?\233\214I}w+\255\265\0"
	.ascii "7,\340"
	.ascii "9\332\301\216\36-\322\276,A\33\277\334R\207kl\207\4\355XF\204\5\253\375\336V\332g\371\225\313\230\323N\11\332\246\247\306I\\5\257H\320\336\320O-\"\355\237K\320&$\367\315lcW\277\277\225"
	.ascii "6,j\275\0\267\222\37H\320\352\303\302na/vI\320Z\277S\271\331\177\247\362\302\357T]\363\227\322\361\352_\330.O/\276<\353\312\33\24\354\352_\332.\23/\\&s\351=\257\261\213\257\332\366\334\13{\256"
	.ascii "165c\340\277\222\240\235"
	.ascii "2\345\26\343"
	.ascii "7\273\327$h\215\1\327.\270\260\253{$h\13\14Z\1\233\361C\11\336\364\373m\221\330\307\37I\360>\251\354\33\304\202^\227\340]\350+L\302\310?\226\340\325\350\332*\361\361{C\202\267\277=\177\24\227\334\233\22\274j\343d\17\316\375[\22\274\275\203\271*\354\306^\11\336\273\17J\214"
	.ascii "\230\225\247\4\357\360\362p5N\376\333\266\233\236\27nz\11"
	.ascii "9\272\12\344}\307vo\362\302\275)\255d\254\27\367\300}\266{\204\27\356\21\213\3\5\3\270\326\367\333>\216^\370"
	.ascii "8Z\212\373F\361\336w%xC\327\247\3\260W\7$xu\17\327{\360\271?(\301+\254\304\4\343\354\377\265\4\257\237!\273\33\353=$\301;\221\365\260\31\263zO\202\267\354\372]\35\316\376O$x\307\343\27\373\360\301\377\251\4\257Y07`E?\223\340\265\344W\17!\357\317%x\307\214 )\331\325_H\360>G4\20"
	.ascii "5Z\353z\260PP\251\15;\330{\26D\200 gZ\316\17\16\376\200\263\200\0@\240\234\311\5\22\4\307s\0\25 \30p\36p\1\20\2\270\10\10\5\204\1\302\1\21\200H@\24\340\22 \32\20\3\210\5\304\1\342\1\227\1\11\200D\300\25@\22 \31\240\6h\0W\1)\200T\300"
	.ascii "5\300u1\17@: \3\220\11\320\2\262\0\331\200\34@. \17\220\17\270\1(\0\24\2\212\0\305\200\22@)\240\14P\16\320\1\364\200\233\200\12@%\300\0\250\2T\3j\0\265\200[\200:@=\240\1\320\10h\2"
	.ascii "4\3Z\0\255\200"
	.ascii "6@;\240\3\320\11\350\2t\3n\3z\0\275\200>\300\35\300]@?`\0"
	.ascii "0\10\30\2\334\3\14\3F\0\243\200\373\0#`\14"
	.ascii "0\16\230\0L\2\246\0\17\0\17\1\217\0\217\1\323\200\31\300,\300\4\230\3<\1\314\3\26\0\213\200%\300"
	.ascii "2\300\14x\12X\221"
	.ascii "3\335GV\345\354-c6\224"
	.ascii "7\272\203\14\353P\307\31\374kw\370\11s\26\213\7[\32\353\242\364\266\352/b!\257"
	.ascii "2\213\214\254\311\17\312\310\272\374U\361m\240O\214tAU\312"
	.ascii "4\335\212E\277\342\360\247u\247E\316ug\0r[T\345\376\304VJ\36V\222g\270,\300O\240\333\255\367\260\347\332t\265Fn\353,~\323\376\223\336S\1C\13\12\232\203R\263\353Y\314"
	.ascii "1\232\207\347\223\301\27\346\234\240^\203z\244\262Ka\10\300\357\314\304\217n'\376\224)u\233\240g)\373\6A\2\250X\355\26\231|\330V\370\6R;\341[nN\353R\332:\327\220o\360\36\214\37"
	.ascii "1+h1O1w6\302\201\226\342`Z\263\372\12t\30\212"
	.ascii "57d\352\230"
	.ascii "6\13\211\312~\346\216\266\336\231\244:\366\232Vi\37\353\344h\33\30\365\323"
	.ascii "0\365[\243\277X\266\15m3W\226/2!\327\226\334\\\353\200\266\334d\223\226\355\21qi\363e<^fH\262\36\177\274P\237_\343~Q!UUl\247"
	.ascii "9?c\322p\16\277\314\313\17\331\275y\272\272^\356w'\337\277\205\355W\251\221EO\11\347\230\215\352g\"w0(\245\302\31m\371%\353\354\307R\222\177\253T\345\201\266\212\334\371&\346"
	.ascii "7\327W\373"
	.ascii "7h\272z\325"
	.ascii "0\310\302\335\252O+r\345\251\30G\37\263[uKeF\212\266\320s\343\5,=Cfc\14\367\323\204w\264\262"
	.ascii "22\316\33\243\271\337\375&s\36\273"
	.ascii "72hh\221\323\32&\374\375Y[RJW\236q[g\341\323\33\254}\23\315U=\274\214\314\260\201V\224\234\231K\217x\271Cj}>\233\216\262\345\364\11n\353N\17gBUS\321\332\241\340\235j=w\213\271\315\367\336:\215\246\206\345\366\12\26\355Juh=o\312D\302\271"
	.ascii "0\306\252\216\327]T\362\311\15\33\214g\331\31\12\306\317\240\351\\\302\355\353\254\210\345\304\201n\316"
	.ascii "0\235"
	.ascii "1\225\311\212\275TYq\201\27\21\330\25\326\316\232\22\266"
	.ascii "6\321\306)\314\365\25\223\354\336y\341J\233\23\332\356\6\352u\254\311\367\22\263U\334v>>\343\1\233\213\"\323\340y\316Q\375d\12\347L\233\36\354\317"
	.ascii "9\374\246\353u\314/\244"
	.ascii "1m\232\257\213\253\325\213\217Y\274\316\354\245+<^\210\351\322,\273\367z\364\345\4>A\265\267W\257\261\374\362R\202\356\271\240-#y\365\36\253#1\251\340?\320"
	.ascii "4\22"
	.ascii "3]\304n\255+Z\273\302\273b2?[d\302&4>:\204\247R\267>]\313\272g(\32\252rD\333J{@\17\353r\233\237\266\220\323\6\216\352\323\330d\14\304\245\265\271q[\271\232\211\310\344\325\24\13\237\306"
	.ascii "2uw\33sk\256\211\342s6^0S\314\242"
	.ascii "5\336.\326\362\207\312\374"
	.ascii "4x\235=\243\205e\15?\344nY\371\327\330\224\371\255\207\317\362\204kkS5\254\210p\325\360U^k\254E\33\317j\325\4T\373\363>\245\325w\14\262\236\324\15\350\22\371\302+3\264\215\261{\263\232\32\375"
	.ascii "8mM\301t&\353q\211.'\217\307\213\214/0\263\271\320\214\232\232"
	.ascii "9\357\372T%\316Y`\317\335"
	.ascii "2\276\6:u\21Y8\267"
	.ascii "9\343\331|n\333\327"
	.ascii "4\353,^[\322X<\357\300Hk\301\34\273\367l\261\326\302\347\366RP`\34\313\257 \351\326C\376PiR\324&\234"
	.ascii "3sH#\317\305\177\275\265\234\335;\335\37]\305\33_4\366\350\1\233\264\226\302\207*^\207\356\332p/\233\264%}\270\236\333\"\322\22\6Y\233\257\216"
	.ascii "5\336PZ\205J\20eB%\230"
	.ascii "2\241r\236\242P\271@Q\250\204P\24*\27)\12\225P\212B%\214\242P\11\247(T\"(\12\225H\212B%\212r\241BQ\250DS\24*1\24\205J,E\241\22GQ\250\304S\24*\227)\12\225\4\212B%\221\242P\271BQ\250$Q\24*\311\24\205\212\232\242P\321P\24*W)\12\225\24\212B%\225\242P\271FQ\250\\\247(T\322(\12\225t\212B%\203\242P\311\244(T\264\24\205J\26E\241\222MQ\250\344P\24*\271\24\205J\36E\241\222OQ\250\334\240(T\12(\12\225B\212B\245\210\242P)\246(TJ(\12\225R\212B\245\214\242P)\247(Tt\24\205\212\236\242P\271IQ\250TP\24*\225\24\205\212\201\242P\251\242(T\252)\12\225\32\212B\245\226\242P\271EQ\250\324Q\24*\365\24\205J\3eb!vr\346\222\222\11\225\221\304{\12\203\352\254\300~\370d\213\343\34\177so\276_U\342\233\233"
	.ascii "4R\220*M\354\345\335\334\264ry\233\335o\371\13v\277\345"
	.ascii "7S\374\237+8\212\357\3\315\\\33\265\363\26\25\221\315/\377\334\273\205y[\306\362\232\354\377WL\224\23\233\336\255\334\273\225y\233\227J*\334\355\274\305\337.7\275\333\270w\33\363\356\\\237W\333\304>\314~\347\335tn\347\316\355\314"
	.ascii "9\302<\371\330\276\310 \273D:\270w\7\363\36L\216{\307\316\271\327.t'w\356d\316E\251\255\343\366\241\253\355\372\327\305\275\305\243\343\231c\377y\304\333\327\371\37>\372\355\356\17\336xC\366\267\37\374\304\363\237|\341\357\300\336\3{\337\366\374\347S\247\216\237\361<q\354\344\277\177\365\356{\373\274\367\357\363<v\360\320\301\267\276:\370\356[\314(\32N\372\34\377\342\263#\236\336\314\260\367\250\314\361\330I\337C\336\276\377\367Hg|?\203\20\20\311\325\333\33\316}>=~\334\333\333\345\364\221"
	.ascii "3G|\275\377\361\357\16\320\23\237\35P\34\375\364\314Qz\306\367\363\327\304\223\177\335\353\271w\257\347\211#'<\331\311^O\337c'\304"
	.ascii "0\237{\213'\20\350;\314K4\210'\336\20\0\214?\360\376\344\243\375`{W\264\355\7\333{\33\24\37~\371\376\333/m\275\307\347\217\177\224"
	.ascii "9\177\1\271\355\337\347\355\253\360"
	.ascii "9\372"
	.ascii "\351i\327\237\375\356\213c\307}\337:v\362\27"
	.ascii "2gH\324G\274{\367\363\201\17Y\257|\370\361\257|\376\360\376!\27oo\237\317\216\370@U\212\337\237>r\304\351\344)\337\243\247O}\245"
	.ascii "8~\344\323\337\377\277\332v\374\330\357\240"
	.ascii "0z\342\324\227\24\272\261\303\276"
	.ascii "7b)p\4\207\357\361\4\367\303p"
	.ascii "?8\177\370\361\227\37\377\352\313?\274\377\316>G\261\331\247|\34O\260\203\223\265\324\37\377\372\203\267\311ir\324\301\373\223_\277s\224|\316\216\237\377/\210p\212\305"
	.text
	.section	.gnu.lto_.symtab.f43a754b,"dr0"
	.ascii "__ZN3stk4hash3md59reset_MD5Ev@0\0\0\0\0\0\0\0\0\0\0\0\0\277\0\0\0__ZN3stk4hash3md58calc_MD5EPKcj@8\0\0\0\0\0\0\0\0\0\0\0\0\322\0\0\0__ZN3stk3mem3movEPvPKvj@12\0\0\2\0\0\0\0\0\0\0\0\0\346\0\0\0"
	.text
	.section	.gnu.lto_.opts,"dr0"
	.ascii "'-fno-trapv' '-dD' '-malign-double' '-momit-leaf-frame-pointer' '-m32' '-mfpmath=sse' '-mpreferred-stack-boundary=8' '-mmmx' '-msse' '-msse2' '-mthreads' '-mtune=generic' '-march=i686' '-g' '-g' '-O3' '-fno-use-linker-plugin' '-fverbose-asm' '-fstrict-aliasing' '-fwrapv' '-funroll-loops' '-flto' '-fexceptions'\0"
	.text
	.section	.text.unlikely,"x"
LCOLDB1:
	.text
LHOTB1:
	.p2align 4,,15
	.section	.text.unlikely,"x"
Ltext_cold0:
	.text
	.globl	__ZN3stk4hash3md59reset_MD5Ev@0
	.def	__ZN3stk4hash3md59reset_MD5Ev@0;	.scl	2;	.type	32;	.endef
__ZN3stk4hash3md59reset_MD5Ev@0:
LFB696:
	.file 1 "hash/stk_hash_md5.cpp"
	.loc 1 40 0
	.cfi_startproc
	rep ret
	.cfi_endproc
LFE696:
	.section	.text.unlikely,"x"
LCOLDE1:
	.text
LHOTE1:
	.data
	.align 64
LC0:
	.long	7
	.long	12
	.long	17
	.long	22
	.long	7
	.long	12
	.long	17
	.long	22
	.long	7
	.long	12
	.long	17
	.long	22
	.long	7
	.long	12
	.long	17
	.long	22
	.long	5
	.long	9
	.long	14
	.long	20
	.long	5
	.long	9
	.long	14
	.long	20
	.long	5
	.long	9
	.long	14
	.long	20
	.long	5
	.long	9
	.long	14
	.long	20
	.long	4
	.long	11
	.long	16
	.long	23
	.long	4
	.long	11
	.long	16
	.long	23
	.long	4
	.long	11
	.long	16
	.long	23
	.long	4
	.long	11
	.long	16
	.long	23
	.long	6
	.long	10
	.long	15
	.long	21
	.long	6
	.long	10
	.long	15
	.long	21
	.long	6
	.long	10
	.long	15
	.long	21
	.long	6
	.long	10
	.long	15
	.long	21
	.section	.text.unlikely,"x"
LCOLDB2:
	.text
LHOTB2:
	.p2align 4,,15
	.globl	__ZN3stk4hash3md58calc_MD5EPKcj@8
	.def	__ZN3stk4hash3md58calc_MD5EPKcj@8;	.scl	2;	.type	32;	.endef
__ZN3stk4hash3md58calc_MD5EPKcj@8:
LFB697:
	.loc 1 48 0
	.cfi_startproc
LVL0:
	.loc 1 48 0
	pushl	%ebp	 #
	.cfi_def_cfa_offset 8
	.cfi_offset 5, -8
	pushl	%edi	 #
	.cfi_def_cfa_offset 12
	.cfi_offset 7, -12
LBB2:
	.loc 1 64 0
	movl	$64, %ecx	 #, tmp150
LBE2:
	.loc 1 48 0
	pushl	%esi	 #
	.cfi_def_cfa_offset 16
	.cfi_offset 6, -16
	pushl	%ebx	 #
	.cfi_def_cfa_offset 20
	.cfi_offset 3, -20
LBB3:
	.loc 1 64 0
	movl	$LC0, %esi	 #, tmp149
LBE3:
	.loc 1 48 0
	subl	$1260, %esp	 #,
	.cfi_def_cfa_offset 1280
LBB4:
	.loc 1 66 0
	movl	$1732584193, __ZL1h	 #, h
	.loc 1 67 0
	movl	$-271733879, __ZL1h+4	 #, h
	.loc 1 64 0
	leal	768(%esp), %edi	 #, tmp148
LBE4:
	.loc 1 48 0
	movl	1284(%esp), %ebx	 # a_len, a_len
LBB5:
	.loc 1 68 0
	movl	$-1732584194, __ZL1h+8	 #, h
	.loc 1 64 0
	rep movsl
	.loc 1 77 0
	movl	$1, 4(%esp)	 #,
	movl	$576, (%esp)	 #,
	.loc 1 69 0
	movl	$271733878, __ZL1h+12	 #, h
	.loc 1 77 0
	call	_calloc	 #
LVL1:
	movl	%eax, %ebp	 #, data_chunk
	movl	%eax, 508(%esp)	 # data_chunk, %sfp
LVL2:
	.loc 1 79 0
	movl	1280(%esp), %eax	 # a_data, a_data
LVL3:
	movl	%ebx, 8(%esp)	 # a_len,
	movl	$0, (%esp)	 #,
	.loc 1 82 0
	movl	%ebp, %esi	 # data_chunk, data_chunk
	addl	$512, %esi	 #, D.29593
	.loc 1 79 0
	movl	%eax, 4(%esp)	 # a_data,
	call	__ZN3stk3mem3movEPvPKvj@12	 #
	.cfi_def_cfa_offset 1268
LVL4:
	.loc 1 80 0
	movb	$16, 0(%ebp,%ebx)	 #, *_22
	.loc 1 79 0
	subl	$12, %esp	 #,
	.cfi_def_cfa_offset 1280
	.loc 1 81 0
	sall	$3, %ebx	 #, tmp156
	movl	%ebx, 764(%esp)	 # tmp156, bits_len
	.loc 1 82 0
	leal	764(%esp), %ebx	 #, tmp157
	movl	$4, 8(%esp)	 #,
	movl	%esi, (%esp)	 # D.29593,
	movl	%ebx, 4(%esp)	 # tmp157,
	call	__ZN3stk3mem3movEPvPKvj@12	 #
	.cfi_def_cfa_offset 1268
LVL5:
	movl	__ZL1h+8, %ebp	 # h, D.29594
LVL6:
	movl	__ZL1h+12, %eax	 # h, D.29594
	subl	$12, %esp	 #,
	.cfi_def_cfa_offset 1280
LVL7:
	movl	__ZL1h, %ecx	 # h, D.29594
	movl	__ZL1h+4, %edi	 # h, D.29594
	movl	$0, 488(%esp)	 #, %sfp
	.loc 1 88 0
	movl	$0, 480(%esp)	 #, %sfp
	movl	%ebp, 500(%esp)	 # D.29594, %sfp
	movl	%eax, 504(%esp)	 # D.29594, %sfp
	movl	%eax, %ebp	 # D.29594, a
	movl	%ecx, 492(%esp)	 # D.29594, %sfp
	movl	%edi, 496(%esp)	 # D.29594, %sfp
LVL8:
	.p2align 4,,10
L3:
	.loc 1 92 0
	movl	500(%esp), %edx	 # %sfp, D.29594
	.loc 1 90 0
	movl	492(%esp), %esi	 # %sfp, a
LVL9:
	.loc 1 91 0
	movl	496(%esp), %edi	 # %sfp, a
LVL10:
	.loc 1 92 0
	movl	%edx, 476(%esp)	 # D.29594, %sfp
LVL11:
	.loc 1 95 0
	xorl	%edx, %edx	 # g
LVL12:
	jmp	L8	 #
LVL13:
	.p2align 4,,10
L35:
	.loc 1 100 0
	movl	%ebp, %eax	 # a, D.29595
	movl	%ebp, %ecx	 # a, D.29595
	leal	1(%edx,%edx,4), %ebx	 #, D.29595
	notl	%eax	 # D.29595
	andl	476(%esp), %eax	 # %sfp, D.29595
	andl	%edi, %ecx	 # a, D.29595
	.loc 1 101 0
	andl	$15, %ebx	 #, g
	.loc 1 100 0
	orl	%ecx, %eax	 # D.29595, f
LVL14:
L5:
	.loc 1 112 0 discriminator 2
	addl	%esi, %eax	 # a, D.29595
	movl	480(%esp), %esi	 # %sfp, w
LVL15:
	addl	__ZL1k(,%edx,4), %eax	 # MEM[symbol: k, index: _224, step: 4, offset: 0B], D.29594
	movl	768(%esp,%edx,4), %ecx	 # MEM[symbol: r, index: _224, step: 4, offset: 0B], MEM[symbol: r, index: _224, step: 4, offset: 0B]
	.loc 1 95 0 discriminator 2
	addl	$1, %edx	 #, tmp196
	.loc 1 112 0 discriminator 2
	addl	(%esi,%ebx,4), %eax	 # *_66, D.29594
	roll	%cl, %eax	 # MEM[symbol: r, index: _224, step: 4, offset: 0B], D.29594
	addl	%edi, %eax	 # a, D.29594
LVL16:
	.loc 1 95 0 discriminator 2
	cmpl	$64, %edx	 #, tmp196
	je	L30	 #,
LVL17:
	.loc 1 96 0
	cmpl	$15, %edx	 #, tmp196
	jle	L31	 #,
	.loc 1 99 0
	cmpl	$31, %edx	 #, tmp196
	jle	L20	 #,
	.loc 1 102 0
	cmpl	$47, %edx	 #, tmp196
	jg	L32	 #,
	.loc 1 103 0
	movl	%edi, %ecx	 # a, D.29595
	leal	5(%edx,%edx,2), %esi	 #, D.29595
	xorl	%eax, %ecx	 # D.29594, D.29595
	xorl	476(%esp), %ecx	 # %sfp, f
	.loc 1 104 0
	andl	$15, %esi	 #, g
L22:
LVL18:
	.loc 1 112 0
	movl	480(%esp), %ebx	 # %sfp, w
	leal	0(%ebp,%ecx), %ebp	 #, D.29595
	addl	__ZL1k(,%edx,4), %ebp	 # MEM[symbol: k, index: _224, step: 4, offset: 0B], D.29594
	movl	768(%esp,%edx,4), %ecx	 # MEM[symbol: r, index: _224, step: 4, offset: 0B], MEM[symbol: r, index: _224, step: 4, offset: 0B]
	addl	(%ebx,%esi,4), %ebp	 # *_66, D.29594
	roll	%cl, %ebp	 # MEM[symbol: r, index: _224, step: 4, offset: 0B], D.29594
	leal	0(%ebp,%eax), %esi	 #, D.29594
	movl	%esi, 484(%esp)	 # D.29594, %sfp
LVL19:
	.loc 1 95 0
	leal	1(%edx), %esi	 #, g
LVL20:
	.loc 1 96 0
	cmpl	$15, %esi	 #, g
	jle	L23	 #,
	.loc 1 99 0
	cmpl	$31, %esi	 #, g
	jle	L24	 #,
	.loc 1 102 0
	cmpl	$47, %esi	 #, g
	jg	L33	 #,
	.loc 1 103 0
	movl	484(%esp), %ecx	 # %sfp, D.29595
	leal	5(%esi,%esi,2), %ebp	 #, D.29595
	.loc 1 104 0
	andl	$15, %ebp	 #, g
	.loc 1 103 0
	xorl	%eax, %ecx	 # D.29594, D.29595
	xorl	%edi, %ecx	 # a, f
L26:
LVL21:
	.loc 1 112 0
	movl	480(%esp), %ebx	 # %sfp, w
	addl	476(%esp), %ecx	 # %sfp, D.29595
	.loc 1 95 0
	addl	$2, %edx	 #, g
LVL22:
	.loc 1 112 0
	addl	__ZL1k(,%esi,4), %ecx	 # MEM[symbol: k, index: _224, step: 4, offset: 0B], D.29594
	addl	(%ebx,%ebp,4), %ecx	 # *_66, D.29594
	movl	%ecx, %ebp	 # D.29594, D.29594
	movl	768(%esp,%esi,4), %ecx	 # MEM[symbol: r, index: _224, step: 4, offset: 0B], MEM[symbol: r, index: _224, step: 4, offset: 0B]
	movl	%edi, %esi	 # a, a
LVL23:
	movl	484(%esp), %edi	 # %sfp, a
LVL24:
	roll	%cl, %ebp	 # MEM[symbol: r, index: _224, step: 4, offset: 0B], D.29594
	movl	%ebp, %ebx	 # D.29594, D.29594
	movl	%edi, 476(%esp)	 # a, %sfp
	movl	%eax, %ebp	 # D.29594, a
LVL25:
	leal	(%ebx,%edi), %edi	 #, a
LVL26:
L8:
	.loc 1 96 0
	cmpl	$15, %edx	 #, g
	jle	L34	 #,
	.loc 1 99 0
	cmpl	$31, %edx	 #, g
	jle	L35	 #,
	.loc 1 102 0
	cmpl	$47, %edx	 #, g
	jg	L7	 #,
	.loc 1 103 0
	movl	476(%esp), %eax	 # %sfp, D.29595
	leal	5(%edx,%edx,2), %ebx	 #, D.29595
	.loc 1 104 0
	andl	$15, %ebx	 #, g
	.loc 1 103 0
	xorl	%edi, %eax	 # a, D.29595
	xorl	%ebp, %eax	 # a, f
	jmp	L5	 #
LVL27:
	.p2align 4,,10
L24:
	.loc 1 100 0
	movl	484(%esp), %ebp	 # %sfp, D.29595
	movl	%edi, %ecx	 # a, D.29595
	notl	%ecx	 # D.29595
	andl	%eax, %ecx	 # D.29594, D.29595
	andl	%edi, %ebp	 # a, D.29595
	orl	%ebp, %ecx	 # D.29595, f
	leal	1(%esi,%esi,4), %ebp	 #, D.29595
	.loc 1 101 0
	andl	$15, %ebp	 #, g
	jmp	L26	 #
	.p2align 4,,10
L20:
	.loc 1 100 0
	movl	476(%esp), %ebx	 # %sfp, a
	leal	1(%edx,%edx,4), %esi	 #, D.29595
	.loc 1 101 0
	andl	$15, %esi	 #, g
	.loc 1 100 0
	movl	%ebx, %ecx	 # a, D.29595
	andl	%eax, %ebx	 # D.29594, D.29595
	notl	%ecx	 # D.29595
	andl	%edi, %ecx	 # a, D.29595
	orl	%ebx, %ecx	 # D.29595, f
	jmp	L22	 #
LVL28:
	.p2align 4,,10
L34:
	.loc 1 97 0
	movl	476(%esp), %ebx	 # %sfp, D.29595
	movl	%edi, %eax	 # a, D.29595
	notl	%eax	 # D.29595
	andl	%ebp, %eax	 # a, D.29595
	andl	%edi, %ebx	 # a, D.29595
	orl	%ebx, %eax	 # D.29595, f
LVL29:
	movl	%edx, %ebx	 # g, g
	jmp	L5	 #
LVL30:
	.p2align 4,,10
L31:
	movl	%eax, %ecx	 # D.29594, D.29595
	movl	%edi, %esi	 # a, D.29595
	notl	%ecx	 # D.29595
	andl	476(%esp), %ecx	 # %sfp, D.29595
	andl	%eax, %esi	 # D.29594, D.29595
	orl	%esi, %ecx	 # D.29595, f
	movl	%edx, %esi	 # tmp196, g
	jmp	L22	 #
	.p2align 4,,10
L23:
	movl	484(%esp), %ebx	 # %sfp, D.29594
	movl	%eax, %ebp	 # D.29594, D.29595
	movl	%ebx, %ecx	 # D.29594, D.29595
	andl	%ebx, %ebp	 # D.29594, D.29595
	notl	%ecx	 # D.29595
	andl	%edi, %ecx	 # a, D.29595
	orl	%ebp, %ecx	 # D.29595, f
	movl	%esi, %ebp	 # g, g
	jmp	L26	 #
LVL31:
	.p2align 4,,10
L7:
	leal	0(,%edx,8), %ebx	 #, tmp179
	.loc 1 106 0
	movl	%ebp, %eax	 # a, D.29595
	notl	%eax	 # D.29595
	subl	%edx, %ebx	 # g, D.29597
	orl	%edi, %eax	 # a, D.29595
	xorl	476(%esp), %eax	 # %sfp, f
LVL32:
	.loc 1 107 0
	andl	$15, %ebx	 #, g
LVL33:
	jmp	L5	 #
LVL34:
	.p2align 4,,10
L32:
	.loc 1 106 0
	movl	476(%esp), %ecx	 # %sfp, D.29595
	leal	0(,%edx,8), %esi	 #, tmp207
	subl	%edx, %esi	 # tmp196, D.29597
	notl	%ecx	 # D.29595
	.loc 1 107 0
	andl	$15, %esi	 #, g
	.loc 1 106 0
	orl	%eax, %ecx	 # D.29594, D.29595
	xorl	%edi, %ecx	 # a, f
	jmp	L22	 #
	.p2align 4,,10
L33:
	movl	%edi, %ecx	 # a, D.29595
	leal	0(,%esi,8), %ebp	 #, tmp239
	notl	%ecx	 # D.29595
	orl	484(%esp), %ecx	 # %sfp, D.29595
	subl	%esi, %ebp	 # g, D.29597
	.loc 1 107 0
	andl	$15, %ebp	 #, g
	.loc 1 106 0
	xorl	%eax, %ecx	 # D.29594, f
	jmp	L26	 #
LVL35:
	.p2align 4,,10
L30:
	.loc 1 85 0
	addl	$64, 488(%esp)	 #, %sfp
	.loc 1 116 0
	addl	%ebp, 492(%esp)	 # a, %sfp
	.loc 1 85 0
	movl	488(%esp), %ebp	 # %sfp, offset
LVL36:
	.loc 1 118 0
	addl	%edi, 500(%esp)	 # a, %sfp
	.loc 1 117 0
	addl	%eax, 496(%esp)	 # D.29594, %sfp
	.loc 1 119 0
	movl	476(%esp), %edi	 # %sfp, a
LVL37:
	addl	%edi, 504(%esp)	 # a, %sfp
	.loc 1 85 0
	cmpl	$512, %ebp	 #, offset
	je	L36	 #,
	movl	508(%esp), %eax	 # %sfp, w
LVL38:
	addl	488(%esp), %eax	 # %sfp, w
	movl	504(%esp), %ebp	 # %sfp, a
LVL39:
	movl	%eax, 480(%esp)	 # w, %sfp
LVL40:
	jmp	L3	 #
LVL41:
L36:
	movd	500(%esp), %xmm1	 # %sfp, tmp192
	.loc 1 122 0
	movl	508(%esp), %edx	 # %sfp, data_chunk
	movd	504(%esp), %xmm2	 # %sfp, D.29594
	movd	492(%esp), %xmm0	 # %sfp, tmp193
	movd	496(%esp), %xmm3	 # %sfp, D.29594
	punpckldq	%xmm2, %xmm1	 # D.29594, tmp192
	movl	%edx, (%esp)	 # data_chunk,
	punpckldq	%xmm3, %xmm0	 # D.29594, tmp193
	punpcklqdq	%xmm1, %xmm0	 # tmp192, vect_cst_.19
	movaps	%xmm0, __ZL1h	 # vect_cst_.19, MEM[(unsigned int *)&h]
	call	_free	 #
LVL42:
LBE5:
	.loc 1 124 0
	addl	$1260, %esp	 #,
	.cfi_def_cfa_offset 20
	movl	$__ZL1h, %eax	 #,
	popl	%ebx	 #
	.cfi_restore 3
	.cfi_def_cfa_offset 16
	popl	%esi	 #
	.cfi_restore 6
	.cfi_def_cfa_offset 12
	popl	%edi	 #
	.cfi_restore 7
	.cfi_def_cfa_offset 8
	popl	%ebp	 #
	.cfi_restore 5
	.cfi_def_cfa_offset 4
LVL43:
	ret	$8	 #
	.cfi_endproc
LFE697:
	.section	.text.unlikely,"x"
LCOLDE2:
	.text
LHOTE2:
	.section .rdata,"dr"
	.align 64
__ZL1k:
	.long	-680876936
	.long	-389564586
	.long	606105819
	.long	-1044525330
	.long	-176418897
	.long	1200080426
	.long	-1473231341
	.long	-45705983
	.long	1770035416
	.long	-1958414417
	.long	-42063
	.long	-1990404162
	.long	1804603682
	.long	-40341101
	.long	-1502002290
	.long	1236535329
	.long	-165796510
	.long	-1069501632
	.long	643717713
	.long	-373897302
	.long	-701558691
	.long	38016083
	.long	-660478335
	.long	-405537848
	.long	568446438
	.long	-1019803690
	.long	-187363961
	.long	1163531501
	.long	-1444681467
	.long	-51403784
	.long	1735328473
	.long	-1926607734
	.long	-378558
	.long	-2022574463
	.long	1839030562
	.long	-35309556
	.long	-1530992060
	.long	1272893353
	.long	-155497632
	.long	-1094730640
	.long	681279174
	.long	-358537222
	.long	-722521979
	.long	76029189
	.long	-640364487
	.long	-421815835
	.long	530742520
	.long	-995338651
	.long	-198630844
	.long	1126891415
	.long	-1416354905
	.long	-57434055
	.long	1700485571
	.long	-1894986606
	.long	-1051523
	.long	-2054922799
	.long	1873313359
	.long	-30611744
	.long	-1560198380
	.long	1309151649
	.long	-145523070
	.long	-1120210379
	.long	718787259
	.long	-343485551
.lcomm __ZL1h,16,16
	.text
Letext0:
	.section	.text.unlikely,"x"
Letext_cold0:
	.file 2 "C:/Qt/Qt5.5.0/Tools/mingw492_32/i686-w64-mingw32/include/_mingw.h"
	.file 3 "C:/Qt/Qt5.5.0/Tools/mingw492_32/i686-w64-mingw32/include/stdint.h"
	.file 4 "C:/Qt/Qt5.5.0/Tools/mingw492_32/i686-w64-mingw32/include/stdio.h"
	.file 5 "<built-in>"
	.file 6 "C:/Qt/Qt5.5.0/Tools/mingw492_32/i686-w64-mingw32/include/c++/bits/exception_ptr.h"
	.file 7 "C:/Qt/Qt5.5.0/Tools/mingw492_32/i686-w64-mingw32/include/c++/i686-w64-mingw32/bits/c++config.h"
	.file 8 "hash/./../mem/./.././time/stk_time.h"
	.file 9 "hash/stk_hash_md5.h"
	.file 10 "hash/./../mem/stk_mem.h"
	.file 11 "C:/Qt/Qt5.5.0/Tools/mingw492_32/i686-w64-mingw32/include/stdlib.h"