	.file	"stk_hash_ssc1.cpp"
 # GNU C++ (i686-posix-dwarf-rev1, Built by MinGW-W64 project) version 4.9.2 (i686-w64-mingw32)
 #	compiled by GNU C version 4.9.2, GMP version 6.0.0, MPFR version 3.1.2-p9, MPC version 1.0.2
 # warning: MPFR header version 3.1.2-p9 differs from library version 3.1.2-p10.
 # GGC heuristics: --param ggc-min-expand=100 --param ggc-min-heapsize=131072
 # options passed:  -fpreprocessed stk_hash_ssc1.ii -malign-double
 # -momit-leaf-frame-pointer -m32 -mfpmath=sse -mpreferred-stack-boundary=8
 # -mmmx -msse -msse2 -mthreads -mtune=generic -march=i686
 # -auxbase-strip debug\stk_hash_ssc1.o -g -g -O3 -Wno-write-strings
 # -Wno-multichar -Wno-unused-variable -Wno-unused-parameter
 # -Wno-unused-value -Wno-unused-label -Wno-unused-but-set-variable
 # -Wattributes -Winline -Wshadow -Wunknown-pragmas -Wall -Wextra
 # -std=gnu++11 -std=c++11 -fno-keep-inline-dllexport
 # -fno-use-linker-plugin -fverbose-asm -fstrict-aliasing -fwrapv
 # -funroll-loops -flto -fexceptions -frtti
 # options enabled:  -faggressive-loop-optimizations
 # -fasynchronous-unwind-tables -fauto-inc-dec -fbranch-count-reg
 # -fcaller-saves -fcombine-stack-adjustments -fcommon -fcompare-elim
 # -fcprop-registers -fcrossjumping -fcse-follow-jumps -fdefer-pop
 # -fdelete-null-pointer-checks -fdevirtualize -fdevirtualize-speculatively
 # -fdwarf2-cfi-asm -fearly-inlining -feliminate-unused-debug-types
 # -fexceptions -fexpensive-optimizations -fforward-propagate
 # -ffunction-cse -fgcse -fgcse-after-reload -fgcse-lm -fgnu-runtime
 # -fgnu-unique -fguess-branch-probability -fhoist-adjacent-loads -fident
 # -fif-conversion -fif-conversion2 -findirect-inlining -finline
 # -finline-atomics -finline-functions -finline-functions-called-once
 # -finline-small-functions -fipa-cp -fipa-cp-clone -fipa-profile
 # -fipa-pure-const -fipa-reference -fipa-sra -fira-hoist-pressure
 # -fira-share-save-slots -fira-share-spill-slots
 # -fisolate-erroneous-paths-dereference -fivopts -fkeep-static-consts
 # -fleading-underscore -fmath-errno -fmerge-constants
 # -fmerge-debug-strings -fmove-loop-invariants -fomit-frame-pointer
 # -foptimize-sibling-calls -foptimize-strlen -fpartial-inlining -fpeephole
 # -fpeephole2 -fpredictive-commoning -fprefetch-loop-arrays -free
 # -freg-struct-return -frename-registers -freorder-blocks
 # -freorder-blocks-and-partition -freorder-functions
 # -frerun-cse-after-loop -fsched-critical-path-heuristic
 # -fsched-dep-count-heuristic -fsched-group-heuristic -fsched-interblock
 # -fsched-last-insn-heuristic -fsched-rank-heuristic -fsched-spec
 # -fsched-spec-insn-heuristic -fsched-stalled-insns-dep -fschedule-insns2
 # -fset-stack-executable -fshow-column -fshrink-wrap -fsigned-zeros
 # -fsplit-ivs-in-unroller -fsplit-wide-types -fstrict-aliasing
 # -fstrict-overflow -fstrict-volatile-bitfields -fsync-libcalls
 # -fthread-jumps -ftoplevel-reorder -ftrapping-math -ftree-bit-ccp
 # -ftree-builtin-call-dce -ftree-ccp -ftree-ch -ftree-coalesce-vars
 # -ftree-copy-prop -ftree-copyrename -ftree-cselim -ftree-dce
 # -ftree-dominator-opts -ftree-dse -ftree-forwprop -ftree-fre
 # -ftree-loop-distribute-patterns -ftree-loop-if-convert -ftree-loop-im
 # -ftree-loop-ivcanon -ftree-loop-optimize -ftree-loop-vectorize
 # -ftree-parallelize-loops= -ftree-partial-pre -ftree-phiprop -ftree-pre
 # -ftree-pta -ftree-reassoc -ftree-scev-cprop -ftree-sink
 # -ftree-slp-vectorize -ftree-slsr -ftree-sra -ftree-switch-conversion
 # -ftree-tail-merge -ftree-ter -ftree-vrp -funit-at-a-time -funroll-loops
 # -funswitch-loops -funwind-tables -fvar-tracking
 # -fvar-tracking-assignments -fverbose-asm -fweb -fwrapv
 # -fzero-initialized-in-bss -m32 -m80387 -m96bit-long-double
 # -maccumulate-outgoing-args -malign-double -malign-stringops
 # -mavx256-split-unaligned-load -mavx256-split-unaligned-store
 # -mfancy-math-387 -mfp-ret-in-387 -mieee-fp -mlong-double-80 -mmmx
 # -mms-bitfields -mno-red-zone -mno-sse4 -mpush-args -msahf -msse -msse2
 # -mstack-arg-probe -mvzeroupper

	.text
Ltext0:
	.section	.gnu.lto_.profile.f43ab2dc,"dr0"
	.ascii "x\234cf```e\200\0F\206\26\306X\0\2u\0\354"
	.text
	.section	.gnu.lto_.jmpfuncs.f43ab2dc,"dr0"
	.ascii "x\234cf\300\16\26\3\261$\20"
	.ascii "3\3"
	.ascii "1\23"
	.ascii "3###{}}=;\3\3#\323G&\306\231\363\16Ng\225g\234\333"
	.ascii "0C\341'\23\3\3P\244\177\312\263\303\254\265\277\33f4p\374dbd\\\306(\17T\272\234\261\226\201\11\244~{\303\233N6y\26\210z&\220\372\15\207\336=a\203\251gf\\\1V\277\22\250\36j\303\352=\247\273\31\345y!:X@:\266\357y\266\35n\3+\343*\260\216\325 \35L\\\14\34\252\312\6\206\6\25\12\14<\305\305\311\206\12\36\216\301\36V\\\14\0\223\252"
	.ascii "8\331"
	.text
	.section	.gnu.lto_.inline.f43ab2dc,"dr0"
	.ascii "x\234cf\300\16VCif\6\6\366\26FF\6&\216\35\357\371\31\330\26\310"
	.ascii "3\201D\231\30N3\274Qeda\314\370\310\304\330\270lw\17\373\13\246\237Ll\14\14\214\313\30\245\30\30"
	.ascii "3\301\24\23#\220\17\304\234\34"
	.ascii "3\16\11B\264\262,\220\27\0\21\12\14,s\226\361\10p00\276c\345`b(<\264y=\13\7\3\307\232\31\214\6\34\14Lw\270\25"
	.ascii "8\30\4 \210\201\235A\360*+\320~\276S\247\245\21\366s32020\363\0\305\31&\370"
	.ascii "1q\3-b`\0\0s\20\35\270"
	.text
	.section	.gnu.lto_.pureconst.f43ab2dc,"dr0"
	.ascii "x\234cf```g\200\0f\6\11&Kv\11\0\2\33\0\200"
	.text
	.section	.gnu.lto__ZN3stk4hash4ssc110reset_SSC1Ev@0.f43ab2dc,"dr0"
	.ascii "x\234eQ\337K\24Q\24>\337\271"
	.ascii "3\353\320n$\275\24\33\244\340\203oI=\364?\364?\4[\370b\364\"l\257\342\335u\262 \20[zX\372\205=\244[\352N\351S\321\303\364"
	.ascii "6\20[H\244``F\32\365\22Z\202,!\323wg\12\212.3s\357"
	.ascii "9\347\273\347\373\276"
	.ascii "3F\376_\347\370\366\253\310\11\356(\10t\372\265H-Px\371\301\344\207\227\201\247\346\343+\21{\310\217Tl\311\7\\^ \343j<\37\343\352\11\372\335\303\365Uw\25\323\361|\263"
	.ascii "8\370\320Z\273\263\264\266P\262\267.t\311\363Cs^\314bP\210\332\15\17\326\212\205\220\250\336\274\206"
	.ascii "9\24\300\215\265\275k\321\373\36S\206\303=k\357u\212_\264\253d`\370\274\221"
	.ascii "4\13.$-\303\316d\363\223\16<\260\266\276\231\\\235\12l2\23n\246i_W\15Z0\354\213G(\343"
	.ascii "1\312\277]c\36\3\321\321\330\246\351\362F\243uF\311\350R~\366\25\331\242\20\272\334V\345fVQ\217o\336"
	.ascii "8\371\257\330\14\350\264\262\331\2\25"
	.ascii "3$\340\303\326\233\225\300\311"
	.ascii "2L/ft\333<spf\35\365\235\231\263\16K\334\375\267Sm\35\373i\257\333\240\253\336\201\363\375\367m/\13[\265\360.\356\341N\315:\224\217"
	.ascii "6\306\20\271\236\254\315\245\337\276\7C\213T\22W\234\313'\4\356+2oO1\224q\257c\242"
	.ascii "1Yr\214\373\352\263\310k+\267g'\216d\372hx\211\230U\350\37\371\4er=\341\217u\246{%OC\336!\354\230\274\221\353\222\274\210\32\207\263.}\202\345|\250\237\1G\252I\17\373\230\343\354\343\273\331m\240\26"
	.ascii "7\212\371\234\334\\\301$\335\36\33\271X\35"
	.ascii "9_\275r\271\342\16\225ju\370\364\251\341\321Q\301\245_\253i\303"
	.ascii "0"
	.text
	.section	.gnu.lto__ZN3stk4hash4ssc19calc_SSC1EPKvjj@12.f43ab2dc,"dr0"
	.ascii "x\234\235XyP\225G\22\377z\276w\363.\20\271/C\210&Q1ZV\312\230\303#\207\321\244bn+\211\241\320$\25"
	.ascii "7\226k\255\356\37[\265\226O@0j\210\205l\226ZuWW%&Aq\243\206CE0J\\E\214\21\211'`\2\210\6\215\4\"\222@\330\356\236y\217\7<w\255}\5\363fz\272{\272\177\323\335"
	.ascii "3\363tm\360\347k\320\264\321\341\232"
	.ascii "6\17\373"
	.ascii "0L\3\261\246Z\323\226Y\4\30dG\227\235\12\213A\350\227\216i\232\307f,\24\232\307n\24\246}q82\327$\343\310\4"
	.ascii "1\222\335\14V\331\261\310N\205\305*,\5\307I.\250\21[{\20\304\22\35l\362\273\302\22+lr>\212\347\355\302\261b8\216\234\324\332\35\340\224\352\234\340\222\35\27\4\313\216[\204\34\324\221"
	.ascii "1\241\372(\311%H\372\344`\341f\202\215g\355!\20!\331\207\210P\326;\224\365\206\302PI\36*\302\230\34\316\344"
	.ascii "0\10\227\344p)Va\211\20C\244\327\221\354u\244\210\313"
	.ascii "0\343(~\365W\264h\274\264jr\34D\363w\224\374\206hag\6[\14q\333c\0\210\254\201\266T\350\6\243\311l\261\6\331b\355\16\247\313\235\20\34"
	.ascii "2$thXxDd|\\Tt\14,\265\30"
	.ascii "4H\240?\374X5\360\0\377\343'\326\177\20-7\317%\277\202"
	.ascii "5\350\305\217\34E\364\311_\21m\2Jvt\34\17j\21]BK\320pX\232s$\317DC0\320"
	.ascii "0\177K\353r\363\360\255\36O\332\215\203g\33B\327\344n\304)\241\265\13\15\362!\12>\206(\262{\33\14G\336\316\203\227\313\34z\24\220\334\371C?\234\260&mF\271\362\355\351\206i]B\207O@\367\27C\222\6\237B\22"
	.ascii "2\357_\327\361\251\256\17c\301\315{\33\213t\24\\\223V~\201\5\15\360\331@A\204\240\200\5\17\254h\351\264\353\303Y0\353\264\347\220Y\12\256\\.\5\267\7\20\334\1I\304\335\226\321\363m\220)\303\343\361\270\311\31\364\241\20L\10\235\15\347j\316|\237i\320G\263\326\253\205i\307]\211\233\220\257\341\334\326l\213\347\210'\243\241\267"
	.ascii "7\276K\30ag\177\355\362\3\377\202D\24[{y}\247\320\307\260\212SG\213"
	.ascii "6\5I\25\365\207sP\305F\237\212\317\3\252\330\305*V\25\25\225Z\365\261\254\342X\327\356f\13\251Hkh\331\232m\366\344y\255"
	.ascii "0\301n\251bd\24\334\353S\260G\332pl\357N\253>\236\25\374%\275-\327$\25\\iZ\345\347\206\31\276\10hC\21\253\370\346pG\264\376"
	.ascii "8k\350\315\332\374\263Uzqu\200\27\305\1"
	.ascii "5\224@b\217 \311O\337\377\266\336\251?\311Zr\367\24_\324\245\35\327\232\374\265X\240"
	.ascii "4\240\226\275l\307\305\313u\271v}&\253\270\325\223\363'\326\260\361\372r\203\237\374\276\200\362\373Y\376\350\325\312k&}6\313\257i-\255\224X\226_\331\350\231\224\361O\317o\275\275@\32\312\2j8\300\32:\262\12\317\233\365\24\326\260aeY\205AB\361\343\0(\312\3\252\250\200\304\302\220rOoo{s\316\221\321\372\\\340"
	.ascii "0\21\334\352\274]\6n\215\334\232\270"
	.ascii "5\363\36X\30G+\267"
	.ascii "6\366&\210-\262s\353`\325Nn]\334\272\271\15\306P\27\321@\261\36\203]k,5q\274\334"
	.ascii "0n\357\2J\240Db\273\233\346\222"
	.ascii "8\350\356\1\312\307\341H\260\215`\33\356\245\271\373x\361\373\251;\222\367c\24\23F\23!\231\227\33\303\355\3H\200\261\330\4\215#\15\343\231\353A\354\332'p\367!vh\";\361"
	.ascii "0\233\377\10I<\212\215\371"
	.ascii "1b\233\304kN\306\256c\12)\237\312L\217c\327\371\4\21\237\244\336S\324\233F\315\323\304"
	.ascii "3\235yf\260\1\317 \301\365,5\317\361\202"
	.ascii "3\211\353y\22z\201z/2\353K\324}\231D_\241\346UjfQ\363\32"
	.ascii "5\257\323\354\33\324\233\315v\276I\335\24jR\31\267"
	.ascii "9l\242\246"
	.ascii "5b\305"
	.ascii "0hMX\10\15\372"
	.ascii "9H\257\313\254\335\236\7\30\31\335\331[\266\231\365T\216\222=_o*S)\327\262|]\277\234=88gQ\340\334\226_v\232\365\267X\370\203\217\362"
	.ascii "2t\225m[\327\366\13\261C\201B\254\177E#SiC\311X\370\22\377\21xB\4\16sN\322&\222w\204\7\1\307\265\17\303\264\22L\235\"\246SD\243\266\326S\353J\355t\14"
	.ascii "80(\277\302u\320\315\34t\363s\220l\261\310\211l\365\353\272\266X\211\315*\17\30"
	.ascii "8\302\254iuY\27\214\222"
	.ascii "1\16y\265Z\20"
	.ascii "4\"\273\220\202\366"
	.ascii "6a\361\377\0\20\273\264\33"
	.ascii "7\256\375\344\240I\324\366\367S\331;\304\222_=+<\226.\341\356\21\300\216\325"
	.ascii "7\236"
	.ascii "8i\241"
	.ascii "5\334<\334\266,c=l\200u\313<\304\25\14\377\206%p\224\200\300\271\217{\257\377dI\336\216\30\224\317\242\214>\206\214\235\202OD\250\202d\177e\26$\35\367\372U%\244\261\303\220\31\231\16n\376b+;o\354\365~`)T#w?G\206\261#\6-\7\364ZHsk\222\12\332i\310"
	.ascii "8\241K\205\0\211\274E\315\200v\304\211\202\363\255\2\345\364}\347\267\0\212\32"
	.ascii "1|\220\371Lz[\230d\277\13\27_\226\277w\265\231!E\13O\250\35n\22&M\20\\7\263.\230%o\342m\1\33\210\320\327\203\20\32E\340\234\354\3\7'rv\357_\35\204\252X&\4\276\201d\\\376\24,\341\305\315\232.\343\374\267\355\245*\0\356\306"
	.ascii "8\201$\265\331\207L\222\230\204t\37F\273\10\215$b\270\271\262r\307"
	.ascii "7Jn\270\377&\4\361\322{n\375\343\232\3\355\305\"<\244S\334\3"
	.ascii "5d+\234F\363X\273\362w\4\312\372t\357!\335#h\363vg\326\356"
	.ascii "8\243t\337\213\10\222\5lS\267\262\351>\244\373\344\16\223\334}r\323\257\357"
	.ascii "8\247\344\356\367\311\245\347fz\361\35\311\364>\321\275$:R\212V\27\326(\321Q\250\256_d\224\20\333(\311\326\255r`4\352\357\313\214\32eX2N\370\304*H,\231\301\266h\253h\253)\335\12\277P\274c:\205\243\337"
	.ascii "2\314?\306\37\237\7\220\205\226\315S\"c\21J\244J\374\33#%q\334 \270\307*\270k\25\334"
	.ascii "9\20(\31C{\204\326?\31C\3\204\332P\370\26C\355\314\340d\374\35\226w8\313\361f\341d<\7\350\375"
	.ascii "8/\230/H\343\306\343\354`,\307"
	.ascii "3(V-[\250,c\327\35\232\34"
	.ascii "0\213\305?\345,\276\224\263\340F\230\267"
	.ascii "9P\205%\317\330\14\330I\346\341\30KA}\253\35\225\6aX#\337s\270\207\326\13\365\335\224\222"
	.ascii "6\11~\332\231\254\233\205uj\217\37\354\304\345\377"
	.ascii "74\3\261"
	.ascii "8\377_\260\270\300XX\31\213\213\204\305\203*&\275XL\300Y\224;\371\267\374t\27W\"\274"
	.ascii "3\324\15\204f\2C\23\213\320\200\37\32VB\243J\241a\245\24d4\260\367\\\20.:\301FBv-\232b,/\263\266\270C\5\314C\34"
	.ascii "06\337\22E\244\354!iW]\261"
	.ascii "7\340'\"\213\177\226\357'\256\211\264du\372\256\365O\373\230\356Ru\313\241"
	.ascii "9i\337<\177"
	.ascii "5{\225\336"
	.ascii "1\200\365~\0^l\374\345U\237\0"
	.ascii "4P\260jpI\225'':#\1`\233\315\24\33\345\33\262Gy3\205#\242\31\314\350\216\275\240\255\305\21\330\2\370\16\226"
	.ascii "8\252\332\12\234\250\321\245\25\366\13"
	.ascii "7\247\12"
	.ascii "7\256;:\5C"
	.ascii "i\333W\247\\\322\333\207\357\270\22\177\357W\211\367\26\224\375l\224!\361g*\307\215\310\250B\27\232\260\372\22h\277"
	.ascii "2\350tN\343*\344\202\336)LN\334Dc<4\203\23\331\235\255m-x\244\270\343)x\335\332\331H\235kLe\311\5\265\253\217t\242"
	.ascii "3~e\341Q\304\7\251\\\26l\222\364\230\177^\233\7\226d;\312\340bT#.{KrVw\224\24\235\204\322\276P\370\222\314\234$\31\252K\312\324\202\223\25\255t\323\11\25BSp\201\217>\254)\326\21\257<\2&\254\7oR\375\252K\30\17?\371"
	.ascii "0\267\230\341[C\\\341\320\202\360]Q\360\235\271\262\342\270\1\341s\323C\357*\247\323d\306\356\7\304NV_U\363\246\342\212\235\230\353^3\31\315\251\304s3\263\266\244N\231\371"
	.ascii "8;c\360\257\250O \225-\277tQY\376\344@\313#z0\32\372Y\36\21\300\362HhE\313\257\15\266<\12\256\263\345O\260\345?\262\345\10^\225\262\374)\\\221\354\364\356\345"
	.ascii "4F\363)\311\324\30-\211O#\235\35VL\323\231"
	.ascii "4\265\277\273\323"
	.ascii "9%\212\262\253\240\357\370\234$aj.\361J\316\300P\351Wd8\364g\250\345\324\216?#)\351\267\224\320\263H\"\247\32\322\216\362\257\10.\274\4\336@\35|\257\311\267+&\377{\215\13]mS\367\232F\221\240\35\216\200&\21\254uD\371'\234K%\34[\37\344\237}\6.o\351\7\326\317\223\272]\276\12g\300\324t!\232\223\22\366\265"
	.ascii "7\330\233!\10\223\306\325\335\326\201I3=\241\240\375\206\243\31\220\331I,3\22\252\332\267\320\21\20"
	.ascii "2 \321\335\376\353\332\375\327"
	.ascii "5\362\21\320vb\255\353\277\336V\7\246\374O\201S~>\245|\273_\312w\320)\300\13\226\237\314~\304{\311T\225\313\210N\271\311)t?\30\223\21\277\247\273\311#\304\206\306n\364\310M\36!\34\301T\11\206h\227\216i:\227\251\232\265\343$P/\336\261\315?\7\276R\347\351d\364M\216X\301Fw\252:\265\313\324\27j/\312\263\340\263\15\357\353}\353\376\320v:\205o\335x\225^\252\301-\337\265"
	.ascii "6T\273\221$/;\207\342%\373K\250\34\356\346\273\222\367\256\371\362\35[\336\25\320r\13\331\375\13\333\375\22\333\375\253\254\21\267"
	.ascii "2\33c\344\12\257H3\317\26^\314w\362\335\33\245<\30\311\335\362\205P\227Y\25'\31_E^\377_\311\34\370r\357\361>#\274.\314B\223\221\365\366w\206\333\332\377\333\355\355\357\365\263\337C\227\307Y\14\340P\265\323\350L]\351N\225\224\257Iw*\253W\227\361;\306\342\361t\233"
	.ascii "5X&\242\344\346x\363\362"
	.ascii "5\376I\346@\236K\355\215\256A\232\360nM\230ok:FH\366\327\7o\315\33w\354Z\272\270\255k\31\202\\{\235][.\222%\342\335\12\314"
	.ascii "7\245\231\307\276\273\325.\37\244\230\220\231B!\356\265,\5-A\326\377\3\361\254\333\233\265\302\317\254\367\11\361\24\306%\334\213xNfe\251\367Y\223J\320\324\15|!\246\262@\204\266\246Z\363\177\"\12\25.\252\314\317\304\12\306\367^>k\216+\215\317\17<k\242{\260\366\365;k\242\3\234"
	.ascii "51\260\22=Z%\2\234"
	.ascii "5\253\331\237\231\354\317\7B\235"
	.ascii "5\35\352\260{\1WT\301\241\373(B\26V\201e(d\33\326\316\324\360<\7:\24IE\223\256\334\351{b%\257[\25a,\350\361Z\256\200F|\345GcY\217\222"
	.ascii "7\354"
	.ascii "9\370X\213\315\230\335\14\263\351\315\35\273\276\255X\240\232h-N\335[\371\22i\363\257\266&Y\345\363\25\30"
	.ascii "6zz\261-8\230\23E7\240"
	.ascii "8\254{H\236M\203\211q\373\332\266\351\250"
	.ascii "2\6_\324u\260\314\255u\342\211\202\334\301\370N6U\235o\325\21\213\225\31'k\200w\267\241$\313\205\33\334\343{\236\343l\371\265\217\326\332\275\321\22\2\331\364\30\203\17\305\222h\362\11"
	.ascii "4\3B\21\376n\352\242w\337X\264\370\275\24\352\244,Z4\367\201\321s\27.\324L\251)o\245.N5\246\246\314\177{\1\16\346\314[\274\10\26\300\24\261p\212\223&R\346\276\373\307\5\357\245,\\\374\7\230o}g\336\202\324\371\304h\227\324\337\277\363\316\242\267\27\303"
	.ascii "4\230'\346N1\362\314\177\0\213|-\337"
	.text
	.section	.gnu.lto__ZN3stk4hash4ssc110print_SSC1Ev@0.f43ab2dc,"dr0"
	.ascii "x\234}S_H\223Q\24\277\347\336}w\237\333L\213\376\300\10"
	.ascii "6X\"=\224\32R\320[o\276\365\320k`\345\213\20\204\260\36z\31\336\315eF\241\342\37\\\224BP\323\322"
	.ascii "6\315j\251\13f=(\210\215\312JD\314HGEH\246`\37%\353\234]\15"
	.ascii "2\352c\273\367;\277s8\347\367;\347|\202\375\375\234\301\177T0V\216"
	.ascii "7\230\14x\363s\306\202&\7\251_\4\267M\355f\312a$\217"
	.ascii "0\345\262\201\241aC\373GM\311\305\373\11\206\1\366"
	.ascii "8\307\0;\0\341\14X-\27"
	.ascii "6C\332\241\226K\6^\372\341\363\211/shN\365F\234\305\267\225R__\256\365\271T\333)\213"
	.ascii "3\266\302"
	.ascii "5!\210B1\303\250\345\360\372[\247\14cT\241\366A7H\300\13}S\323\37\352m\302\15\24"
	.ascii "7\24[\235t~\344\26\307\12h\16\267\214G$\231\334F\346\347xh\262\300w\23\263\314O\214"
	.ascii "5\231j\\\205\347\263Y\217\305\5\364\200\300\274p\7\334p\27\334\33\355\200^\360\305w\244T6;\370\256\265\341\260pA\16\222\314\342"
	.ascii "6\23\17#\17\17\351\240\203\261\5\244\205\252\27"
	.ascii "9\307K\314B8\325\236.\337B\235Xc\332><\321\323\365\252"
	.ascii "1\306\3?T\203"
	.ascii "2-n_\341\244\347\36\4\310\325\233\234\270\2\236\275\235*\342\265\270IH\"\231I\30\30\34\241\340<\210\201'\227\6\342\20\260\270\203\275\201P\252\243\251\350\317zDVWc\320\217\375B\23|$n\221\13\206\203\22"
	.ascii "3\20\32\36\310\264\226\221w\215\313\255\234\234\353\324jD\337-\244_\230\324Gg\316\354\11\206o@'\\\17*\212r\301\0\4\340>u\15}\335\331\245of\311\1\213\347\303 \306\254\221*,\377\0J\330,\\T\355\222j\375K\375C\255>\241\276\\\226\236\375Z\375"
	.ascii "6B\372\237.-\310M\365\5\360\10\325S\32H@\0yS\3f\240\256\245~)\331\5Z\213\211\205a\237\33\341\320\334\245UC\203y\210S\340w\251m\7B\230\274"
	.ascii "1vk\245\200\324I\301\340"
	.ascii "1\352x\15\341\351\272(\337\10\302\210`t\344\252=\27\201$\207"
	.ascii "6\366c\21\227\352\347\256\334\244;\323c\360?]\303Z\327\265\256\321\16\303sH\353*$\244\251-\363\354\367T\267\303\310\246\256\244\236*\25"
	.ascii "1r\223\312\315"
	.ascii "7\275ss\214$\204\234\222\341\7F\316B\246a \362\223BS\247\257c<\31o\311'\352\302\303\340\211\246\236\1\300=\340=\324\17#b`\36;\355\354\34\4S\3\307\365\216\322>\3\202\270\0{\252O\373\253O\372\317\237\255\244\227J\277\277\252\354`UM\15\203s.z\367V\34;Qq\324\301\314\"_iY\351\5/C\336\277\0-\311T\351"
	.text
	.section	.gnu.lto_.symbol_nodes.f43ab2dc,"dr0"
	.ascii "x\234U\213"
	.ascii "1\16\302"
	.ascii "0\24C\235\377k\221\261"
	.ascii "7\376A*H,Uo@\240\241U\7n\301\334"
	.ascii "30p\216\10%0\264^l\371\351)\200\13\376\221H\3\206\25"
	.ascii "0C\37=x%\242\230\312\215\346v`\242+\200\17J\355D\255=\262\251\302\235&[\301\315"
	.ascii "4\375\35\10\301C\17\36\351\235\217\256\214\356\371\311m}\316\257\345$\370\2\303\204%k"
	.text
	.section	.gnu.lto_.refs.f43ab2dc,"dr0"
	.ascii "x\234%\212\261\11\200P\24\3/\357\371\265\261p\7k\7p\3Gs,K\33\327\20\13\13\13\301J0` \334A\222\300\304\37!E\27R\11\265\312^9D\216h\201j\205\262y\337};\334\323~\231\267\371@\375\22\232\245\6%\37L\231\12\247"
	.text
	.section	.gnu.lto_.decls.f43ab2dc,"dr0"
	.ascii "x\234\205[\7x\\W\225\236"
	.ascii "7\363lY\262l\23\263$\331\260l\2\1C \211SM\302\262$$$\204\300&\260\300.x\331\25\301\11\330\340"
	.ascii "8!V\10\313\356\302\223\254n[\315\222\254b\253\367\336{\31\365^\254^\255^,Y\322\250KV\231}\367\234_\326\310\304A\237\337\367\317\177O\271\347\334\366\316\274y\326i4\232"
	.ascii "2I\243"
	.ascii "1\252\177\277<\246\321\274\250\325hd\265\355M\365"
	.ascii "2S\257T\365JS\257\34\365\312U/\275z\25\253\327k\32\376\23\272\15\352\325\247^\3\352"
	.ascii "5\251^{\324\313R\365yX\275$\325\337\375\352\365\254V\263\353O\330\354E?\7\205\276z\265\250\327"
	.ascii "1U\317\0\35\11z\22\374\231\376\211\376>gb\333\246^\257\252W\253z}C\365\261G\275\276\251e\237\"\326{\324\353%\225\307\250\370\272z\335\253^?4\351\357e\25\277\255^\337Q\257Cj_\257\210\270U|U\305\375\352e\246^\337U\257\7\264;\261\365!W\221\247\345'\344*\306\345\360\35\271\212\30_C,\"\216\327\264;c;j\22W\213\311\330o\317\205\370\323\232\214\367\307\215\317\234V\252\212\273\372K\235VR?\312\263\327"
	.ascii "6r\16H\17<`q\304WqRV\37\224b$\13\215\370\250\237"
	.ascii "0\32\377b\344?73jvR\324\277\1\17Ew\277Fz\364\1\351\221\7"
	.ascii "4R\254t\204D\32)Zz@\212\222\36\320\204\253:\356\216\312K\32\321.EJ\272\335]\7\\N\234\335c\1ON\237\350I\325\256\35Z]\260\234\320J\7->%\250\177\307\350\242N\245\226\26ZAs\22\27\353\367\223\364!As=\253|\367\222T\26\324\30Y\30\263\217{Rl\25\363\252\203\252@JT}'\251\276"
	.ascii "5R2\365\365\25\352\\\325\256\321"
	.ascii "7>w\330]\350\32l\224\207$\12>^UN \345\24\351\360\266\211P\16\31\213_\327\231j\307\335U[J\225\16\253\26\256\1\311I\346\226.\"\22\4\243\266\233D\223&Y\322\332QQ\325N\15\213\310"
	.ascii "4\247\304^\24\335\205{\373\304\357\241\304\366\11\272\22"
	.ascii "60%\21"
	.ascii "5\23\324\323\277,\323\354\356yfm\347\231\311C\232\273\346\37d\316\261\273\333ng\232\256\252g\220z6\305\236\265\235\351y\233\336@\331T;\356\256\332R\16e\32\23R\221\"\355\312"
	.ascii "4gW\246\271\310"
	.ascii "4\227"
	.ascii "2M.\212s\346L\177I\251\331\33\234-(5KA\307\335\243\223,\211\356\27\324/'\316\347\340\335"
	.ascii "3-\334\316\264\200"
	.ascii "3\215\15\363\30\326\"ve;\323<U=\237\324\213(\366\302\355L\227\233\215\21f\246\332qw\325\226\364\224iKiX\340\376]\231\352weZ\214L\213)\323\206\213\27"
	.ascii "2u\272O\213M'\5\33R\14\226\262V#\225\320\366P[f\252\334\234,\356\363\246ma\243|J\222\336\274\227"
	.ascii "7\206T*\311\32\251L\272Out\\fe\307\363\236\251\346\272\7\325\225G\213q\302uS\326}\25LQ\334Z\17\351\216\202y\204\\\367\337\257{\6lX\357"
	.ascii "1\274\377\321X\265\17u{\353\315v6\245>k)\311\354\221(%X18\237\253"
	.ascii "8\244(\262\350\277J\322I\325\322\243\246\273wha\254e\37+v\206"
	.ascii "9|\21\212\225\252b\215\364\210\251\342\342\204g\324~R\324\337P\224}\32\241V\241\252\325\356V\353\211\30\265\325\352\376L\203\322\356\355\27r\340\241@%8\331P5\232\370\363\21\33\345\202"
	.ascii "2`4>H\331K\345\252q\35\33K\365"
	.ascii "8T\244\6\351!\325\320&2\357\202\231\272J^\263 \237\375\1k\341\346D\305\321uH4\25\25\256VX\350\262%\321\217\326\255\242\302\337R:b!\16*\203\263\243\317gD\26-\352d_\273\235/\271\22\177N;\223\253\271=\263R\263zT\11\15\251Qmi\342\305vav\265\233N\33\241\357\364\267\365\327\275\227Cv\37\10\255\222\351bn\343\305\363\261\213\305\273*\331\351\220\332\242\241\260\217\323i\27\335\266\21\277\367v[\207D\215v\372\225R\13j|\325R\352\344\266\241s\245AZ\323\225\246\366\204\245\326.\226Z7-\265.\11k\355\212kW\346>\235\235\26Kh$w\262\332\\\347J\367\16i8k\374\312>\314\230}\332\357GwfLu\"\365\230\314X\357\366\214\365\321\214"
	.ascii "5\224\266\315\231\353\322\266\235fU\26"
	.ascii "4X\352\12\331i\325E\257YK\341"
	.ascii "4x\240`\334\323L\361U\364F\343\13\274\10\256\233\270\354\337v9@.\333\332"
	.ascii "33\17\352\6\330GBPz\220V\14\331\340\366\220"
	.ascii "5\272\307\256\357\333"
	.ascii "5\334q\273\206{\370\366pwF\347\205\313"
	.ascii "4f\324\246\266T\347g\25\35\374\330\275"
	.ascii "9$\6l\224\6ld{\300\316]8\327c\256\233\334\316\315w6\331\305R7\267M\3\3f\26d\336@\323q5\17b\3\215\377\365\6*\35\230\321\313:\17\35\345s\363\246o\220\30\223\1e )\371\371\22\33e\303h\324Q\317\322\230j:\201!\271\261=$\223"
	.ascii "4$\265\265\361\367\323\321\252\320m\303;\377\212\247"
	.ascii "9\35\246\12"
	.ascii "9\315ws+7#\376\240\240[\323=\351\373\357~\270\316l\37\256\323\274~W\306\252\\\366\356\34\227\326\352\2\227\246T\355\233\244=K\247\345\314\355\273\210C\241\235\205\251\262X\243w\325\236\260\353[\224u1\234z\363\226\317)]\34\177\276\234\224^uP\215\270E\342\235\356\232\30\276p\210"
	.ascii "2\320\321(\265\4\344\362\335b\17\335\27\355\263\263\17\22\335K\363Zu\371Yb\346\202]\274"
	.ascii "5W\317B\13"
	.ascii "2M\15\256\330G\364\200\240)!=+\\g\34$\323\1\333\232\375D\17\231\26%\226\\\224\254\16\315\327\263\362=\202:M\373\271\261\362a\272g\325^FG\237\246I\250\315\356\343\33\334\337\321\301\344"
	.ascii "7\33\304\256>#h_qi7O\311\275\202\366"
	.ascii "6\265\305\261\355}\344j\245\256\202\323\275\237\266b\214\207\221\373\375{\232\277\224\242\25v\305\365\314\332\360"
	.ascii "8\327\14\237\25"
	.ascii "45\177b\211m\377\201\252\260\240\216\231\3D?'\250\333\245\315"
	.ascii "4-\321\177\24\364\332Fl\212\345\261t\305)X/K\6\365\236\246N\373\202D+~\201\213\34\302E`\22p\11\270\14\314\4f\0W\200\253\300\2`>p\15x\13\270\16\334\0n\2\267\200F\240\242e\264\1\332\2\317\1\355\200\366@\7\240#\320\11\350\14t\1N\263\177\332\215\372\262\344\275\17\207(\372`\365\244K\374\236\247\242\224\371\252\247\301\13\306\27h|\346\370\316a\262\244\347\305V\224\316k\217i\244\13\332\207E\261\260\325P\312E\333_h\215\17\314;\37\272\373ns\325b\267]\324R\377"
	.ascii "7g\364[{\357,evzs\323\36\336"
	.ascii "6\22\332i~\31\353\346\272\24\336"
	.ascii "4Ma\236\335:]1\223K\212[\264Dy\14LE\274\251"
	.ascii "8\245(N\352\351\372\240$<H\356Z\235"
	.ascii "8\237M\374zh\351@\221<)\5\367\310\316\312\275|\240PY\212\363\305\22\347\213k\255\177"
	.ascii "1\257G#\365\25t!\332\347\300\335S\364\331N\321\233St\233\333Z\333w\307\201rI\235\11/\255\320\276L\31\372lg\30\353\266jcn\252,n\236w\325\36\213\360k:\244[\346!(\214"
	.ascii "3\366\354\321m0\211\36mP\366\360\211\242(\234F\347\365\306Wo\267\320\6oJ\211\236\332{\273\211\366\336r\261\255\313\241\333Mt\262{"
	.ascii "\373t\255\355"
	.ascii "4}\305\364\373\211%\177?i^\360\212f\372y\332\354\25\271U2\321/\10:\27\335\366%b\17SQ7\\S\313\272_\244\345bH\312\344\257"
	.ascii "6_\242\33\257]\304y>\312\217\320|\353\343\24\336\276_\246\244\206\32<ysS\24\363E\35\275\334\317#T\231u\244\7\262\362W\251\243\274\206\">\371\276&hwc\312 \37"
	.ascii "9\217R\355"
	.ascii "1<\336\306\307\306cT\242\365&9q\30\217\13\332u#k\230]\35\245\302k\245\277\204O\257'\350\214I\314+d\333'\5\215\312\32i\347\15\360\224\240K=i=|\\=M_\326"
	.ascii "2;\6Y\372\14\255\245\315i;\216\352YA\363&7\333\370\324<F5\356-\37gN\377\353\202\332\350\23Z\270\337\347h\266\343'k\331\325\363"
	.ascii "4\11\221]y\234\376"
	.ascii "7\4\35\365[\352\340U\372Otx+\253U\334\321"
	.ascii "7)\214\224\222>\266\375g:b\207\347}9\205o\21ml+\344\216^\240\223~#\322\327\374\366\214S\316\333_\334,\361\305m!<\236\351\267\251"
	.ascii "3\237\224l\316\371%:\261\313\362+x\216_\246"
	.ascii "5\235\355\262\316\241|\207n\317WS\212\371\0\177\205&f\352j'\323W\5\35\267s\231\341"
	.ascii "4\276KI\246\270\257\361\264\275F\313e\275\350\13\304\276G\367\215\326\11W\326}\235\204\305\347\354y\22\277O\267 {\217&\36\237\37\10\332\332>\332\317A\375\13U\213"
	.ascii "5\233\215L\337\20\264\304}0\220m\337\244(\12ob\341\375P\320\214\272\362B\36\275\37\321\254\205"
	.ascii "9\246r\366\377J\367\343h\375"
	.ascii "2+\377\230\26\217k\302"
	.ascii "8\317\351O\4\365\230\275U\302\35\375\224"
	.ascii "6X\314\\/\247\373o\202\266\344d\207\260\355\277\323\310\347{E\262\347\237\321\254\215\7\27q\366?\247\222+7\311\205\247\351"
	.ascii "8\235\235"
	.ascii "1\355\33\234\340\177P\21\341"
	.ascii "59\314\35\375\202J\223\315\360>\236\342\377\24t}~\263\214=\377\227\240\3\303EFV\266\22t\373\333\252%\177[\355*\\k\344\31{\213\224\7\12\247Y\371W\324QY\273\236G\343\4\355\331r\357N\356\350mA\375\313\327\323\330\366\35A\35\326\343\302y\216~M\243\321T\202\214~C[\311\275\331\217\27\316I\332\340\205\245\353\254|\212f\301\371|.\273\372-\315Q\301\240\25\261\337\11\346\270\26=\312Q\234\26tz\315\353\2G\361.\225A\201\35\335<\11g\4m\233\363\301nx\217Np\327\324"
	.ascii "5\236\355\367\5\215\33"
	.ascii "5L\260\355\357i\344\256\204\353"
	.ascii "9\250\17\250#\317\351\253\234\375YA\355'\353\247Xj-\350J[\301\347\210}H!.\227g\260\343?\320~.2fr>\37Q\365\325"
	.ascii "6\321\301A\375\221\346/2j\204=\375"
	.ascii "7m\340\324\236TV\376\23\15\353z#\246\363\177(\203\331\316B\266\375_:\354\232C\337 \366\177\202e5\345\216sz\177\26"
	.ascii "4ax\244\372\300\355\375KgG\214\243\373E6\267\241\373\303\332\225\36W\16\324\226x\203s0J\314s\304\263{\3VXnG|\272\326h\317=\330\263~\246~\220\345\16\304}\267\234\273y\10\35\211\247\27\245\315\263?'\342\25\11\311"
	.ascii "9\254\357L\334\325\301\341\10Q\27\242\243I\23\315\274+\316\23\257"
	.ascii "1^\262a~\201\270W}\351u6\277H|h\271\370"
	.ascii "5\242\256\354\315\321\256\217\307\312\215xjy\340,\17\245;q\243!z\223\243\367 \336\23Ym\303"
	.ascii "7\22O\342\231\375\375(m/q\366\15\241\205\314\275\210{\30\326\227x\255y\23\337\272`\34\344l}\210w\205]Ic\177\227\211\347\15\314'\363F\365%\356\354\353\31\311\243\357G<\242\277"
	.ascii "1\224\343\363'\236\341\232\324\317\372\1\304\303\323oL\261\377+\314\333\13n\362)q\225\370\325\326\224\6\216/\220\370\210\307\300"
	.ascii "2\347\27D\274\354ZO\34\17W0\217\376D\377"
	.ascii "4\333\207\20\357\17\212\307R\13%\236\262"
	.ascii "44\301\361\205\361x\24\345\216q\276\341\304\227C\342/\263<\202\370XB\321=D#y\262[Z\363X=\212\303\255u\367c\36M|)\255\274\232\303\215!\276\242\364"
	.ascii "7sx\261\314"
	.ascii "3\22\306"
	.ascii "9\274"
	.ascii "8\342\261\203\213u<\34\361\374\255\267<\335\213\303M \356"
	.ascii "2\325_\313\7_\"q\275\367\\8\207\227D|>\333-\200\17\231d\342\361\356\356\323l\237B<k\352\334 \237v\251\\<\316"
	.ascii "5\367"
	.ascii "3O#\356\330c\214\341\341L\347\341\366\266\235f\236A\274\326\371z\24\307\233\311\372\205\16\356\334\177\26\353'-\255\262\277l\336l\301"
	.ascii "1\370\312\222C<*\332\253\217\343\317%\276\270R\215\345\232G\274tb\371*\307\237\317\313w\263\34\376\12X?,)\207\373/$^\354"
	.ascii "1\233\314\313\257\210x\335\371 ?\226\353y\267\334p\250\344\371(&\36\327\36y\213"
	.ascii "7g\11\363\266\325"
	.ascii "6\326/\345\2\267\262\254\222y\31\361\211$\275\27\307[\316_]s'\27"
	.ascii "8\276\12\342\223n\31}<\237\225\304\223\32C\326y\371V\21\267u\333\304\363\353j\326\317K\33g^\303\333)+\264\223\307\267\226w\373\271\241u\316\247\216x\271\235\302\365x=\321MCh+\247\323\300\313\245y\306\300\356\32y\270/U\305qzM\304[S\306\320\375"
	.ascii "5\236\276\265\202.\236\256f\236\256\336\245d\36\336\26\16'-\37\325m+\361\300\315\216z\16\257\215\13m\17o\224e\355\374E\304"
	.ascii "3\300\235\375w\360\351\342\354q\216\207\247\223wO^J\5\313\273\210\307"
	.ascii "8\273\256\262\277n^\316\6\207f\366\327C\274\267\257y\225y/q\247\314\254@\316\247\217\365\35R:Y~\235\227\263MO(\313\373\371\364Y\315\214\342\376\7x\371\24N\226\363t\14\22\357"
	.ascii "64\266\361t\16\21\257\326"
	.ascii "7\5r<\303\274\274\256\204\333\260\375\10\361[[3\265l?J\334?\331\365\317D\307\210V\16\365=Bt\234\250C\207\3\352\320\11\36}\217M.\331npgIsM<\330\223|v\254\14zq2S\34\234w\365,\257\275\233|\343\351\354u\341\311\232\346\243l\274 \202\203\235!n\327\341\324\310\366\263\304\353\375\6\322"
	.ascii "9x\3\37\215]\27\235"
	.ascii "8\234"
	.ascii "9\236\274\300\212\353\274\266\346\211\273\7\314\346\261\376\2\361k\236\321S,_\344\305\20\321\20\316\203\273\304\267\232\346\10\177^|\313\254\357\233\221\301\213e\205\217z\273\360\21\346\253|+\332L\276\304|\215x[\231\177#\347s\213\270\262\270\212\243}\235\370jy n\314\33<\331\231u8\373"
	.ascii "6y/\306\204\370\260\375\26\37\345\13\227\226v\356\365T\234\247\\N\253"
	.ascii "9\300O9^\223|\265\246O9\2\264\374\224C\240x\312qE\313O9\4_\2_\6\212\247\34W\265\374\224C\310W\320\276\12,\200<\37|\15\374\26P<\345\10\324\362S\16a\277\11\275-\240\21z\342)\207\340\342)\207\340\266@\361\224C\330\333An\217v\7\240#\344N\340\316\340.@\361\224#H\305`-\367\37\2?\241\300"
	.ascii "0\330\205\203G\200G\2\243\340'\32\362\30\264\307\2\343 \217\7O\0O\4&i\271\377d\330\247@/\25\230\6\275t\360\14\360L`\26\354\263!\317A{.0\17\362|\360\2\360B`\221z\351\325\253\30\371\227 \216R`\31\374\226\203W\200W\2\253\340\267\32\362\32\264\327\2\353 \257\7o\0o\4"
	.ascii "6!\216k\260o\206^\13\260\25zm"
	.ascii "\340\355\340\35\300N\330wA\336\215\366\36`/\344}\340\327\301\373\201\3\310\177\20\375\17\301\317"
	.ascii "0p\4v\243\340c\340\343\300\11\370\271\1\371$\332\247\200"
	.ascii "7!\237\6\237\1\237\5\32\320\377\34\354\347\241\267\0\\\204\336\22\370"
	.ascii "2\370\12p\25\366k\220\337B\373:p\3\362M\360-p#\360\242z):"
	.ascii "z\342E\363o\243\343q\260\5\236\323q\\v\340\366\340\16@G\35\366\27\344\316hw\1\236\207\374\2\370EpW\240\233\216\343r\207\275\7\364<\201\227\240\347\5\356\15\356\3\274\14{_\310\375\320\356\17\14\200\374\12\370U\360@`\220\216\307!\30\375\207\300O(0\14v\341\340\21\340\221\300(\370\211\206<\6\355\261\300"
	.ascii "8\310\343\301\23\300\23\201I\350?\31\366)\320K\5\246A/\35<\3<\23\230\5\373l\310s\320\236\13\314\203<\37\274\0\274\20X\244\343\371\327#\377b\304Q\2,\205\337"
	.ascii "2\360r\360\12`%\374VA^\215\366\32`-\344u\340\365\340\15\300F\304\321\4\373k\320k\6\266@\257\25\274\15\274\35\330\1\373N\310\273\320\336\15\354\201\274\27\274\17\374:\260\37\371\17\240\377A\370\31\2\16\303n\4|\24|\14"
	.ascii "8\16?\23\220\337@\373$p\12\362\233\340\323\340"
	.ascii "3\300Y\364o\200\375\34\364\346\201\13\320[\4_\2_\6\256\300~\25\362"
	.ascii "5\264\337\2\256C\276\1\276\11\276\5\364\26g\201\216\36A{/\254T\233?\34\242"
	.ascii "4\5\33\252\312\27\376h\372\224_\324\7~Z~\312\277\363\234\331_<\37\227\24\371\230F\262\221\305#\362\355\237\242\357\305\17Tx$~/\36\211_\276\326\231%\353\34dA\264=Q\3\212,Y\34\241\337\214w\277U\343 \37!\27\222\255\254\36@2\277T\223\354\354\370iE\222\354e\13\311N\276\375K\365\275\26\267\177"
	.ascii "2t\250n\272na\1wN\237\344NU\36\310\255\13\22\5\342A\13~\310\235W\27\223\304\5\226B\357\326\314%*\335\262\351/\16\367ZHN\252\271\263,\22w\221w=`\367\214\17h=h\252\354(\177\202v\214SB\263\245\316U\346B\263\267eS\253\363a\22\347\333\276$\252^5G\322\\\337<\357#1\307\343\225\306\213\373\230s\220}\206\263L\351\7\300\376\334\221\0\13\346\364Swy\322V\246\226"
	.ascii "9\375\"x\243}\301\3\234~\22L\310rs;\300\234\336\244\231\275\36\275\270\237"
	.ascii "9\375\24\260\31\240\377\362v\201x^\246\2\321U\246\2\321M\346\2Q\240(\20\335e.\20\5_\2_\6\212\2\321C\346\2Q\310W\320\276\12,\200<\37|\15\374\26P\24\210\236"
	.ascii "2\27\210\302~\23z[@#\364D\201(\270(\20\5\267\5\212\2Q\330\333An\217v\7\240#\344N\340\316\340.@Q ^\222\271@\24\375\207\300O(0\14v\341\340\21\340\221\300(\370\211\206<\6\355\261\300"
	.ascii "8\310\343\301\23\300\23\201\242@\24\375'\303>\5z\251\300"
	.ascii "4\350\245\203g\200g\2\263`\237\15y\16\332s\201y\220\347\203\27\200\27\2E\201\350%s\201(\362/A\34\245\300"
	.ascii "2\370-\7\257\0\257\4V\301o5\344"
	.ascii "5h\257\5\326A^\17\336\0\336\10lB\34\327`\337\14\275\26`+\364\332\300\333\301;\200\235\260\357\202\274\33\355=\300^\310\373\300\257\203\367\3\7\220\377 \372\37\202\237a\340\10\354F\301\307\300\307\201\23\360s\3\362I\264O\1oB>\15>\3>\13"
	.ascii "4\240\377"
	.ascii "9\330\317Co\1\270\10\275%\360e\360\25\340*\354\327 \277\205\366u\340\6\344\233\340[\340F\240(\20\275e.\20\305\374\213\2Q\214\203-P\24\210\".;p{p\7\240(\20i\177A\356\214v\27\340y\310/\200_\4w\5\212\2Q\304\345\16{\17\350y\2/A\317\13\334\33\334\7x\31\366\276\220\373\241\335\37\30\0\371\25\360\253\340\201@Q \212q\10F\377!\360\23\12\14\203]8x\4x$0\12~\242!\217A{,0\16\362x\360\4\360D`\22\372O\206}\12\364R\201i\320K\7\317\0\317\4f\301>\33\362\34\264\347\2\363 \317\7/\0/\4\212\2Q\314\277\36\371\27#\216\22`)\374\226\201\227\203W\0+\341\267\12\362j\264\327\0k!\257\3\257\7o\0"
	.ascii "6\"\216&\330_\203^3\260\5z\255\340m\340\355\300\16\330wB\336\205\366n`\17\344\275\340}\340\327\201\375\310\177\0\375\17\302\317\20p\30v#\340\243\340c\300q\370\231\200\374\6\332'\201S\220\337\4\237\6\237\1\316\242\177\3\354\347\240"
	.ascii "7\17\\\200\336\"\370\22\370"
	.ascii "2p\5\366\253\220\257\241\375\26p\35\362\15\360M\360-\240(\20}\270h\312\211Y\11\220P \216\16\275oZ \212\372\340\2\227e&\225\317EY\24\210\227E\201\350K\5\242CG\335\371;\313\252\235\367-\374\344]\357q\204uO\226\36\272\263\254\272\253\266wj|\271V\27\312\225\224\241\252gT\326E3I\276\324>\241\343\272\206^~\232\17\254\377\31Sz\371\311\316\331P\217\252\212^\263-/\317\216\227\231\323[\270\221n\13\364\340X\345\364vT\231MO \364\351\365\250\312\232\271\4Tm\364~\224OQ\216\207\31s*-\243\343\375\373Qv\321\33R\241\365\216W\16"
	.ascii "1\247W\244\256\255\7\371\300\236\336\221\232\\\214\215\261dN/I\345"
	.ascii "8-\266A\237\336\222:\327u\301\3e\33\275&\345Urm\2e\33\275'\265>vi\3\361\321\313\32W2Z\346\240OoJ)\251\255\276\30\16\232\325\265\244F=\252LzW\252{\272r\1e$\275,5\323]\220\216|\350m\251\362\202\224R\350\323\353R\31\21\35\23\310\217\336\244\13Z\232|\236\313\306\257H\376\273\312F\1\242l\24\270\10"
	.ascii "4-\33\5.\3"
	.ascii "3\201\31(\363>\256l\24\230\217\362\357\343\312F\201\33(\37"
	.ascii "7\201[@#P\301m\317\6h\13<\7\264\303m\320\36\350\0t\4:\341\366\350\14t\1\212\262Q`0o\37*\33\5\206\2\303\200\242l\274*\343\271\242\214\347\212"
	.ascii "2\227\215\2E\331\30(s\331(0\26\30\7\24ec\220\314e\243\300D`\22P\224\215\301"
	.ascii "2\227\215\2S\201i@Q6\206\310\\6\12\314\4f\1E\331\30*s\331(0\27\230\7\24ec\230\314e\243\300B`\21P\224\215\341"
	.ascii "2\227\215\2K\201e@Q6F\310\\6\12\254\4V\1E\331\30)s\331(\260\26X\7\24ec\224\314e\243\300F`\23P\224\215\321"
	.ascii "2\227\215\2[\200\255@Q6\306\310\\6\12\354\0v\2E\331\30+s\331(\260\7\330\13\24ec\234\314e\243\300~\340\0P\224\215\361"
	.ascii "2\227\215\2\207\201#@Q6&\310\\6\12\34\7N\0E\331\230(s\331(p\12x\23(\312\306$\231\313F\201\263@\3P\224\215\311"
	.ascii "2\227\215\2\27\200\213@Q6\246\310\\6\12\\\1\256\2E\331\230*s\331(p\35\270\1\24ec\232\314e\243@#\360\"\243"
	.ascii "8\20\306\342\224\34\13\272m\4W\331*/:\235S\350\5^:\34\2\344;_\35\274B\367\214tq\317\310\240{\206\363Jg\334\356W\305\15\273\376\237A\246\314\377\317@E\361E~\334\266\313L\227\312'\177b_\351G\352\311\364\272\370\321CY\25\357\303K\177\21\277.\265"
	.ascii "46\355\241v\321$\276\373j\227\226rc\367\361\323\10\345\257\337x\317\223\217\250\312\342?|\210\235\200\7\22\6\347\361\226\203\342\15\346\\\365\266\224\265\363H\342u<\222\20\355\342[tk\322\330\236]\341\307\354z\365:\37\341\347S\370Av\353\372\275\272\\\16\277d\264\310[\234\344\367X(\370\237H\34\377\366\313\224\367\320\313\224\332<\207\31{\31o\364\17"
	.ascii "\324\36\337'\25\253\1\25\354\4t\317\316\333\374w\376\377%\275\232\230\20K\205b\313\362t\325\304/\14\230\355\12X\370\333\11\270\4\1\227P\300\31\341\365\243\7vi\267\354J\257\24\332\245\244=T\222\23\271\373=t\361\346\345\216v\31\264\313H{\312\247"
	.ascii "8m\367\314\373\356\322.\207v9i\207\331\266m\36\332\245-\212\222\35\355\12hW\220va~\356\342\356\377\275\342\277K\273\22\332\225\244m_R\262\270\373\177\365\210\227\317w\264\253\240-P>q\362\255\17\366\177\363W\37\236:m\375\330\251"
	.ascii "3\337\322\354\267\262:k\375\366\211\267N\237\266\262\262\370\340\235\263\357X[\375\370\307/?)\237={\342I\371\344[gO\352\316Z\377n\337w\337\370\351C/\177\355k\232#\242\345\27\217\37}\374\361\243\326\357\374\321\372(}R?\237z\367\235\243\252\236\225\370\360\370I\315gHM4\210\17V\302\227\332\372y\253\343o<\255"
	.ascii "6>#\32\237\21\215O>\261\323\343+\177x\361\211\373>\306\356\304\373\357k\366}x\352\214\365\323OYY\277\364\362"
	.ascii "7\216\376\310Z\375\367\354\343\317>\376\304\321\237\274\367\336\351\263G\337=u\346"
	.ascii "7\37=\363\374SVO?u\364\324\261\347\216=\366\321\261g\36\243F\321p\346\304\351\17\337\26\321\275\255\372P\243"
	.ascii "0Ws=A=~\361\257\342y\376\266\354\225\37~\377\17\277\375\355\213O>e\361\376\7\252\35\265}\\\374;R\21\277\271\225\325\211\267\337"
	.ascii "9\241\16\345^\22\234\325\235x\357\314gw\306\354\324{4Jj\343\331\367N\213\201\272\17.\237V\233\216\261\211\332\363\211?I'\367X\35\377\301\223'\17\235~\353\254\265\325\333oY\277eu\342\344\207g~\367\214\325\361\277\25\363+O>{\207\321\236_Y\235\375\360]s\325\341\263\364\311L\214\346sV\326fo[\235=y\352\327\326\373U\311\327\361y\317I\253"
	.ascii "3\320\245Of\30\370\275l\362\377a?@\306"
	.text
	.section	.gnu.lto_.symtab.f43ab2dc,"dr0"
	.ascii "__ZN3stk4hash4ssc110reset_SSC1Ev@0\0\0\0\0\0\0\0\0\0\0\0\0\316\0\0\0__ZN3stk4hash4ssc19calc_SSC1EPKvjj@12\0\0\0\0\0\0\0\0\0\0\0\0\335\0\0\0__ZN3stk4hash4ssc110print_SSC1Ev@0\0\0\0\0\0\0\0\0\0\0\0\0\340\0\0\0__ZN3stk3con6printsEPKcz\0\0\2\0\0\0\0\0\0\0\0\0\352\0\0\0"
	.text
	.section	.gnu.lto_.opts,"dr0"
	.ascii "'-fno-trapv' '-dD' '-malign-double' '-momit-leaf-frame-pointer' '-m32' '-mfpmath=sse' '-mpreferred-stack-boundary=8' '-mmmx' '-msse' '-msse2' '-mthreads' '-mtune=generic' '-march=i686' '-g' '-g' '-O3' '-fno-use-linker-plugin' '-fverbose-asm' '-fstrict-aliasing' '-fwrapv' '-funroll-loops' '-flto' '-fexceptions'\0"
	.text
	.section	.text.unlikely,"x"
LCOLDB0:
	.text
LHOTB0:
	.p2align 4,,15
	.section	.text.unlikely,"x"
Ltext_cold0:
	.text
	.globl	__ZN3stk4hash4ssc110reset_SSC1Ev@0
	.def	__ZN3stk4hash4ssc110reset_SSC1Ev@0;	.scl	2;	.type	32;	.endef
__ZN3stk4hash4ssc110reset_SSC1Ev@0:
LFB702:
	.file 1 "hash/stk_hash_ssc1.cpp"
	.loc 1 156 0
	.cfi_startproc
LVL0:
	movl	$__ZL1h, %edx	 #, tmp83
	pushl	%edi	 #
	.cfi_def_cfa_offset 8
	.cfi_offset 7, -8
	movl	$32, %ecx	 #, tmp86
	xorl	%eax, %eax	 # tmp85
	movl	%edx, %edi	 # tmp83, tmp84
	rep stosl
	.loc 1 161 0
	popl	%edi	 #
	.cfi_restore 7
	.cfi_def_cfa_offset 4
	ret
	.cfi_endproc
LFE702:
	.section	.text.unlikely,"x"
LCOLDE0:
	.text
LHOTE0:
	.section	.text.unlikely,"x"
LCOLDB33:
	.text
LHOTB33:
	.p2align 4,,15
	.globl	__ZN3stk4hash4ssc19calc_SSC1EPKvjj@12
	.def	__ZN3stk4hash4ssc19calc_SSC1EPKvjj@12;	.scl	2;	.type	32;	.endef
__ZN3stk4hash4ssc19calc_SSC1EPKvjj@12:
LFB703:
	.loc 1 165 0
	.cfi_startproc
LVL1:
	pushl	%ebp	 #
	.cfi_def_cfa_offset 8
	.cfi_offset 5, -8
	pushl	%edi	 #
	.cfi_def_cfa_offset 12
	.cfi_offset 7, -12
	pushl	%esi	 #
	.cfi_def_cfa_offset 16
	.cfi_offset 6, -16
	pushl	%ebx	 #
	.cfi_def_cfa_offset 20
	.cfi_offset 3, -20
	subl	$748, %esp	 #,
	.cfi_def_cfa_offset 768
	.loc 1 165 0
	movl	776(%esp), %ebx	 # a_bits, a_bits
LBB2:
	.loc 1 170 0
	movl	%ebx, %eax	 # a_bits, D.29865
	shrl	$5, %eax	 #, D.29865
LVL2:
	.loc 1 171 0
	movl	%eax, %edx	 # D.29865, n
	subl	$1, %edx	 #, n
LVL3:
	js	L4	 #,
	sall	$2, %eax	 #, D.29864
	movl	$0, 4(%esp)	 #,
	movl	$__ZL1h, (%esp)	 #,
	movl	%eax, 8(%esp)	 # D.29864,
	call	_memset	 #
LVL4:
	movl	$-1, %edx	 #, n
L4:
	.loc 1 172 0
	movl	772(%esp), %ecx	 # a_len,
	leal	__ZL1h(,%edx,4), %eax	 #, D.29863
	testl	%ecx, %ecx	 #
	je	L146	 #,
	.loc 1 178 0
	movl	772(%esp), %eax	 # a_len, tmp314
	.loc 1 175 0
	shrl	$3, %ebx	 #, D.29865
LVL5:
	.loc 1 178 0
	xorl	%edx, %edx	 # tmp313
	.loc 1 175 0
	movl	%ebx, 488(%esp)	 # D.29865, %sfp
LVL6:
	.loc 1 176 0
	movl	768(%esp), %esi	 # a_data, tmp744
	.loc 1 178 0
	divl	%ebx	 # D.29865
	.loc 1 181 0
	addl	772(%esp), %ebx	 # a_len, D.29865
LVL7:
	.loc 1 176 0
	movzbl	(%esi), %ebp	 # MEM[(int8_t *)a_data_38(D)], pB
LVL8:
	.loc 1 181 0
	movl	%ebx, %edi	 # D.29865, D.29865
	.loc 1 185 0
	movl	%edx, %ecx	 # tmp313, l
	.loc 1 181 0
	subl	%edx, %edi	 # tmp313, final_len
	.loc 1 178 0
	movl	%edx, 484(%esp)	 # tmp313, %sfp
	.loc 1 185 0
	subl	$1, %ecx	 #, l
	.loc 1 178 0
	movl	%edx, %eax	 # tmp313, l
LVL9:
	.loc 1 181 0
	movl	%edi, 504(%esp)	 # final_len, %sfp
LVL10:
	.loc 1 185 0
	js	L11	 #,
	movl	772(%esp), %ebx	 # a_len, D.29864
	.loc 1 185 0 is_stmt 0 discriminator 3
	leal	-2(%eax), %edi	 #, l
LVL11:
	movl	%ecx, %esi	 # l, tmp551
	andl	$7, %esi	 #, tmp551
LVL12:
	subl	%edx, %ebx	 # tmp313, D.29864
	addl	768(%esp), %ebx	 # a_data, D.29867
	cmpl	$-1, %edi	 #, l
	.loc 1 186 0 is_stmt 1 discriminator 3
	movzbl	(%ebx,%ecx), %edx	 # MEM[base: _59, index: _483, offset: 0B], tmp753
	movb	%dl, __ZZN3stk4hash4ssc19calc_SSC1EPKvjjE15last_data_chunk(%ecx)	 # tmp753, MEM[symbol: last_data_chunk, index: _483, offset: 0B]
	.loc 1 185 0 discriminator 3
	je	L11	 #,
	testl	%esi, %esi	 # tmp551
	je	L154	 #,
	cmpl	$1, %esi	 #, tmp551
	je	L113	 #,
	cmpl	$2, %esi	 #, tmp551
	je	L114	 #,
	cmpl	$3, %esi	 #, tmp551
	je	L115	 #,
	cmpl	$4, %esi	 #, tmp551
	je	L116	 #,
	cmpl	$5, %esi	 #, tmp551
	je	L117	 #,
	cmpl	$6, %esi	 #, tmp551
	je	L118	 #,
	.loc 1 186 0
	movzbl	(%ebx,%edi), %edx	 # MEM[base: _59, index: _483, offset: 0B], tmp905
	.loc 1 185 0
	subl	$1, %edi	 #, l
	.loc 1 186 0
	movb	%dl, __ZZN3stk4hash4ssc19calc_SSC1EPKvjjE15last_data_chunk+1(%edi)	 # tmp905, MEM[symbol: last_data_chunk, index: _483, offset: 0B]
L118:
	movzbl	(%ebx,%edi), %ecx	 # MEM[base: _59, index: _483, offset: 0B], tmp906
LVL13:
	.loc 1 185 0
	subl	$1, %edi	 #, l
	.loc 1 186 0
	movb	%cl, __ZZN3stk4hash4ssc19calc_SSC1EPKvjjE15last_data_chunk+1(%edi)	 # tmp906, MEM[symbol: last_data_chunk, index: _483, offset: 0B]
L117:
	movzbl	(%ebx,%edi), %edx	 # MEM[base: _59, index: _483, offset: 0B], tmp907
	.loc 1 185 0
	subl	$1, %edi	 #, l
	.loc 1 186 0
	movb	%dl, __ZZN3stk4hash4ssc19calc_SSC1EPKvjjE15last_data_chunk+1(%edi)	 # tmp907, MEM[symbol: last_data_chunk, index: _483, offset: 0B]
L116:
	movzbl	(%ebx,%edi), %ecx	 # MEM[base: _59, index: _483, offset: 0B], tmp908
	.loc 1 185 0
	subl	$1, %edi	 #, l
	.loc 1 186 0
	movb	%cl, __ZZN3stk4hash4ssc19calc_SSC1EPKvjjE15last_data_chunk+1(%edi)	 # tmp908, MEM[symbol: last_data_chunk, index: _483, offset: 0B]
L115:
	movzbl	(%ebx,%edi), %edx	 # MEM[base: _59, index: _483, offset: 0B], tmp909
	.loc 1 185 0
	subl	$1, %edi	 #, l
	.loc 1 186 0
	movb	%dl, __ZZN3stk4hash4ssc19calc_SSC1EPKvjjE15last_data_chunk+1(%edi)	 # tmp909, MEM[symbol: last_data_chunk, index: _483, offset: 0B]
L114:
	movzbl	(%ebx,%edi), %ecx	 # MEM[base: _59, index: _483, offset: 0B], tmp910
	.loc 1 185 0
	subl	$1, %edi	 #, l
	.loc 1 186 0
	movb	%cl, __ZZN3stk4hash4ssc19calc_SSC1EPKvjjE15last_data_chunk+1(%edi)	 # tmp910, MEM[symbol: last_data_chunk, index: _483, offset: 0B]
L113:
	movzbl	(%ebx,%edi), %edx	 # MEM[base: _59, index: _483, offset: 0B], tmp911
	.loc 1 185 0
	subl	$1, %edi	 #, l
	.loc 1 186 0
	movb	%dl, __ZZN3stk4hash4ssc19calc_SSC1EPKvjjE15last_data_chunk+1(%edi)	 # tmp911, MEM[symbol: last_data_chunk, index: _483, offset: 0B]
	.loc 1 185 0
	cmpl	$-1, %edi	 #, l
	je	L11	 #,
L154:
	movl	484(%esp), %ecx	 # %sfp, tmp313
	movl	%eax, %esi	 # l, l
LVL14:
L75:
	.loc 1 186 0 discriminator 3
	movzbl	(%ebx,%edi), %eax	 # MEM[base: _59, index: _483, offset: 0B], tmp754
	movb	%al, __ZZN3stk4hash4ssc19calc_SSC1EPKvjjE15last_data_chunk(%edi)	 # tmp754, MEM[symbol: last_data_chunk, index: _483, offset: 0B]
	movzbl	-1(%ebx,%edi), %edx	 # MEM[base: _59, index: _483, offset: 0B], tmp755
	movb	%dl, __ZZN3stk4hash4ssc19calc_SSC1EPKvjjE15last_data_chunk-1(%edi)	 # tmp755, MEM[symbol: last_data_chunk, index: _483, offset: 0B]
	movzbl	-2(%ebx,%edi), %eax	 # MEM[base: _59, index: _483, offset: 0B], tmp756
	movb	%al, __ZZN3stk4hash4ssc19calc_SSC1EPKvjjE15last_data_chunk-2(%edi)	 # tmp756, MEM[symbol: last_data_chunk, index: _483, offset: 0B]
	movzbl	-3(%ebx,%edi), %edx	 # MEM[base: _59, index: _483, offset: 0B], tmp757
	movb	%dl, __ZZN3stk4hash4ssc19calc_SSC1EPKvjjE15last_data_chunk-3(%edi)	 # tmp757, MEM[symbol: last_data_chunk, index: _483, offset: 0B]
	movzbl	-4(%ebx,%edi), %eax	 # MEM[base: _59, index: _483, offset: 0B], tmp758
	movb	%al, __ZZN3stk4hash4ssc19calc_SSC1EPKvjjE15last_data_chunk-4(%edi)	 # tmp758, MEM[symbol: last_data_chunk, index: _483, offset: 0B]
	movzbl	-5(%ebx,%edi), %edx	 # MEM[base: _59, index: _483, offset: 0B], tmp759
	movb	%dl, __ZZN3stk4hash4ssc19calc_SSC1EPKvjjE15last_data_chunk-5(%edi)	 # tmp759, MEM[symbol: last_data_chunk, index: _483, offset: 0B]
	movzbl	-6(%ebx,%edi), %eax	 # MEM[base: _59, index: _483, offset: 0B], tmp760
	movb	%al, __ZZN3stk4hash4ssc19calc_SSC1EPKvjjE15last_data_chunk-6(%edi)	 # tmp760, MEM[symbol: last_data_chunk, index: _483, offset: 0B]
	movzbl	-7(%ebx,%edi), %edx	 # MEM[base: _59, index: _483, offset: 0B], tmp761
	.loc 1 185 0 discriminator 3
	subl	$8, %edi	 #, l
	.loc 1 186 0 discriminator 3
	movb	%dl, __ZZN3stk4hash4ssc19calc_SSC1EPKvjjE15last_data_chunk+1(%edi)	 # tmp761, MEM[symbol: last_data_chunk, index: _483, offset: 0B]
	.loc 1 185 0 discriminator 3
	cmpl	$-1, %edi	 #, l
	jne	L75	 #,
	movl	%esi, %eax	 # l, l
	movl	%ecx, 484(%esp)	 # tmp313, %sfp
LVL15:
L11:
	.loc 1 189 0
	movl	484(%esp), %ebx	 # %sfp, tmp313
	cmpl	%ebx, 488(%esp)	 # tmp313, %sfp
	jle	L9	 #,
	movl	488(%esp), %esi	 # %sfp, niters.15
	leal	__ZZN3stk4hash4ssc19calc_SSC1EPKvjjE15last_data_chunk(%ebx), %ecx	 #, vectp_last_data_chunk.16
	movl	%ebx, %edx	 # tmp313, tmp313
	negl	%ecx	 # D.29862
	subl	%ebx, %esi	 # tmp313, niters.15
	andl	$15, %ecx	 #, D.29862
	cmpl	%esi, %ecx	 # niters.15, D.29862
	cmova	%esi, %ecx	 # D.29862,, niters.15, prologue_after_cost_adjust.18
	cmpl	$17, %esi	 #, niters.15
	cmovbe	%esi, %ecx	 # prologue_after_cost_adjust.18,, niters.15, prologue_after_cost_adjust.18
	testl	%ecx, %ecx	 # prologue_after_cost_adjust.18
	je	L13	 #,
	movl	%ebx, %eax	 # tmp313, tmp313
LVL16:
	.loc 1 190 0
	movb	%bl, __ZZN3stk4hash4ssc19calc_SSC1EPKvjjE15last_data_chunk(%edx)	 # tmp984, last_data_chunk
	.loc 1 189 0
	addl	$1, %eax	 #, l
LVL17:
	cmpl	$1, %ecx	 #, prologue_after_cost_adjust.18
	je	L14	 #,
	.loc 1 190 0
	movb	%al, __ZZN3stk4hash4ssc19calc_SSC1EPKvjjE15last_data_chunk+1(%ebx)	 # l, last_data_chunk
	.loc 1 189 0
	movl	%ebx, %eax	 # tmp313, tmp313
LVL18:
	addl	$2, %eax	 #, l
LVL19:
	cmpl	$2, %ecx	 #, prologue_after_cost_adjust.18
	je	L14	 #,
	.loc 1 190 0
	movb	%al, __ZZN3stk4hash4ssc19calc_SSC1EPKvjjE15last_data_chunk+2(%ebx)	 # l, last_data_chunk
	.loc 1 189 0
	movl	%ebx, %eax	 # tmp313, tmp313
LVL20:
	addl	$3, %eax	 #, l
LVL21:
	cmpl	$3, %ecx	 #, prologue_after_cost_adjust.18
	je	L14	 #,
	.loc 1 190 0
	movb	%al, __ZZN3stk4hash4ssc19calc_SSC1EPKvjjE15last_data_chunk+3(%ebx)	 # l, last_data_chunk
	.loc 1 189 0
	movl	%ebx, %eax	 # tmp313, tmp313
LVL22:
	addl	$4, %eax	 #, l
LVL23:
	cmpl	$4, %ecx	 #, prologue_after_cost_adjust.18
	je	L14	 #,
	.loc 1 190 0
	movb	%al, __ZZN3stk4hash4ssc19calc_SSC1EPKvjjE15last_data_chunk+4(%ebx)	 # l, last_data_chunk
	.loc 1 189 0
	movl	%ebx, %eax	 # tmp313, tmp313
LVL24:
	addl	$5, %eax	 #, l
LVL25:
	cmpl	$5, %ecx	 #, prologue_after_cost_adjust.18
	je	L14	 #,
	.loc 1 190 0
	movb	%al, __ZZN3stk4hash4ssc19calc_SSC1EPKvjjE15last_data_chunk+5(%ebx)	 # l, last_data_chunk
	.loc 1 189 0
	movl	%ebx, %eax	 # tmp313, tmp313
LVL26:
	addl	$6, %eax	 #, l
LVL27:
	cmpl	$6, %ecx	 #, prologue_after_cost_adjust.18
	je	L14	 #,
	.loc 1 190 0
	movb	%al, __ZZN3stk4hash4ssc19calc_SSC1EPKvjjE15last_data_chunk+6(%ebx)	 # l, last_data_chunk
	.loc 1 189 0
	movl	%ebx, %eax	 # tmp313, tmp313
LVL28:
	addl	$7, %eax	 #, l
LVL29:
	cmpl	$7, %ecx	 #, prologue_after_cost_adjust.18
	je	L14	 #,
	.loc 1 190 0
	movb	%al, __ZZN3stk4hash4ssc19calc_SSC1EPKvjjE15last_data_chunk+7(%ebx)	 # l, last_data_chunk
	.loc 1 189 0
	movl	%ebx, %eax	 # tmp313, tmp313
LVL30:
	addl	$8, %eax	 #, l
LVL31:
	cmpl	$8, %ecx	 #, prologue_after_cost_adjust.18
	je	L14	 #,
	.loc 1 190 0
	movb	%al, __ZZN3stk4hash4ssc19calc_SSC1EPKvjjE15last_data_chunk+8(%ebx)	 # l, last_data_chunk
	.loc 1 189 0
	movl	%ebx, %eax	 # tmp313, tmp313
LVL32:
	addl	$9, %eax	 #, l
LVL33:
	cmpl	$9, %ecx	 #, prologue_after_cost_adjust.18
	je	L14	 #,
	.loc 1 190 0
	movb	%al, __ZZN3stk4hash4ssc19calc_SSC1EPKvjjE15last_data_chunk+9(%ebx)	 # l, last_data_chunk
	.loc 1 189 0
	movl	%ebx, %eax	 # tmp313, tmp313
LVL34:
	addl	$10, %eax	 #, l
LVL35:
	cmpl	$10, %ecx	 #, prologue_after_cost_adjust.18
	je	L14	 #,
	.loc 1 190 0
	movb	%al, __ZZN3stk4hash4ssc19calc_SSC1EPKvjjE15last_data_chunk+10(%ebx)	 # l, last_data_chunk
	.loc 1 189 0
	movl	%ebx, %eax	 # tmp313, tmp313
LVL36:
	addl	$11, %eax	 #, l
LVL37:
	cmpl	$11, %ecx	 #, prologue_after_cost_adjust.18
	je	L14	 #,
	.loc 1 190 0
	movb	%al, __ZZN3stk4hash4ssc19calc_SSC1EPKvjjE15last_data_chunk+11(%ebx)	 # l, last_data_chunk
	.loc 1 189 0
	movl	%ebx, %eax	 # tmp313, tmp313
LVL38:
	addl	$12, %eax	 #, l
LVL39:
	cmpl	$12, %ecx	 #, prologue_after_cost_adjust.18
	je	L14	 #,
	.loc 1 190 0
	movb	%al, __ZZN3stk4hash4ssc19calc_SSC1EPKvjjE15last_data_chunk+12(%ebx)	 # l, last_data_chunk
	.loc 1 189 0
	movl	%ebx, %eax	 # tmp313, tmp313
LVL40:
	addl	$13, %eax	 #, l
LVL41:
	cmpl	$13, %ecx	 #, prologue_after_cost_adjust.18
	je	L14	 #,
	.loc 1 190 0
	movb	%al, __ZZN3stk4hash4ssc19calc_SSC1EPKvjjE15last_data_chunk+13(%ebx)	 # l, last_data_chunk
	.loc 1 189 0
	movl	%ebx, %eax	 # tmp313, tmp313
LVL42:
	addl	$14, %eax	 #, l
LVL43:
	cmpl	$14, %ecx	 #, prologue_after_cost_adjust.18
	je	L14	 #,
	.loc 1 190 0
	movb	%al, __ZZN3stk4hash4ssc19calc_SSC1EPKvjjE15last_data_chunk+14(%ebx)	 # l, last_data_chunk
	.loc 1 189 0
	movl	%ebx, %eax	 # tmp313, tmp313
LVL44:
	addl	$15, %eax	 #, l
LVL45:
	cmpl	$15, %ecx	 #, prologue_after_cost_adjust.18
	je	L14	 #,
	.loc 1 190 0
	movb	%al, __ZZN3stk4hash4ssc19calc_SSC1EPKvjjE15last_data_chunk+15(%ebx)	 # l, last_data_chunk
	.loc 1 189 0
	movl	%ebx, %eax	 # tmp313, tmp313
LVL46:
	addl	$16, %eax	 #, l
LVL47:
	cmpl	$17, %ecx	 #, prologue_after_cost_adjust.18
	jne	L14	 #,
	.loc 1 190 0
	movb	%al, __ZZN3stk4hash4ssc19calc_SSC1EPKvjjE15last_data_chunk+16(%ebx)	 # l, last_data_chunk
	.loc 1 189 0
	movl	%ebx, %eax	 # tmp313, tmp313
LVL48:
	addl	$17, %eax	 #, l
LVL49:
L14:
	cmpl	%ecx, %esi	 # prologue_after_cost_adjust.18, niters.15
	je	L9	 #,
LVL50:
L13:
	movl	%esi, %edi	 # niters.15, niters.19
	subl	$1, %esi	 #, D.29862
	subl	%ecx, %edi	 # prologue_after_cost_adjust.18, niters.19
	subl	%ecx, %esi	 # prologue_after_cost_adjust.18, D.29862
	leal	-16(%edi), %ebx	 #, D.29862
	shrl	$4, %ebx	 #, D.29862
	addl	$1, %ebx	 #, bnd.20
	movl	%ebx, %edx	 # bnd.20, ratio_mult_vf.21
	sall	$4, %edx	 #, ratio_mult_vf.21
	cmpl	$14, %esi	 #, D.29862
	movl	%edx, 492(%esp)	 # ratio_mult_vf.21, %sfp
	jbe	L16	 #,
	movl	%eax, 496(%esp)	 # l, %sfp
	movl	484(%esp), %esi	 # %sfp, D.29864
	movd	496(%esp), %xmm6	 # %sfp, l
	movdqa	LC2, %xmm2	 #, vect_cst_.24
	pshufd	$0, %xmm6, %xmm0	 # l, tmp343
	addl	%ecx, %esi	 # prologue_after_cost_adjust.18, D.29864
	cmpl	$1, %ebx	 #, bnd.20
	movdqa	LC3, %xmm4	 #, vect_vec_iv_.26
	paddd	%xmm0, %xmm2	 # tmp343, vect_cst_.24
	paddd	%xmm0, %xmm4	 # tmp343, vect_vec_iv_.26
	.loc 1 190 0
	movdqa	%xmm2, %xmm3	 # vect_cst_.24, tmp351
	movdqa	LC4, %xmm7	 #, vect_vec_iv_.26
	punpcklwd	%xmm4, %xmm2	 # vect_vec_iv_.26, vect__55.29
	punpckhwd	%xmm4, %xmm3	 # vect_vec_iv_.26, tmp351
	movdqa	LC5, %xmm6	 #, vect_vec_iv_.26
	paddd	%xmm0, %xmm7	 # tmp343, vect_vec_iv_.26
	movdqa	%xmm7, %xmm4	 # vect_vec_iv_.26, tmp358
	movdqa	%xmm2, %xmm5	 # vect__55.29, tmp352
	paddd	%xmm0, %xmm6	 # tmp343, vect_vec_iv_.26
	punpcklwd	%xmm6, %xmm7	 # vect_vec_iv_.26, vect__55.29
	movdqa	LC1, %xmm1	 #, vect_vec_iv_.26
	punpckhwd	%xmm6, %xmm4	 # vect_vec_iv_.26, tmp358
	punpckhwd	%xmm3, %xmm5	 # tmp351, tmp352
	paddd	%xmm0, %xmm1	 # tmp343, vect_vec_iv_.26
	punpcklwd	%xmm3, %xmm2	 # tmp351, vect__55.29
	movdqa	%xmm7, %xmm3	 # vect__55.29, tmp359
	punpcklwd	%xmm4, %xmm7	 # tmp358, vect__55.29
	punpckhwd	%xmm4, %xmm3	 # tmp358, tmp359
	punpcklwd	%xmm5, %xmm2	 # tmp352, vect__55.29
	punpcklwd	%xmm3, %xmm7	 # tmp359, vect__55.29
	movdqa	%xmm2, %xmm5	 # vect__55.29, tmp361
	punpcklbw	%xmm7, %xmm2	 # vect__55.29, vect__55.28
	punpckhbw	%xmm7, %xmm5	 # vect__55.29, tmp361
	movdqa	%xmm2, %xmm7	 # vect__55.28, tmp362
	punpcklbw	%xmm5, %xmm2	 # tmp361, vect__55.28
	punpckhbw	%xmm5, %xmm7	 # tmp361, tmp362
	movdqa	%xmm2, %xmm6	 # vect__55.28, tmp363
	punpcklbw	%xmm7, %xmm2	 # tmp362, vect__55.28
	punpckhbw	%xmm7, %xmm6	 # tmp362, tmp363
	punpcklbw	%xmm6, %xmm2	 # tmp363, vect__55.28
	movaps	%xmm2, __ZZN3stk4hash4ssc19calc_SSC1EPKvjjE15last_data_chunk(%esi)	 # vect__55.28, MEM[(char[128] *)vectp_last_data_chunk.31_205]
	je	L17	 #,
	movdqa	%xmm1, %xmm3	 # vect_vec_iv_.26, tmp368
	cmpl	$2, %ebx	 #, bnd.20
	movdqa	LC7, %xmm4	 #, vect_vec_iv_.26
	movdqa	LC9, %xmm7	 #, vect_vec_iv_.26
	paddd	%xmm0, %xmm4	 # tmp343, vect_vec_iv_.26
	punpcklwd	%xmm4, %xmm1	 # vect_vec_iv_.26, vect__55.29
	movdqa	LC8, %xmm6	 #, vect_vec_iv_.26
	punpckhwd	%xmm4, %xmm3	 # vect_vec_iv_.26, tmp368
	paddd	%xmm0, %xmm7	 # tmp343, vect_vec_iv_.26
	paddd	%xmm0, %xmm6	 # tmp343, vect_vec_iv_.26
	movdqa	%xmm6, %xmm4	 # vect_vec_iv_.26, tmp375
	punpcklwd	%xmm7, %xmm6	 # vect_vec_iv_.26, vect__55.29
	movdqa	%xmm1, %xmm5	 # vect__55.29, tmp369
	punpckhwd	%xmm7, %xmm4	 # vect_vec_iv_.26, tmp375
	punpckhwd	%xmm3, %xmm5	 # tmp368, tmp369
	movdqa	LC6, %xmm2	 #, vect_vec_iv_.26
	punpcklwd	%xmm3, %xmm1	 # tmp368, vect__55.29
	movdqa	%xmm6, %xmm3	 # vect__55.29, tmp376
	punpcklwd	%xmm4, %xmm6	 # tmp375, vect__55.29
	paddd	%xmm0, %xmm2	 # tmp343, vect_vec_iv_.26
	punpckhwd	%xmm4, %xmm3	 # tmp375, tmp376
	punpcklwd	%xmm5, %xmm1	 # tmp369, vect__55.29
	punpcklwd	%xmm3, %xmm6	 # tmp376, vect__55.29
	movdqa	%xmm1, %xmm5	 # vect__55.29, tmp378
	punpcklbw	%xmm6, %xmm1	 # vect__55.29, vect__55.28
	punpckhbw	%xmm6, %xmm5	 # vect__55.29, tmp378
	movdqa	%xmm1, %xmm7	 # vect__55.28, tmp379
	punpcklbw	%xmm5, %xmm1	 # tmp378, vect__55.28
	punpckhbw	%xmm5, %xmm7	 # tmp378, tmp379
	movdqa	%xmm1, %xmm6	 # vect__55.28, tmp380
	punpcklbw	%xmm7, %xmm1	 # tmp379, vect__55.28
	punpckhbw	%xmm7, %xmm6	 # tmp379, tmp380
	punpcklbw	%xmm6, %xmm1	 # tmp380, vect__55.28
	movaps	%xmm1, __ZZN3stk4hash4ssc19calc_SSC1EPKvjjE15last_data_chunk+16(%esi)	 # vect__55.28, MEM[(char[128] *)vectp_last_data_chunk.31_205 + 16B]
	je	L17	 #,
	movdqa	%xmm2, %xmm3	 # vect_vec_iv_.26, tmp385
	cmpl	$3, %ebx	 #, bnd.20
	movdqa	LC11, %xmm4	 #, vect_vec_iv_.26
	movdqa	LC13, %xmm7	 #, vect_vec_iv_.26
	paddd	%xmm0, %xmm4	 # tmp343, vect_vec_iv_.26
	punpcklwd	%xmm4, %xmm2	 # vect_vec_iv_.26, vect__55.29
	movdqa	LC12, %xmm6	 #, vect_vec_iv_.26
	punpckhwd	%xmm4, %xmm3	 # vect_vec_iv_.26, tmp385
	paddd	%xmm0, %xmm7	 # tmp343, vect_vec_iv_.26
	paddd	%xmm0, %xmm6	 # tmp343, vect_vec_iv_.26
	movdqa	%xmm6, %xmm4	 # vect_vec_iv_.26, tmp392
	punpcklwd	%xmm7, %xmm6	 # vect_vec_iv_.26, vect__55.29
	movdqa	%xmm2, %xmm5	 # vect__55.29, tmp386
	punpckhwd	%xmm7, %xmm4	 # vect_vec_iv_.26, tmp392
	punpckhwd	%xmm3, %xmm5	 # tmp385, tmp386
	movdqa	LC10, %xmm1	 #, vect_vec_iv_.26
	punpcklwd	%xmm3, %xmm2	 # tmp385, vect__55.29
	movdqa	%xmm6, %xmm3	 # vect__55.29, tmp393
	punpcklwd	%xmm4, %xmm6	 # tmp392, vect__55.29
	paddd	%xmm0, %xmm1	 # tmp343, vect_vec_iv_.26
	punpckhwd	%xmm4, %xmm3	 # tmp392, tmp393
	punpcklwd	%xmm5, %xmm2	 # tmp386, vect__55.29
	punpcklwd	%xmm3, %xmm6	 # tmp393, vect__55.29
	movdqa	%xmm2, %xmm5	 # vect__55.29, tmp395
	punpcklbw	%xmm6, %xmm2	 # vect__55.29, vect__55.28
	punpckhbw	%xmm6, %xmm5	 # vect__55.29, tmp395
	movdqa	%xmm2, %xmm7	 # vect__55.28, tmp396
	punpcklbw	%xmm5, %xmm2	 # tmp395, vect__55.28
	punpckhbw	%xmm5, %xmm7	 # tmp395, tmp396
	movdqa	%xmm2, %xmm6	 # vect__55.28, tmp397
	punpcklbw	%xmm7, %xmm2	 # tmp396, vect__55.28
	punpckhbw	%xmm7, %xmm6	 # tmp396, tmp397
	punpcklbw	%xmm6, %xmm2	 # tmp397, vect__55.28
	movaps	%xmm2, __ZZN3stk4hash4ssc19calc_SSC1EPKvjjE15last_data_chunk+32(%esi)	 # vect__55.28, MEM[(char[128] *)vectp_last_data_chunk.31_205 + 32B]
	je	L17	 #,
	movdqa	%xmm1, %xmm3	 # vect_vec_iv_.26, tmp402
	cmpl	$4, %ebx	 #, bnd.20
	movdqa	LC15, %xmm4	 #, vect_vec_iv_.26
	movdqa	LC17, %xmm7	 #, vect_vec_iv_.26
	paddd	%xmm0, %xmm4	 # tmp343, vect_vec_iv_.26
	punpcklwd	%xmm4, %xmm1	 # vect_vec_iv_.26, vect__55.29
	movdqa	LC16, %xmm6	 #, vect_vec_iv_.26
	punpckhwd	%xmm4, %xmm3	 # vect_vec_iv_.26, tmp402
	paddd	%xmm0, %xmm7	 # tmp343, vect_vec_iv_.26
	paddd	%xmm0, %xmm6	 # tmp343, vect_vec_iv_.26
	movdqa	%xmm6, %xmm4	 # vect_vec_iv_.26, tmp409
	punpcklwd	%xmm7, %xmm6	 # vect_vec_iv_.26, vect__55.29
	movdqa	%xmm1, %xmm5	 # vect__55.29, tmp403
	punpckhwd	%xmm7, %xmm4	 # vect_vec_iv_.26, tmp409
	punpckhwd	%xmm3, %xmm5	 # tmp402, tmp403
	movdqa	LC14, %xmm2	 #, vect_vec_iv_.26
	punpcklwd	%xmm3, %xmm1	 # tmp402, vect__55.29
	movdqa	%xmm6, %xmm3	 # vect__55.29, tmp410
	punpcklwd	%xmm4, %xmm6	 # tmp409, vect__55.29
	paddd	%xmm0, %xmm2	 # tmp343, vect_vec_iv_.26
	punpckhwd	%xmm4, %xmm3	 # tmp409, tmp410
	punpcklwd	%xmm5, %xmm1	 # tmp403, vect__55.29
	punpcklwd	%xmm3, %xmm6	 # tmp410, vect__55.29
	movdqa	%xmm1, %xmm5	 # vect__55.29, tmp412
	punpcklbw	%xmm6, %xmm1	 # vect__55.29, vect__55.28
	punpckhbw	%xmm6, %xmm5	 # vect__55.29, tmp412
	movdqa	%xmm1, %xmm7	 # vect__55.28, tmp413
	punpcklbw	%xmm5, %xmm1	 # tmp412, vect__55.28
	punpckhbw	%xmm5, %xmm7	 # tmp412, tmp413
	movdqa	%xmm1, %xmm6	 # vect__55.28, tmp414
	punpcklbw	%xmm7, %xmm1	 # tmp413, vect__55.28
	punpckhbw	%xmm7, %xmm6	 # tmp413, tmp414
	punpcklbw	%xmm6, %xmm1	 # tmp414, vect__55.28
	movaps	%xmm1, __ZZN3stk4hash4ssc19calc_SSC1EPKvjjE15last_data_chunk+48(%esi)	 # vect__55.28, MEM[(char[128] *)vectp_last_data_chunk.31_205 + 48B]
	je	L17	 #,
	movdqa	%xmm2, %xmm3	 # vect_vec_iv_.26, tmp419
	cmpl	$5, %ebx	 #, bnd.20
	movdqa	LC19, %xmm4	 #, vect_vec_iv_.26
	movdqa	LC21, %xmm7	 #, vect_vec_iv_.26
	paddd	%xmm0, %xmm4	 # tmp343, vect_vec_iv_.26
	punpcklwd	%xmm4, %xmm2	 # vect_vec_iv_.26, vect__55.29
	movdqa	LC20, %xmm6	 #, vect_vec_iv_.26
	punpckhwd	%xmm4, %xmm3	 # vect_vec_iv_.26, tmp419
	paddd	%xmm0, %xmm7	 # tmp343, vect_vec_iv_.26
	paddd	%xmm0, %xmm6	 # tmp343, vect_vec_iv_.26
	movdqa	%xmm6, %xmm4	 # vect_vec_iv_.26, tmp426
	punpcklwd	%xmm7, %xmm6	 # vect_vec_iv_.26, vect__55.29
	movdqa	%xmm2, %xmm5	 # vect__55.29, tmp420
	punpckhwd	%xmm7, %xmm4	 # vect_vec_iv_.26, tmp426
	punpckhwd	%xmm3, %xmm5	 # tmp419, tmp420
	movdqa	LC18, %xmm1	 #, vect_vec_iv_.26
	punpcklwd	%xmm3, %xmm2	 # tmp419, vect__55.29
	movdqa	%xmm6, %xmm3	 # vect__55.29, tmp427
	punpcklwd	%xmm4, %xmm6	 # tmp426, vect__55.29
	paddd	%xmm0, %xmm1	 # tmp343, vect_vec_iv_.26
	punpckhwd	%xmm4, %xmm3	 # tmp426, tmp427
	punpcklwd	%xmm5, %xmm2	 # tmp420, vect__55.29
	punpcklwd	%xmm3, %xmm6	 # tmp427, vect__55.29
	movdqa	%xmm2, %xmm5	 # vect__55.29, tmp429
	punpcklbw	%xmm6, %xmm2	 # vect__55.29, vect__55.28
	punpckhbw	%xmm6, %xmm5	 # vect__55.29, tmp429
	movdqa	%xmm2, %xmm7	 # vect__55.28, tmp430
	punpcklbw	%xmm5, %xmm2	 # tmp429, vect__55.28
	punpckhbw	%xmm5, %xmm7	 # tmp429, tmp430
	movdqa	%xmm2, %xmm6	 # vect__55.28, tmp431
	punpcklbw	%xmm7, %xmm2	 # tmp430, vect__55.28
	punpckhbw	%xmm7, %xmm6	 # tmp430, tmp431
	punpcklbw	%xmm6, %xmm2	 # tmp431, vect__55.28
	movaps	%xmm2, __ZZN3stk4hash4ssc19calc_SSC1EPKvjjE15last_data_chunk+64(%esi)	 # vect__55.28, MEM[(char[128] *)vectp_last_data_chunk.31_205 + 64B]
	je	L17	 #,
	movdqa	%xmm1, %xmm3	 # vect_vec_iv_.26, tmp436
	cmpl	$6, %ebx	 #, bnd.20
	movdqa	LC23, %xmm4	 #, vect_vec_iv_.26
	movdqa	LC25, %xmm7	 #, vect_vec_iv_.26
	paddd	%xmm0, %xmm4	 # tmp343, vect_vec_iv_.26
	punpcklwd	%xmm4, %xmm1	 # vect_vec_iv_.26, vect__55.29
	movdqa	LC24, %xmm6	 #, vect_vec_iv_.26
	punpckhwd	%xmm4, %xmm3	 # vect_vec_iv_.26, tmp436
	paddd	%xmm0, %xmm7	 # tmp343, vect_vec_iv_.26
	paddd	%xmm0, %xmm6	 # tmp343, vect_vec_iv_.26
	movdqa	%xmm6, %xmm4	 # vect_vec_iv_.26, tmp443
	punpcklwd	%xmm7, %xmm6	 # vect_vec_iv_.26, vect__55.29
	movdqa	%xmm1, %xmm5	 # vect__55.29, tmp437
	punpckhwd	%xmm7, %xmm4	 # vect_vec_iv_.26, tmp443
	punpckhwd	%xmm3, %xmm5	 # tmp436, tmp437
	movdqa	LC22, %xmm2	 #, vect_vec_iv_.26
	punpcklwd	%xmm3, %xmm1	 # tmp436, vect__55.29
	movdqa	%xmm6, %xmm3	 # vect__55.29, tmp444
	punpcklwd	%xmm4, %xmm6	 # tmp443, vect__55.29
	paddd	%xmm0, %xmm2	 # tmp343, vect_vec_iv_.26
	punpckhwd	%xmm4, %xmm3	 # tmp443, tmp444
	punpcklwd	%xmm5, %xmm1	 # tmp437, vect__55.29
	punpcklwd	%xmm3, %xmm6	 # tmp444, vect__55.29
	movdqa	%xmm1, %xmm5	 # vect__55.29, tmp446
	punpcklbw	%xmm6, %xmm1	 # vect__55.29, vect__55.28
	punpckhbw	%xmm6, %xmm5	 # vect__55.29, tmp446
	movdqa	%xmm1, %xmm7	 # vect__55.28, tmp447
	punpcklbw	%xmm5, %xmm1	 # tmp446, vect__55.28
	punpckhbw	%xmm5, %xmm7	 # tmp446, tmp447
	movdqa	%xmm1, %xmm6	 # vect__55.28, tmp448
	punpcklbw	%xmm7, %xmm1	 # tmp447, vect__55.28
	punpckhbw	%xmm7, %xmm6	 # tmp447, tmp448
	punpcklbw	%xmm6, %xmm1	 # tmp448, vect__55.28
	movaps	%xmm1, __ZZN3stk4hash4ssc19calc_SSC1EPKvjjE15last_data_chunk+80(%esi)	 # vect__55.28, MEM[(char[128] *)vectp_last_data_chunk.31_205 + 80B]
	je	L17	 #,
	movdqa	%xmm2, %xmm3	 # vect_vec_iv_.26, tmp453
	cmpl	$7, %ebx	 #, bnd.20
	movdqa	LC27, %xmm4	 #, vect_vec_iv_.26
	movdqa	LC29, %xmm7	 #, vect_vec_iv_.26
	paddd	%xmm0, %xmm4	 # tmp343, vect_vec_iv_.26
	punpcklwd	%xmm4, %xmm2	 # vect_vec_iv_.26, vect__55.29
	movdqa	LC28, %xmm6	 #, vect_vec_iv_.26
	punpckhwd	%xmm4, %xmm3	 # vect_vec_iv_.26, tmp453
	paddd	%xmm0, %xmm7	 # tmp343, vect_vec_iv_.26
	paddd	%xmm0, %xmm6	 # tmp343, vect_vec_iv_.26
	movdqa	%xmm6, %xmm4	 # vect_vec_iv_.26, tmp460
	punpcklwd	%xmm7, %xmm6	 # vect_vec_iv_.26, vect__55.29
	movdqa	%xmm2, %xmm5	 # vect__55.29, tmp454
	punpckhwd	%xmm7, %xmm4	 # vect_vec_iv_.26, tmp460
	punpckhwd	%xmm3, %xmm5	 # tmp453, tmp454
	movdqa	LC26, %xmm1	 #, vect_vec_iv_.26
	punpcklwd	%xmm3, %xmm2	 # tmp453, vect__55.29
	movdqa	%xmm6, %xmm3	 # vect__55.29, tmp461
	punpcklwd	%xmm4, %xmm6	 # tmp460, vect__55.29
	paddd	%xmm0, %xmm1	 # tmp343, vect_vec_iv_.26
	punpckhwd	%xmm4, %xmm3	 # tmp460, tmp461
	punpcklwd	%xmm5, %xmm2	 # tmp454, vect__55.29
	punpcklwd	%xmm3, %xmm6	 # tmp461, vect__55.29
	movdqa	%xmm2, %xmm5	 # vect__55.29, tmp463
	punpcklbw	%xmm6, %xmm2	 # vect__55.29, vect__55.28
	punpckhbw	%xmm6, %xmm5	 # vect__55.29, tmp463
	movdqa	%xmm2, %xmm7	 # vect__55.28, tmp464
	punpcklbw	%xmm5, %xmm2	 # tmp463, vect__55.28
	punpckhbw	%xmm5, %xmm7	 # tmp463, tmp464
	movdqa	%xmm2, %xmm6	 # vect__55.28, tmp465
	punpcklbw	%xmm7, %xmm2	 # tmp464, vect__55.28
	punpckhbw	%xmm7, %xmm6	 # tmp464, tmp465
	punpcklbw	%xmm6, %xmm2	 # tmp465, vect__55.28
	movaps	%xmm2, __ZZN3stk4hash4ssc19calc_SSC1EPKvjjE15last_data_chunk+96(%esi)	 # vect__55.28, MEM[(char[128] *)vectp_last_data_chunk.31_205 + 96B]
	je	L17	 #,
	.loc 1 190 0 is_stmt 0 discriminator 3
	movdqa	%xmm1, %xmm2	 # vect_vec_iv_.26, tmp469
	movdqa	LC31, %xmm5	 #, vect_vec_iv_.26
	movdqa	LC30, %xmm4	 #, vect_vec_iv_.26
	paddd	%xmm0, %xmm5	 # tmp343, vect_vec_iv_.26
	movdqa	%xmm5, %xmm6	 # vect_vec_iv_.26, vect__55.29
	movdqa	%xmm5, %xmm7	 # vect_vec_iv_.26, tmp476
	paddd	%xmm0, %xmm4	 # tmp343, vect_vec_iv_.26
	paddd	LC32, %xmm0	 #, vect_vec_iv_.26
	punpcklwd	%xmm4, %xmm1	 # vect_vec_iv_.26, vect__55.29
	punpcklwd	%xmm0, %xmm6	 # vect_vec_iv_.26, vect__55.29
	punpckhwd	%xmm4, %xmm2	 # vect_vec_iv_.26, tmp469
	punpckhwd	%xmm0, %xmm7	 # vect_vec_iv_.26, tmp476
	movdqa	%xmm1, %xmm3	 # vect__55.29, tmp470
	movdqa	%xmm6, %xmm0	 # vect__55.29, vect__55.29
	movdqa	%xmm6, %xmm4	 # vect__55.29, tmp477
	punpckhwd	%xmm2, %xmm3	 # tmp469, tmp470
	punpcklwd	%xmm2, %xmm1	 # tmp469, vect__55.29
	punpckhwd	%xmm7, %xmm4	 # tmp476, tmp477
	punpcklwd	%xmm7, %xmm0	 # tmp476, vect__55.29
	punpcklwd	%xmm3, %xmm1	 # tmp470, vect__55.29
	punpcklwd	%xmm4, %xmm0	 # tmp477, vect__55.29
	movdqa	%xmm1, %xmm2	 # vect__55.29, tmp479
	punpcklbw	%xmm0, %xmm1	 # vect__55.29, vect__55.28
	punpckhbw	%xmm0, %xmm2	 # vect__55.29, tmp479
	movdqa	%xmm1, %xmm3	 # vect__55.28, vect__55.28
	movdqa	%xmm1, %xmm5	 # vect__55.28, tmp480
	punpcklbw	%xmm2, %xmm3	 # tmp479, vect__55.28
	punpckhbw	%xmm2, %xmm5	 # tmp479, tmp480
	movdqa	%xmm3, %xmm7	 # vect__55.28, tmp481
	punpcklbw	%xmm5, %xmm3	 # tmp480, vect__55.28
	punpckhbw	%xmm5, %xmm7	 # tmp480, tmp481
	punpcklbw	%xmm7, %xmm3	 # tmp481, vect__55.28
	movaps	%xmm3, __ZZN3stk4hash4ssc19calc_SSC1EPKvjjE15last_data_chunk+112(%esi)	 # vect__55.28, MEM[(char[128] *)vectp_last_data_chunk.31_205 + 112B]
L17:
	movl	492(%esp), %ecx	 # %sfp, ratio_mult_vf.21
	addl	%ecx, %eax	 # ratio_mult_vf.21, l
	cmpl	%edi, %ecx	 # niters.19, ratio_mult_vf.21
	je	L9	 #,
L16:
LVL51:
	.loc 1 189 0 is_stmt 1
	movl	488(%esp), %edi	 # %sfp, D.29865
	leal	1(%eax), %ebx	 #, l
LVL52:
	.loc 1 190 0
	movb	%al, __ZZN3stk4hash4ssc19calc_SSC1EPKvjjE15last_data_chunk(%eax)	 # l, last_data_chunk
	.loc 1 189 0
	cmpl	%ebx, %edi	 # l, D.29865
	jle	L9	 #,
	leal	2(%eax), %edx	 #, l
LVL53:
	.loc 1 190 0
	movb	%bl, __ZZN3stk4hash4ssc19calc_SSC1EPKvjjE15last_data_chunk+1(%eax)	 # l, last_data_chunk
	.loc 1 189 0
	cmpl	%edx, %edi	 # l, D.29865
	jle	L9	 #,
	leal	3(%eax), %ecx	 #, l
LVL54:
	.loc 1 190 0
	movb	%dl, __ZZN3stk4hash4ssc19calc_SSC1EPKvjjE15last_data_chunk+2(%eax)	 # l, last_data_chunk
	.loc 1 189 0
	cmpl	%ecx, %edi	 # l, D.29865
	jle	L9	 #,
	leal	4(%eax), %ebx	 #, l
LVL55:
	.loc 1 190 0
	movb	%cl, __ZZN3stk4hash4ssc19calc_SSC1EPKvjjE15last_data_chunk+3(%eax)	 # l, last_data_chunk
	.loc 1 189 0
	cmpl	%ebx, %edi	 # l, D.29865
	jle	L9	 #,
	leal	5(%eax), %edx	 #, l
LVL56:
	.loc 1 190 0
	movb	%bl, __ZZN3stk4hash4ssc19calc_SSC1EPKvjjE15last_data_chunk+4(%eax)	 # l, last_data_chunk
	.loc 1 189 0
	cmpl	%edx, %edi	 # l, D.29865
	jle	L9	 #,
	leal	6(%eax), %ecx	 #, l
LVL57:
	.loc 1 190 0
	movb	%dl, __ZZN3stk4hash4ssc19calc_SSC1EPKvjjE15last_data_chunk+5(%eax)	 # l, last_data_chunk
	.loc 1 189 0
	cmpl	%ecx, %edi	 # l, D.29865
	jle	L9	 #,
	leal	7(%eax), %ebx	 #, l
LVL58:
	.loc 1 190 0
	movb	%cl, __ZZN3stk4hash4ssc19calc_SSC1EPKvjjE15last_data_chunk+6(%eax)	 # l, last_data_chunk
	.loc 1 189 0
	cmpl	%ebx, %edi	 # l, D.29865
	jle	L9	 #,
	leal	8(%eax), %edx	 #, l
LVL59:
	.loc 1 190 0
	movb	%bl, __ZZN3stk4hash4ssc19calc_SSC1EPKvjjE15last_data_chunk+7(%eax)	 # l, last_data_chunk
	.loc 1 189 0
	cmpl	%edx, %edi	 # l, D.29865
	jle	L9	 #,
	leal	9(%eax), %ecx	 #, l
LVL60:
	.loc 1 190 0
	movb	%dl, __ZZN3stk4hash4ssc19calc_SSC1EPKvjjE15last_data_chunk+8(%eax)	 # l, last_data_chunk
	.loc 1 189 0
	cmpl	%ecx, %edi	 # l, D.29865
	jle	L9	 #,
	leal	10(%eax), %ebx	 #, l
LVL61:
	.loc 1 190 0
	movb	%cl, __ZZN3stk4hash4ssc19calc_SSC1EPKvjjE15last_data_chunk+9(%eax)	 # l, last_data_chunk
	.loc 1 189 0
	cmpl	%ebx, %edi	 # l, D.29865
	jle	L9	 #,
	leal	11(%eax), %edx	 #, l
LVL62:
	.loc 1 190 0
	movb	%bl, __ZZN3stk4hash4ssc19calc_SSC1EPKvjjE15last_data_chunk+10(%eax)	 # l, last_data_chunk
	.loc 1 189 0
	cmpl	%edx, %edi	 # l, D.29865
	jle	L9	 #,
	leal	12(%eax), %ecx	 #, l
LVL63:
	.loc 1 190 0
	movb	%dl, __ZZN3stk4hash4ssc19calc_SSC1EPKvjjE15last_data_chunk+11(%eax)	 # l, last_data_chunk
	.loc 1 189 0
	cmpl	%ecx, %edi	 # l, D.29865
	jle	L9	 #,
	leal	13(%eax), %ebx	 #, l
LVL64:
	.loc 1 190 0
	movb	%cl, __ZZN3stk4hash4ssc19calc_SSC1EPKvjjE15last_data_chunk+12(%eax)	 # l, last_data_chunk
	.loc 1 189 0
	cmpl	%ebx, %edi	 # l, D.29865
	jle	L9	 #,
	leal	14(%eax), %edx	 #, l
	.loc 1 190 0
	movb	%bl, __ZZN3stk4hash4ssc19calc_SSC1EPKvjjE15last_data_chunk+13(%eax)	 # l, last_data_chunk
LVL65:
	.loc 1 189 0
	cmpl	%edx, %edi	 # l, D.29865
	jle	L9	 #,
	.loc 1 190 0
	movb	%dl, __ZZN3stk4hash4ssc19calc_SSC1EPKvjjE15last_data_chunk+14(%eax)	 # l, last_data_chunk
LVL66:
L9:
	.loc 1 193 0
	movl	504(%esp), %eax	 # %sfp,
	testl	%eax, %eax	 #
	je	L32	 #,
	movl	488(%esp), %edi	 # %sfp, D.29865
	movl	768(%esp), %esi	 # a_data, ivtmp.49
	movl	%ebp, %eax	 # pB, pB
	movzbl	__ZL5h_num-1(%edi), %ecx	 # h_num, D.29869
	subl	768(%esp), %edi	 # a_data, D.29865
	movl	%esi, 500(%esp)	 # ivtmp.49, %sfp
	movl	%edi, 508(%esp)	 # D.29865, %sfp
	movl	%ecx, %ebp	 # D.29869, D.29869
LVL67:
L31:
	movl	500(%esp), %esi	 # %sfp, ivtmp.49
	movl	508(%esp), %ebx	 # %sfp, chunk_offset
	.loc 1 194 0
	movl	$__ZZN3stk4hash4ssc19calc_SSC1EPKvjjE15last_data_chunk, %edx	 #, data_chunk_ptr
	addl	%esi, %ebx	 # ivtmp.49, chunk_offset
	cmpl	%ebx, 772(%esp)	 # chunk_offset, a_len
	cmovae	%esi, %edx	 # ivtmp.49,, data_chunk_ptr
	movl	%edx, 492(%esp)	 # data_chunk_ptr, %sfp
LVL68:
	.loc 1 198 0
	xorl	%edx, %edx	 # i
LVL69:
	.p2align 4,,10
L30:
	.loc 1 199 0
	cmpl	488(%esp), %edx	 # %sfp, i
	movl	__ZL1h, %esi	 # h, H
LVL70:
	jge	L21	 #,
	.loc 1 200 0
	movl	492(%esp), %edi	 # %sfp, data_chunk_ptr
	movzbl	(%edi,%edx), %edi	 # *_119,
	.loc 1 204 0
	addl	$1, %edx	 #, i
LVL71:
	.loc 1 202 0
	xorl	%edi, %eax	 # pB, D.29861
LVL72:
	.loc 1 201 0
	addl	__ZL5b_sum(,%edi,4), %esi	 # b_sum, H
LVL73:
	.loc 1 200 0
	movl	%edi, %ebx	 #,
LVL74:
	.loc 1 202 0
	movzbl	%al, %eax	 # D.29861, D.29869
	movzbl	__ZL7d_shift(%eax), %ecx	 # d_shift, D.29869
	sall	%cl, %edi	 # D.29869, D.29869
	addl	%edi, %esi	 # D.29869, H
LVL75:
	.loc 1 204 0
	testb	$15, %dl	 #, i
	je	L52	 #,
	movl	488(%esp), %edi	 # %sfp, tmp547
	.loc 1 200 0
	movl	492(%esp), %ecx	 # %sfp, data_chunk_ptr
	subl	%edx, %edi	 # i, tmp547
	andl	$3, %edi	 #, tmp548
	movl	%edi, 484(%esp)	 # tmp548, %sfp
	je	L156	 #,
	movzbl	(%ecx,%edx), %edi	 # MEM[base: data_chunk_ptr_7, index: _274, offset: 0B],
	.loc 1 204 0
	addl	$1, %edx	 #, i
LVL76:
	.loc 1 202 0
	xorl	%edi, %ebx	 # pB, D.29861
	.loc 1 200 0
	movl	%edi, %eax	 #,
LVL77:
	.loc 1 202 0
	movzbl	%bl, %ebx	 # D.29861, D.29869
	movzbl	__ZL7d_shift(%ebx), %ecx	 # d_shift, D.29869
	movl	%edi, %ebx	 # D.29869, D.29869
	movl	__ZL5b_sum(,%edi,4), %edi	 # b_sum, D.29869
LVL78:
	sall	%cl, %ebx	 # D.29869, D.29869
	addl	%ebx, %edi	 # D.29869, D.29869
	addl	%edi, %esi	 # D.29870, H
LVL79:
	.loc 1 204 0
	testb	$15, %dl	 #, i
	je	L22	 #,
	.loc 1 200 0
	movl	%eax, %ebx	 # pB, pB
	movl	484(%esp), %eax	 # %sfp, tmp548
LVL80:
	cmpl	$1, %eax	 #, tmp548
	je	L150	 #,
	cmpl	$2, %eax	 #, tmp548
	je	L112	 #,
LVL81:
	movl	492(%esp), %edi	 # %sfp, data_chunk_ptr
	movzbl	(%edi,%edx), %edi	 # MEM[base: data_chunk_ptr_7, index: _274, offset: 0B],
	.loc 1 204 0
	addl	$1, %edx	 #, i
LVL82:
	.loc 1 202 0
	xorl	%edi, %ebx	 # pB, D.29861
LVL83:
	.loc 1 200 0
	movl	%edi, %eax	 #,
LVL84:
	.loc 1 202 0
	movzbl	%bl, %ebx	 # D.29861, D.29869
	movzbl	__ZL7d_shift(%ebx), %ecx	 # d_shift, D.29869
	movl	%edi, %ebx	 # D.29869, D.29869
	movl	__ZL5b_sum(,%edi,4), %edi	 # b_sum, D.29869
LVL85:
	sall	%cl, %ebx	 # D.29869, D.29869
	addl	%ebx, %edi	 # D.29869, D.29869
	addl	%edi, %esi	 # D.29870, H
LVL86:
	.loc 1 204 0
	testb	$15, %dl	 #, i
	je	L22	 #,
	.loc 1 200 0
	movl	%eax, %ebx	 # pB, pB
LVL87:
L112:
	movl	492(%esp), %eax	 # %sfp, data_chunk_ptr
	movzbl	(%eax,%edx), %edi	 # MEM[base: data_chunk_ptr_7, index: _274, offset: 0B],
	.loc 1 204 0
	addl	$1, %edx	 #, i
LVL88:
	.loc 1 202 0
	xorl	%edi, %ebx	 # pB, D.29861
LVL89:
	.loc 1 200 0
	movl	%edi, %eax	 #,
LVL90:
	.loc 1 202 0
	movzbl	%bl, %ecx	 # D.29861, D.29869
	movl	%edi, %ebx	 # D.29869, D.29869
	movl	__ZL5b_sum(,%edi,4), %edi	 # b_sum, D.29869
LVL91:
	movzbl	__ZL7d_shift(%ecx), %ecx	 # d_shift, D.29869
	sall	%cl, %ebx	 # D.29869, D.29869
	addl	%ebx, %edi	 # D.29869, D.29869
	addl	%edi, %esi	 # D.29870, H
LVL92:
	.loc 1 204 0
	testb	$15, %dl	 #, i
	je	L22	 #,
	.loc 1 200 0
	movl	%eax, %ebx	 # pB, pB
	movl	492(%esp), %eax	 # %sfp, data_chunk_ptr
LVL93:
	movl	%ebp, 496(%esp)	 # D.29869, %sfp
	movl	%eax, 484(%esp)	 # data_chunk_ptr, %sfp
LVL94:
L23:
	.loc 1 199 0
	cmpl	%edx, 488(%esp)	 # i, %sfp
	je	L159	 #,
L24:
	.loc 1 200 0
	movl	484(%esp), %edi	 # %sfp, data_chunk_ptr
	movzbl	(%edi,%edx), %ebp	 # MEM[base: data_chunk_ptr_7, index: _274, offset: 0B],
	.loc 1 202 0
	xorl	%ebp, %ebx	 # pB, D.29861
	.loc 1 200 0
	movl	%ebp, %eax	 #,
LVL95:
	.loc 1 202 0
	movzbl	%bl, %ecx	 # D.29861, D.29869
	movl	%ebp, %ebx	 # D.29869, D.29869
	movl	__ZL5b_sum(,%ebp,4), %ebp	 # b_sum, D.29869
LVL96:
	movzbl	__ZL7d_shift(%ecx), %ecx	 # d_shift, D.29869
	sall	%cl, %ebx	 # D.29869, D.29869
	addl	%ebx, %ebp	 # D.29869, D.29869
	.loc 1 204 0
	leal	1(%edx), %ebx	 #, tmp549
	.loc 1 202 0
	addl	%ebp, %esi	 # D.29870, H
LVL97:
	.loc 1 204 0
	testb	$15, %bl	 #, i
	movl	%ebx, %edx	 # tmp549, i
LVL98:
	je	L152	 #,
	.loc 1 200 0
	movzbl	(%edi,%ebx), %ebp	 # MEM[base: data_chunk_ptr_7, index: _274, offset: 0B],
	movl	%eax, %ecx	 # pB, pB
LVL99:
	.loc 1 204 0
	addl	$1, %edx	 #, i
LVL100:
	.loc 1 202 0
	xorl	%ebp, %ecx	 # pB, D.29861
	.loc 1 200 0
	movl	%ebp, %eax	 #,
LVL101:
	.loc 1 202 0
	movzbl	%cl, %edi	 # D.29861, D.29869
LVL102:
	movzbl	__ZL7d_shift(%edi), %ecx	 # d_shift, D.29869
	movl	%ebp, %edi	 # D.29869, D.29869
	movl	__ZL5b_sum(,%ebp,4), %ebp	 # b_sum, D.29869
LVL103:
	sall	%cl, %edi	 # D.29869, D.29869
	addl	%edi, %ebp	 # D.29869, D.29869
	addl	%ebp, %esi	 # D.29870, H
LVL104:
	.loc 1 204 0
	testb	$15, %dl	 #, i
	je	L152	 #,
	.loc 1 200 0
	movl	484(%esp), %ebp	 # %sfp, data_chunk_ptr
	movl	%eax, %ecx	 # pB, pB
LVL105:
	movzbl	0(%ebp,%edx), %edx	 # MEM[base: data_chunk_ptr_7, index: _274, offset: 0B],
LVL106:
	.loc 1 202 0
	xorl	%edx, %ecx	 # pB, D.29861
	.loc 1 200 0
	movl	%edx, %eax	 #,
LVL107:
	.loc 1 202 0
	movzbl	%cl, %edi	 # D.29861, D.29869
	movzbl	__ZL7d_shift(%edi), %ecx	 # d_shift, D.29869
	movl	%edx, %edi	 # D.29869, D.29869
	movl	__ZL5b_sum(,%edx,4), %edx	 # b_sum, D.29869
LVL108:
	sall	%cl, %edi	 # D.29869, D.29869
	addl	%edi, %edx	 # D.29869, D.29869
	addl	%edx, %esi	 # D.29870, H
LVL109:
	.loc 1 204 0
	leal	2(%ebx), %edx	 #, i
LVL110:
	testb	$15, %dl	 #, i
	je	L152	 #,
	.loc 1 200 0
	movzbl	2(%ebp,%ebx), %edx	 # MEM[base: data_chunk_ptr_7, index: _274, offset: 0B],
LVL111:
	movl	%eax, %ecx	 # pB, pB
LVL112:
	.loc 1 202 0
	xorl	%edx, %ecx	 # pB, D.29861
	movl	%edx, %ebp	 # D.29869, D.29869
	.loc 1 200 0
	movl	%edx, %eax	 #,
LVL113:
	.loc 1 202 0
	movzbl	%cl, %edi	 # D.29861, D.29869
	movl	__ZL5b_sum(,%edx,4), %edx	 # b_sum, D.29869
LVL114:
	movzbl	__ZL7d_shift(%edi), %ecx	 # d_shift, D.29869
	sall	%cl, %ebp	 # D.29869, D.29869
	addl	%ebp, %edx	 # D.29869, D.29869
	addl	%edx, %esi	 # D.29870, H
LVL115:
	.loc 1 204 0
	leal	3(%ebx), %edx	 #, i
LVL116:
	testb	$15, %dl	 #, i
	je	L152	 #,
	.loc 1 199 0
	cmpl	%edx, 488(%esp)	 # i, %sfp
	.loc 1 200 0
	movl	%eax, %ebx	 # pB, pB
	.loc 1 199 0
	jne	L24	 #,
LVL117:
L159:
	movl	496(%esp), %ebp	 # %sfp, D.29869
	movl	%ebx, %eax	 # pB, pB
L21:
LVL118:
	.loc 1 208 0
	testl	%ebp, %ebp	 # D.29869
	.loc 1 207 0
	movl	%esi, __ZL1h	 # H, h
LVL119:
	.loc 1 208 0
	je	L34	 #,
L33:
	.loc 1 200 0
	movl	$1, %ebx	 #, ivtmp.37
LVL120:
	.p2align 4,,10
L29:
	.loc 1 209 0
	movl	__ZL1h-4(,%ebx,4), %ecx	 # MEM[symbol: h, index: ivtmp.37_188, step: 4, offset: 4294967292B], H
LVL121:
	.loc 1 210 0
	movl	%ebx, %esi	 # ivtmp.37, D.29873
	cmpl	$268435455, %ecx	 #, H
	jbe	L27	 #,
	.loc 1 210 0 is_stmt 0 discriminator 1
	movl	%ecx, %edi	 # H, D.29865
	andl	$-268435456, %edi	 #, D.29865
	shrl	$4, %edi	 #, D.29865
	addl	%edi, __ZL1h(,%ebx,4)	 # D.29865, MEM[symbol: h, index: ivtmp.37_188, step: 4, offset: 0B]
L27:
	.loc 1 211 0 is_stmt 1
	andl	$16711680, %ecx	 #, D.29865
LVL122:
	cmpl	$65535, %ecx	 #, D.29865
	jbe	L28	 #,
	.loc 1 211 0 is_stmt 0 discriminator 1
	shrl	$16, %ecx	 #, D.29865
	addl	%ecx, __ZL1h(,%ebx,4)	 # D.29865, h
LVL123:
L28:
	addl	$1, %ebx	 #, ivtmp.37
LVL124:
	.loc 1 208 0 is_stmt 1 discriminator 2
	cmpl	%esi, %ebp	 # D.29873, D.29869
	jg	L29	 #,
	.loc 1 213 0
	cmpl	488(%esp), %edx	 # %sfp, i
	jl	L30	 #,
LVL125:
L34:
	movl	488(%esp), %edx	 # %sfp, D.29865
LVL126:
	addl	%edx, 500(%esp)	 # D.29865, %sfp
	movl	500(%esp), %ebx	 # %sfp, ivtmp.49
	subl	768(%esp), %ebx	 # a_data, chunk_offset
	.loc 1 193 0
	cmpl	%ebx, 504(%esp)	 # chunk_offset, %sfp
	ja	L31	 #,
LVL127:
L32:
	.loc 1 217 0
	movl	$__ZL1h, %eax	 #, D.29863
LVL128:
L146:
LBE2:
	.loc 1 218 0
	addl	$748, %esp	 #,
	.cfi_remember_state
	.cfi_def_cfa_offset 20
	popl	%ebx	 #
	.cfi_restore 3
	.cfi_def_cfa_offset 16
	popl	%esi	 #
	.cfi_restore 6
	.cfi_def_cfa_offset 12
	popl	%edi	 #
	.cfi_restore 7
	.cfi_def_cfa_offset 8
	popl	%ebp	 #
	.cfi_restore 5
	.cfi_def_cfa_offset 4
	ret	$12	 #
LVL129:
	.p2align 4,,10
L152:
	.cfi_restore_state
	movl	496(%esp), %ebp	 # %sfp, D.29869
L22:
LBB3:
	.loc 1 208 0
	testl	%ebp, %ebp	 # D.29869
	.loc 1 207 0
	movl	%esi, __ZL1h	 # H, h
LVL130:
	.loc 1 208 0
	jne	L33	 #,
L158:
	.loc 1 213 0
	cmpl	488(%esp), %edx	 # %sfp, i
	jl	L30	 #,
	jmp	L34	 #
LVL131:
	.p2align 4,,10
L150:
	movl	492(%esp), %ecx	 # %sfp, data_chunk_ptr
LVL132:
L156:
	movl	%ecx, 484(%esp)	 # data_chunk_ptr, %sfp
	movl	%ebp, 496(%esp)	 # D.29869, %sfp
	jmp	L23	 #
LVL133:
L52:
	.loc 1 208 0
	testl	%ebp, %ebp	 # D.29869
	.loc 1 200 0
	movl	%ebx, %eax	 # pB, pB
LVL134:
	.loc 1 207 0
	movl	%esi, __ZL1h	 # H, h
LVL135:
	.loc 1 208 0
	jne	L33	 #,
	jmp	L158	 #
LBE3:
	.cfi_endproc
LFE703:
	.section	.text.unlikely,"x"
LCOLDE33:
	.text
LHOTE33:
	.section .rdata,"dr"
LC34:
	.ascii "ssc1 HASH:\12\0"
LC35:
	.ascii "%#010x \0"
LC36:
	.ascii "\12\0"
	.section	.text.unlikely,"x"
LCOLDB37:
	.text
LHOTB37:
	.p2align 4,,15
	.globl	__ZN3stk4hash4ssc110print_SSC1Ev@0
	.def	__ZN3stk4hash4ssc110print_SSC1Ev@0;	.scl	2;	.type	32;	.endef
__ZN3stk4hash4ssc110print_SSC1Ev@0:
LFB704:
	.loc 1 222 0
	.cfi_startproc
	pushl	%esi	 #
	.cfi_def_cfa_offset 8
	.cfi_offset 6, -8
	pushl	%ebx	 #
	.cfi_def_cfa_offset 12
	.cfi_offset 3, -12
LBB4:
LBB5:
	.loc 1 229 0
	movl	$2, %ebx	 #, n
LBE5:
LBE4:
	.loc 1 222 0
	subl	$500, %esp	 #,
	.cfi_def_cfa_offset 512
LBB8:
	.loc 1 226 0
	movl	$LC34, (%esp)	 #,
	call	__ZN3stk3con6printsEPKcz	 #
LVL136:
LBB6:
	.loc 1 228 0
	movl	__ZL1h, %eax	 # h, h
	movl	$LC35, (%esp)	 #,
	movl	%eax, 4(%esp)	 # h,
	call	__ZN3stk3con6printsEPKcz	 #
LVL137:
	movl	__ZL1h+4, %edx	 # MEM[symbol: h, index: _17, step: 4, offset: 0B], MEM[symbol: h, index: _17, step: 4, offset: 0B]
	movl	$LC35, (%esp)	 #,
	movl	%edx, 4(%esp)	 # MEM[symbol: h, index: _17, step: 4, offset: 0B],
	call	__ZN3stk3con6printsEPKcz	 #
LVL138:
	jmp	L162	 #
	.p2align 4,,10
L161:
	.loc 1 228 0 is_stmt 0 discriminator 1
	movl	__ZL1h(,%ebx,4), %esi	 # MEM[symbol: h, index: _17, step: 4, offset: 0B], MEM[symbol: h, index: _17, step: 4, offset: 0B]
	movl	$LC35, (%esp)	 #,
	movl	%esi, 4(%esp)	 # MEM[symbol: h, index: _17, step: 4, offset: 0B],
	.loc 1 229 0 is_stmt 1 discriminator 1
	leal	1(%ebx), %esi	 #, n
	.loc 1 228 0 discriminator 1
	call	__ZN3stk3con6printsEPKcz	 #
LVL139:
	.loc 1 229 0 discriminator 1
	testl	$3, %esi	 #, n
	je	L189	 #,
L166:
	.loc 1 228 0
	movl	__ZL1h(,%esi,4), %eax	 # MEM[symbol: h, index: _17, step: 4, offset: 0B], MEM[symbol: h, index: _17, step: 4, offset: 0B]
	.loc 1 229 0
	leal	2(%ebx), %esi	 #, n
	.loc 1 228 0
	movl	$LC35, (%esp)	 #,
	movl	%eax, 4(%esp)	 # MEM[symbol: h, index: _17, step: 4, offset: 0B],
	call	__ZN3stk3con6printsEPKcz	 #
LVL140:
	.loc 1 229 0
	testl	$3, %esi	 #, n
	je	L190	 #,
L168:
	.loc 1 228 0
	movl	__ZL1h(,%esi,4), %edx	 # MEM[symbol: h, index: _17, step: 4, offset: 0B], MEM[symbol: h, index: _17, step: 4, offset: 0B]
	.loc 1 229 0
	leal	3(%ebx), %esi	 #, n
	.loc 1 228 0
	movl	$LC35, (%esp)	 #,
	movl	%edx, 4(%esp)	 # MEM[symbol: h, index: _17, step: 4, offset: 0B],
	call	__ZN3stk3con6printsEPKcz	 #
LVL141:
	.loc 1 229 0
	testl	$3, %esi	 #, n
	je	L191	 #,
L170:
	.loc 1 228 0
	movl	__ZL1h(,%esi,4), %ecx	 # MEM[symbol: h, index: _17, step: 4, offset: 0B], MEM[symbol: h, index: _17, step: 4, offset: 0B]
	.loc 1 229 0
	leal	4(%ebx), %esi	 #, n
	.loc 1 228 0
	movl	$LC35, (%esp)	 #,
	movl	%ecx, 4(%esp)	 # MEM[symbol: h, index: _17, step: 4, offset: 0B],
	call	__ZN3stk3con6printsEPKcz	 #
LVL142:
	.loc 1 229 0
	testl	$3, %esi	 #, n
	je	L192	 #,
L172:
	.loc 1 228 0
	movl	__ZL1h(,%esi,4), %eax	 # MEM[symbol: h, index: _17, step: 4, offset: 0B], MEM[symbol: h, index: _17, step: 4, offset: 0B]
	.loc 1 229 0
	leal	5(%ebx), %esi	 #, n
	.loc 1 228 0
	movl	$LC35, (%esp)	 #,
	movl	%eax, 4(%esp)	 # MEM[symbol: h, index: _17, step: 4, offset: 0B],
	call	__ZN3stk3con6printsEPKcz	 #
LVL143:
	.loc 1 229 0
	testl	$3, %esi	 #, n
	je	L193	 #,
L174:
	.loc 1 228 0
	movl	__ZL1h(,%esi,4), %edx	 # MEM[symbol: h, index: _17, step: 4, offset: 0B], MEM[symbol: h, index: _17, step: 4, offset: 0B]
	.loc 1 229 0
	leal	6(%ebx), %esi	 #, n
	.loc 1 228 0
	movl	$LC35, (%esp)	 #,
	movl	%edx, 4(%esp)	 # MEM[symbol: h, index: _17, step: 4, offset: 0B],
	call	__ZN3stk3con6printsEPKcz	 #
LVL144:
	.loc 1 229 0
	testl	$3, %esi	 #, n
	je	L194	 #,
L176:
	.loc 1 228 0
	movl	__ZL1h(,%esi,4), %ecx	 # MEM[symbol: h, index: _17, step: 4, offset: 0B], MEM[symbol: h, index: _17, step: 4, offset: 0B]
	.loc 1 229 0
	leal	7(%ebx), %esi	 #, n
	.loc 1 228 0
	movl	$LC35, (%esp)	 #,
	movl	%ecx, 4(%esp)	 # MEM[symbol: h, index: _17, step: 4, offset: 0B],
	call	__ZN3stk3con6printsEPKcz	 #
LVL145:
	.loc 1 229 0
	testl	$3, %esi	 #, n
	je	L195	 #,
L178:
	.loc 1 228 0
	movl	__ZL1h(,%esi,4), %eax	 # MEM[symbol: h, index: _17, step: 4, offset: 0B], MEM[symbol: h, index: _17, step: 4, offset: 0B]
	.loc 1 229 0
	leal	8(%ebx), %esi	 #, n
	.loc 1 228 0
	movl	$LC35, (%esp)	 #,
	movl	%eax, 4(%esp)	 # MEM[symbol: h, index: _17, step: 4, offset: 0B],
	call	__ZN3stk3con6printsEPKcz	 #
LVL146:
	.loc 1 229 0
	testl	$3, %esi	 #, n
	je	L196	 #,
L180:
	.loc 1 228 0
	movl	__ZL1h(,%esi,4), %edx	 # MEM[symbol: h, index: _17, step: 4, offset: 0B], MEM[symbol: h, index: _17, step: 4, offset: 0B]
	movl	$LC35, (%esp)	 #,
	.loc 1 229 0
	addl	$9, %ebx	 #, n
	.loc 1 228 0
	movl	%edx, 4(%esp)	 # MEM[symbol: h, index: _17, step: 4, offset: 0B],
	call	__ZN3stk3con6printsEPKcz	 #
LVL147:
	.loc 1 229 0
	testb	$3, %bl	 #, n
	je	L197	 #,
L182:
	.loc 1 227 0
	cmpl	$32, %ebx	 #, n
	je	L198	 #,
L162:
	.loc 1 228 0
	movl	__ZL1h(,%ebx,4), %ecx	 # MEM[symbol: h, index: _17, step: 4, offset: 0B], MEM[symbol: h, index: _17, step: 4, offset: 0B]
	movl	$LC35, (%esp)	 #,
	.loc 1 229 0
	addl	$1, %ebx	 #, tmp94
	.loc 1 228 0
	movl	%ecx, 4(%esp)	 # MEM[symbol: h, index: _17, step: 4, offset: 0B],
	call	__ZN3stk3con6printsEPKcz	 #
LVL148:
	.loc 1 229 0
	testb	$3, %bl	 #, tmp94
	jne	L161	 #,
	.loc 1 230 0
	movl	$LC36, (%esp)	 #,
	call	__ZN3stk3con6printsEPKcz	 #
LVL149:
	jmp	L161	 #
	.p2align 4,,10
L198:
LBE6:
LBE8:
	.loc 1 232 0
	addl	$500, %esp	 #,
	.cfi_remember_state
	.cfi_def_cfa_offset 12
	popl	%ebx	 #
	.cfi_restore 3
	.cfi_def_cfa_offset 8
	popl	%esi	 #
	.cfi_restore 6
	.cfi_def_cfa_offset 4
	ret
	.p2align 4,,10
L197:
	.cfi_restore_state
LBB9:
LBB7:
	.loc 1 230 0
	movl	$LC36, (%esp)	 #,
	call	__ZN3stk3con6printsEPKcz	 #
LVL150:
	jmp	L182	 #
	.p2align 4,,10
L196:
	movl	$LC36, (%esp)	 #,
	call	__ZN3stk3con6printsEPKcz	 #
LVL151:
	jmp	L180	 #
	.p2align 4,,10
L195:
	movl	$LC36, (%esp)	 #,
	call	__ZN3stk3con6printsEPKcz	 #
LVL152:
	jmp	L178	 #
	.p2align 4,,10
L194:
	movl	$LC36, (%esp)	 #,
	call	__ZN3stk3con6printsEPKcz	 #
LVL153:
	jmp	L176	 #
	.p2align 4,,10
L193:
	movl	$LC36, (%esp)	 #,
	call	__ZN3stk3con6printsEPKcz	 #
LVL154:
	jmp	L174	 #
	.p2align 4,,10
L192:
	movl	$LC36, (%esp)	 #,
	call	__ZN3stk3con6printsEPKcz	 #
LVL155:
	jmp	L172	 #
	.p2align 4,,10
L191:
	movl	$LC36, (%esp)	 #,
	call	__ZN3stk3con6printsEPKcz	 #
LVL156:
	jmp	L170	 #
	.p2align 4,,10
L190:
	movl	$LC36, (%esp)	 #,
	call	__ZN3stk3con6printsEPKcz	 #
LVL157:
	jmp	L168	 #
	.p2align 4,,10
L189:
	movl	$LC36, (%esp)	 #,
	call	__ZN3stk3con6printsEPKcz	 #
LVL158:
	jmp	L166	 #
LBE7:
LBE9:
	.cfi_endproc
LFE704:
	.section	.text.unlikely,"x"
LCOLDE37:
	.text
LHOTE37:
.lcomm __ZZN3stk4hash4ssc19calc_SSC1EPKvjjE15last_data_chunk,128,64
	.section .rdata,"dr"
	.align 64
__ZL5b_sum:
	.long	0
	.long	16777216
	.long	16777216
	.long	33554432
	.long	16777216
	.long	33554432
	.long	33554432
	.long	50331648
	.long	16777216
	.long	33554432
	.long	33554432
	.long	50331648
	.long	33554432
	.long	50331648
	.long	50331648
	.long	67108864
	.long	16777216
	.long	33554432
	.long	33554432
	.long	50331648
	.long	33554432
	.long	50331648
	.long	50331648
	.long	67108864
	.long	33554432
	.long	50331648
	.long	50331648
	.long	67108864
	.long	50331648
	.long	67108864
	.long	67108864
	.long	83886080
	.long	16777216
	.long	33554432
	.long	33554432
	.long	50331648
	.long	33554432
	.long	50331648
	.long	50331648
	.long	67108864
	.long	33554432
	.long	50331648
	.long	50331648
	.long	67108864
	.long	50331648
	.long	67108864
	.long	67108864
	.long	83886080
	.long	33554432
	.long	50331648
	.long	50331648
	.long	67108864
	.long	50331648
	.long	67108864
	.long	67108864
	.long	83886080
	.long	50331648
	.long	67108864
	.long	67108864
	.long	83886080
	.long	67108864
	.long	83886080
	.long	83886080
	.long	100663296
	.long	16777216
	.long	33554432
	.long	33554432
	.long	50331648
	.long	33554432
	.long	50331648
	.long	50331648
	.long	67108864
	.long	33554432
	.long	50331648
	.long	50331648
	.long	67108864
	.long	50331648
	.long	67108864
	.long	67108864
	.long	83886080
	.long	33554432
	.long	50331648
	.long	50331648
	.long	67108864
	.long	50331648
	.long	67108864
	.long	67108864
	.long	83886080
	.long	50331648
	.long	67108864
	.long	67108864
	.long	83886080
	.long	67108864
	.long	83886080
	.long	83886080
	.long	100663296
	.long	33554432
	.long	50331648
	.long	50331648
	.long	67108864
	.long	50331648
	.long	67108864
	.long	67108864
	.long	83886080
	.long	50331648
	.long	67108864
	.long	67108864
	.long	83886080
	.long	67108864
	.long	83886080
	.long	83886080
	.long	100663296
	.long	50331648
	.long	67108864
	.long	67108864
	.long	83886080
	.long	67108864
	.long	83886080
	.long	83886080
	.long	100663296
	.long	67108864
	.long	83886080
	.long	83886080
	.long	100663296
	.long	83886080
	.long	100663296
	.long	100663296
	.long	117440512
	.long	16777216
	.long	33554432
	.long	33554432
	.long	50331648
	.long	33554432
	.long	50331648
	.long	50331648
	.long	67108864
	.long	33554432
	.long	50331648
	.long	50331648
	.long	67108864
	.long	50331648
	.long	67108864
	.long	67108864
	.long	83886080
	.long	33554432
	.long	50331648
	.long	50331648
	.long	67108864
	.long	50331648
	.long	67108864
	.long	67108864
	.long	83886080
	.long	50331648
	.long	67108864
	.long	67108864
	.long	83886080
	.long	67108864
	.long	83886080
	.long	83886080
	.long	100663296
	.long	33554432
	.long	50331648
	.long	50331648
	.long	67108864
	.long	50331648
	.long	67108864
	.long	67108864
	.long	83886080
	.long	50331648
	.long	67108864
	.long	67108864
	.long	83886080
	.long	67108864
	.long	83886080
	.long	83886080
	.long	100663296
	.long	50331648
	.long	67108864
	.long	67108864
	.long	83886080
	.long	67108864
	.long	83886080
	.long	83886080
	.long	100663296
	.long	67108864
	.long	83886080
	.long	83886080
	.long	100663296
	.long	83886080
	.long	100663296
	.long	100663296
	.long	117440512
	.long	33554432
	.long	50331648
	.long	50331648
	.long	67108864
	.long	50331648
	.long	67108864
	.long	67108864
	.long	83886080
	.long	50331648
	.long	67108864
	.long	67108864
	.long	83886080
	.long	67108864
	.long	83886080
	.long	83886080
	.long	100663296
	.long	50331648
	.long	67108864
	.long	67108864
	.long	83886080
	.long	67108864
	.long	83886080
	.long	83886080
	.long	100663296
	.long	67108864
	.long	83886080
	.long	83886080
	.long	100663296
	.long	83886080
	.long	100663296
	.long	100663296
	.long	117440512
	.long	50331648
	.long	67108864
	.long	67108864
	.long	83886080
	.long	67108864
	.long	83886080
	.long	83886080
	.long	100663296
	.long	67108864
	.long	83886080
	.long	83886080
	.long	100663296
	.long	83886080
	.long	100663296
	.long	100663296
	.long	117440512
	.long	67108864
	.long	83886080
	.long	83886080
	.long	100663296
	.long	83886080
	.long	100663296
	.long	100663296
	.long	117440512
	.long	83886080
	.long	100663296
	.long	100663296
	.long	117440512
	.long	100663296
	.long	117440512
	.long	117440512
	.long	134217728
	.align 64
__ZL7d_shift:
	.byte	0
	.byte	1
	.byte	1
	.byte	2
	.byte	1
	.byte	2
	.byte	2
	.byte	3
	.byte	1
	.byte	2
	.byte	2
	.byte	3
	.byte	2
	.byte	3
	.byte	3
	.byte	4
	.byte	1
	.byte	2
	.byte	2
	.byte	3
	.byte	2
	.byte	3
	.byte	3
	.byte	4
	.byte	2
	.byte	3
	.byte	3
	.byte	4
	.byte	3
	.byte	4
	.byte	4
	.byte	5
	.byte	1
	.byte	2
	.byte	2
	.byte	3
	.byte	2
	.byte	3
	.byte	3
	.byte	4
	.byte	2
	.byte	3
	.byte	3
	.byte	4
	.byte	3
	.byte	4
	.byte	4
	.byte	5
	.byte	2
	.byte	3
	.byte	3
	.byte	4
	.byte	3
	.byte	4
	.byte	4
	.byte	5
	.byte	3
	.byte	4
	.byte	4
	.byte	5
	.byte	4
	.byte	5
	.byte	5
	.byte	6
	.byte	1
	.byte	2
	.byte	2
	.byte	3
	.byte	2
	.byte	3
	.byte	3
	.byte	4
	.byte	2
	.byte	3
	.byte	3
	.byte	4
	.byte	3
	.byte	4
	.byte	4
	.byte	5
	.byte	2
	.byte	3
	.byte	3
	.byte	4
	.byte	3
	.byte	4
	.byte	4
	.byte	5
	.byte	3
	.byte	4
	.byte	4
	.byte	5
	.byte	4
	.byte	5
	.byte	5
	.byte	6
	.byte	2
	.byte	3
	.byte	3
	.byte	4
	.byte	3
	.byte	4
	.byte	4
	.byte	5
	.byte	3
	.byte	4
	.byte	4
	.byte	5
	.byte	4
	.byte	5
	.byte	5
	.byte	6
	.byte	3
	.byte	4
	.byte	4
	.byte	5
	.byte	4
	.byte	5
	.byte	5
	.byte	6
	.byte	4
	.byte	5
	.byte	5
	.byte	6
	.byte	5
	.byte	6
	.byte	6
	.byte	7
	.byte	1
	.byte	2
	.byte	2
	.byte	3
	.byte	2
	.byte	3
	.byte	3
	.byte	4
	.byte	2
	.byte	3
	.byte	3
	.byte	4
	.byte	3
	.byte	4
	.byte	4
	.byte	5
	.byte	2
	.byte	3
	.byte	3
	.byte	4
	.byte	3
	.byte	4
	.byte	4
	.byte	5
	.byte	3
	.byte	4
	.byte	4
	.byte	5
	.byte	4
	.byte	5
	.byte	5
	.byte	6
	.byte	2
	.byte	3
	.byte	3
	.byte	4
	.byte	3
	.byte	4
	.byte	4
	.byte	5
	.byte	3
	.byte	4
	.byte	4
	.byte	5
	.byte	4
	.byte	5
	.byte	5
	.byte	6
	.byte	3
	.byte	4
	.byte	4
	.byte	5
	.byte	4
	.byte	5
	.byte	5
	.byte	6
	.byte	4
	.byte	5
	.byte	5
	.byte	6
	.byte	5
	.byte	6
	.byte	6
	.byte	7
	.byte	2
	.byte	3
	.byte	3
	.byte	4
	.byte	3
	.byte	4
	.byte	4
	.byte	5
	.byte	3
	.byte	4
	.byte	4
	.byte	5
	.byte	4
	.byte	5
	.byte	5
	.byte	6
	.byte	3
	.byte	4
	.byte	4
	.byte	5
	.byte	4
	.byte	5
	.byte	5
	.byte	6
	.byte	4
	.byte	5
	.byte	5
	.byte	6
	.byte	5
	.byte	6
	.byte	6
	.byte	7
	.byte	3
	.byte	4
	.byte	4
	.byte	5
	.byte	4
	.byte	5
	.byte	5
	.byte	6
	.byte	4
	.byte	5
	.byte	5
	.byte	6
	.byte	5
	.byte	6
	.byte	6
	.byte	7
	.byte	4
	.byte	5
	.byte	5
	.byte	6
	.byte	5
	.byte	6
	.byte	6
	.byte	7
	.byte	5
	.byte	6
	.byte	6
	.byte	7
	.byte	6
	.byte	7
	.byte	7
	.byte	8
	.align 64
__ZL5h_num:
	.byte	0
	.byte	0
	.byte	0
	.byte	0
	.byte	1
	.byte	1
	.byte	1
	.byte	1
	.byte	2
	.byte	2
	.byte	2
	.byte	2
	.byte	3
	.byte	3
	.byte	3
	.byte	3
	.byte	4
	.byte	4
	.byte	4
	.byte	4
	.byte	5
	.byte	5
	.byte	5
	.byte	5
	.byte	6
	.byte	6
	.byte	6
	.byte	6
	.byte	7
	.byte	7
	.byte	7
	.byte	7
	.byte	8
	.byte	8
	.byte	8
	.byte	8
	.byte	9
	.byte	9
	.byte	9
	.byte	9
	.byte	10
	.byte	10
	.byte	10
	.byte	10
	.byte	11
	.byte	11
	.byte	11
	.byte	11
	.byte	12
	.byte	12
	.byte	12
	.byte	12
	.byte	13
	.byte	13
	.byte	13
	.byte	13
	.byte	14
	.byte	14
	.byte	14
	.byte	14
	.byte	15
	.byte	15
	.byte	15
	.byte	15
	.byte	16
	.byte	16
	.byte	16
	.byte	16
	.byte	17
	.byte	17
	.byte	17
	.byte	17
	.byte	18
	.byte	18
	.byte	18
	.byte	18
	.byte	19
	.byte	19
	.byte	19
	.byte	19
	.byte	20
	.byte	20
	.byte	20
	.byte	20
	.byte	21
	.byte	21
	.byte	21
	.byte	21
	.byte	22
	.byte	22
	.byte	22
	.byte	22
	.byte	23
	.byte	23
	.byte	23
	.byte	23
	.byte	24
	.byte	24
	.byte	24
	.byte	24
	.byte	25
	.byte	25
	.byte	25
	.byte	25
	.byte	26
	.byte	26
	.byte	26
	.byte	26
	.byte	27
	.byte	27
	.byte	27
	.byte	27
	.byte	28
	.byte	28
	.byte	28
	.byte	28
	.byte	29
	.byte	29
	.byte	29
	.byte	29
	.byte	30
	.byte	30
	.byte	30
	.byte	30
	.byte	31
	.byte	31
	.byte	31
	.byte	31
.lcomm __ZL1h,128,64
	.align 16
LC1:
	.long	16
	.long	17
	.long	18
	.long	19
	.align 16
LC2:
	.long	0
	.long	1
	.long	2
	.long	3
	.align 16
LC3:
	.long	4
	.long	5
	.long	6
	.long	7
	.align 16
LC4:
	.long	8
	.long	9
	.long	10
	.long	11
	.align 16
LC5:
	.long	12
	.long	13
	.long	14
	.long	15
	.align 16
LC6:
	.long	32
	.long	33
	.long	34
	.long	35
	.align 16
LC7:
	.long	20
	.long	21
	.long	22
	.long	23
	.align 16
LC8:
	.long	24
	.long	25
	.long	26
	.long	27
	.align 16
LC9:
	.long	28
	.long	29
	.long	30
	.long	31
	.align 16
LC10:
	.long	48
	.long	49
	.long	50
	.long	51
	.align 16
LC11:
	.long	36
	.long	37
	.long	38
	.long	39
	.align 16
LC12:
	.long	40
	.long	41
	.long	42
	.long	43
	.align 16
LC13:
	.long	44
	.long	45
	.long	46
	.long	47
	.align 16
LC14:
	.long	64
	.long	65
	.long	66
	.long	67
	.align 16
LC15:
	.long	52
	.long	53
	.long	54
	.long	55
	.align 16
LC16:
	.long	56
	.long	57
	.long	58
	.long	59
	.align 16
LC17:
	.long	60
	.long	61
	.long	62
	.long	63
	.align 16
LC18:
	.long	80
	.long	81
	.long	82
	.long	83
	.align 16
LC19:
	.long	68
	.long	69
	.long	70
	.long	71
	.align 16
LC20:
	.long	72
	.long	73
	.long	74
	.long	75
	.align 16
LC21:
	.long	76
	.long	77
	.long	78
	.long	79
	.align 16
LC22:
	.long	96
	.long	97
	.long	98
	.long	99
	.align 16
LC23:
	.long	84
	.long	85
	.long	86
	.long	87
	.align 16
LC24:
	.long	88
	.long	89
	.long	90
	.long	91
	.align 16
LC25:
	.long	92
	.long	93
	.long	94
	.long	95
	.align 16
LC26:
	.long	112
	.long	113
	.long	114
	.long	115
	.align 16
LC27:
	.long	100
	.long	101
	.long	102
	.long	103
	.align 16
LC28:
	.long	104
	.long	105
	.long	106
	.long	107
	.align 16
LC29:
	.long	108
	.long	109
	.long	110
	.long	111
	.align 16
LC30:
	.long	116
	.long	117
	.long	118
	.long	119
	.align 16
LC31:
	.long	120
	.long	121
	.long	122
	.long	123
	.align 16
LC32:
	.long	124
	.long	125
	.long	126
	.long	127
	.text
Letext0:
	.section	.text.unlikely,"x"
Letext_cold0:
	.file 2 "C:/Qt/Qt5.5.0/Tools/mingw492_32/i686-w64-mingw32/include/stdint.h"
	.file 3 "C:/Qt/Qt5.5.0/Tools/mingw492_32/i686-w64-mingw32/include/stdio.h"
	.file 4 "<built-in>"
	.file 5 "C:/Qt/Qt5.5.0/Tools/mingw492_32/i686-w64-mingw32/include/c++/bits/exception_ptr.h"
	.file 6 "C:/Qt/Qt5.5.0/Tools/mingw492_32/i686-w64-mingw32/include/c++/i686-w64-mingw32/bits/c++config.h"
	.file 7 "hash/./../text/./.././time/stk_time.h"
	.file 8 "hash/stk_hash_ssc1.h"
	.file 9 "hash/./../io/stk_console.h"