	.file	"stk_hash_password.cpp"
 # GNU C++ (i686-posix-dwarf-rev1, Built by MinGW-W64 project) version 4.9.2 (i686-w64-mingw32)
 #	compiled by GNU C version 4.9.2, GMP version 6.0.0, MPFR version 3.1.2-p9, MPC version 1.0.2
 # warning: MPFR header version 3.1.2-p9 differs from library version 3.1.2-p10.
 # GGC heuristics: --param ggc-min-expand=100 --param ggc-min-heapsize=131072
 # options passed:  -fpreprocessed stk_hash_password.ii -malign-double
 # -momit-leaf-frame-pointer -m32 -mfpmath=sse -mpreferred-stack-boundary=8
 # -mmmx -msse -msse2 -mthreads -mtune=generic -march=i686
 # -auxbase-strip debug\stk_hash_password.o -g -g -O3 -Wno-write-strings
 # -Wno-multichar -Wno-unused-variable -Wno-unused-parameter
 # -Wno-unused-value -Wno-unused-label -Wno-unused-but-set-variable
 # -Wattributes -Winline -Wshadow -Wunknown-pragmas -Wall -Wextra
 # -std=gnu++11 -std=c++11 -fno-keep-inline-dllexport
 # -fno-use-linker-plugin -fverbose-asm -fstrict-aliasing -fwrapv
 # -funroll-loops -flto -fexceptions -frtti
 # options enabled:  -faggressive-loop-optimizations
 # -fasynchronous-unwind-tables -fauto-inc-dec -fbranch-count-reg
 # -fcaller-saves -fcombine-stack-adjustments -fcommon -fcompare-elim
 # -fcprop-registers -fcrossjumping -fcse-follow-jumps -fdefer-pop
 # -fdelete-null-pointer-checks -fdevirtualize -fdevirtualize-speculatively
 # -fdwarf2-cfi-asm -fearly-inlining -feliminate-unused-debug-types
 # -fexceptions -fexpensive-optimizations -fforward-propagate
 # -ffunction-cse -fgcse -fgcse-after-reload -fgcse-lm -fgnu-runtime
 # -fgnu-unique -fguess-branch-probability -fhoist-adjacent-loads -fident
 # -fif-conversion -fif-conversion2 -findirect-inlining -finline
 # -finline-atomics -finline-functions -finline-functions-called-once
 # -finline-small-functions -fipa-cp -fipa-cp-clone -fipa-profile
 # -fipa-pure-const -fipa-reference -fipa-sra -fira-hoist-pressure
 # -fira-share-save-slots -fira-share-spill-slots
 # -fisolate-erroneous-paths-dereference -fivopts -fkeep-static-consts
 # -fleading-underscore -fmath-errno -fmerge-constants
 # -fmerge-debug-strings -fmove-loop-invariants -fomit-frame-pointer
 # -foptimize-sibling-calls -foptimize-strlen -fpartial-inlining -fpeephole
 # -fpeephole2 -fpredictive-commoning -fprefetch-loop-arrays -free
 # -freg-struct-return -frename-registers -freorder-blocks
 # -freorder-blocks-and-partition -freorder-functions
 # -frerun-cse-after-loop -fsched-critical-path-heuristic
 # -fsched-dep-count-heuristic -fsched-group-heuristic -fsched-interblock
 # -fsched-last-insn-heuristic -fsched-rank-heuristic -fsched-spec
 # -fsched-spec-insn-heuristic -fsched-stalled-insns-dep -fschedule-insns2
 # -fset-stack-executable -fshow-column -fshrink-wrap -fsigned-zeros
 # -fsplit-ivs-in-unroller -fsplit-wide-types -fstrict-aliasing
 # -fstrict-overflow -fstrict-volatile-bitfields -fsync-libcalls
 # -fthread-jumps -ftoplevel-reorder -ftrapping-math -ftree-bit-ccp
 # -ftree-builtin-call-dce -ftree-ccp -ftree-ch -ftree-coalesce-vars
 # -ftree-copy-prop -ftree-copyrename -ftree-cselim -ftree-dce
 # -ftree-dominator-opts -ftree-dse -ftree-forwprop -ftree-fre
 # -ftree-loop-distribute-patterns -ftree-loop-if-convert -ftree-loop-im
 # -ftree-loop-ivcanon -ftree-loop-optimize -ftree-loop-vectorize
 # -ftree-parallelize-loops= -ftree-partial-pre -ftree-phiprop -ftree-pre
 # -ftree-pta -ftree-reassoc -ftree-scev-cprop -ftree-sink
 # -ftree-slp-vectorize -ftree-slsr -ftree-sra -ftree-switch-conversion
 # -ftree-tail-merge -ftree-ter -ftree-vrp -funit-at-a-time -funroll-loops
 # -funswitch-loops -funwind-tables -fvar-tracking
 # -fvar-tracking-assignments -fverbose-asm -fweb -fwrapv
 # -fzero-initialized-in-bss -m32 -m80387 -m96bit-long-double
 # -maccumulate-outgoing-args -malign-double -malign-stringops
 # -mavx256-split-unaligned-load -mavx256-split-unaligned-store
 # -mfancy-math-387 -mfp-ret-in-387 -mieee-fp -mlong-double-80 -mmmx
 # -mms-bitfields -mno-red-zone -mno-sse4 -mpush-args -msahf -msse -msse2
 # -mstack-arg-probe -mvzeroupper

	.text
Ltext0:
	.section	.gnu.lto_.profile.f43a804c,"dr0"
	.ascii "x\234cf```e\200\0F\206\243\214\376\0\3*\1\37"
	.text
	.section	.gnu.lto_.jmpfuncs.f43a804c,"dr0"
	.ascii "x\234mN!\16\203P\24k\373H\10\14v\0,\207D\262kL\316\354"
	.ascii "6\234\0\207\302N\316\355\365\207\20\304\236h\233\246m^\340\377\275\16nAr\16@\34\7\350#\256\333\362\324\256\257\360\20\370\346\0\252\320\31\272\232r\235U.\21U\321V\250/vc\335\32n\206.+1+\327b\242_`\341\336"
	.ascii "6\251\230\262\222\16qw\32?\33C\21\273"
	.text
	.section	.gnu.lto_.inline.f43a804c,"dr0"
	.ascii "x\234}O;\16\302"
	.ascii "0\14}vLK\323\244,H\14H\300\310\304XN\300\232Cq\202\34\241\34\2\211c0r\4Fn\0I\12R\13\21\261d;~\37\331\12\371w\240\276j`\276'\260\272,P\335Z\216"
	.ascii "3\261\200\362.$\3\320\367\227"
	.ascii "1\261D\241A$\27\335:i\270\16\230w\2\275L\240\332\10_g\230>v\14\272\227\322\347\1\363]\312\177n\25D\365n\220\17:6\323P\374+\257\263S\203\355\211\303\376\355\263[\301\234\217<<6F\272\317;\213\242\241\221"
	.ascii "2\2\34\31M\326\30/\213\302\36\25"
	.text
	.section	.gnu.lto_.pureconst.f43a804c,"dr0"
	.ascii "x\234cf``\220e\200\0>\6)F\11&\11f\11\26)6\11v)\16\11NV.\6n\6\36)^\11>\6\0\32\316\1\220"
	.text
	.section	.gnu.lto__ZN3stk15__password_textC2Ev@4.f43a804c,"dr0"
	.ascii "x\234\225\222\317k\23Q\20\307\347;o\273]\233=\24\217[\20QJ\17\22\375"
	.ascii "7<\372\7\10\245\324C\212\7\203[\360T\372RB\21\17\222\266\12)\322\202h\177FS\255\266\232xY\4\301\203UDE\320\342/**\10\246\246P\26\221"
	.ascii "8\263A\10-\212.,o\346\275\371\316|f\336"
	.ascii "3\264\373\13\344\177\300D\7d\205!p\341"
	.ascii "1Q\316c@\15\2\15"
	.ascii "3\206\361\205"
	.ascii "7\31\205\250TL\365\314Xkk\367\27\354\261\10\261\350\352\334\314\203Y\364H\314\213\345\257U\337\354\3\211])o\255\245>s\314\330\257nu\374a\321U\227\35u\347V\357\315vt_\261\205\221w\325\342\250\227?\32\263\301\34\214$\304<\2,  \331\",\242[\343"
	.ascii "7\363?_\246\334\274T\357l\26E\11.d]\332\33\331F\343\323#\366\215\10\34\7\252\360\324$\332\220@\355\343#\263\256f\35\371\250\261\305;\322i&\311w\15\356"
	.ascii "6\33"
	.ascii "9\233~v\276\314C?\354Y\353\305\334Vg\251\202\353\30R\212\327\37\326&Y\233p\255p\226\21\304\334N\257"
	.ascii "02~\371\210\352%\342\355\306\223\247\236Fx\244\202s\271\253\337\332\247p)\327\31\363\236mv\260$}\351\301\304\363\13c~\272$\0R\304\301\15L\341{2K\334DZ8h\35\243\321\330\212\321\264\264\23\252\243.\15\21\226\5JBq0h\242\244H\33\234\220\211'\275x\177\350\345\226\310Z\331\337\377f\377W\330\333\11\254\16\37+\12\353%\260\27+\177\205]M`\275\26X\251]\253\315\34\372\257\342>\356$\305\223\27p\27\351\326\211\373\262U\21\321\33\344\242\311\266\346\255\352\33\200\336\275\10\272"
	.ascii "2}a\346x8x\262W\215\336l_\30\236"
	.ascii "9u\372\304\341\376l\226\234\301\314@\370\13\355r\376\25"
	.text
	.section	.gnu.lto__ZN3stk10__passwordC2Ev@4.f43a804c,"dr0"
	.ascii "x\234e\220M+Da\24\307\317\377\334k\\\306B\226\243$%+\312"
	.ascii "7\360\21|\0%\261\30Y\230\\e\241\311\35\221\262\320`\26\",\206\361"
	.ascii "2\214\227\205\302\302\265\263A\362\232\204\305L(\345m\242\233\304"
	.ascii "9f\307SO\317"
	.ascii "9\317\371?\277\363?\217A\377W@v?\210*\344\204A\340\350\1Q\304b@\3\2\365"
	.ascii "0z\360\300/\214\250\233\34\363W\315:\216\363\374\32w\352]xL\364\306"
	.ascii "9\16\22\250\22\315\351\372\343V\221Q\6\222x3\225\335\367\337\263\307(\327tkdo\314\247)\233\232\316ml'\12+\343N\264\367v<\273[\347\232\36\33\230\203!@\314#\200\5\4H\256\10\213\250T\375K\337\327\271\337\327'\335\213sM\221\204O\214\323J\211\353|\177\337Ms\36\240b\226g&QZ4:B\206YO\343\22\275\357\3gk\265\177PJ\21\326\22|\37\254C\336\244\17\217,u\231G\332u02\363\224?\211\211H\261\307\242\0\226\305\226\26FOb\303E\325IaX\36\347#\205I\274\376~\205\324"
	.ascii "2\253\27"
	.ascii "1\16w\213\15\254\240Z\350\253\10\323\25L\355\242\365\251\343\241\24\207?\365\245\365&L\275\306\232h\304\202\307\5t\215\210\273c\346\234\351 \320\1\4^\32l\262\203\15vg[\243\6\215\241&\333\356j\357h\251i\16\205\310\354\14\266\332?\271z\223N"
	.text
	.section	.gnu.lto__ZN3stk15__password_textD2Ev@8.f43a804c,"dr0"
	.ascii "x\234\215\222\317KTQ\24\307\317\367\274\231\347\233Fhh9\202D .dZ\372"
	.ascii "7\270\212\376\200@$\27\23-\32zB+\231;\303\20\322\"\246\37\13),\350\207\246\243\317\237Me\233\251M\265\310\250\374\225\224%XYH9\215 \17\11=\347M\230\30T\17\336\273\347\336\373=\337\317\271\367<\213\376|\342\362\336`\242C2\302\"p~\212(\343"
	.ascii "0\240\1\201\322\214"
	.ascii "4\276p\231\221/\25\272\243\215\267\215"
	.ascii "1k\257\12\346h\11\276\344U\270\352\203^4\212fflu\262\326\252\7I\374\300[\177\36]a\237qP\247\223\27\237v\333:\345\220N\373\212\17{\367"
	.ascii "5\334"
	.ascii "4\371\354\207\251+g\235\\\213\317\26\372`\211!\356 \216~\304I\226\10\3hP}9\367s.j\347\204\36\253BQ\200\15\31\207\17\224\314\326\326\347w\34\221\242ElIZ(\254\37\372\312`\372\306\252\252"
	.ascii "0V\237\355'\15iY\322\365t\37\231u\264\26\220-\226\207\216\354\201\250\277P\6ao\260%{\357\227_\274t\264\376"
	.ascii "0i=\347"
	.ascii "2\267\276\327\364\340j&\346\263(\30CR\260n\\\232\276|\241"
	.ascii "6\321$|x\350\301\217\340\202"
	.ascii "0\214\4\275E\316\\\207:\252\356\332\353\363\36wn\232.\343\370\\S\221Z\10#\350$\241\371\354|\342\264\226\265\364\4\325\12\302\377\211\34\15\220zL\214\375B\216\332\177C\216\7\310\360\16rm\304kR\375\277y\5\271&\361\211`\"`\6=\271\213\304\356\253\212\310RQ\222\26\360x\276\354a\257o^\363\177;\343\236\30\311\276y\364f\303n\236"
	.ascii "0]\362\207\331\204\373h\246Ydc\332\220u\245,\2\325\346h+\241-\224\325\272d\233\233<\346v\234l\325\240"
	.ascii "5\325\346\272gN\235n?|<\225\242PG\362\204\273\15W\232\356\256"
	.text
	.section	.gnu.lto__ZN3stk10__passwordD2Ev@8.f43a804c,"dr0"
	.ascii "x\234eQMK[Q\20\235"
	.ascii "3/}\211Fhp\231B\21A\354\306.]\373\23\374\1\205\20\352\"\322EC_\240\13\11\276\204@\213\213\362\252\201\6J\334X\215&6IS\21L7\321U7m\21?\232\206\322\272P\332B\241\215J\302CJ\234\211\13\305^\270\334\371"
	.ascii "8s\346\314\\\203\376?A\271\333 \32\224\27\6\201\235\217D\11\37\3j\20h\232"
	.ascii "1\215_\334d8\265B\306?\274h\333\366\337\343E{\274\6\227\211N\370\202\7K\30\26\314^\345w\265\317\270\15\22{\243x\372\301\377\223]\306\200\272\325\331\367\31S]\366\250\233[\177\267\324;\264`;\311\203|ks\254\346q\331@\16\206\20b\31A\254 H\22\"\344"
	.ascii "1\244\370f\352\337g\277\231\222\356\201\213\246(\300\24\341T\352\257\331\235\316\217\22\233\200\202Y\312<D\207\202\321\21\216\230\365"
	.ascii "5\32H\266\236\354Wn^\243R\26\341Z\205\331f\35\362\373\341\247m\237\252\274A\332u&\361\352\217"
	.ascii "7\213\227\211\200\313\202\0^\213,M\314\355\246\237\367\215\24\204\303\347\262\27Edq\334]\205\344\216\312\365"
	.ascii "4\307\247D\6J\30\21\366"
	.ascii "2\342\364\25\251;\332F\1\363;\317\212\34?\323R\337\211\220j\30o\4$\32\\\356\241\6\266\352\315\27\335\370U\15\216\26\\\252@E\232J\336\336\374\322"
	.ascii "6G\327\354\247\362!\302\363\26\243\264\217d@';UI\337d/\335)u)\320eH\364V$lE\356Y\261\7!5B\321\260e=~\370h\342\356\375h\224<\261\310\244u\16\277A\254r"
	.text
	.section	.gnu.lto__ZN3stk15__password_text4sizeEv@4.f43a804c,"dr0"
	.ascii "x\234eOMK\2Q\24\275\347\315\250C\272\220\226\23D\4bA\366?\372\17\201}-\214\26I#\264t\24WA1\226\213 \204\240\322\312"
	.ascii "2\210\20\322M\355\332T\10E\21Q\33\203\202\250\314 f\21vo\265\353\301{\367\236\367\316=\347<\215\376/\223\367\20\210z\271B#(\347\214(e(@\32\2%\25\222xRM\205\227l\275f\204"
	.ascii "7l\333~K\317\217-\344F\\E\324R\204\1\23\375\242\203\2\302\314\273\334\177\256\6\264n\20\367\207\345\217S\377\243r\25z\4V\27O\226\275\2\225.\260X\251\25:Bk\266\223\266\35g\225\257"
	.ascii "5\24\241\211\344&Ll\301$\276\"l#$\354f\346\353\312\357\315\260\177Pl\331\257\4/G\247\275\316#\273\335n\35\34\337\302\303\301\231\256\361\240\256\223\4\244\6\37\362\227\7\245\244j7HW\232\225>\31\376T\32\353\336"
	.ascii "7\316\353\206\204\362\220\330\314\245\326_}y\254\244\202\256b\206\302\16\347\220\207\245\213\\6\20)\261\277\341*\37v\221\307\273\30\20\312\210\20\313^\373~Eu\326\245;\340\17\375d\200x3\273+6j\305\206\255\304TT\232h|\324\262f\247g&\6\307\343q\322\23\261I\353\33r\332|\226"
	.text
	.section	.gnu.lto__ZN3stk15__password_text8get_hashEv@4.f43a804c,"dr0"
	.ascii "x\234eP\301JBQ\20\235s\337\313'\351BZ\32D\4\342\312~\245\37\10D\12"
	.ascii "2Z$=\241\225\370\24#h\365"
	.ascii "2\27A\10A\246\225\245Q\20d\4\265kS\21\24E\213\332(\25\10e\205\"Q6\203\233\240\13\303\235sg\316\234"
	.ascii "3W\243\377\307\313"
	.ascii "1\2\242!\276\241\21\224}A\224p*@\22\2\305\25\342xQ\15\205\303\322\347\271\353Y\265\25\15\22\303J\372l\331!\20\272\300|\256>g\370\327-+\371\226.O\330\231U\256(\372P\204<\274(@\204\260\1?\267\336\354\325+nm\0B+\34\34\345{}k\226\235\264l[8\32"
	.ascii "6\241\375\245\361\23a\13>\351n\244\276o]\216\224eY\36\31\315\23\213p\260{*\367\235X\235\316\376\361\351\17t@\332\25\211>U9d\223\32\3\276\265{$\233\363\315'C\210-%k=V/\257\234\262\207N\"\261\220\310\275\32Y\254$<m\325\323\342\177\330\26\353\\X\272\316,\272\3E\326v\266\225\3;\310\342],H\255\266{\227Q\261\257n\315@\11\1\266VF\214\36\330LW\211\304\13\304\3\247\375\341\220\31\36"
	.ascii "5\243SAI\202\221\220i\316N\317\214\17\217E\"\244G\303\223\346/Xy\201\275"
	.text
	.section	.gnu.lto__ZN3stk15__password_text3getEv@4.f43a804c,"dr0"
	.ascii "x\234eP1KBa\24\275\347{/\225t\220\306\202\210\300\234\354\277\264\7\"5\30\15IOhI|\212Q4=\313A\10!\312\264\262\264\32\202li\11Z*\202\242h\250\6\205\2\241\314H$\312\356\305%\350\203\313w\317w\356\271\367\334O\243\377\247\227c\4D\203|C#(\353\202(\346P\200$\4\212*D\361\242\352\12G\305\217s\347\263j)\32 \206\345\245\263\264M t\201\271lm\316\356\335"
	.ascii "0\315\370\333\332\376\223\313J\255"
	.ascii "2\245\250\241\10"
	.ascii "9\364\"\17\231\204Mx\271\366\346\240Vvi\375\20]\376\360"
	.ascii "8\327\355Y7\255\270iY\242\321\260\5\355\257\214\237\10\333\360Hu=\361}\353\264%L\323tKk\356X\200\215\355S\251\347\304l\267\33\247\311\205!\350\200\324+\22\3T\341\220]\252\14\370\326\356\21\377\234\377I\317\212\262\251d\261\307\312\345\225C6\321If,\306\262\257\366\14Vb\356\226\352j\362O\354\210w&\226\257SI\227\257\300\303\35-e\303.2x\27\17\302U\367\356R*\362\325\341\354(\302\307\336J\210\320\3\233\351L\"\361\2\361\300i_0`\4G\215\360\244_\22\177(`\30"
	.ascii "3S\323\343\303c\241\20\351\341\340\204\361\13g\267\202L"
	.text
	.section	.gnu.lto__ZN3stk15__password_text3setEPKc@8.f43a804c,"dr0"
	.ascii "x\234\235V\377STU\24\277\347\276\267o\337~\221]A\4W\5t\371\22\22\375PM\345/\325o\365'\364C3\306d38\376 \343\332\364\223\303[v\7\30\7\233\5\265!\314ZGE\23\322\344\313\232`\262 )\25 \24\250\250C8\11S\223Q\4#\356Tn\347\334\373v]\340\227\364\315p\367\336s\317\375\234s>\347s\337Ca+\237&\374\273mc\354\25\374\5\7\3\36\32f\314\257s\256\4\267"
	.ascii "2\303\256\325e2\303\251\200*\315*\327\202V4[\352\256"
	.ascii "2\264[\244\275W\327\270\265\361"
	.ascii "5\264\333\37\246\241\331\12\272t\327\271]\270\333\244\273M\332{u;\0M\30\260J\256\250\26\315\252\333\354P\251\250\14\342\370\270Dbz\352\342W>\307!\24mit\24\235"
	.ascii "0\14\343\317\266\366\251U\306\301wb\234\261y.\13\201f(B\247\361\266\373]N%\7\30\316/\234Y\30r\374\302c\34\362h\331\325"
	.ascii "0\320\250\321\222\253\264<\31\351n\266\27\34"
	.ascii "3BUF(\24F\263\2'AA88\5\36\370\34<\14M\14NC\1:\367\374\20x\244*^\1\373i\330\377\210\16\32U\321\217\3\352\233"
	.ascii "1\256B\313\362\203XJ+\24\220\367\\\360\337\33\16-\210Y\273e\256\360\5h\300\30U42>R\357T^\20\250m\307NDl\"\331\327iy\374\320G\255\26\221\254N\313\351\232\360\254\313{\24Q\246N_\36\326\215\332@\277\361O<\256\304\270\5\316\310\340g1\370\227\30\334\244\343\34x\361\334B\315\331\333V\345e\21\341\310\276K\275\252\300\10\267\4\324\201pp*\36\317\215q\15\332\226fo\2\264\203\367lz\324\210\307\333\207\353k\237\207gA`r1*b[\25\243\16T\252\35\213\266:hp\2q\226\206S\335\215\203m\265\360J\247u\6\16|\15\315"
	.ascii "2q\260\257\305\301\221%\0\263\205\323:\362\367\210\351z\362\332@\376\33i\226CC.\15ytr\23"
	.ascii "9n\246\343^\32\362\311V@C!\15E4\24\13\230-\224Q\11\16N\306\356!\373\23:\233\346\34\177\224;\20\214\216V\277\270\264C\224\12\35\23MB\16:@[\344v\352\371\217\37\236\341{\377"
	.ascii "6j\15=\306W\315sl t\302^\266\310q\235\306nA\240\241zL\223\376\16yd\264\251"
	.ascii "9\340\242\16\272\220\271\10\362z\13\252\32\356\276D>\270\373\323\275k\243:\355\272\31\365f\237\377\370\37\326#p\330\357\216\361\325\213\334\11\347\251\21\270q`\354`\275\263\264\5\223\303@\351\360\25\34\201\277\204\342\341\2\224b,B\215\314\215\335u\311\330i\377\33K\207.\201\5\204\325\15\245\354\16T\33q \30\266\274\340\214y\344\214\301EQp\32\326\214\201c\330\310\353P\25\35\257\316\247"
	.ascii "3\246\336\222eY\320\377k\214{\35\270Yqx\250c\214$\34\252\232:\374s\203\36\34"
	.ascii "0L\1\256\270w\246\0/\201\27\263\227\5F\236Y\322\250\350Du&\355\213\16\315\343"
	.ascii "5]v\321\240G\264/J\224l\301\275\316\207\237\375\276\212(\21\245/!\345\223\205\3\23\256\307\4\367\232\4\13\4\350C^0\376\315\232\331j\213D+A@6\16\301\341@\373\376u\222\363\22D\361"
	.ascii "7w\327Y\251\356L<z\331\254a\32\23k\325\24d\311\315\236\206\200\376$\1\223"
	.ascii "5\263M!\220\341\334\30\321\24\234*-X\217\33\12\223\\\223\200\321(\22PY\337\25&3\220f\205\311\305"
	.ascii "9Z\200 \367\334\215"
	.ascii "9\207\4J\177\2\365|\363X=W$K\223V\211\222AQ0\301F\363>\254A`\264\222\313\3\273"
	.ascii "4e\246JE\27\360\211\26\1\336]<\3W),\14`\24I@\277\211\266\26O\213\362\315u\226"
	.ascii "0A\262xQX\26\265\350f\240g\377V\351\244\200W\260:\3@\252TZ;\303\34\275,\367;\303\312\14(\310\226r\247\363\24\232\262-\215\26\244\315\302\16E\231\222\22%\33"
	.ascii "10\311\276c\221\23N\312Y\213'\36\250\204oa\31\367\331\202{\215^3)ls\366\324J\370N*A\350\356\267\244\356\22B\233\301\330X\25"
	.ascii "7\253R\251*\214oeA\353\323\213\357\373\24\361M\36N\210o\335\12\361y\320\270B|\36A\200\316\360+\237*>U\352m\322o\352m\375\23\350mP\350M|@\207\226\352m\203\4N\352m#\2\243U\304:\372\252\264\345<A\244\341\307\312\276&\"%\221s\21\310DN(9o\205tsM\351\216H\351\"U\203f\303"
	.ascii "6a\242\220\357\221\234\336\317\226\306\315h'\267\16"
	.ascii "3\6\11\5\255\362\265"
	.ascii "3\350\221\306|\264\223\323\3\323\251\0\3\243U8\231,\24\232,$\\\212\204W\241\370\352\200\371\12Ny\15F\337\22\311n4\223\35\305d\361\214\274"
	.ascii "6\213\211k\243&\257\215\212=\265^<OW\244\330&\256\210\215\341?u\251W\244\230\374W\\\205b\241\4;]\205I\360G\353\337\220_V\372\32\3\32\261\237\353\313\313|\345o\373\366\354\334F\223m\25e>\337\7\273vo\177\356\335\212\12\246\356)\337\341s\225m{\337\367\336\356\344\216\262s\327v\330\361\37 ?d\22"
	.text
	.section	.gnu.lto__ZN3stk15__password_textaSEPKc@8.f43a804c,"dr0"
	.ascii "x\234e\217\275K\202Q\24\306\317s\356\253H\26E\243\201\4!n\15\15\375\13\366G\4&\25\30\15\211\257\321$^?\202\246x\213\206\246\10\"\265,#\205@\33z\267Zj(\242%\232*\12\32\22\3y\351\303\356"
	.ascii "5h\250\13\227\363q\237\347w\317\21\364\377\370\324\15\201hDE\10\2[\27Di\17\3:!P\212\221\302"
	.ascii "37\30\226]Z\367\6\267\245\224\257\225\332G\217\\\233p\230\250\311? \344\21T\242\353\312K\275[\370A*\257\225\337\316\275O\354"
	.ascii "0\6uY_=[w\353\222\15]\26\216\216\363]\201-ie\244em\252\266@\1B\341P\204\17;\360\221j\21v\21P\342\223\313\354\227!\206:\330\215\315\364\227"
	.ascii "6\312\214]\314\32c\16\33(\375"
	.ascii "5\32\204=\4\264\272\221\373\274\361\272sj\352\276\237Y\261\17\267Z\230\16\372m\331nW\37W\212\243p\251}\325G\2\35\27\335+\235^\377\201YGq\213E\373\360\324\257\235\235\1\256\226\313\234|\227K\322\343\260\253\311\212\206"
	.ascii "2\222\324bn\261p\330MwH\333\325PGO\32\7\215Q\320\201h\304\214\216\233\211\331\260N\302\261\210i.\314\305\247\206'c12\22\321\31\263"
	.ascii "7\22\236"
	.ascii "7\247\343\277/\337\206\213\203~"
	.text
	.section	.gnu.lto__ZN3stk15__password_textcvPKcEv@4.f43a804c,"dr0"
	.ascii "x\234eP\301JBQ\20\235s\337K%]H\313\202\210@\\\331\7\364\27\355\3\221Z\30-\222\236\320&\361)F\320\352Y.\202"
	.ascii "0\202L+K\243E\220n\242\225\233\214\240(Z\324F\301@*3\22\211\260\31\334\4]\30\356\234{\346\314\234\271\32\375?\303\34S \32\347\33\32AYU\242\230C\1\222\20(\252\20\305\213j)\234\27>\257\234\15\325U4F\14K\353\225M\233@\350\2\263\231\346\212\335\273g\232\361\367\313r\303e\245v\230R\324V\204,\206\221\203L\302>\274\\{w\332,\271\264Q\210.wV\316\16zvM+nZ\226h4\34@\373+\343'\302!<R\335J\374\334;m\11\323"
	.ascii "4\335\322\232;\346ac\373T\34\272"
	.ascii "0{\275\366k\262"
	.ascii "2\11\35\220zEb\200j\34\262K\235\1\337\332#\342_\253\325\355eQv\224,\366\\\273\276q\310&:\311\214\265X\346\315\236\306V\314\335U\3\35\376\211#\361\316\304\306m*\351\362\345y\270\243\253l8F\32\37\342A\270\372\311CJE\276\373\234\35\5\370\330[\21\21zb3\375I$^ \36"
	.ascii "8\35\11\6\214\340\264\21\236\367K\342\17\5\14ciaqvb&\24\"=\34\234"
	.ascii "3~\1\356c\202\321"
	.text
	.section	.gnu.lto_.symbol_nodes.f43a804c,"dr0"
	.ascii "x\234U\216Yn\302@\20Dkf\\a\211\11\6\16\\\216\24E|\241\34\201\305J\304\32\262\220\3D|\347\14 q\16\24c\203"
	.ascii "4=?\323\365\372u\253\3\200\255C\375\374+\5\274\374\1\22F\343&\374\33\345n\340"
	.ascii "9o\301\217)o\214\11\25\214"
	.ascii "1\247\222\330p\37\24k\200|XN,\250;31\243\32fgA5\215\261\244Z\306XQm\3\326\324\275\1\33*5\340\235\352\30\260\245\36\314\241_T\367vh^\346O*\213\363"
	.ascii "7\325\213\363\17\325\217\363\216\32D9 Cq8?\272\200.Nu\221\341\351x%\373\252\360\300o\325Jz\330\37\316\325_*.4\222K\303\205tp]\222\366QT#\235\24\323\13\301?Q\372},"
	.text
	.section	.gnu.lto_.refs.f43a804c,"dr0"
	.ascii "x\234%\304\311\21\0 \14\304"
	.ascii "0o\34\216\32\350\277P\230A\17\11\34\276\304\227\26\351\32d\332d\273\340\2\6\257\0Y"
	.text
	.section	.gnu.lto_.decls.f43a804c,"dr0"
	.ascii "x\234\235X{TT\307\31\277sga\227u\221z4jlN%\264\245\265\32\211\212\36\315I\33Z5\315"
	.ascii "1\255IO\232?j\323\263!H\")\202\221\365\321"
	.ascii "6\347\344\202\240\250\210\200\2\6|\254\17\320\200\"\276@\344\265\362\20\24y\210\202\212\250\253\240b\302c}\240\370\244\337"
	.ascii "7s\357\356\5\226\230d\17\303\275\363\315"
	.ascii "7\277\357\367=f\356\334K\5Ah\247\202\320\13\277Y/\11B\242F\20\206\200\354=h\4\332^\201\377F@\253\205V\17\315\12\355:\264Nh\35\320\356@\353\206\366\20\232\10\223\364\320\334\241\215\200"
	.ascii "6\12\332\30h\277\204"
	.ascii "6\36\332$h3\240\275E\204\1?\304w\227m\17\205f\200\346\7zEp\375#\341\\\274\341z\12\256e\320\376\4\367c\241\345\302=\270 T@+\201V.\367\21o\274l\273\377\17}\320\367\263"
	.ascii "5S\306n\206\326$\333\230\5\262\323r,\32\321?yn\355@H\26\217\376\230\12\177\205\363l\350O\374\36\316\210\361\256\34'\264\371\227~\334\273\177 \357\277\202\254\265\37\357n\31\37es\373\341b\336tp}\332\217\373;*\356\271\362\334r\371*:\211\253^\306Q04\204\343(\30\30\213\367d\337*d\34\275\23\34\367\37\201S\"\343\270;\301\301\32\34)\14\314\11\342}\10\355\37\262\217\210"
	.ascii "7\7Z\201\300k\35\343\360O\30{S\256;u\14>\2\331"
	.ascii "4h\303\4\236\263r\231\3\372\243\221m\276%\327\271\263\30\341\232\320\16\302\351_\210+\317\21e\335\21N0\306\374\204"
	.ascii "8\217q\202sG$yY\367\253\207\264\211d\250\336\23\273\307\22*7\271B\327\240\327`\267 \375\200\13\5/\340\266\305\22\337"
	.ascii "2dB\206$I\321\222\245\222"
	.ascii "8\20\302\323\363c\264"
	.ascii "0\345\35=\353^M}\264\313\215uqW\361\0\221\270\365FE\241\216\350\275\243%)\2\377\334*\207\12$\235\214!\273\311\30\201\354#\336l.\311\0I&Hv\201\15[\306\203\344Q\222\244!{\211\236\354!\224|C&\240#\250\210?\224\203\261\232u19\224~\310\10\232m\7l\6\215(\220,B9\263\354\342\314\325n\314\267\217\261\373"
	.ascii "0\312\266Z\317|3`\367L\324M\311\235\372\263\271\361\333\257\244\14\241_\204K,\10\226\334\356\375\332q\273%\263d\353Xq\302\3i\274"
	.ascii "7\222\34\262\263\260\273^\\\324sBO7\23\304\20\327\237"
	.ascii "8\221b \336zF\277:*\351%\234\227\13\364\217\14\244\357<\22"
	.ascii "9\375#\1&\16\337hM\327\320"
	.ascii "6f\202Tfn\371\230v\261{M\327\231\247y\356d\314\30\275\367&\310H\317XR@\364\2\336Z\332z{\277\352\345\277\365Z&\6s\222d\215\227\350h\201L\30C\306\201\255B\260\205C\2\311\7c\307\224\260\267k#\11\312I\36\13\242\312\327g\347\366\337t1\254q\20gj\12w\201\24\21\203\254y\353^A\254\7\225x\331X\36\345f\20\32\313;\7w\246\345\360\204\370AW\267\362v\343=\15\361\32>\334\313\333\313\373k\"\230%\251\304Vx\273\342\225\270p\363u\202\210\304\2\261+#\303\35"
	.ascii "1\372-\332:\216\26\205x\311\"Iq\26\311\317$\220l\30?\200\343'\300/\234p\230\214#\225p_N\274H\5\264\22h0\206I8I\300\226\323\311\225?p2\22\265n=j\321X\312(K\361Q\247"
	.ascii "4\177\207,1\254\326\324+\322,\35)\5\215\203\\\23\241\370\5~\14n\333A\16\207^\27;\205K'\34\317\14xY\222f4SA<\240\353HUr\270'Cfs0\350;\316\25\235%}\22\247\206\26\310){\342\356\356\265\234\325\302\12b22\217\355\0\346\235\322*\327\321I\254\200\302\245\237\21\\\11\254\204\310~\242\21\310i2\32\324\253\360\26\215\342\372\277\272\333\227\346\362|\347F?\337\340J\313x\247.\347\301-\27\317\255\222\325l\253\252\212\35\33+\231\303-\317{{\11\3!\325\366\270\10\244F\256=RK<abEn\325}\17\332\313Q\316_\271\270\302@c(\353\234\332\330\272\307\300 %\200#f(|\6V\247\2;\243\200\325"
	.ascii "3\260\201\273\304\206\354\322\24\221fr\304\255W\37\254\21i\16\353\270\246$\25\264\271\23/H\270\367\360\341\336f\\\37\205'\353_\12g\325\211Al\0;Mp\265\27\220#\355\311\4G\344,\260\234\25\260\234\241\372\271\376"
	.ascii "9sZ\214\227\240\0\233\344b\274\0\367\215P\204\227x\21\236\37\264\202/\274`\22V\243%C\332\241\23\310E\231I\23\257\306&\245\32!\12kNo\351"
	.ascii "2\364)\231\246>%\323l/\231\352G\15_\262\212i\266W\314\336m\337\36r^1g\261L\256\260\212\271\214\267M\274b\242"
	.ascii "76\335\36J\363y\2\216\256\315Jw\207\224\232\261JV\252\253\344\212\\%2QrUI\254\225%\266\341\331\301\375\204"
	.ascii "6p\224\253\271]\255\6\206\342(\214+ra(\363\257)\363\257\17R\30\203\227~\13\262o\35P\372\247;\253\"\334h\27\247pa\355j\253;}\312;%\265G\223\10\213\323\\{\230\22\362"
	.ascii "7\350\24\321-\302d\33o'6\270"
	.ascii "2\231\227\236\264qYRk|\257\201\311\346\350\311m.\353\314\251\354q\31\225\350`\6C|_\27\310wd\24\374\377\226h\270\23i\33Zb\14"
	.ascii "4U\303hd\325\332\36j0,R[x\202\301\6\217gT'\355J$\224\33P\335\223\272j\2\256\254ls\315f\311/B\202\34Pt\231\334P\255\255\233\250O:\210'\374\357dQ|X\330\261\321\225fss\365%E\233u\264\220wv\225\266]\20\31\"K\211\5S\202x]*<\233B\344\316 )\31\274\266\356b\36\356\15\250\255\304Ki\235.\264\231SHH?\263\223\240\373\331\346\14\207S\367d\247\224\272\270\257\220\350f$\236\\\211L\321\322\7\34!1\256\245Sd\10\16'\356\311N(\363\37(\363\37\262\371\333\"\237X\\i\234\13\257\203\33\305\211:x\0\16\323K\362\23\272\227|\5\362\263\317kJ\11\223\177\205G\211\374\225\235Q\32\373Q\342F\375H<J<\205\347L\217\343(1\314q\224\350\377l\177\2\13\37\207\311#X\261\217\371"
	.ascii "9b`,\235\355\366\371\353"
	.ascii "2s\365\352\370\242Q\36\340g\30\325^\26\340\347\252\232\277&\235\312\324\321d\27\371\350\224\262\265=RC7so-;\13\"=X\312mUk\233\274q-c\310I\204'\2\21Itd>\\\224\203\26!b\320R\223\263\272\\\364\262k\321\337{l\1\355\332\270\214'\272>\333\325\12Q}4\211\24\225\355\352\207E!\375rF\273N\35\5\0\220\243\20%\202\353\253D\214\302J\321\21\205\234\307\311"
	.ascii "7EZ\304\335\216\336\275\351\0\241\25\274\223\235\220\273\32\237z\331\331\326G\207gX\"\244\247Ps\14\202D\253\374_\255\370\277\206\371\37\177\370\326*=\355\340\20"
	.ascii "5\267\243c\\\351\35\336\331]\237\371\33\6g^SJ\367HP\201o1\260\265*\260\30\5l\235\350|\31\335\272{\255\324\215"
	.ascii "9\215\236q\247w\245uV\20{ \326\213|\223\352\331y\\\343t\275\305\242\367\361,\20q\252@T\330\242\236R\232\340*\227CF\354\327\7\335h\222+\177\203\210\250kb;\200\331\232\332\222\240\225"
	.ascii "8{\206B\22T\364"
	.ascii "7(\364"
	.ascii "72\372\322\332\242\353"
	.ascii ".4\217cdu?k\26i)\357<\274\333\221\307wys\225=\30\210\226\250BKR\320\222\31\332\312-W\317y\320V\16Pp\362\333XB\273x\247|\213-\227\360L5\227\256w\320\303\350nR\1~\255\0\246\14\22\335;\217\277\313\24Y$\361\345\205G7\241\330\372\214"
	.ascii "2\331H=\331\314\203\33\265\372\361q\17\345\11\260\205\313\362m9\236\352\215}\256Rx\251\30\344m\"\356\355[Eyo/\272yw\223\7\215\327\312\301.\266"
	.ascii "4\330\364\374\265e_\241u\371\12\311\17\323e\26\373\36"
	.ascii "6@\361\271"
	.ascii "9\26NEG\265\374XV\326\370T\213Y\221\254G\217\315(\11\227\13\24L\261\244l\27\331T\262C\361z\347\217\360\372b\353\252\35D\355\16\36n\271?\273\320\237t\346O\232\342O\335\336\344\324\241\264N\361g\373\226\206Bw\332\250t+\357\354\257\240\334\275\374b\253_$wo\317@\367:j\326%\272\320\247\334\275'59\317\11w/\245\321\341\36X&\273a\352"
	.ascii "7\262{\31\212{\231\203\270g\273\370$\217?\256\213\354\373D\342\236\366\3}\334\263\257\216\275\350]\26\363n\237\342]^\341\206\22\15\335\240\223\335\211j\332}OO7\351\370\273\353w\31\247<8\313=\347\34,\1\201\354W\261\314VX\36\370I\245\367\266\201\34rRz\207_Pz\7\321\231\34\346\314\21\305\231c\367{\332]\351~\305\231\262\226\375"
	.ascii "6\15=\304\235i9x\364\177\314\27(\303]_\264\206\307\305H\326\336\336\261\14\203\344\252j\352\250\342N\336\217\330\247\242\22\"n\212j\236{\355\217\250cH\264\200\21\315W\210n.\211\10\241\325\12\317\234\264\310\32\27z\206\363\264\235\271\177\315\205\23\315/n\13\270\351 \12\30\244P\25\367\"\205h1#Zv\375\372&Qy\336D\17\372FE,\242\1\367\320\230\372k\252\27\347wX\355"
	.ascii "9\224\217\363\207\23^\361\243\304\263{f\255Zy[\37\345\22Y\271\204)[\357nY\343\326\207\207\323c:)e\332\15y\231\31\32"
	.ascii "54\276)9\224\313d\350"
	.ascii "2\246\334v\356\376qQ\255\234\325\207G\271\254\\\316\224;\252\17\217s\266\14@\341\4\313\306<9\31\321\225-\221\"mS\262q\304r\243\233\322\273J7%)\342\210\274\177\265k%8\361W\212\252o\20x\226\275_\224"
	.ascii "6\204>\340\331;Q\234\264\2\263g\216\227b\343\374\243\361$\6\306H\5\244\355\244\234\266SJ\332\252X\332r3\"\277|u\33\36\251\252\252\316\276\35.\371\361S+W9-\276\352,F\255}bT-\273]\315\334.k\334\264\316\203\1Z3\36\20\35?1r\264\32\206\326\226\275}g\337\327(\334;\34p\265"
	.ascii "2\\-\203\333\225\230\264\327\205}\236\322\261"
	.ascii "7\253\363\315\373\264t\245\33s\266\243\274\246\7?]\215\320K\312\217\235\33\323\266^jtgr\345"
	.ascii "8\311\316\217Ov\336\250s\267\237\37\323\32\177\205\347\307\6"
	.ascii "8\23\235\21\355\347\307\21\352\363c\\\204"
	.ascii "4,\374\300+\354\313\12\251\23\341\240uN\364f*\244^\204\27"
	.ascii "7\224\300|\334%nE\\\324\322XN+\353r\351"
	.ascii "2\260>\207\261\352\261\237fO\236\255\255sar\24i\221Qw\367\261\14\371\23\240"
	.ascii "4\360\303W\23\30\233\203\306\316\203\261\13\"\377\26e\255}CG.\2\351F\7\351"
	.ascii "9\312\347\277\213\214\314\343\366\324\22wu\272\12\372T\351%9\276\227\234/\255\234>\312\315\262r3Sn\274\375\330\332G\31\217\25\16\345\313\262"
	.ascii "2^]\303\202\376\33h4\351\376<\367C\317\231\343\307\13\177\232\371\206\317\337L\360"
	.ascii "7u\342\324\211\257\373\374=448\314gaP\310g\313|gL6N\231\354\23"
	.ascii "4m\372\264\327\226M\363}\215\11Q\20\22\20\274d~\240\217\221\11&.\20\206\30\215a\246\371\1\376\301\301F\243\207\321\270\310?,lY\350\342\371FS\340r\23\15"
	.ascii "3\375\333{\201\177\330\202\217&\372L\234\350\203\"\37v\7\367A\13\3}`\330\210"
	.ascii "7\0\243[\22\24b\232"
	.ascii "2\331h\372\351\224\200\6`\0\226\353\247F\364S\23\260\300\177\361\220"
	.ascii "7?Y\22\24lz-(\344\17\202\373\247\306\340EF\344\3\224\27\17e\275E\301\376A!\330}\231\361DFLA\361\3\340\14F\343'\376a\201\306\0S\350b\317_\30\347\315\235\2Z\223\246\366\363u\346\344\331K\375|\177>\10J\300\242E\210\23\20\272p\321\213p&!\216\336!\325\240\364eE\375u\307\0\267\350t\204a(\274\347\177\257\275Y\210"
	.ascii "2}\204\321\370\331\362\345\306E\201\213\303BC\374\203\203L\377"
	.ascii "1.}]!\374\2\0"
	.ascii "46\335\31\15\16\355t\204\315q\205tM7\232"
	.ascii "4\230\254W\7\203\367\305QtG\367Y\240\211E\365\327\203\251NW4P\235B\307s0\315)0\310\224\302\2M^\203*\301\340\354\367\337\15\360\233\356\26\12\201\361\207(\374~PD\377\17\270\252^Q\365\234<\250K\1KA\225\231_\30\270\320\313\331\372\0"
	.ascii "9[\34p\205\2\34%\3M\201.'\265t\301\347~\223&\273\300\242\13\15\320\4@\365z\366C\301\311(7.1\5\5\207\1\306H\31\303\27\245S\331\304\331\237\373\371j>]\34\30\330g\314\27%\263\337\17@v\241K_V\233\206>\230~\377\335\245h\234\6\7\206\364\231"
	.ascii "8\5\4,\6\276n\246\300\305\260"
	.ascii "8\375M\201\260\1\314\367"
	.ascii "0\316\373\300"
	.ascii "4\303.Z\252\205\254O\363"
	.ascii "5\232\264\362\202\377?\13\267b="
	.text
	.section	.gnu.lto_.symtab.f43a804c,"dr0"
	.ascii "__ZN3stk15__password_textC2Ev@4\0\0\0\0\0\0\0\0\0\0\0\0\317\0\0\0__ZN3stk15__password_textC1Ev@4\0\0\0\0\0\0\0\0\0\0\0\0\322\0\0\0__ZN3stk10__passwordC2Ev@4\0\0\0\0\0\0\0\0\0\0\0\0\340\0\0\0__ZN3stk10__passwordC1Ev@4\0\0\0\0\0\0\0\0\0\0\0\0\342\0\0\0__ZN3stk15__password_textD2Ev@8\0\0\0\0\0\0\0\0\0\0\0\0\356\0\0\0__ZN3stk15__password_textD1Ev@8\0\0\0\0\0\0\0\0\0\0\0\0\361\0\0\0__ZN3stk10__passwordD2Ev@8\0\0\0\0\0\0\0\0\0\0\0\0\365\0\0\0__ZN3stk10__passwordD1Ev@8\0\0\0\0\0\0\0\0\0\0\0\0\367\0\0\0__ZN3stk15__password_text4sizeEv@4\0\0\0\0\0\0\0\0\0\0\0\0\2\1\0\0__ZN3stk15__password_text8get_hashEv@4\0\0\0\0\0\0\0\0\0\0\0\0\12\1\0\0__ZN3stk15__password_text3getEv@4\0\0\0\0\0\0\0\0\0\0\0\0\15\1\0\0__ZN3stk15__password_text3setEPKc@8\0\0\0\0\0\0\0\0\0\0\0\0\24\1\0\0__ZN3stk15__password_textaSEPKc@8\0\0\0\0\0\0\0\0\0\0\0\0\27\1\0\0__ZN3stk15__password_textcvPKcEv@4\0\0\0\0\0\0\0\0\0\0\0\0\32\1\0\0___gxx_personality_v0\0\0\2\0\0\0\0\0\0\0\0\0\355\0\0\0__ZN3stk3mem3setEPvhj@12\0\0\2\0\0\0\0\0\0\0\0\0#\1\0\0__ZN3stk4cstr5allocEj@4\0\0\2\0\0\0\0\0\0\0\0\0+\1\0\0__ZN3stk4cstr4freeEPc@4\0\0\2\0\0\0\0\0\0\0\0\0"
	.ascii "1\1\0\0__ZN3stk3mem3movEPvPKvj@12\0\0\2\0\0\0\0\0\0\0\0\0"
	.ascii "9\1\0\0__ZN3stk4cstr3lenEPKc@4\0\0\2\0\0\0\0\0\0\0\0\0?\1\0\0"
	.text
	.section	.gnu.lto_.opts,"dr0"
	.ascii "'-fno-trapv' '-dD' '-malign-double' '-momit-leaf-frame-pointer' '-m32' '-mfpmath=sse' '-mpreferred-stack-boundary=8' '-mmmx' '-msse' '-msse2' '-mthreads' '-mtune=generic' '-march=i686' '-g' '-g' '-O3' '-fno-use-linker-plugin' '-fverbose-asm' '-fstrict-aliasing' '-fwrapv' '-funroll-loops' '-flto' '-fexceptions'\0"
	.text
	.section	.text.unlikely,"x"
	.align 2
LCOLDB0:
	.text
LHOTB0:
	.align 2
	.p2align 4,,15
	.section	.text.unlikely,"x"
Ltext_cold0:
	.text
	.globl	__ZN3stk10__passwordC2Ev@4
	.def	__ZN3stk10__passwordC2Ev@4;	.scl	2;	.type	32;	.endef
__ZN3stk10__passwordC2Ev@4:
LFB703:
	.file 1 "hash/stk_hash_password.cpp"
	.loc 1 10 0
	.cfi_startproc
LVL0:
	pushl	%ebx	 #
	.cfi_def_cfa_offset 8
	.cfi_offset 3, -8
	subl	$504, %esp	 #,
	.cfi_def_cfa_offset 512
	.loc 1 10 0
	movl	512(%esp), %ebx	 # this, this
LVL1:
LBB15:
LBB16:
	.loc 1 31 0
	movl	$256, (%esp)	 #,
	call	__ZN3stk4cstr5allocEj@4	 #
	.cfi_def_cfa_offset 508
LVL2:
	subl	$4, %esp	 #,
	.cfi_def_cfa_offset 512
	movl	%eax, 4(%ebx)	 # D.29690, MEM[(struct __password_text *)this_1(D)].f_lp_hash_str
	.loc 1 32 0
	movl	$256, 8(%esp)	 #,
	movl	$0, 4(%esp)	 #,
	movl	%eax, (%esp)	 # D.29690,
	call	__ZN3stk3mem3setEPvhj@12	 #
	.cfi_def_cfa_offset 500
LVL3:
	subl	$12, %esp	 #,
	.cfi_def_cfa_offset 512
	.loc 1 33 0
	movl	$256, (%esp)	 #,
	call	__ZN3stk4cstr5allocEj@4	 #
	.cfi_def_cfa_offset 508
LVL4:
	subl	$4, %esp	 #,
	.cfi_def_cfa_offset 512
	movl	%eax, 8(%ebx)	 # D.29690, MEM[(struct __password_text *)this_1(D)].f_lp_plain_str
	.loc 1 34 0
	movl	$256, 8(%esp)	 #,
	movl	$0, 4(%esp)	 #,
	movl	%eax, (%esp)	 # D.29690,
	call	__ZN3stk3mem3setEPvhj@12	 #
	.cfi_def_cfa_offset 500
LVL5:
	subl	$12, %esp	 #,
	.cfi_def_cfa_offset 512
	.loc 1 35 0
	movl	$0, (%ebx)	 #, MEM[(struct __password_text *)this_1(D)].f_size
LBE16:
LBE15:
	.loc 1 15 0
	addl	$504, %esp	 #,
	.cfi_def_cfa_offset 8
	popl	%ebx	 #
	.cfi_restore 3
	.cfi_def_cfa_offset 4
LVL6:
	ret	$4	 #
	.cfi_endproc
LFE703:
	.section	.text.unlikely,"x"
LCOLDE0:
	.text
LHOTE0:
	.globl	__ZN3stk10__passwordC1Ev@4
	.def	__ZN3stk10__passwordC1Ev@4;	.scl	2;	.type	32;	.endef
	.set	__ZN3stk10__passwordC1Ev@4,__ZN3stk10__passwordC2Ev@4
	.section	.text.unlikely,"x"
	.align 2
LCOLDB1:
	.text
LHOTB1:
	.align 2
	.p2align 4,,15
	.globl	__ZN3stk10__passwordD2Ev@8
	.def	__ZN3stk10__passwordD2Ev@8;	.scl	2;	.type	32;	.endef
__ZN3stk10__passwordD2Ev@8:
LFB706:
	.loc 1 18 0
	.cfi_startproc
	.cfi_personality 0,___gxx_personality_v0
	.cfi_lsda 0,LLSDA706
LVL7:
	pushl	%ebp	 #
	.cfi_def_cfa_offset 8
	.cfi_offset 5, -8
	movl	%esp, %ebp	 #,
	.cfi_def_cfa_register 5
	pushl	%ebx	 #
	subl	$500, %esp	 #,
	.cfi_offset 3, -12
	.loc 1 18 0
	movl	8(%ebp), %ebx	 # this, this
LVL8:
LBB21:
LBB22:
	.loc 1 43 0
	movl	4(%ebx), %eax	 # MEM[(struct __password_text *)this_1(D)].f_lp_hash_str, MEM[(struct __password_text *)this_1(D)].f_lp_hash_str
	movl	%eax, (%esp)	 # MEM[(struct __password_text *)this_1(D)].f_lp_hash_str,
	call	__ZN3stk4cstr4freeEPc@4	 #
LVL9:
	movl	8(%ebx), %edx	 # MEM[(struct __password_text *)this_1(D)].f_lp_plain_str, MEM[(struct __password_text *)this_1(D)].f_lp_plain_str
	subl	$4, %esp	 #,
LBE22:
LBE21:
	.loc 1 23 0
	movl	-4(%ebp), %ebx	 #,
LVL10:
LBB25:
LBB23:
	.loc 1 43 0
	movl	%edx, 8(%ebp)	 # MEM[(struct __password_text *)this_1(D)].f_lp_plain_str,
LVL11:
LBE23:
LBE25:
	.loc 1 23 0
	leave
	.cfi_restore 5
	.cfi_restore 3
	.cfi_def_cfa 4, 4
LBB26:
LBB24:
	.loc 1 43 0
	jmp	__ZN3stk4cstr4freeEPc@4	 #
	.cfi_def_cfa_offset 0
LVL12:
LBE24:
LBE26:
	.cfi_endproc
LFE706:
	.def	___gxx_personality_v0;	.scl	2;	.type	32;	.endef
	.section	.gcc_except_table,"w"
LLSDA706:
	.byte	0xff
	.byte	0xff
	.byte	0x1
	.uleb128 LLSDACSE706-LLSDACSB706
LLSDACSB706:
LLSDACSE706:
	.text
	.section	.text.unlikely,"x"
LCOLDE1:
	.text
LHOTE1:
	.globl	__ZN3stk10__passwordD1Ev@8
	.def	__ZN3stk10__passwordD1Ev@8;	.scl	2;	.type	32;	.endef
	.set	__ZN3stk10__passwordD1Ev@8,__ZN3stk10__passwordD2Ev@8
	.section	.text.unlikely,"x"
	.align 2
LCOLDB2:
	.text
LHOTB2:
	.align 2
	.p2align 4,,15
	.globl	__ZN3stk15__password_textC2Ev@4
	.def	__ZN3stk15__password_textC2Ev@4;	.scl	2;	.type	32;	.endef
__ZN3stk15__password_textC2Ev@4:
LFB709:
	.loc 1 26 0
	.cfi_startproc
LVL13:
	pushl	%ebx	 #
	.cfi_def_cfa_offset 8
	.cfi_offset 3, -8
	subl	$504, %esp	 #,
	.cfi_def_cfa_offset 512
	.loc 1 26 0
	movl	512(%esp), %ebx	 # this, this
LBB27:
	.loc 1 31 0
	movl	$256, (%esp)	 #,
	call	__ZN3stk4cstr5allocEj@4	 #
	.cfi_def_cfa_offset 508
LVL14:
	subl	$4, %esp	 #,
	.cfi_def_cfa_offset 512
	movl	%eax, 4(%ebx)	 # D.29697, this_4(D)->f_lp_hash_str
	.loc 1 32 0
	movl	$256, 8(%esp)	 #,
	movl	$0, 4(%esp)	 #,
	movl	%eax, (%esp)	 # D.29697,
	call	__ZN3stk3mem3setEPvhj@12	 #
	.cfi_def_cfa_offset 500
LVL15:
	subl	$12, %esp	 #,
	.cfi_def_cfa_offset 512
	.loc 1 33 0
	movl	$256, (%esp)	 #,
	call	__ZN3stk4cstr5allocEj@4	 #
	.cfi_def_cfa_offset 508
LVL16:
	subl	$4, %esp	 #,
	.cfi_def_cfa_offset 512
	movl	%eax, 8(%ebx)	 # D.29697, this_4(D)->f_lp_plain_str
	.loc 1 34 0
	movl	$256, 8(%esp)	 #,
	movl	$0, 4(%esp)	 #,
	movl	%eax, (%esp)	 # D.29697,
	call	__ZN3stk3mem3setEPvhj@12	 #
	.cfi_def_cfa_offset 500
LVL17:
	subl	$12, %esp	 #,
	.cfi_def_cfa_offset 512
	.loc 1 35 0
	movl	$0, (%ebx)	 #, this_4(D)->f_size
LBE27:
	.loc 1 36 0
	addl	$504, %esp	 #,
	.cfi_def_cfa_offset 8
	popl	%ebx	 #
	.cfi_restore 3
	.cfi_def_cfa_offset 4
	ret	$4	 #
	.cfi_endproc
LFE709:
	.section	.text.unlikely,"x"
LCOLDE2:
	.text
LHOTE2:
	.globl	__ZN3stk15__password_textC1Ev@4
	.def	__ZN3stk15__password_textC1Ev@4;	.scl	2;	.type	32;	.endef
	.set	__ZN3stk15__password_textC1Ev@4,__ZN3stk15__password_textC2Ev@4
	.section	.text.unlikely,"x"
	.align 2
LCOLDB3:
	.text
LHOTB3:
	.align 2
	.p2align 4,,15
	.globl	__ZN3stk15__password_textD2Ev@8
	.def	__ZN3stk15__password_textD2Ev@8;	.scl	2;	.type	32;	.endef
__ZN3stk15__password_textD2Ev@8:
LFB712:
	.loc 1 38 0
	.cfi_startproc
	.cfi_personality 0,___gxx_personality_v0
	.cfi_lsda 0,LLSDA712
LVL18:
	pushl	%ebp	 #
	.cfi_def_cfa_offset 8
	.cfi_offset 5, -8
	movl	%esp, %ebp	 #,
	.cfi_def_cfa_register 5
	pushl	%ebx	 #
	subl	$500, %esp	 #,
	.cfi_offset 3, -12
	.loc 1 38 0
	movl	8(%ebp), %ebx	 # this, this
LBB28:
	.loc 1 43 0
	movl	4(%ebx), %eax	 # this_2(D)->f_lp_hash_str, this_2(D)->f_lp_hash_str
	movl	%eax, (%esp)	 # this_2(D)->f_lp_hash_str,
	call	__ZN3stk4cstr4freeEPc@4	 #
LVL19:
	movl	8(%ebx), %edx	 # this_2(D)->f_lp_plain_str, this_2(D)->f_lp_plain_str
	subl	$4, %esp	 #,
LBE28:
	.loc 1 45 0
	movl	-4(%ebp), %ebx	 #,
LBB29:
	.loc 1 43 0
	movl	%edx, 8(%ebp)	 # this_2(D)->f_lp_plain_str,
LBE29:
	.loc 1 45 0
	leave
	.cfi_restore 5
	.cfi_restore 3
	.cfi_def_cfa 4, 4
LBB30:
	.loc 1 43 0
	jmp	__ZN3stk4cstr4freeEPc@4	 #
	.cfi_def_cfa_offset 0
LVL20:
LBE30:
	.cfi_endproc
LFE712:
	.section	.gcc_except_table,"w"
LLSDA712:
	.byte	0xff
	.byte	0xff
	.byte	0x1
	.uleb128 LLSDACSE712-LLSDACSB712
LLSDACSB712:
LLSDACSE712:
	.text
	.section	.text.unlikely,"x"
LCOLDE3:
	.text
LHOTE3:
	.globl	__ZN3stk15__password_textD1Ev@8
	.def	__ZN3stk15__password_textD1Ev@8;	.scl	2;	.type	32;	.endef
	.set	__ZN3stk15__password_textD1Ev@8,__ZN3stk15__password_textD2Ev@8
	.section	.text.unlikely,"x"
	.align 2
LCOLDB4:
	.text
LHOTB4:
	.align 2
	.p2align 4,,15
	.globl	__ZN3stk15__password_text4sizeEv@4
	.def	__ZN3stk15__password_text4sizeEv@4;	.scl	2;	.type	32;	.endef
__ZN3stk15__password_text4sizeEv@4:
LFB714:
	.loc 1 49 0
	.cfi_startproc
LVL21:
	.loc 1 53 0
	movl	4(%esp), %eax	 # this, this
	movl	(%eax), %eax	 # this_2(D)->f_size, this_2(D)->f_size
	.loc 1 54 0
	ret	$4	 #
	.cfi_endproc
LFE714:
	.section	.text.unlikely,"x"
LCOLDE4:
	.text
LHOTE4:
	.section	.text.unlikely,"x"
	.align 2
LCOLDB5:
	.text
LHOTB5:
	.align 2
	.p2align 4,,15
	.globl	__ZN3stk15__password_text8get_hashEv@4
	.def	__ZN3stk15__password_text8get_hashEv@4;	.scl	2;	.type	32;	.endef
__ZN3stk15__password_text8get_hashEv@4:
LFB715:
	.loc 1 58 0
	.cfi_startproc
LVL22:
	.loc 1 62 0
	movl	4(%esp), %eax	 # this, tmp87
	addl	$4, %eax	 #, D.29707
	.loc 1 63 0
	ret	$4	 #
	.cfi_endproc
LFE715:
	.section	.text.unlikely,"x"
LCOLDE5:
	.text
LHOTE5:
	.section	.text.unlikely,"x"
	.align 2
LCOLDB6:
	.text
LHOTB6:
	.align 2
	.p2align 4,,15
	.globl	__ZN3stk15__password_text3getEv@4
	.def	__ZN3stk15__password_text3getEv@4;	.scl	2;	.type	32;	.endef
__ZN3stk15__password_text3getEv@4:
LFB716:
	.loc 1 67 0
	.cfi_startproc
LVL23:
	.loc 1 71 0
	movl	4(%esp), %eax	 # this, tmp87
	addl	$8, %eax	 #, D.29710
	.loc 1 72 0
	ret	$4	 #
	.cfi_endproc
LFE716:
	.section	.text.unlikely,"x"
LCOLDE6:
	.text
LHOTE6:
	.def	___moddi3;	.scl	2;	.type	32;	.endef
	.section	.text.unlikely,"x"
	.align 2
LCOLDB7:
	.text
LHOTB7:
	.align 2
	.p2align 4,,15
	.globl	__ZN3stk15__password_text3setEPKc@8
	.def	__ZN3stk15__password_text3setEPKc@8;	.scl	2;	.type	32;	.endef
__ZN3stk15__password_text3setEPKc@8:
LFB717:
	.loc 1 76 0
	.cfi_startproc
LVL24:
	pushl	%ebp	 #
	.cfi_def_cfa_offset 8
	.cfi_offset 5, -8
	pushl	%edi	 #
	.cfi_def_cfa_offset 12
	.cfi_offset 7, -12
	pushl	%esi	 #
	.cfi_def_cfa_offset 16
	.cfi_offset 6, -16
	pushl	%ebx	 #
	.cfi_def_cfa_offset 20
	.cfi_offset 3, -20
	subl	$748, %esp	 #,
	.cfi_def_cfa_offset 768
	.loc 1 76 0
	movl	772(%esp), %ebx	 # a_user_password, a_user_password
	movl	768(%esp), %esi	 # this, this
LBB34:
	.loc 1 80 0
	movl	%ebx, (%esp)	 # a_user_password,
	call	__ZN3stk4cstr3lenEPKc@4	 #
	.cfi_def_cfa_offset 764
LVL25:
	subl	$4, %esp	 #,
	.cfi_def_cfa_offset 768
	addl	$1, %eax	 #, D.29737
	movl	%eax, (%esi)	 # D.29737, this_12(D)->f_size
	.loc 1 81 0
	movl	%eax, 8(%esp)	 # D.29737,
	movl	%ebx, 4(%esp)	 # a_user_password,
	movl	8(%esi), %eax	 # this_12(D)->f_lp_plain_str, this_12(D)->f_lp_plain_str
	movl	%eax, (%esp)	 # this_12(D)->f_lp_plain_str,
	call	__ZN3stk3mem3movEPvPKvj@12	 #
	.cfi_def_cfa_offset 756
LVL26:
LBB35:
LBB36:
	.loc 1 53 0
	movl	(%esi), %edx	 # this_12(D)->f_size, this_12(D)->f_size
LBE36:
LBE35:
	.loc 1 81 0
	subl	$12, %esp	 #,
	.cfi_def_cfa_offset 768
LVL27:
	.loc 1 84 0
	testb	%dl, %dl	 # this_12(D)->f_size
	jle	L12	 #,
LVL28:
	.loc 1 86 0
	movl	8(%esi), %ebp	 # this_12(D)->f_lp_plain_str, D.29738
	.loc 1 85 0
	movsbl	%dl, %edi	 # this_12(D)->f_size, D.29742
	movl	%edi, %ecx	 # D.29742, D.29742
	movl	%edi, 508(%esp)	 # D.29742, %sfp
LVL29:
	.loc 1 86 0
	movsbl	-1(%ebp,%edi), %ebx	 # *_64,
	movb	%bl, 507(%esp)	 # D.29740, %sfp
LVL30:
	movl	%ebx, 488(%esp)	 # D.29740, %sfp
	sarl	$31, %ebx	 #, D.29740
LVL31:
	.loc 1 87 0
	subl	$1, %ecx	 #, i
LVL32:
	.loc 1 86 0
	movl	%ebx, 492(%esp)	 # D.29740, %sfp
	.loc 1 87 0
	movl	%ecx, 500(%esp)	 # i, %sfp
	je	L14	 #,
	leal	-2(%edi), %ecx	 #, tmp189
LVL33:
	.loc 1 85 0
	leal	-2(%edi), %edi	 #, i
	.loc 1 86 0
	movsbl	0(%ebp,%edi), %eax	 # MEM[base: _62, index: _6, offset: 0B], MEM[base: _62, index: _6, offset: 0B]
	andl	$7, %ecx	 #, tmp190
	cltd
	addl	488(%esp), %eax	 # %sfp, kod
	adcl	492(%esp), %edx	 # %sfp, kod
	.loc 1 87 0
	testl	%edi, %edi	 # i
	.loc 1 86 0
	movl	%eax, 488(%esp)	 # kod, %sfp
LVL34:
	movl	%edx, 492(%esp)	 # kod, %sfp
	.loc 1 87 0
	je	L15	 #,
	testl	%ecx, %ecx	 # tmp190
	je	L80	 #,
	cmpl	$1, %ecx	 #, tmp190
	je	L53	 #,
	cmpl	$2, %ecx	 #, tmp190
	je	L54	 #,
	cmpl	$3, %ecx	 #, tmp190
	je	L55	 #,
	cmpl	$4, %ecx	 #, tmp190
	je	L56	 #,
	cmpl	$5, %ecx	 #, tmp190
	je	L57	 #,
	cmpl	$6, %ecx	 #, tmp190
	je	L58	 #,
	.loc 1 86 0
	movsbl	-1(%ebp,%edi), %eax	 # MEM[base: _62, index: _6, offset: 0B], MEM[base: _62, index: _6, offset: 0B]
	.loc 1 85 0
	subl	$1, %edi	 #, i
	.loc 1 86 0
	cltd
	addl	%eax, 488(%esp)	 # D.29741, %sfp
	adcl	%edx, 492(%esp)	 # D.29741, %sfp
L58:
	movsbl	-1(%ebp,%edi), %eax	 # MEM[base: _62, index: _6, offset: 0B], MEM[base: _62, index: _6, offset: 0B]
	.loc 1 85 0
	subl	$1, %edi	 #, i
	.loc 1 86 0
	cltd
	addl	%eax, 488(%esp)	 # D.29741, %sfp
	adcl	%edx, 492(%esp)	 # D.29741, %sfp
L57:
	movsbl	-1(%ebp,%edi), %eax	 # MEM[base: _62, index: _6, offset: 0B], MEM[base: _62, index: _6, offset: 0B]
	.loc 1 85 0
	subl	$1, %edi	 #, i
	.loc 1 86 0
	cltd
	addl	%eax, 488(%esp)	 # D.29741, %sfp
	adcl	%edx, 492(%esp)	 # D.29741, %sfp
L56:
	movsbl	-1(%ebp,%edi), %eax	 # MEM[base: _62, index: _6, offset: 0B], MEM[base: _62, index: _6, offset: 0B]
	.loc 1 85 0
	subl	$1, %edi	 #, i
	.loc 1 86 0
	cltd
	addl	%eax, 488(%esp)	 # D.29741, %sfp
	adcl	%edx, 492(%esp)	 # D.29741, %sfp
L55:
	movsbl	-1(%ebp,%edi), %eax	 # MEM[base: _62, index: _6, offset: 0B], MEM[base: _62, index: _6, offset: 0B]
	.loc 1 85 0
	subl	$1, %edi	 #, i
	.loc 1 86 0
	cltd
	addl	%eax, 488(%esp)	 # D.29741, %sfp
	adcl	%edx, 492(%esp)	 # D.29741, %sfp
L54:
	movsbl	-1(%ebp,%edi), %eax	 # MEM[base: _62, index: _6, offset: 0B], MEM[base: _62, index: _6, offset: 0B]
	.loc 1 85 0
	subl	$1, %edi	 #, i
	.loc 1 86 0
	cltd
	addl	%eax, 488(%esp)	 # D.29741, %sfp
	adcl	%edx, 492(%esp)	 # D.29741, %sfp
L53:
	.loc 1 85 0
	subl	$1, %edi	 #, i
	.loc 1 86 0
	movsbl	0(%ebp,%edi), %eax	 # MEM[base: _62, index: _6, offset: 0B], MEM[base: _62, index: _6, offset: 0B]
	cltd
	addl	%eax, 488(%esp)	 # D.29741, %sfp
	adcl	%edx, 492(%esp)	 # D.29741, %sfp
	.loc 1 87 0
	testl	%edi, %edi	 # i
	je	L15	 #,
L80:
	movl	488(%esp), %ecx	 # %sfp, kod
	movl	492(%esp), %ebx	 # %sfp, kod
L16:
	.loc 1 86 0
	movsbl	-1(%ebp,%edi), %eax	 # MEM[base: _62, index: _6, offset: 0B], MEM[base: _62, index: _6, offset: 0B]
	cltd
	addl	%ecx, %eax	 # kod, kod
	movsbl	-2(%ebp,%edi), %ecx	 # MEM[base: _62, index: _6, offset: 0B], MEM[base: _62, index: _6, offset: 0B]
	adcl	%ebx, %edx	 # kod, kod
	movl	%ecx, %ebx	 # MEM[base: _62, index: _6, offset: 0B], D.29741
	sarl	$31, %ebx	 #, D.29741
	addl	%eax, %ecx	 # kod, kod
	movsbl	-3(%ebp,%edi), %eax	 # MEM[base: _62, index: _6, offset: 0B], MEM[base: _62, index: _6, offset: 0B]
	adcl	%edx, %ebx	 # kod, kod
	cltd
	addl	%eax, %ecx	 # D.29741, kod
	movsbl	-4(%ebp,%edi), %eax	 # MEM[base: _62, index: _6, offset: 0B], MEM[base: _62, index: _6, offset: 0B]
	adcl	%edx, %ebx	 # D.29741, kod
	cltd
	addl	%eax, %ecx	 # D.29741, kod
	movsbl	-5(%ebp,%edi), %eax	 # MEM[base: _62, index: _6, offset: 0B], MEM[base: _62, index: _6, offset: 0B]
	adcl	%edx, %ebx	 # D.29741, kod
	cltd
	addl	%eax, %ecx	 # D.29741, kod
	movsbl	-6(%ebp,%edi), %eax	 # MEM[base: _62, index: _6, offset: 0B], MEM[base: _62, index: _6, offset: 0B]
	adcl	%edx, %ebx	 # D.29741, kod
	cltd
	addl	%eax, %ecx	 # D.29741, kod
	movsbl	-7(%ebp,%edi), %eax	 # MEM[base: _62, index: _6, offset: 0B], MEM[base: _62, index: _6, offset: 0B]
	adcl	%edx, %ebx	 # D.29741, kod
	cltd
	addl	%eax, %ecx	 # D.29741, kod
	adcl	%edx, %ebx	 # D.29741, kod
	.loc 1 85 0
	subl	$8, %edi	 #, i
	.loc 1 86 0
	movsbl	0(%ebp,%edi), %eax	 # MEM[base: _62, index: _6, offset: 0B], MEM[base: _62, index: _6, offset: 0B]
	cltd
	addl	%eax, %ecx	 # D.29741, kod
	adcl	%edx, %ebx	 # D.29741, kod
	.loc 1 87 0
	testl	%edi, %edi	 # i
	jne	L16	 #,
	movl	%ecx, 488(%esp)	 # kod, %sfp
	movl	%ebx, 492(%esp)	 # kod, %sfp
L15:
LVL35:
	.loc 1 92 0
	movl	508(%esp), %ecx	 # %sfp, D.29742
	movzbl	507(%esp), %ebx	 # %sfp, D.29740
	movl	500(%esp), %ebp	 # %sfp, i
LVL36:
	movl	488(%esp), %eax	 # %sfp, kod
	movl	492(%esp), %edx	 # %sfp, kod
	movl	4(%esi), %edi	 # this_12(D)->f_lp_hash_str, this_12(D)->f_lp_hash_str
	movl	%ecx, 8(%esp)	 # D.29742,
LVL37:
	sarl	$31, %ecx	 #, D.29742
	xorl	%ebp, %ebx	 # i, D.29740
	movl	%ecx, 12(%esp)	 # D.29742,
	movl	%eax, (%esp)	 # kod,
	movl	%edx, 4(%esp)	 # kod,
	call	___moddi3	 #
LVL38:
	movl	492(%esp), %edx	 # %sfp, kod
	xorl	%eax, %ebx	 # D.29741, tmp168
	movl	488(%esp), %eax	 # %sfp, kod
	movl	%ebp, %ecx	 # i, i
	movb	%bl, (%edi,%ebp)	 # tmp168, *_94
	leal	-1(%ebp), %ebx	 #, tmp186
	movl	4(%esi), %ebp	 # this_12(D)->f_lp_hash_str, this_12(D)->f_lp_hash_str
	movl	%ecx, 8(%esp)	 # i,
	sarl	$31, %ecx	 #, i
	movl	%ecx, 12(%esp)	 # i,
	movl	%eax, (%esp)	 # kod,
	movl	%ebx, %edi	 # tmp186, tmp187
	movl	%edx, 4(%esp)	 # kod,
	andl	$3, %edi	 #, tmp187
LVL39:
	call	___moddi3	 #
LVL40:
	movl	8(%esi), %ecx	 # this_12(D)->f_lp_plain_str, this_12(D)->f_lp_plain_str
	xorl	%ebx, %eax	 # tmp186, D.29740
	xorb	(%ecx,%ebx), %al	 # *_31, D.29740
	.loc 1 93 0
	testl	%ebx, %ebx	 # i
	.loc 1 92 0
	movb	%al, 0(%ebp,%ebx)	 # D.29740, *_29
	.loc 1 93 0
	je	L12	 #,
	testl	%edi, %edi	 # tmp187
	je	L18	 #,
	cmpl	$1, %edi	 #, tmp187
	je	L51	 #,
	cmpl	$2, %edi	 #, tmp187
	je	L52	 #,
LVL41:
	.loc 1 92 0
	movl	4(%esi), %ebp	 # this_12(D)->f_lp_hash_str, this_12(D)->f_lp_hash_str
	movl	%ebx, 8(%esp)	 # i,
	sarl	$31, %ebx	 #, i
	movl	%ebx, 12(%esp)	 # i,
	movl	492(%esp), %eax	 # %sfp, kod
	movl	488(%esp), %ebx	 # %sfp, kod
	.loc 1 91 0
	movl	500(%esp), %edi	 # %sfp, i
	.loc 1 92 0
	movl	%eax, 4(%esp)	 # kod,
	movl	%ebx, (%esp)	 # kod,
	.loc 1 91 0
	subl	$2, %edi	 #, i
LVL42:
	.loc 1 92 0
	call	___moddi3	 #
LVL43:
	movl	8(%esi), %edx	 # this_12(D)->f_lp_plain_str, this_12(D)->f_lp_plain_str
	xorl	%edi, %eax	 # i, D.29740
	movl	%edi, %ebx	 # i, i
	xorb	(%edx,%edi), %al	 # *_31, D.29740
	movb	%al, 0(%ebp,%edi)	 # D.29740, *_29
L52:
LVL44:
	movl	488(%esp), %eax	 # %sfp, kod
	movl	492(%esp), %edx	 # %sfp, kod
	movl	%ebx, %ecx	 # i, tmp315
	sarl	$31, %ecx	 #, tmp315
	movl	4(%esi), %ebp	 # this_12(D)->f_lp_hash_str, this_12(D)->f_lp_hash_str
	movl	%ebx, 8(%esp)	 # i,
	movl	%ecx, 12(%esp)	 # tmp315,
	.loc 1 91 0
	leal	-1(%ebx), %edi	 #, i
LVL45:
	.loc 1 92 0
	movl	%eax, (%esp)	 # kod,
	movl	%edx, 4(%esp)	 # kod,
	call	___moddi3	 #
LVL46:
	movl	8(%esi), %ecx	 # this_12(D)->f_lp_plain_str, this_12(D)->f_lp_plain_str
	xorl	%edi, %eax	 # i, D.29740
	xorb	-1(%ecx,%ebx), %al	 # *_31, D.29740
	movb	%al, -1(%ebp,%ebx)	 # D.29740, *_29
	movl	%edi, %ebx	 # i, i
L51:
LVL47:
	movl	488(%esp), %ecx	 # %sfp, kod
	movl	492(%esp), %edx	 # %sfp, kod
	movl	%ebx, %eax	 # i, tmp316
	sarl	$31, %eax	 #, tmp316
	movl	4(%esi), %ebp	 # this_12(D)->f_lp_hash_str, this_12(D)->f_lp_hash_str
	movl	%ebx, 8(%esp)	 # i,
	movl	%eax, 12(%esp)	 # tmp316,
	.loc 1 91 0
	leal	-1(%ebx), %edi	 #, i
LVL48:
	.loc 1 92 0
	movl	%ecx, (%esp)	 # kod,
	movl	%edx, 4(%esp)	 # kod,
	call	___moddi3	 #
LVL49:
	movl	8(%esi), %ecx	 # this_12(D)->f_lp_plain_str, this_12(D)->f_lp_plain_str
	xorl	%edi, %eax	 # i, D.29740
	xorb	-1(%ecx,%ebx), %al	 # *_31, D.29740
	.loc 1 93 0
	testl	%edi, %edi	 # i
	.loc 1 92 0
	movb	%al, -1(%ebp,%ebx)	 # D.29740, *_29
	movl	%edi, %ebx	 # i, i
	.loc 1 93 0
	je	L12	 #,
L18:
LVL50:
	.loc 1 92 0
	movl	488(%esp), %ecx	 # %sfp, kod
	movl	492(%esp), %edx	 # %sfp, kod
	movl	%ebx, %eax	 # i, tmp307
	sarl	$31, %eax	 #, tmp307
	movl	4(%esi), %edi	 # this_12(D)->f_lp_hash_str, this_12(D)->f_lp_hash_str
	movl	%ebx, 8(%esp)	 # i,
	movl	%eax, 12(%esp)	 # tmp307,
	.loc 1 91 0
	leal	-1(%ebx), %ebp	 #, i
LVL51:
	.loc 1 92 0
	movl	%ecx, (%esp)	 # kod,
	movl	%edx, 4(%esp)	 # kod,
	call	___moddi3	 #
LVL52:
	movl	8(%esi), %ecx	 # this_12(D)->f_lp_plain_str, this_12(D)->f_lp_plain_str
	xorl	%ebp, %eax	 # i, D.29740
	movl	492(%esp), %edx	 # %sfp, kod
	xorb	-1(%ecx,%ebx), %al	 # *_31, D.29740
	movb	%al, -1(%edi,%ebx)	 # D.29740, *_29
LVL53:
	movl	4(%esi), %eax	 # this_12(D)->f_lp_hash_str, this_12(D)->f_lp_hash_str
	.loc 1 91 0
	leal	-2(%ebx), %edi	 #, i
LVL54:
	.loc 1 92 0
	movl	%ebp, 8(%esp)	 # i,
	sarl	$31, %ebp	 #, i
LVL55:
	movl	%edx, 4(%esp)	 # kod,
	movl	%ebp, 12(%esp)	 # i,
	movl	488(%esp), %ebp	 # %sfp, kod
	movl	%eax, 500(%esp)	 # this_12(D)->f_lp_hash_str, %sfp
	movl	%ebp, (%esp)	 # kod,
	call	___moddi3	 #
LVL56:
	movl	8(%esi), %ecx	 # this_12(D)->f_lp_plain_str, this_12(D)->f_lp_plain_str
	xorl	%edi, %eax	 # i, D.29740
	movl	500(%esp), %ebp	 # %sfp, this_12(D)->f_lp_hash_str
	movl	492(%esp), %edx	 # %sfp, kod
	xorb	-2(%ecx,%ebx), %al	 # *_31, D.29740
	movb	%al, -2(%ebp,%ebx)	 # D.29740, *_29
LVL57:
	movl	4(%esi), %eax	 # this_12(D)->f_lp_hash_str, this_12(D)->f_lp_hash_str
	.loc 1 91 0
	leal	-3(%ebx), %ebp	 #, i
LVL58:
	.loc 1 92 0
	movl	%edi, 8(%esp)	 # i,
	sarl	$31, %edi	 #, i
	movl	%edx, 4(%esp)	 # kod,
	movl	%edi, 12(%esp)	 # i,
	movl	488(%esp), %edi	 # %sfp, kod
	movl	%eax, 500(%esp)	 # this_12(D)->f_lp_hash_str, %sfp
	movl	%edi, (%esp)	 # kod,
	call	___moddi3	 #
LVL59:
	movl	8(%esi), %ecx	 # this_12(D)->f_lp_plain_str, this_12(D)->f_lp_plain_str
	xorl	%ebp, %eax	 # i, D.29740
	movl	500(%esp), %edi	 # %sfp, this_12(D)->f_lp_hash_str
	movl	492(%esp), %edx	 # %sfp, kod
	xorb	-3(%ecx,%ebx), %al	 # *_31, D.29740
	movb	%al, -3(%edi,%ebx)	 # D.29740, *_29
LVL60:
	movl	4(%esi), %edi	 # this_12(D)->f_lp_hash_str, this_12(D)->f_lp_hash_str
	.loc 1 91 0
	leal	-4(%ebx), %eax	 #, i
	.loc 1 92 0
	movl	%ebp, 8(%esp)	 # i,
	sarl	$31, %ebp	 #, i
	movl	%ebp, 12(%esp)	 # i,
	movl	488(%esp), %ebp	 # %sfp, kod
	.loc 1 91 0
	movl	%eax, 500(%esp)	 # i, %sfp
	.loc 1 92 0
	movl	%ebp, (%esp)	 # kod,
	movl	%edx, 4(%esp)	 # kod,
	call	___moddi3	 #
LVL61:
	movl	8(%esi), %ecx	 # this_12(D)->f_lp_plain_str, this_12(D)->f_lp_plain_str
	xorb	500(%esp), %al	 # %sfp, D.29740
	xorb	-4(%ecx,%ebx), %al	 # *_31, D.29740
	movb	%al, -4(%edi,%ebx)	 # D.29740, *_29
	.loc 1 93 0
	subl	$4, %ebx	 #, i
LVL62:
	jne	L18	 #,
LVL63:
L12:
LBE34:
	.loc 1 96 0
	addl	$748, %esp	 #,
	.cfi_remember_state
	.cfi_def_cfa_offset 20
	popl	%ebx	 #
	.cfi_restore 3
	.cfi_def_cfa_offset 16
	popl	%esi	 #
	.cfi_restore 6
	.cfi_def_cfa_offset 12
	popl	%edi	 #
	.cfi_restore 7
	.cfi_def_cfa_offset 8
	popl	%ebp	 #
	.cfi_restore 5
	.cfi_def_cfa_offset 4
	ret	$8	 #
LVL64:
	.p2align 4,,10
L14:
	.cfi_restore_state
LBB37:
	.loc 1 92 0
	movl	508(%esp), %edi	 # %sfp, D.29742
	movl	488(%esp), %eax	 # %sfp, kod
	movl	492(%esp), %ebp	 # %sfp, kod
	movl	4(%esi), %esi	 # this_12(D)->f_lp_hash_str, this_12(D)->f_lp_hash_str
LVL65:
	movl	%edi, %ebx	 # D.29742, D.29742
	movl	%edi, 8(%esp)	 # D.29742,
	movl	%eax, (%esp)	 # kod,
	sarl	$31, %ebx	 #, D.29742
	movl	%ebp, 4(%esp)	 # kod,
	movl	%ebx, 12(%esp)	 # D.29742,
	call	___moddi3	 #
LVL66:
	movzbl	507(%esp), %edx	 # %sfp, tmp178
	xorl	%eax, %edx	 # D.29741, tmp178
	movb	%dl, -1(%esi,%edi)	 # tmp178, *_84
	jmp	L12	 #
LBE37:
	.cfi_endproc
LFE717:
	.section	.text.unlikely,"x"
LCOLDE7:
	.text
LHOTE7:
	.section	.text.unlikely,"x"
	.align 2
LCOLDB8:
	.text
LHOTB8:
	.align 2
	.p2align 4,,15
	.globl	__ZN3stk15__password_textaSEPKc@8
	.def	__ZN3stk15__password_textaSEPKc@8;	.scl	2;	.type	32;	.endef
__ZN3stk15__password_textaSEPKc@8:
LFB718:
	.loc 1 100 0
	.cfi_startproc
LVL67:
	pushl	%ebp	 #
	.cfi_def_cfa_offset 8
	.cfi_offset 5, -8
	pushl	%edi	 #
	.cfi_def_cfa_offset 12
	.cfi_offset 7, -12
	pushl	%esi	 #
	.cfi_def_cfa_offset 16
	.cfi_offset 6, -16
	pushl	%ebx	 #
	.cfi_def_cfa_offset 20
	.cfi_offset 3, -20
	subl	$748, %esp	 #,
	.cfi_def_cfa_offset 768
	.loc 1 100 0
	movl	772(%esp), %ebx	 # a_user_password, a_user_password
	movl	768(%esp), %esi	 # this, this
LVL68:
LBB43:
LBB44:
	.loc 1 80 0
	movl	%ebx, (%esp)	 # a_user_password,
	call	__ZN3stk4cstr3lenEPKc@4	 #
	.cfi_def_cfa_offset 764
LVL69:
	subl	$4, %esp	 #,
	.cfi_def_cfa_offset 768
	addl	$1, %eax	 #, D.29768
	movl	%eax, (%esi)	 # D.29768, this_2(D)->f_size
	.loc 1 81 0
	movl	%eax, 8(%esp)	 # D.29768,
	movl	%ebx, 4(%esp)	 # a_user_password,
	movl	8(%esi), %eax	 # this_2(D)->f_lp_plain_str, this_2(D)->f_lp_plain_str
	movl	%eax, (%esp)	 # this_2(D)->f_lp_plain_str,
	call	__ZN3stk3mem3movEPvPKvj@12	 #
	.cfi_def_cfa_offset 756
LVL70:
LBB45:
LBB46:
	.loc 1 53 0
	movl	(%esi), %edx	 # this_2(D)->f_size, this_2(D)->f_size
LBE46:
LBE45:
	.loc 1 81 0
	subl	$12, %esp	 #,
	.cfi_def_cfa_offset 768
LVL71:
	.loc 1 84 0
	testb	%dl, %dl	 # this_2(D)->f_size
	jle	L83	 #,
LVL72:
	.loc 1 86 0
	movl	8(%esi), %ebp	 # this_2(D)->f_lp_plain_str, D.29769
	.loc 1 85 0
	movsbl	%dl, %edi	 # this_2(D)->f_size, D.29770
	movl	%edi, %ecx	 # D.29770, D.29770
	movl	%edi, 508(%esp)	 # D.29770, %sfp
LVL73:
	.loc 1 86 0
	movsbl	-1(%ebp,%edi), %ebx	 # *_64,
LVL74:
	movb	%bl, 507(%esp)	 # D.29772, %sfp
LVL75:
	movl	%ebx, 488(%esp)	 # D.29772, %sfp
	sarl	$31, %ebx	 #, D.29772
LVL76:
	.loc 1 87 0
	subl	$1, %ecx	 #, i
LVL77:
	.loc 1 86 0
	movl	%ebx, 492(%esp)	 # D.29772, %sfp
	.loc 1 87 0
	movl	%ecx, 500(%esp)	 # i, %sfp
	je	L85	 #,
	leal	-2(%edi), %ecx	 #, tmp189
LVL78:
	.loc 1 85 0
	leal	-2(%edi), %edi	 #, i
	.loc 1 86 0
	movsbl	0(%ebp,%edi), %eax	 # MEM[base: _62, index: _39, offset: 0B], MEM[base: _62, index: _39, offset: 0B]
	andl	$7, %ecx	 #, tmp190
	cltd
	addl	488(%esp), %eax	 # %sfp, kod
	adcl	492(%esp), %edx	 # %sfp, kod
	.loc 1 87 0
	testl	%edi, %edi	 # i
	.loc 1 86 0
	movl	%eax, 488(%esp)	 # kod, %sfp
LVL79:
	movl	%edx, 492(%esp)	 # kod, %sfp
	.loc 1 87 0
	je	L86	 #,
	testl	%ecx, %ecx	 # tmp190
	je	L151	 #,
	cmpl	$1, %ecx	 #, tmp190
	je	L124	 #,
	cmpl	$2, %ecx	 #, tmp190
	je	L125	 #,
	cmpl	$3, %ecx	 #, tmp190
	je	L126	 #,
	cmpl	$4, %ecx	 #, tmp190
	je	L127	 #,
	cmpl	$5, %ecx	 #, tmp190
	je	L128	 #,
	cmpl	$6, %ecx	 #, tmp190
	je	L129	 #,
	.loc 1 86 0
	movsbl	-1(%ebp,%edi), %eax	 # MEM[base: _62, index: _39, offset: 0B], MEM[base: _62, index: _39, offset: 0B]
	.loc 1 85 0
	subl	$1, %edi	 #, i
	.loc 1 86 0
	cltd
	addl	%eax, 488(%esp)	 # D.29773, %sfp
	adcl	%edx, 492(%esp)	 # D.29773, %sfp
L129:
	movsbl	-1(%ebp,%edi), %eax	 # MEM[base: _62, index: _39, offset: 0B], MEM[base: _62, index: _39, offset: 0B]
	.loc 1 85 0
	subl	$1, %edi	 #, i
	.loc 1 86 0
	cltd
	addl	%eax, 488(%esp)	 # D.29773, %sfp
	adcl	%edx, 492(%esp)	 # D.29773, %sfp
L128:
	movsbl	-1(%ebp,%edi), %eax	 # MEM[base: _62, index: _39, offset: 0B], MEM[base: _62, index: _39, offset: 0B]
	.loc 1 85 0
	subl	$1, %edi	 #, i
	.loc 1 86 0
	cltd
	addl	%eax, 488(%esp)	 # D.29773, %sfp
	adcl	%edx, 492(%esp)	 # D.29773, %sfp
L127:
	movsbl	-1(%ebp,%edi), %eax	 # MEM[base: _62, index: _39, offset: 0B], MEM[base: _62, index: _39, offset: 0B]
	.loc 1 85 0
	subl	$1, %edi	 #, i
	.loc 1 86 0
	cltd
	addl	%eax, 488(%esp)	 # D.29773, %sfp
	adcl	%edx, 492(%esp)	 # D.29773, %sfp
L126:
	movsbl	-1(%ebp,%edi), %eax	 # MEM[base: _62, index: _39, offset: 0B], MEM[base: _62, index: _39, offset: 0B]
	.loc 1 85 0
	subl	$1, %edi	 #, i
	.loc 1 86 0
	cltd
	addl	%eax, 488(%esp)	 # D.29773, %sfp
	adcl	%edx, 492(%esp)	 # D.29773, %sfp
L125:
	movsbl	-1(%ebp,%edi), %eax	 # MEM[base: _62, index: _39, offset: 0B], MEM[base: _62, index: _39, offset: 0B]
	.loc 1 85 0
	subl	$1, %edi	 #, i
	.loc 1 86 0
	cltd
	addl	%eax, 488(%esp)	 # D.29773, %sfp
	adcl	%edx, 492(%esp)	 # D.29773, %sfp
L124:
	.loc 1 85 0
	subl	$1, %edi	 #, i
	.loc 1 86 0
	movsbl	0(%ebp,%edi), %eax	 # MEM[base: _62, index: _39, offset: 0B], MEM[base: _62, index: _39, offset: 0B]
	cltd
	addl	%eax, 488(%esp)	 # D.29773, %sfp
	adcl	%edx, 492(%esp)	 # D.29773, %sfp
	.loc 1 87 0
	testl	%edi, %edi	 # i
	je	L86	 #,
L151:
	movl	488(%esp), %ecx	 # %sfp, kod
	movl	492(%esp), %ebx	 # %sfp, kod
L87:
	.loc 1 86 0
	movsbl	-1(%ebp,%edi), %eax	 # MEM[base: _62, index: _39, offset: 0B], MEM[base: _62, index: _39, offset: 0B]
	cltd
	addl	%ecx, %eax	 # kod, kod
	movsbl	-2(%ebp,%edi), %ecx	 # MEM[base: _62, index: _39, offset: 0B], MEM[base: _62, index: _39, offset: 0B]
	adcl	%ebx, %edx	 # kod, kod
	movl	%ecx, %ebx	 # MEM[base: _62, index: _39, offset: 0B], D.29773
	sarl	$31, %ebx	 #, D.29773
	addl	%eax, %ecx	 # kod, kod
	movsbl	-3(%ebp,%edi), %eax	 # MEM[base: _62, index: _39, offset: 0B], MEM[base: _62, index: _39, offset: 0B]
	adcl	%edx, %ebx	 # kod, kod
	cltd
	addl	%eax, %ecx	 # D.29773, kod
	movsbl	-4(%ebp,%edi), %eax	 # MEM[base: _62, index: _39, offset: 0B], MEM[base: _62, index: _39, offset: 0B]
	adcl	%edx, %ebx	 # D.29773, kod
	cltd
	addl	%eax, %ecx	 # D.29773, kod
	movsbl	-5(%ebp,%edi), %eax	 # MEM[base: _62, index: _39, offset: 0B], MEM[base: _62, index: _39, offset: 0B]
	adcl	%edx, %ebx	 # D.29773, kod
	cltd
	addl	%eax, %ecx	 # D.29773, kod
	movsbl	-6(%ebp,%edi), %eax	 # MEM[base: _62, index: _39, offset: 0B], MEM[base: _62, index: _39, offset: 0B]
	adcl	%edx, %ebx	 # D.29773, kod
	cltd
	addl	%eax, %ecx	 # D.29773, kod
	movsbl	-7(%ebp,%edi), %eax	 # MEM[base: _62, index: _39, offset: 0B], MEM[base: _62, index: _39, offset: 0B]
	adcl	%edx, %ebx	 # D.29773, kod
	cltd
	addl	%eax, %ecx	 # D.29773, kod
	adcl	%edx, %ebx	 # D.29773, kod
	.loc 1 85 0
	subl	$8, %edi	 #, i
	.loc 1 86 0
	movsbl	0(%ebp,%edi), %eax	 # MEM[base: _62, index: _39, offset: 0B], MEM[base: _62, index: _39, offset: 0B]
	cltd
	addl	%eax, %ecx	 # D.29773, kod
	adcl	%edx, %ebx	 # D.29773, kod
	.loc 1 87 0
	testl	%edi, %edi	 # i
	jne	L87	 #,
	movl	%ecx, 488(%esp)	 # kod, %sfp
	movl	%ebx, 492(%esp)	 # kod, %sfp
L86:
LVL80:
	.loc 1 92 0
	movl	508(%esp), %ecx	 # %sfp, D.29770
	movzbl	507(%esp), %ebx	 # %sfp, D.29772
	movl	500(%esp), %ebp	 # %sfp, i
LVL81:
	movl	488(%esp), %eax	 # %sfp, kod
	movl	492(%esp), %edx	 # %sfp, kod
	movl	4(%esi), %edi	 # this_2(D)->f_lp_hash_str, this_2(D)->f_lp_hash_str
	movl	%ecx, 8(%esp)	 # D.29770,
LVL82:
	sarl	$31, %ecx	 #, D.29770
	xorl	%ebp, %ebx	 # i, D.29772
	movl	%ecx, 12(%esp)	 # D.29770,
	movl	%eax, (%esp)	 # kod,
	movl	%edx, 4(%esp)	 # kod,
	call	___moddi3	 #
LVL83:
	movl	492(%esp), %edx	 # %sfp, kod
	xorl	%eax, %ebx	 # D.29773, tmp168
	movl	488(%esp), %eax	 # %sfp, kod
	movl	%ebp, %ecx	 # i, i
	movb	%bl, (%edi,%ebp)	 # tmp168, *_94
	leal	-1(%ebp), %ebx	 #, tmp186
	movl	4(%esi), %ebp	 # this_2(D)->f_lp_hash_str, this_2(D)->f_lp_hash_str
	movl	%ecx, 8(%esp)	 # i,
	sarl	$31, %ecx	 #, i
	movl	%ecx, 12(%esp)	 # i,
	movl	%eax, (%esp)	 # kod,
	movl	%ebx, %edi	 # tmp186, tmp187
	movl	%edx, 4(%esp)	 # kod,
	andl	$3, %edi	 #, tmp187
LVL84:
	call	___moddi3	 #
LVL85:
	movl	8(%esi), %ecx	 # this_2(D)->f_lp_plain_str, this_2(D)->f_lp_plain_str
	xorl	%ebx, %eax	 # tmp186, D.29772
	xorb	(%ecx,%ebx), %al	 # *_28, D.29772
	.loc 1 93 0
	testl	%ebx, %ebx	 # i
	.loc 1 92 0
	movb	%al, 0(%ebp,%ebx)	 # D.29772, *_26
	.loc 1 93 0
	je	L83	 #,
	testl	%edi, %edi	 # tmp187
	je	L89	 #,
	cmpl	$1, %edi	 #, tmp187
	je	L122	 #,
	cmpl	$2, %edi	 #, tmp187
	je	L123	 #,
LVL86:
	.loc 1 92 0
	movl	4(%esi), %ebp	 # this_2(D)->f_lp_hash_str, this_2(D)->f_lp_hash_str
	movl	%ebx, 8(%esp)	 # i,
	sarl	$31, %ebx	 #, i
	movl	%ebx, 12(%esp)	 # i,
	movl	492(%esp), %eax	 # %sfp, kod
	movl	488(%esp), %ebx	 # %sfp, kod
	.loc 1 91 0
	movl	500(%esp), %edi	 # %sfp, i
	.loc 1 92 0
	movl	%eax, 4(%esp)	 # kod,
	movl	%ebx, (%esp)	 # kod,
	.loc 1 91 0
	subl	$2, %edi	 #, i
LVL87:
	.loc 1 92 0
	call	___moddi3	 #
LVL88:
	movl	8(%esi), %edx	 # this_2(D)->f_lp_plain_str, this_2(D)->f_lp_plain_str
	xorl	%edi, %eax	 # i, D.29772
	movl	%edi, %ebx	 # i, i
	xorb	(%edx,%edi), %al	 # *_28, D.29772
	movb	%al, 0(%ebp,%edi)	 # D.29772, *_26
L123:
LVL89:
	movl	488(%esp), %eax	 # %sfp, kod
	movl	492(%esp), %edx	 # %sfp, kod
	movl	%ebx, %ecx	 # i, tmp315
	sarl	$31, %ecx	 #, tmp315
	movl	4(%esi), %ebp	 # this_2(D)->f_lp_hash_str, this_2(D)->f_lp_hash_str
	movl	%ebx, 8(%esp)	 # i,
	movl	%ecx, 12(%esp)	 # tmp315,
	.loc 1 91 0
	leal	-1(%ebx), %edi	 #, i
LVL90:
	.loc 1 92 0
	movl	%eax, (%esp)	 # kod,
	movl	%edx, 4(%esp)	 # kod,
	call	___moddi3	 #
LVL91:
	movl	8(%esi), %ecx	 # this_2(D)->f_lp_plain_str, this_2(D)->f_lp_plain_str
	xorl	%edi, %eax	 # i, D.29772
	xorb	-1(%ecx,%ebx), %al	 # *_28, D.29772
	movb	%al, -1(%ebp,%ebx)	 # D.29772, *_26
	movl	%edi, %ebx	 # i, i
L122:
LVL92:
	movl	488(%esp), %ecx	 # %sfp, kod
	movl	492(%esp), %edx	 # %sfp, kod
	movl	%ebx, %eax	 # i, tmp316
	sarl	$31, %eax	 #, tmp316
	movl	4(%esi), %ebp	 # this_2(D)->f_lp_hash_str, this_2(D)->f_lp_hash_str
	movl	%ebx, 8(%esp)	 # i,
	movl	%eax, 12(%esp)	 # tmp316,
	.loc 1 91 0
	leal	-1(%ebx), %edi	 #, i
LVL93:
	.loc 1 92 0
	movl	%ecx, (%esp)	 # kod,
	movl	%edx, 4(%esp)	 # kod,
	call	___moddi3	 #
LVL94:
	movl	8(%esi), %ecx	 # this_2(D)->f_lp_plain_str, this_2(D)->f_lp_plain_str
	xorl	%edi, %eax	 # i, D.29772
	xorb	-1(%ecx,%ebx), %al	 # *_28, D.29772
	.loc 1 93 0
	testl	%edi, %edi	 # i
	.loc 1 92 0
	movb	%al, -1(%ebp,%ebx)	 # D.29772, *_26
	movl	%edi, %ebx	 # i, i
	.loc 1 93 0
	je	L83	 #,
L89:
LVL95:
	.loc 1 92 0
	movl	488(%esp), %ecx	 # %sfp, kod
	movl	492(%esp), %edx	 # %sfp, kod
	movl	%ebx, %eax	 # i, tmp307
	sarl	$31, %eax	 #, tmp307
	movl	4(%esi), %edi	 # this_2(D)->f_lp_hash_str, this_2(D)->f_lp_hash_str
	movl	%ebx, 8(%esp)	 # i,
	movl	%eax, 12(%esp)	 # tmp307,
	.loc 1 91 0
	leal	-1(%ebx), %ebp	 #, i
LVL96:
	.loc 1 92 0
	movl	%ecx, (%esp)	 # kod,
	movl	%edx, 4(%esp)	 # kod,
	call	___moddi3	 #
LVL97:
	movl	8(%esi), %ecx	 # this_2(D)->f_lp_plain_str, this_2(D)->f_lp_plain_str
	xorl	%ebp, %eax	 # i, D.29772
	movl	492(%esp), %edx	 # %sfp, kod
	xorb	-1(%ecx,%ebx), %al	 # *_28, D.29772
	movb	%al, -1(%edi,%ebx)	 # D.29772, *_26
LVL98:
	movl	4(%esi), %eax	 # this_2(D)->f_lp_hash_str, this_2(D)->f_lp_hash_str
	.loc 1 91 0
	leal	-2(%ebx), %edi	 #, i
LVL99:
	.loc 1 92 0
	movl	%ebp, 8(%esp)	 # i,
	sarl	$31, %ebp	 #, i
LVL100:
	movl	%edx, 4(%esp)	 # kod,
	movl	%ebp, 12(%esp)	 # i,
	movl	488(%esp), %ebp	 # %sfp, kod
	movl	%eax, 500(%esp)	 # this_2(D)->f_lp_hash_str, %sfp
	movl	%ebp, (%esp)	 # kod,
	call	___moddi3	 #
LVL101:
	movl	8(%esi), %ecx	 # this_2(D)->f_lp_plain_str, this_2(D)->f_lp_plain_str
	xorl	%edi, %eax	 # i, D.29772
	movl	500(%esp), %ebp	 # %sfp, this_2(D)->f_lp_hash_str
	movl	492(%esp), %edx	 # %sfp, kod
	xorb	-2(%ecx,%ebx), %al	 # *_28, D.29772
	movb	%al, -2(%ebp,%ebx)	 # D.29772, *_26
LVL102:
	movl	4(%esi), %eax	 # this_2(D)->f_lp_hash_str, this_2(D)->f_lp_hash_str
	.loc 1 91 0
	leal	-3(%ebx), %ebp	 #, i
LVL103:
	.loc 1 92 0
	movl	%edi, 8(%esp)	 # i,
	sarl	$31, %edi	 #, i
	movl	%edx, 4(%esp)	 # kod,
	movl	%edi, 12(%esp)	 # i,
	movl	488(%esp), %edi	 # %sfp, kod
	movl	%eax, 500(%esp)	 # this_2(D)->f_lp_hash_str, %sfp
	movl	%edi, (%esp)	 # kod,
	call	___moddi3	 #
LVL104:
	movl	8(%esi), %ecx	 # this_2(D)->f_lp_plain_str, this_2(D)->f_lp_plain_str
	xorl	%ebp, %eax	 # i, D.29772
	movl	500(%esp), %edi	 # %sfp, this_2(D)->f_lp_hash_str
	movl	492(%esp), %edx	 # %sfp, kod
	xorb	-3(%ecx,%ebx), %al	 # *_28, D.29772
	movb	%al, -3(%edi,%ebx)	 # D.29772, *_26
LVL105:
	movl	4(%esi), %edi	 # this_2(D)->f_lp_hash_str, this_2(D)->f_lp_hash_str
	.loc 1 91 0
	leal	-4(%ebx), %eax	 #, i
	.loc 1 92 0
	movl	%ebp, 8(%esp)	 # i,
	sarl	$31, %ebp	 #, i
	movl	%ebp, 12(%esp)	 # i,
	movl	488(%esp), %ebp	 # %sfp, kod
	.loc 1 91 0
	movl	%eax, 500(%esp)	 # i, %sfp
	.loc 1 92 0
	movl	%ebp, (%esp)	 # kod,
	movl	%edx, 4(%esp)	 # kod,
	call	___moddi3	 #
LVL106:
	movl	8(%esi), %ecx	 # this_2(D)->f_lp_plain_str, this_2(D)->f_lp_plain_str
	xorb	500(%esp), %al	 # %sfp, D.29772
	xorb	-4(%ecx,%ebx), %al	 # *_28, D.29772
	movb	%al, -4(%edi,%ebx)	 # D.29772, *_26
	.loc 1 93 0
	subl	$4, %ebx	 #, i
LVL107:
	jne	L89	 #,
LVL108:
L83:
LBE44:
LBE43:
	.loc 1 105 0
	addl	$748, %esp	 #,
	.cfi_remember_state
	.cfi_def_cfa_offset 20
	popl	%ebx	 #
	.cfi_restore 3
	.cfi_def_cfa_offset 16
	popl	%esi	 #
	.cfi_restore 6
	.cfi_def_cfa_offset 12
	popl	%edi	 #
	.cfi_restore 7
	.cfi_def_cfa_offset 8
	popl	%ebp	 #
	.cfi_restore 5
	.cfi_def_cfa_offset 4
	ret	$8	 #
LVL109:
	.p2align 4,,10
L85:
	.cfi_restore_state
LBB48:
LBB47:
	.loc 1 92 0
	movl	508(%esp), %edi	 # %sfp, D.29770
	movl	488(%esp), %eax	 # %sfp, kod
	movl	492(%esp), %ebp	 # %sfp, kod
	movl	4(%esi), %esi	 # this_2(D)->f_lp_hash_str, this_2(D)->f_lp_hash_str
LVL110:
	movl	%edi, %ebx	 # D.29770, D.29770
	movl	%edi, 8(%esp)	 # D.29770,
	movl	%eax, (%esp)	 # kod,
	sarl	$31, %ebx	 #, D.29770
	movl	%ebp, 4(%esp)	 # kod,
	movl	%ebx, 12(%esp)	 # D.29770,
	call	___moddi3	 #
LVL111:
	movzbl	507(%esp), %edx	 # %sfp, tmp178
	xorl	%eax, %edx	 # D.29773, tmp178
	movb	%dl, -1(%esi,%edi)	 # tmp178, *_84
	jmp	L83	 #
LBE47:
LBE48:
	.cfi_endproc
LFE718:
	.section	.text.unlikely,"x"
LCOLDE8:
	.text
LHOTE8:
	.section	.text.unlikely,"x"
	.align 2
LCOLDB9:
	.text
LHOTB9:
	.align 2
	.p2align 4,,15
	.globl	__ZN3stk15__password_textcvPKcEv@4
	.def	__ZN3stk15__password_textcvPKcEv@4;	.scl	2;	.type	32;	.endef
__ZN3stk15__password_textcvPKcEv@4:
LFB719:
	.loc 1 109 0
	.cfi_startproc
LVL112:
	.loc 1 113 0
	movl	4(%esp), %eax	 # this, tmp87
	addl	$4, %eax	 #, D.29778
	.loc 1 114 0
	ret	$4	 #
	.cfi_endproc
LFE719:
	.section	.text.unlikely,"x"
LCOLDE9:
	.text
LHOTE9:
Letext0:
	.section	.text.unlikely,"x"
Letext_cold0:
	.file 2 "C:/Qt/Qt5.5.0/Tools/mingw492_32/i686-w64-mingw32/include/_mingw.h"
	.file 3 "C:/Qt/Qt5.5.0/Tools/mingw492_32/i686-w64-mingw32/include/stdint.h"
	.file 4 "C:/Qt/Qt5.5.0/Tools/mingw492_32/i686-w64-mingw32/include/stdio.h"
	.file 5 "<built-in>"
	.file 6 "C:/Qt/Qt5.5.0/Tools/mingw492_32/i686-w64-mingw32/include/c++/bits/exception_ptr.h"
	.file 7 "C:/Qt/Qt5.5.0/Tools/mingw492_32/i686-w64-mingw32/include/c++/i686-w64-mingw32/bits/c++config.h"
	.file 8 "hash/./../text/./.././time/stk_time.h"
	.file 9 "hash/stk_hash_password.h"
	.file 10 "hash/./../text/stk_cstr_utils.h"
	.file 11 "hash/./../text/./../mem/stk_mem.h"