	.file	"stk_hash_crc32.cpp"
 # GNU C++ (i686-posix-dwarf-rev1, Built by MinGW-W64 project) version 4.9.2 (i686-w64-mingw32)
 #	compiled by GNU C version 4.9.2, GMP version 6.0.0, MPFR version 3.1.2-p9, MPC version 1.0.2
 # warning: MPFR header version 3.1.2-p9 differs from library version 3.1.2-p10.
 # GGC heuristics: --param ggc-min-expand=100 --param ggc-min-heapsize=131072
 # options passed:  -fpreprocessed stk_hash_crc32.ii -malign-double
 # -momit-leaf-frame-pointer -m32 -mfpmath=sse -mpreferred-stack-boundary=8
 # -mmmx -msse -msse2 -mthreads -mtune=generic -march=i686
 # -auxbase-strip debug\stk_hash_crc32.o -g -g -O3 -Wno-write-strings
 # -Wno-multichar -Wno-unused-variable -Wno-unused-parameter
 # -Wno-unused-value -Wno-unused-label -Wno-unused-but-set-variable
 # -Wattributes -Winline -Wshadow -Wunknown-pragmas -Wall -Wextra
 # -std=gnu++11 -std=c++11 -fno-keep-inline-dllexport
 # -fno-use-linker-plugin -fverbose-asm -fstrict-aliasing -fwrapv
 # -funroll-loops -flto -fexceptions -frtti
 # options enabled:  -faggressive-loop-optimizations
 # -fasynchronous-unwind-tables -fauto-inc-dec -fbranch-count-reg
 # -fcaller-saves -fcombine-stack-adjustments -fcommon -fcompare-elim
 # -fcprop-registers -fcrossjumping -fcse-follow-jumps -fdefer-pop
 # -fdelete-null-pointer-checks -fdevirtualize -fdevirtualize-speculatively
 # -fdwarf2-cfi-asm -fearly-inlining -feliminate-unused-debug-types
 # -fexceptions -fexpensive-optimizations -fforward-propagate
 # -ffunction-cse -fgcse -fgcse-after-reload -fgcse-lm -fgnu-runtime
 # -fgnu-unique -fguess-branch-probability -fhoist-adjacent-loads -fident
 # -fif-conversion -fif-conversion2 -findirect-inlining -finline
 # -finline-atomics -finline-functions -finline-functions-called-once
 # -finline-small-functions -fipa-cp -fipa-cp-clone -fipa-profile
 # -fipa-pure-const -fipa-reference -fipa-sra -fira-hoist-pressure
 # -fira-share-save-slots -fira-share-spill-slots
 # -fisolate-erroneous-paths-dereference -fivopts -fkeep-static-consts
 # -fleading-underscore -fmath-errno -fmerge-constants
 # -fmerge-debug-strings -fmove-loop-invariants -fomit-frame-pointer
 # -foptimize-sibling-calls -foptimize-strlen -fpartial-inlining -fpeephole
 # -fpeephole2 -fpredictive-commoning -fprefetch-loop-arrays -free
 # -freg-struct-return -frename-registers -freorder-blocks
 # -freorder-blocks-and-partition -freorder-functions
 # -frerun-cse-after-loop -fsched-critical-path-heuristic
 # -fsched-dep-count-heuristic -fsched-group-heuristic -fsched-interblock
 # -fsched-last-insn-heuristic -fsched-rank-heuristic -fsched-spec
 # -fsched-spec-insn-heuristic -fsched-stalled-insns-dep -fschedule-insns2
 # -fset-stack-executable -fshow-column -fshrink-wrap -fsigned-zeros
 # -fsplit-ivs-in-unroller -fsplit-wide-types -fstrict-aliasing
 # -fstrict-overflow -fstrict-volatile-bitfields -fsync-libcalls
 # -fthread-jumps -ftoplevel-reorder -ftrapping-math -ftree-bit-ccp
 # -ftree-builtin-call-dce -ftree-ccp -ftree-ch -ftree-coalesce-vars
 # -ftree-copy-prop -ftree-copyrename -ftree-cselim -ftree-dce
 # -ftree-dominator-opts -ftree-dse -ftree-forwprop -ftree-fre
 # -ftree-loop-distribute-patterns -ftree-loop-if-convert -ftree-loop-im
 # -ftree-loop-ivcanon -ftree-loop-optimize -ftree-loop-vectorize
 # -ftree-parallelize-loops= -ftree-partial-pre -ftree-phiprop -ftree-pre
 # -ftree-pta -ftree-reassoc -ftree-scev-cprop -ftree-sink
 # -ftree-slp-vectorize -ftree-slsr -ftree-sra -ftree-switch-conversion
 # -ftree-tail-merge -ftree-ter -ftree-vrp -funit-at-a-time -funroll-loops
 # -funswitch-loops -funwind-tables -fvar-tracking
 # -fvar-tracking-assignments -fverbose-asm -fweb -fwrapv
 # -fzero-initialized-in-bss -m32 -m80387 -m96bit-long-double
 # -maccumulate-outgoing-args -malign-double -malign-stringops
 # -mavx256-split-unaligned-load -mavx256-split-unaligned-store
 # -mfancy-math-387 -mfp-ret-in-387 -mieee-fp -mlong-double-80 -mmmx
 # -mms-bitfields -mno-red-zone -mno-sse4 -mpush-args -msahf -msse -msse2
 # -mstack-arg-probe -mvzeroupper

	.text
Ltext0:
	.section	.gnu.lto_.profile.f43a773b,"dr0"
	.ascii "x\234cf```c\200\0F\206;L7\30\1\5\311\1\302"
	.text
	.section	.gnu.lto_.jmpfuncs.f43a773b,"dr0"
	.ascii "x\234cf\300\16&320\204\0i6 ff\372\310\304"
	.ascii "8\357r\337:\246\332\337\15\35\15\34?\231\30\376"
	.ascii "2\1\305\31\227"
	.ascii "1\326"
	.ascii "201\252H\1\11e)\6\26fFFF\366\372\372zV\30\203\231\1\"\3&p\232\262\34l\12X\31\320(f\346r\6dm\214 m\367\237\234\277\310\361\202\351'\23\320U\214+\30\245\200$\23\230fgbd\4\332\6\322\304\310\300\\\16\224FQ\16"
	.ascii "4\237q%P\31\7\320A \327\200\14\6\361A\352 J\327/\275#.\317"
	.ascii "8\267a\206\302O&f\6\240\300\333\11\313\247\262\2]8\3\344B\26\306U\214\362@3V\3\235\210U\373\256\356OK\271\345\365 \372YA\372\233ON\233\303\1\323\317\306\270\6\254\177-.\375\233\366\335|\310%\357\5\321\317\16\322?g\366\201\203\234"
	.ascii "0\375\34\214\353\300\372\327\3\365"
	.ascii "3p\202\374Z_\317\240\23\222\221\252PX\232\231\234\255\220T\224_\236\247\220\226_\241\220U\232[P\254\220_\226Z\244P\2\224\316I\254\252TH\311Og\220\216\212\214\10\17\13\15\11\16\12\14\360\367\363\365\361\366\362\364pwsuqrvd\340"
	.ascii "2426153\267\260d\0\0\240\300y\256"
	.text
	.section	.gnu.lto_.inline.f43a773b,"dr0"
	.ascii "x\234cf\300\16\"\31!4\33\3\203\314?nF\6&\203\17?v12\260-\220g\2\11"
	.ascii "3\2\245\231\201"
	.ascii "4\13\203\311\15fFf&\220jF\210"
	.ascii "0K\334\224I\226\20\205L\27\370Y@\204\4\203\4P\236\225\301z67\232\332\200+\33{\31\221\24\263}\320\203(f\4J3O\360C\330\4\246A\2\314<\214@\355\314<\14"
	.ascii "0&;\3\207\0\320\201 \307B]\307\312\7V\13T\315\361\204A\177\277\32#3C\346G&\306\373O\316_\344x\301\364\223\211\23h\334"
	.ascii "2F)\6\206\14\10\5"
	.ascii "2Zh\306\5\7\210\1,\13\344\5@\246\260\360\2\255a\0\32\2\263\21l\11+\37\361\242\214\\\300\0b\340dP:\302\6\344\333\255{\227\12w\"\3\0\323\360+&"
	.text
	.section	.gnu.lto_.pureconst.f43a773b,"dr0"
	.ascii "x\234cf``\340e\200\0"
	.ascii "6\6\13\26VV+v\11\16\11NS\0\7\217\1\24"
	.text
	.section	.gnu.lto__ZN3stk4hash5crc3211reset_CRC32Ev@0.f43a773b,"dr0"
	.ascii "x\234\215U\335O\\E\24\237"
	.ascii "3s\357\356\335\275w?\302Wa\11\322\10\11\361\245$\325G\37\374\33|\361\305\244\32^\232"
	.ascii "41\215\365\25{a\327\225\7\3d\203f\25"
	.ascii "1m\223R\332\345\243PT\300\212\213J\241X\332"
	.ascii "4B\267\350BQ\201\264\11i\300B\227\265\320\365\234\231e]>L\272\331=;s\346w~\347\314\357\314\235+\330\301\317\24\376\6\235\214\35\305\177\360"
	.ascii "1\340\255\267\31k08hj \324`\314\320\270\330\234d\314v\353\355:\263-\35,\362\203\203;\233j\320k\220\265\234\340Ra\306\356\300\5^\25\357\345\216\341q\212"
	.ascii "7\23\6\"M\25?fX\334\335=M~\317\22Z\313\255\360\340\1\240\177\6\354,\27\232\356p\32.\257i\271=pV\323\30x\351\213\37\213\201\315\345\17?\350"
	.ascii "4\350\213\237G|\235Ck<\26"
	.ascii "5k.\332\266\275\26\231\35\264\354\266w\322\210{\302\325\306\241\23j\30\242\326C;\11\323\21B\224_\255\301%p\0c\2\327f\356\377\25\326D9\20n\270wc\332|\310\323\34\216\322t$2\31u\320\224k4\355L\14\364\371\252\316\333v\343b\337r\263aO\236\13-f2\225i.\240\13\4\362\302e\10\300\25\10de\207\30TaX\362\363\305-MT\310\4C\17"
	.ascii "2\233NI\21\37=g\277\21\272`?\317d\200\30\272\17e\350\221\14\15\255\203W|\242R2\254\316\257"
	.ascii "7\273\24\303\315\275\14\275\207"
	.ascii "2\364AU_A\334\316d\256\315FnU\37{\11dY\\.\10\231@\223c]Z7Ks\315D\243[d<h\34^4N\37\32\303O\243\2IP(C\213dP\261\264%\204"
	.ascii "8B\246\224L\231t\6\244-\227\340\12"
	.ascii "9fl\11\33`\262e\316\231)\222\20^\34\217\315"
	.ascii "9\366\366\210\22P\204\304S\253p\37W\321\"\352\253_\233{y\375"
	.ascii "3\273\311"
	.ascii "6\322\334\365\204c\23\241\37\352\17,\271w\250\315\350}\260t\347\256A=t\313iWC\350K\350\200\366\6\233P&\14@=\\#\265pm~\351\237\267r\361"
	.ascii "0\210"
	.ascii "0\231\25\276FLu\0"
	.ascii "7\223\346\26\373\15\32\327\326\222\27\\\264\264?\251g\207\352\311O\352"
	.ascii "9$\251\200o\220\360[J\12C\350\316\307\13\364\15\343\312=h\214oN\25S\22)\306\260l\350"
	.ascii "2\256w\200\300\22F\326\347\33}\264\232\342n\214\377\254efH`\25Q\342\367\356\240\264{\252\360\312\351\345\226\266!YE+\241|0\202U|\227\335\372\375GM\323Zm\217\355Os?\\GT\212v\202\305|\17\265\264\345\205\217Wu\225\316\304\214\350\11\266"
	.ascii "9\324\334\302\350\353--\343NJ\244W2\30\205\0\242\10\222\14ok\12\344A\320D\307\303\1\215@\370\340\301\17\4\262\24\363\214S\201\274\210#O\4\324\334\367\277\362\356\327"
	.ascii "3\236\323s\14\335\224z#[\235_\322\372\376\243}a\316\37s\234?I9\374D\33\11\337\213\35W\314\5\250\20\206\335\375\242"
	.ascii "3\350\223\235\303]\375,;\307w\273\206 \331"
	.ascii "4\215\341\365\200\35\365"
	.ascii "3\345\5"
	.ascii "6\13\241\333\"[N\377\371\337S\202\30\14\274\333\306I\27\251\374\12\0u\235\17\351H#\242\2yt|`\320_L~-\231\350\6\364"
	.ascii "9\30^\270x\"\202[\341\347\261\17Ui%)\256\313Z0\315\\p%+gI\366\20QEN\226|\231\202\26\302\311l[\217PLu@\12\365\307k\312W\372\302b\335\310\211"
	.ascii "5\221m\300\323\360F\266\255e\222\274"
	.ascii "4'L\37IP&\313"
	.ascii "0re\334\350\216f\313\14d\13\331\3W\207\337%\367\252\204\224nM\365\344i\354M\25[\236\302Z\362\233\320C\250r\22S\303\234\316\355\304\226@2\343\223\271\253\34\371\274\14\337>\220\307\247"
	.ascii "35\221a\202\344\233\16>\373\364\25EN\357\212\324\366\304G\252\333N\6\223J\316\25@\316B7\36\221r\27N\260]E4\321\\\324\36\223%\14z^#\375\313\221C\257\214\334=\265\377b\272\231w1]\312<\376\333\300\247\323\266\343\257\223\334S\362D\312w\34\374\2\265T\270\24\342\361\356\341\254\300\325\203\247\261B\252h\261?\15\310;\215\\\356S\250@z\245F\333\323\243\362i\26\31<\323\267vw\311S\274X\307\264\25&\261\270ic\350-\244Se\255&\272\370\12\24a\274E\213\36<\250\13\320\260xq\304\245no\272\364\201\231Xq\351\311w\317\234|\373\314\7\247N\320\340D\335\373u\257\36?Vw\372"
	.ascii "4\203\367\340\24\324\375\13\357\267\237\222"
	.text
	.section	.gnu.lto__ZN3stk4hash5crc3218calc_CRC32_bitwiseEPKvjj@12.f43a773b,"dr0"
	.ascii "x\234m\226\333oTU\24\306\367\332\373\314\231\351\364N/\364B/t:\264@K\351U\37\370\3\214>\370j\210\311\244\251$\30\"4m1\276\20\246\323\241(\326J\320\7.\255\266\250\25\271\24\264T\332R\245\32D\210"
	.ascii "8\204\240"
	.ascii "5\22S1\1\254I!\340\220\226\252\265\256\265\366Lq\317t\222\231Y\347[\353[\373\267\316"
	.ascii "9\263\317(\21\377z\16\337\325n!^\300o\260\5\310\375!!\332]\22,\35(\35|\345\262\244\352\372V\10\277\333\21t\12\177\222\3\200t\1b\267T\226\3vKK\300\"\276R\271\355\37\362\241\204\321\301G\337'N\313y)\212\5\36\216\35\270|\320\246C\260\350p\340\303\231=\316\262\217\374\376\300\203\257\37\216d\355\177\267\17SR\204\245\200\1\310\203\217!\217\332\37\203"
	.ascii "2\254\275\24\356\355\260T>p\233\376\300\230\362~\200\276\211\221\16\353\231y\251\340\23P\377\267\241$\340"
	.ascii "8x\261\370\320\233"
	.ascii "7\376q(/\33\3\17\346\16:\321\270?01\315F\13N\304\32q\210\223l\14]\273\320\5\252"
	.ascii "2b\34{\303\322\306S{\310\350\200S\261F\207\200A\360R\365\303\340\302O\211v\320\357\367\247\321"
	.ascii "08\303i\260A\10\205\271\205\201\337\256$\250\247\271k\270{\272\313\345\351\307"
	.ascii "9n\35\372}\237\313\177\271/xkq\261\10\317\1\234"
	.ascii "1\273\353\27|\12\36\264M\276"
	.ascii "5\364\215Km\342\26C\241P\320\346\26}G\366ZK\15l\370l\331\6C\334\340\350/w\346\224z\226\33\274\375\363\321\14\215p|o\267\201pv\331\16\303\340"
	.ascii "9\275b\302\277\270\30\276\364\316\345Z\365\24"
	.ascii "0\225\344\263\255\200\316\200\305\12\336\35\250\330@'\323\311\13'\340"
	.ascii "9r\272\361\303\225\310\25I\24&s\307\24\26RIH\243\217t>^Aa\6\27d\262\220EB6\207+)\314\341\\.\13t\5\\\371\34\256\242\260\200s\205,\24\221P\314\341j\12K8\347a\241\224\4/\207k(,\343\\9\13kIX\307\341z\12+8W\311\302\6\22\252"
	.ascii "8\334Ha5\347jX\250%\241\216\303z>1\15\202\356kq\33\337\370\323\271\203q\320\251nB\340\257\316\320h\33^\204{\263\27\257$\251\347\371\202|79sF\351+r\330\270)l\370|\271+b\336o\264&\234\303"
	.ascii "7\236p\276\355\360\222\215\200='\255"
	.ascii "9\374ILB`b\250\273\200\24*D\225\245\341P\5K\347Hr\210\233\320q\260sj\364O\320N'js\322\306J\311UCT\345\304\225\357`G\334\20h\220\331}Sc\257\305\220\14\23\301\10\23\214R\237\4\314\377z\373\332u\27m\0"
	.ascii "6\203\17?~\377^r/\34\201y\231"
	.ascii "0\207\267\334\30M\5\347\241\27\20\"0\265wFi\253\33\335\204"
	.ascii "5k\353\343D\226\200\221F\243\263$R\305\343\316\311\363m\272(\11%\\\343\372\341\201\216TZ\22\353a\34\27\300\316?t>\212tN\306\272\245"
	.ascii "6\303\324&\231\332Lu^u\350\202\24\354\2\245y\346R)\324\344@\377&]\222\212\253\274w\243{P\356\372\333\377\272\337"
	.ascii "5/\335\13R_\230\245q\335|x\254=\330\203\263\35i\367S\225\204/`\27|\311#_\320#w<\216\14\230\306d\251<s\347\243\34-\246\263\236b\242\244\353\251\247\242S\257@)~\314\14L\230cf\230cf\222-v\314L\335\373\242S\327d!Q\304\370\4*\233\365L\323\230\255\215w\243P+Q\212\207\312\301\204\11\225cB\345\222-\26*\327\204\312c\250\34\23*\237\365\\\323\230\257\215\367\243P\253P\212\207*\300\204\11U`B\25\222-\26\252\320\204*b\250\2\23\252\230\365B\323X\254\215\263Q\250\325(\305C\225`\302\204*1\241\250S\34\224\307\204*e\250\22\23\312\313\272\307"
	.ascii "4z\265\361\337(\324\32\224\342\241\312"
	.ascii "0aB\225\231P\345d\213\205*7\241\326"
	.ascii "2T\231\11\265\216\365r\323\270N\33/\215G\240\326\243\24\17U\201\11\23\252\302\204\252$[,T\245\11\265\201\241*L\250*\326+Mc\225"
	.ascii "6\206\242P\33Q\212\207\252\306\204\11UmB\325\220-\26\252\306\204\252e\250j\23\252\216\365\32\323X\27\331\301\307"
	.ascii "7\353\242z\332Z\327>\351\316\333|=o\340\226\300\277p\12\237\1iB\313R\350\3n\4\342G\10^\355"
	.ascii "8\321\13\272\221\324\373\276\270\13\200\217\16\331\23\236\306\357:\325"
	.ascii "3?\222t\27"
	.ascii "0\351\220'\303\267\361\273^\215\317\237\5l\357Xz\316\335\37\257\321O\223\6j;\5\221gK\203\240\247\"`\31\356\230"
	.ascii "9[\33[\267\276\330\332\266\315G\201\257\251\245\251\266fCSs\263Hh\364\265\266"
	.ascii "4\371\232\333Z\234\215\276\246\35;\267\267\271\33}\315-[^}y\307\316V\205u\311-\321\2\337\226\355/Y\257"
	.ascii "4\266nKX\222\376\3c\367`v"
	.text
	.section	.gnu.lto__ZN3stk4hash5crc3210calc_CRC32EPKvjj@12.f43a773b,"dr0"
	.ascii "x\234\225V\377ST\327\25\277\347\276\335}oa\277\360U\276\30\24E@\24Dk\246\223\337\222\364\207N\377\200\314t&\323\231\35\7\311\350"
	.ascii "4\2\341K\177\351"
	.ascii "8y|\11\32\245\16%\261\30[-4\21m\242h\264\304\200b\300\20\242\202\20"
	.ascii "4\220@\20!eQ[\354\20\261n6J\350"
	.ascii "9\347.\313\202\230\261;zy\347\336s>\347\333\347\334\367"
	.ascii "4\361\370/\15\204X\357\22b?>C\254\0Y\335#D\251!\301\242\36"
	.ascii "4\365\320nX\244V\365\271\20f\230\265B\27\246\303\12\272R\260\251\207vC\227\306\356t<\267\323\352"
	.ascii "0dX\335s$M\305\242d\207"
	.ascii "0\245\35&m\12%\234Q\302\301\255\366\35\340R\17N\365\320n\270\244\363A7i\306\34\4\324\214Q\232/\272\245C\1D0@\4D\321"
	.ascii "6D\252\277\355F\224\214T\347\321|\36\15@\373\2\304\353R\263Xm\272a\17\13w8]1\356\210\310\250hx\335fQe\320\325\37\267\0\323"
	.ascii "4\223\371"
	.ascii "9J\300,\376\334,\270\4\274@\377\360wG~'\241\271\361\376\325\360\333\322/E\262@\261\245\346\322\1\33\211`!\261\341\275\311"
	.ascii "7\364\364#\246Y6U\363\360QL\365\333ux$\305\264\24\320\0\211p\24\22)\244c\220\216\272\235\323\207\312-\332r`\230\372\262\26-\365]\264k;Vn\371\225_j\360w\320B\315pK\300\373\220\212\312\357\354\275\376\310\252\245\262a\331\224\357\200\216\206\325em\203lh\201\17\26\33Z\4\34g\303\236\336O\252@\313\12\30\266\274iQ\206\207\337P\206'\226"
	.ascii "0l\204T\322\376\256b\346\253p[\5\226(\202\222\301\34N\202\15\11\244\343\331\256[g\233\303\265\347\30\365\364\273G>\262su^ \361\275\375\177:n\345\352\30$\216u\234\356w\244\324#\312\350\310\321N\303\334]\336f>\232\235\325\374\322\12\247\224\363\17\321\371i\256\22\375\340\14\244\314H2\235i\30\273l\327~\301N\246\367\335\256"
	.ascii "2\10\246l\364\366\255=\206y\251\256btvv%\26\32\376\261"
	.ascii "0\205\0J\23\244\240\331\300\37\316|fh\277d\210"
	.ascii "3==\25"
	.ascii "6\206"
	.ascii "8U\263\377\305\266\212\277\231?\316\316\202_\332\340\243%\21\316"
	.ascii "2\302\364\241\373g\355\332K\214\360\345\303~\37\347RV\367\376\233\226`\10"
	.ascii "6\370xI\200f\6\360~\\\377{\355U\266\357\276s\361\274]%\361\301\345=\272y`\16A\207\26\205\220\231\10\31A\373sl_\275\267\266\336\245\225"
	.ascii "0\300\340\211\223\265*\200\321\226;{\27\0\234_\2\240\25RNF\265\231\263\263\347\372Z/\332\375\366g\201\353\"y\325x\265"
	.ascii "0\301\254\274\332x\325\331\316@*\30\16\\\354n\\\302\"\270-Q$G\323\22\13\304\222e\14\21\7d\26\17D\270\4.\33\361(|9-\317\320\222\304\245XAt^\211\213#\231\226U\234\337jFH\301\15\347\32RMe9\215\3I\347u-\207\223A&\353hY\317v\231\254\227Ev\33\310.\233\345\215l\261\211\237"
	.ascii "7\363*\304\270\244A\37\307\201tk^\234\247\203\240\15C\305\250\327\327n\303\202\336}\320q\331\241U\0W\267k`\362\224\306\325\235\272\367\326\11\250"
	.ascii "6\353\312\376\210\305{\236"
	.ascii "9ra\251\26/\234\222\0s\311/|\202\377\261\22\224"
	.ascii "8\305\313\263\203\35i\303\25\215\16_\337\327(w>4w\233\206_\272\246%N\25\264\303N:\272"
	.ascii "9\336\333g\320\370\340U\4\27!\321/#\320\221\27\347\22/\207!\270X\323\354o}\211p|\322\261\30)rF\252\240\202 \221,~k6\370\365C\360\347R\263\24\265\242\340S\330\11\35\224\4|\6\207@\364C\305`\271m\36\263\264\341\\\225N\326v\324\350\14$\353\225V\254\340"
	.ascii "0\224\233}\1U\367b\367\321\323Xe\1\237c\"~\31#\206\240ldWw\242R\216@}1\0\222$\252\23\356\10\312\246~\22h\353\211\231,\16\375R0\364\313\30:\241|\3f\371M\235+\213\277}\300\261\332\2}6?t\375T\315\257`\250\241E\326\347\212<\326-U\334QO\35YW0\262\356`Q'\334\1\224\220"
	.ascii "2\32\242_(\37\303\1\37\321O\355\343j\320G\317c>\242}\234\4"
	.ascii "1\336.&\5\222=\214\262!\35Mi\30\241\314"
	.ascii "0\20\244W\5"
	.ascii "5\1t\322w\260\241\334\315'xK|\1\211\6\237\333)\344p\354<v\363\207\312\316\13\207Aa-\363\311\330`?\233\250\237\313P,\33\365\36\275\306\35\247\1\360\311"
	.ascii "81\14\225m}5\251K6!v\32\347Q@\37"
	.ascii "6\1U\361\332\300\177~\304\31\202\362\3\225=W\356\5\\%\340\241O\306\7\275\235%\344\4E\257\201+\207u\245\225\250\366\312\277\17\260s9n\241\303\336\273{\272"
	.ascii "5\312*\356y\1\327"
	.ascii "0_Ty\273\362~\202Rz\206\355\226\23\326\327\273\306\223\324f\22\356\7\235"
	.ascii "5\223\263$Nc\360\332O\246q]\315\357\202\243\370\31\242Yh\331\343Y<VZ\361\27\340\276\222V\2|\211}\355\247f\340\331\215\361\37~\35\264\207\1Tc\257\360\25\352`\211\326p\211\250+\16\342\270\252U\327\220m\321\13[\315\303\342\315\257\371\22\32\244,W\370\244"
	.ascii "5\364\345M_<C\30\2fj\336\260\221\316\223\22\375\206\373\265b\276_\330\367\266\377\326d.\272\14[\351\326\33d\207\303X\310V~\231\5\353\200\237`p\203\351\347\225N\201\337~\32\367`\244\13\273>L\361\255\364a\351p\357A\230\222\223C\255UjM\337\377\365\256\23\253\210\367\263\356\303o\231\21\236\214\233"
	.ascii "4\31X\226\7"
	.ascii "6e\270\212\261\222\271\243\24\310"
	.ascii "9\352\350*\322\30\251\354HP:\253\321Y\350\247\213\23\311?\212hs6L\360\325\212r\35I\312&\200R\326\22\10x\315\23\233\277\270\333c!\335>:\373\237{Fv\26}\307|\313\27Z\12\277\271\377\11\331\234Cew\300[*:\240\20\26D\224\252Fe\242\353e\245\224FU\310\230\17\233g0\215\224j*\7\272\244RZ\353\223z\350\270\353"
	.ascii "8\356\343!\271\266\222\321Zn\214K\340\347\264\206\355\215\20j[\27J``K@\340P\370"
	.ascii "2\272\252)\27z\350\340\351"
	.ascii "8x\336\271\213\6\23\224\16\\R\235\347k\275\256\11\260 \13INsv\327"
	.ascii "6\301\4\350D\12\307\361\332"
	.ascii "1\211"
	.ascii "18\343\361.\213A\226\203\27_\36x\227\205"
	.ascii "8\267\206:\227\344\274\273\334\233J\4\307"
	.ascii "3\232Xv\207(\313\302\33\277\350M\307\0c\20\36O\342\302\33/\324\364\243KK\14`\212\21x\265\241\342f\4q\243\2*Z\335\264\37\251\206\13)\371c\327\334E\224\341C\376+J\262\274\356"
	.ascii "1\16\332\2\34\234\230\347 k\256g\343u\301[\205"
	.ascii "9\270>\310A\326\311D\364 \351\202\267jf\220t\254\224\245\314\210t,oxj\322\335Z\232t\267\231tYL\272;!\244c\364lt@!,\210([\221\256\263\373e\245\264\221\322\316\230\17\233\333\263\221\371\23\205M\203\220\246\331B\233\246\251\246=<\22H\205nz\325"
	.ascii "5\315'7G`T\331\221\217\230$x\222N\362\306\310\252w\232\250"
	.ascii "9\321s\357\243\332\273w\2\275\330D\200\13\342\334D\337\27S\247|\343\332\377\365\201\361\257\340+\366\337X\232\320K\307\212{\223x2\2\245m7\337r\4\374\362\13\27\204\33\341\342\267m)\332\366\233\242\342\337"
	.ascii "z\350\301\223S\230\263\371g\33r\12\12\204}\213\247\250"
	.ascii "0\307SP\\\250o\361\344\344\227\344\25\207m\361\24\24\346\376n{~I\221\335\343)\311\333\376ZI\356&\15-\234\205s\252\236\334\274\255q\13$\317\216\374\255%\257\346{~\376\254Q\220_\264\275x{~\236\13Q^\311-\316\331\226\273\325\223W\262\303\36\324\327w\274\222\233\227\223+\376\7\22\326\7\7"
	.text
	.section	.gnu.lto__ZN3stk4hash5crc3210calc_CRC32EPKvj@8.f43a773b,"dr0"
	.ascii "x\234ePMKBQ\20\235"
	.ascii "3\367\371"
	.ascii "4\\\24\255\302"
	.ascii "6\21<\334D\213\372\23\375\210\340!oQ\20\224\250-\243\227Z\4\201\230\264\260EQ\364e_\272\316\225\253hS\21.\"\210\204"
	.ascii "00h\241\30\210T\330\\i\21ua\230\231;\347\234\371P\364\377\5\304\246@4\"\36\212\300\351\33\242%\37\3: \320\"c\21\257\334`\\\344\337\257\375"
	.ascii "5n3\15\221\244\305\314U\326\324)\14\235\36\356\277-{\203\7\256\33\257?Wvz\323\33;Rbj2\341\20\1\34AwB\16A\301^6\267\22\206\32DWf7^T\326\236\360J\271\204"
	.ascii "1\321f\205c\250\337"
	.ascii "4\371\"\234\300\22\360\346Z\371\323\243\254.1^oe\275BL\307K\17]\242\201\323\277D\203p\6K\243\33\311\257{\277\231t]\267O\317$\243\234\303\224\275\251\320_r;\235f'\223\33V\246\254-\215\24"
	.ascii "4\313Cz~\252\212\351S\274H\"^=b\245\264\236\12jz\213=\242\274]N\345y\341\303]u}m\366"
	.ascii "4YD\221\307\2\265\230[\254\4P\251\336\336\371j\335k\20\12\10\264\331\244'\340G\201t\13hi)\17L\207\242\323\223\321\330\214\255\3\333\211"
	.ascii "8\343c\243N8L=!;\32q\354p,\342\15\331\316\334\374l\354\33\254"
	.ascii "5\211\333"
	.text
	.section	.gnu.lto__ZN3stk4hash5crc3210test_CRC32Eb@4.f43a773b,"dr0"
	.ascii "x\234\245\226\11LTW\24\206\357\271\357\275Y\336\14\233\210\230"
	.ascii "1\226I\250"
	.ascii "1\246\246Fm\265MjR\273X\273\331\315\256i2E\244\356B\207\261k\210Of\264V\242\265(.U+j\21\265\10\226\272TKe\0\265h\5\27\24A\251\242,\241il\300iB\306\245\323s\356c\304\241"
	.ascii "3&\306Ix\357.\347\374\347\236s?\336\275\22\373\377\257\20\377\234f\306V\341\33\242\30\360\345\265\214-0q.\235\31\300"
	.ascii "4U.\33\313"
	.ascii "4\253\4\262>,\203B\15P\270\341\202\212\323\246=U\14\347\15\334xg\327\10&\335\334\304\255E58\242\232[i\334\252{\217"
	.ascii "7sK\331\3"
	.ascii "8\252\236\31\201\243*Xtk\13\0"
	.ascii "5\30\260\371\\\222\25\203\321d5\253\26\230\317\25\6^\317"
	.ascii "8\375\201\277?y\27\207\222\353-\371\362\320\2M\313\356\334\\\276-j\331\312\17\374\234"
	.ascii "1\37g0\334\6\303l$\263\25\206\242a\347\337WV[\245A\300\260}\272r}i\314\220-\350\344]Z%\15D\17(\4\251\327\311\317\201\301"
	.ascii "6\30B\266]\236[\347,\6\217\246i\261$\213z\333\301\0\214Q\360\215\271\337\27si\230\320\374j\347\341\265\306\16\356\347<\337@\375\226\303y\15"
	.ascii "1\324\227\246R\267rg\366^K\362&\315\253"
	.ascii "5\7\252\24\357\202|\355\337@\0\374\\\206\35z\344\37\300\6E`\353\331\16\330\11\311\350\265\372\304\271\211\322CB\177\177\361?5\26\241o\247\356\201\334\352"
	.ascii "5\6!/S\267(\247\"/\6\345"
	.ascii "5\315\273#_{\322\23\224\7(\326\345KP~W\257\374\217\220\\\322\317\253\5\2\276[\337T\17\345"
	.ascii "6\20C\34"
	.ascii "3g\12P\352*6\25\13>\14\321\324\212\243G\274"
	.ascii "0J\20\317D\232b\254\25+\202{\332\306"
	.ascii "9\276\244z\310\366\6\276\34\34Z5J\205<D\341"
	.ascii "0t)\226\17\273\220lcg\301\323\350\336\262\22h\254\233+\350w\251\365\304)\23\245E\213\374\251g\275m\\b\203\245&pk+\204)%\374]\335\262b\236uC[\254\231\374\334\350\303\15c\260\33\262pU&\341!\323zX;$`\34~\263\274\3\360-\321\204\302\20.Zi\254\310\243\33=\233`\241"
	.ascii "7oIRXi\263\17Sc\260\7\245q\252`\323_\35\200S\32M\251\"3r\202\275\220\205\263\245\7\33/\253I#7hk\354~n!\373\365\353\274\25f\264_C\366V\330\7z\20\370\31\262\374<\12\3{\274\253\217\15\321\323W\373\206\216\366a\336\14\366\337\31\372\213\220\260\7H&\206\325\3\247>\32\35\361mp\313\322\23\2\230\256\362\353-@Hd\347_w\313\325\232\247"
	.ascii "9\20H\362\363X\370%,\21e\2\270\336\4\363s\224\220X\277\342"
	.ascii "2z\3\255\315\251\273\251H\23D\240<\255}\32\306Y\36\32'\16\16\206\215SN5W1\365E\315\13\257t\311!\254"
	.ascii "4\267mn\224\311\202V#H\361q\271\357?!x\5F\25T\263\304\276"
	.ascii "5\353\347\343\212"
	.ascii "0\200\312\310e\253\202,\275\334\267i#\301C`\363\363xb\262\301m\320\267\204\344o\25\354\253\217&\33e\353\265\223\227\254\14\16\353\271\264\3t\363\4\31\37\361\326\242\272m\200h\31\330\5U\"\230\326\36\33q7\230\216\334\35\246\337\4L\7r\256\25X\222&\351"
	.ascii "0\365'{\367\321U\353MA\230\22\240:\10\323\321^\230\326\5a\212\216\0\323\261\310U\371\275/L\367\10\320\361\276\0-\15\5\250&\4\240{\203\246\226\240\211\216\0M\301\26\204\6-h\5\21\241"
	.ascii "9!\240"
	.ascii "9I\265\261\204\205\206\14\340T\344\362\234&h\242\303QBz\353vu.R\4%\245"
	.ascii "7\366\325\232\31\324\335\376v\31Y\31\10*6,9\24\376\363\325\203\305\231\273cqV`QR\320\224\230"
	.ascii "4S\247b\0\231_]^\230\247\4\251H\204\372 \25\347z\251\330\30\244\".\2\25\15\221\323n\274O*\316\367\245\342\353P*.\334\7\25MDE\\\244O\11Q\201\26\264\202\210T\374!\250\270\30fO\4\23"
	.ascii "4\15\227\"\27\247\231\230\210\13"
	.ascii "2A\233m\22\247\313yp\347.\252\337>Y\257z<\236"
	.ascii "1\360\240-\230\246~\352\10\204j\334\205\301\303\17"
	.ascii "0\304\371\233\235\13\243\10\"(\247k\316\345\236L[\271\225\341\365\11\332\270\231\16"
	.ascii "5\364\253u_\355\337\243}\207\225\312\306Imx\356\264\322\2*\33\24\21L\277Gh\25\215\335\206"
	.ascii "1\273\265\305t\343`p\5\306\260\213\260 \226u\23x\355@w\231S\337nu\213\373\12\336\273\240\5l\346\16#\35\300\352\361:\27j\3\252\242\351\300\351)\231\323\337\317t\315rP\303\221\352L\35=\352\341\324\214\14\26\225\342p\246e\246\271\34\256\224)\263\323\300\245\270f\314I\313TG\216\32\375\310\243c\306>\366"
	.ascii "83\247"
	.ascii "82\235\251\216\14\227\323\230\342HM\237"
	.ascii "7\327"
	.ascii "5\350\275w\337y\373\255"
	.ascii "7'\277\361\372k\257\276"
	.ascii "2\351\345\227^|\341\371\211\317Mx\366\231\247\236\36\317\206O\236\236f\377h\336\214\324Y\366)\316\364O\346\332?L\377\324>s\336\234\214L{\372\307iN\273\13\247g\247|\376\231}j\372"
	.ascii "4\366\37\207\262\211!"
	.text
	.section	.gnu.lto__ZN3stk4hash7adler3212calc_ADLER32EPKvj@8.f43a773b,"dr0"
	.ascii "x\234mU[sSU\24\336k\357s\311IN\32\240-\264@\351%\4\306Q\304\313\14"
	.ascii "3>)o\216?\300'g:\265>0:(\226\372\342\13\307\244fP\253\24\6\231\"T\213@QAJ\205 W\33.b\271X'\4\212e(\242\266\231TS\7\244"
	.ascii "4\340\24\342\332k\237\320\224\366\314d\235\275\327\376\326\267\256gG\260\251\317.\374\365y\30{\11\337\340g\300[z\31{\317\303\301P\13\1\232Zh\334n\376\211"
	.ascii "1\307\253"
	.ascii "7\231\314\261m\245_\256+\340\11\217\301\205:7\351\334\344\236\265\213qgIi{\300R,\26\367^Z\212j\337\261\5\250\366\202O\251}\0r\301\200\255\341B\263u\303\364X^\37\254\21\206\212Rc\220\303'@\233a~\213\303\341\275\243?\373\322\374\36gU\14\267G6\364\264\32r\13\232\334v\354\310\274o.\336\351"
	.ascii "8\341\233\27\367w\5Z6\266\343\21g\267"
	.ascii "9\203\16\230\13\273`\256t\366\25,F\354\231\333m\21M\314\3\242\331\26>\"B\333\321.\276'\242\275x\217\13\370\32D\241\31\252\30|\3!\4o\376(9\256\213\20\31\206of[M4l\11\307\7\310P\203\335\217\32b\22{ $\321\267\232\356_\361\31M\216\343\314\220"
	.ascii "1a(\337\202\1\230&\236\375\331\274\276\213\213%\304\232M\365\376\25\10n\223i\374\333=\2-N{x\275\223\313=\17\230\14\354\235\314\257\36\350\204 \32~\236\276v\10\304R\"\331r\350\273\377\274D\22?\327\356\274\320\364\245\363 \227#\206}\323"
	.ascii "2t\21\303@n|\235\20O\23\303\361\263;\377\326\211\341\306\332\221O<NO{\323\215\\\256RR|7-\305~\242\350\331t\343\327\200x\216(>\335"
	.ascii "1\220\364\23E\373\7\37k\5\4\7\246%\210A\260sV\34S=z\253\377\244\265\307\277\10\250\350\234\244\240,5\222:I\203\242"
	.ascii "6IzHZ\24\204\227\230p\270\320\312\6Y}?i\212\350"
	.ascii "4@l3\261"
	.ascii "3\372,\24F1q\225\220})\341fK\365\34)\312\244('\200l\245"
	.ascii "1O\212\371RT\20~\201\\VJQ%E5)kH\6\311j\241T\207\230\234B6\210\277~\306\206p\335\317D\37\204\343\367\257<\201E\32\31;}\326\26\313\251`\347\373"
	.ascii "2\373\204\352\332\356\302\256\231pp\272\212M\36*\370\36\202\322\251t/3\225\271\320\214ai\17\341\244\341q\226\373\230\364\234\273RI*57\211\317:\"\1\371\31q,\370adG\210\323\6\204Ps\361\333\340/\11\17!\220\353\210B\304\327_]D\220\375\222\327f25\301\232Lq\25\"}\321T\372*\21d\271?\313-\244\370\360\264\323aI\12c\357\343\14\216\22\7'\373\230\264\367"
	.ascii "34\333\30\375'\375\256\262*B+\251\315\203\310I\21"
	.ascii "9\321\30\336\32\262\200"
	.ascii "3\230\262\365"
	.ascii "2\265\351\222\33\303\335t\312\215p7\224:H\27\255\321\261\364"
	.ascii "17\262\0\352\340\261\211@\10\25@Tx\314\253\20"
	.ascii "3\13s7\251\340\261\273_\214\370\333`\13vE\227\366\307d7\340"
	.ascii "8\264I\372\360uS\31\316B[\351n\203\241\366\305\244\22\17]Qt\305\204\210\216\272\230\22\14^*\363\30J\247Da\6\335\220K1[\14\342A$y\20\250\37\352\202\204\37\36\255g)\273\14M\375\302\265\242\236\341\223\2\310r\274\336"
	.ascii "0M;\355K\201\310rM\356\212m<B\240)7%v\332\237\2/V_\\H\304\20Rjg\22o\343\374\332\14\357z\30\342\272\333\345\273\321"
	.ascii "3\303/+\17\263\221\3\343\332\30\353n\15\270q\341\7\333\215^\21w=zIS\260"
	.ascii "9\12v\376\217\273\267m\11\363`o\342\12\264)zAW\240"
	.ascii "2\304!\250\363\307\363'\351r\307\226\300\11\5\332\20=\355\26\270\234|\226M.h9\243\250z\363Q\315\305d\246\6"
	.ascii "1Oj\247x\235\217\7S\335T\20\311\374\311=\251\240"
	.ascii "14\330\200\351N!\15\247U8\205f\341\24j\205S\310\251"
	.ascii "1\221\316\3nG\255\211\336p\374<y\246{\10\337\1=\223\270\307S\240\311\357\221\217w\337\307\276\224\353\315\311\337E\12Li\201\272\303\210\253\320\267\222\16\277\25\233"
	.ascii "7'b\250*\322\257%\356\0\6h\312{\206\12\222\32~J9[\200\221M\24d\234+m\245\324>,\310\250;4Ux0Q\220\214[\246j\"\251\232\\\220j\231So$\233\317\251\32\333wpx|3\375U\363\233r\24N\272\227\326\20\367\260%\202(\307\206\227)x\215\262\350\331z*\251\32\276\316\31\227C}\252`\250\311O\15\21X\356\375\231\257\265Gy\337\36s\275kyg)\360 \263y!y\7\313R\343\311$W\242\265\227-S\356\317\275\256\340\262A\223\\Q\317\202\344\312"
	.ascii "7\341\212\264\272,\306\265\350E\327t!:\317\27n4:\350\226"
	.ascii "3D\7:\273\16n@!\31\12^\26\232\205]\14z\267^^\211\37\23 5\336\246e+\352V\257xeu\343\33\265rQ[\337P\377\354"
	.ascii "3O\326\257Z\305\254\272\332\325\15\365\265\253\32\33\314\272\332\372\267\336y\263\21\352\340U\363"
	.ascii "5\265"
	.ascii "6\33\325\333j\310\243\376\7G\262\3f"
	.text
	.section	.gnu.lto_.symbol_nodes.f43a773b,"dr0"
	.ascii "x\234U\214\261N\303@\20D\347n\31r\30\210\374\11T\374\346\32)$\222#\5\376\200\304\34\20 \12\320\"\321\201D\5\35\25H\20\271\240\240\311\17 \354\263\221\316\333\354\233\331\231\25\0\231A3\366\214\12\34\277\0\252\230L\35xJ\314\254\202\5\315\324\252\360\212\266\336\366\202j\342\240\235Sm\247yK)\352\344"
	.ascii "9U:IO\335\350\30\227T\306\206YR7\33\3YV\351\33j/\326wT\27\353\5u+\326\327\324$\322\202\4\376\363\367\300\10\267\341\277\237\26\251p\7\203\257\177g\370\361|h\205\11\312\374\347$\15"
	.ascii "0i\301\37\205[\217(\302\3\7\254\346\373\342\372(go\343\221\25\267\213\301\260\274_\357\211#V-\365\341G\257\313\346\372\330R\365!o\250\352\346\357\17i\250\216\3T\315\32\360\7\321\17r\254"
	.text
	.section	.gnu.lto_.refs.f43a773b,"dr0"
	.ascii "x\234%\307\313\15@\0\24E\301s.\236obee)\321\203\366\25\240&\22\263\233\6\270\370\365DMhZ2\232\231lz\370m\35:*VOM\324\22w<\361\306z\340\5"
	.ascii "4T\2\341"
	.text
	.section	.gnu.lto_.decls.f43a773b,"dr0"
	.ascii "x\234\235\233\11|[\327u\247\371\0\12\222(JJ\\\327q\325%\256\223\270v\223X\361\32'\323i\344\270N\334\324\261\235"
	.ascii "4ic7\35\306\221"
	.ascii "5\265\22\307I,\331N\322\231\6\334\301\35\334w\22\334w\22\334w\20\\\300\235\4\11\22$Ap\1\367\235\4wp\1"
	.ascii "1\347\236s!\222\226\224\311\14\177\372D\336\207\363\356\375\237s\317]\336\303{b\7\7\207\207\305\16\16"
	.ascii "6\370\271\361\242\203C\35\374}\26\216\275\16"
	.ascii "8\1%@\25\220\7\264\0\255@7\240\5\364\300\0"
	.ascii "0\354@?\27\200"
	.ascii "9`\15\330\0,\300\21 \26\34\34\34\1g\340A\340\21\340qv\14>{\4\332\373<p\15\370\216\330\341\324\17\253\353\323\\\313%\300\231\353x\10\370\16 q \255\257\0\337\25\223\326b\340U\370\373"
	.ascii "5\340u\340I\340oy\275\"^'\323\"\376D\333'\177\326\270/'\333\374\26\360\6\330}\17\370\276\230"
	.ascii "4\260v\37\347m\261\37\201\237\313~\177\376\23u\262x\\\271G\235\254\276\227y\235\254.\26\313\7\201Gy\375v_\377YL\375p\26*\377\1\374\375-\340\207\300e\201|g>?$\34\307\200\375"
	.ascii "8\362v\355qg~\263\30\260"
	.ascii "8?\362\11}\26\36\313{\351\373\27`\331\341"
	.ascii "8\206\26^\357'\177X_?\354@>|\347D]o\212\311\27V\347[\360\367\30\374\376"
	.ascii "7\370\375c\361q\16}\1\264\375;\224\377\\\270\273]{\276\331\363\217\375Hx{\254?\37\347"
	.ascii "9u?],\377\316\337\307\267\307\271"
	.ascii "6\26\377\357p{\201\237\363\311\237u\221P\231\277\325ua^$\\rz\204\25\253BZ\243$Ptvrd\305:\225\245\331I,\22\330\337S\352\340\251\13_\312\226J\245"
	.ascii "2\251zH8\256\302"
	.ascii "5\275\332\377,\234\363\212\23\26\307c\367R\317c\221\15\301\313pH\24\324\334\34\343,<\346\224\12'\233s\225Y\202T\352(\344\11NB\246 \26\262\204/1\211\354l\366#\223J\335\330\277\363\255\227\34\204t\341\212\220!\\q\20r\205\307\320B\310\206#9p\4\32\222\247\17\265HP\272\364\32+wt\344>\214\322\245\347X1\260#\246^\214e\33\352O\364\317\214\270\350\4\325Ky\365\360\311\235\6\34\204B\201U\377\370\25AI\265\7\255\37\355\235{@\316\254\341\277GnC\363B>X\27\240u\221\360\200\375\34f\\_4\320)9i\314\234\273\257u\333\276\367\232\223\263\357\261\243B\261\360\300\11)%\202"
	.ascii "3\366\32\374\6\353\242\224\264\262\363\350&z\231\32\36\221{\6\335B/\303\314\25C\347\305\377*\234\354\210G\251#\366\274}<\234\260h\263\377"
	.ascii "03Q\305z\245J\20\234\36\303H\313\335\244\237v-\374\13\7\241\24\232/c\241\256\206P\263\32\204\12"
	.ascii "8R\11GX\257\231\206K\204sB\25xU~\334e\217\362.c\307\241\275\326\234\370\237\210\177\302\232p\\\353=\254\274(\\\271\342\364X\24d\213\345\263B\35\370\316\376T\317\333l\277\347b\202\316\342a\354\21S\260T\374\260\203\360\245+\302\23 A\15\22\352\260?T\240\241\226k0w\211=\4v\\\250\21\304\247\263"
	.ascii "862\177\355\214\23\257I\366\7k\2\353\306\326$\343\31\214\250I\304\312\303\332\302\211K\30\322/\261bRuw\335"
	.ascii "9,~\21\207D`\364\13\367O\33\215=m\232\250n\357\31E\222\350"
	.ascii "8\23Ho\3\230"
	.ascii "7\242y3f\202\306\236\11\223\207\375\17\236"
	.ascii "4\256\277\257\261\320\"<\0'\370\325\214x\\8\225:-\247R\247\225\247N+\246\216\321'\330\375\22::\204\11\322\276"
	.ascii "75G\271\363\347\254xTX\267\353\214E\312\370\215,\245\363\375=\355\264{\332A\236\366\353\312\17\356\362\264\15\314\333\321\274\13\305w\332=M\310Y3:~\322\325{[\13\335\350\352`\252"
	.ascii "9\360\264\253\335\247\\\325rW\265\350\352\234jY*BW\337`\315\5\354\257wQ\227:\261\342Pk\344sX:\317J\6W\343\316\245\373;\332gwT\307\35\225g\247^\376\244\243=`\336\213\346\375(\275\317\356h\221\274(\377\302'\35\275\267\265\240GG\247\7\27;/\236rT\177\312\321\1\356\350\0:\232\256\236\357\20\211\177\215\303\314=\341H*\26\36\273r\376J*:#w\24\206\205\363\302\340\251\341\21%=\307\216:x\263\332M\256\362O\375\372\316\350\30\202\321\301>r\20\14\320\232\21Zcc\224\314\331\177\320\\w\200\177\231X\374\21\246\217\302\\hvv\24"
	.ascii "9\10#\330\0\34Ym\15\222"
	.ascii "9}&\34\307\235\253\364S\202\360\372CT\267"
	.ascii "0*8:\10c\302g\240\356\267\34\311x\255\241\316\307Y\354&\270Jq\251i\212t\317\276 \16\264\27\245\322\240\376\313\342"
	.ascii "0{18i,\346\202"
	.ascii "8\332^T\227o\27\234}\"C\252\220\232k=\233/\263\365\3\232\232\274"
	.ascii "3\27\335\231\11&7g\373\316\221\241o\206\327\347\271\341\4\30N\11O\234"
	.ascii "4\254\17\331,\241\32\325\213RX1\230\231\11\314\246O\233"
	.ascii "5\255\254\307\235\27\33\4\14@\257\317\332\344\331G\22\244&\245\331\232\221\375\346\264\253\324_j\262\331>\213\236\12\343p\366\14\235-\314\362.\20\346\204G\356\31\271\360V\245\354"
	.ascii "2\34q\300\245\342-\\m3\365\207\271\222;\307\26\4<\350\241\336mt\302\203\337r\26\26\351X\224\246cI8\31vfOq\237gq_\306\270/\11<\360\311"
	.ascii "5a\313\202"
	.ascii "8B\304c\231"
	.ascii "63\233yA\234E\253z\346~\250\372\14\270\244\0\227\274\247~{\307%\26"
	.ascii "8\250FX9\341\324\252\335\251"
	.ascii "5t*i\304o\343\202\330`\257"
	.ascii "6\335\266\225qF<M\325v\307-\5\210Y\244\24\12C\213"
	.ascii "8J\252\266\331\276\201\365\231O\324\267n\257o\343\377!HS\265\201\341\347\354\361\330\242x\214\6\225\250.\335;\36\233,\36;\30\217m{<J\333\224\3\347\304\376bT\32\23\322\242\22H\351\221\206\224\326I\5v\312)\255\273v\255\226\373h-\350\367\374"
	.ascii "2\312b#\220\244\246\245\354\367\235\352&\366\21\311\332c\262\16P\326\276]\326Qyv\205\223\270H\314\343Yc\335Yu\26\327\222\312\"K~\351y\326M\12\263\265\345\350G'2\17*\21\16O\10\265\332\205\36\241\320"
	.ascii "0\225\314\346(6\331+uo\232\326\11\342\25{1\274\247\334\307\211\217\226"
	.ascii "9\337\347\371h\221\212\356\32\6[\352\366"
	.ascii "6G\361"
	.ascii "6\211\261nL).\363\234\311\230\373\335\211\234q\306\270\331@\216\253\210\344\270\211\270\34w\21\223S\337W2.\236\23\211\375\300}\17\321\275#Y{\24\231|\36CYu\247\327\375U\332B\341\236\23\215\247\10\252\362\26\261Hz\211x$\307\347&\12D\342DG\356eq\332\276\257 \316pD\361\36\355%\262\313\366\231\344\316\4\341#\272k\202\210K\33,;+\316\245\263F+{\315N,K\244\246\270\222\257"
	.ascii "5\270J\17m61\266+\310\340T_\356\255\237\335[\177\364M?PVvI\254\241*\362\22K\22E\314\321\0\21w4\261/\272\301\361\244SUw\322"
	.ascii "6\220y\25$:5}v\227\371^\26k\355N\31\242"
	.ascii "4\26\211Xo/\36j\347R\317\220[\225\305\246\337\270K\257"
	.ascii "1\267\202\357v+\261\301;\351\262\370\210"
	.ascii "4\265Z\27\314\230\374x\326\305\221"
	.ascii "8)\271&\10\254qA\16\247\207p\327B\355\256\205\241"
	.ascii "k5\351\205g\304!gpC\231"
	.ascii "0\323R{\316\276\241\274k\353\36)\372\304\326\35\367r\225\245\313W\363a\336\25\"DNB\270\350\256\313\200{f\206V\236}p\356\324J\311\26\327\343\225"
	.ascii "2Z\344\314\317\235\333\230h\244\34\202c<\207<C\334fE'\303\315\232\246pG\261p\307b\270c\354I\24\327\340\366\276x\344\14\217oR\274\276\366\242\330d/\266\256\27\264\210)\334]\345\246k\36\24\356\370\273\303]\226\346\321}F\354!\301p\233{\267&\316P\26\355\17\35g\21"
	.ascii "4,\304\301\251\11<\324\211\366P+0\324\326\376\202\331"
	.ascii "3\247\274\256;\345u\322\35\257\357\216\330\275\342\240\330"
	.ascii "7\356]\304cp\246\220\"\302\203\1\305"
	.ascii "1\256\247r\221}F\301If\301I\303\340\244\332\203S\265eY\226\210c%<\34\25\375\311\331bq\"y\251\356\362\315\271D^\346\15\34{\11"
	.ascii "5\10\351'\274\314\260{\231\211^.\324\353\16D\342\12{\215\221\5%\255l\3\227'\320\305\214\367\324\221\367Y*GL\304U\234\305\251{pf\213\256\360p\33\37dY\10q&\223\334\206J\363%\274\10\314O\335\274\214&b\\\226\334\215cg\310\244*%\255\25w\203\21\261=\21\274\245hY\371\177c\207\226\373b\253hc|\206\25"
	.ascii "7\13F5\22\262\10Z\310q\307\266C<+*h\203)\301\301\251"
	.ascii "3\224\\ \223\322\366\300\16l{7\305\264$\240\11\236\261\36\234\230\313=H\311\11\331\304\266\223\12R2\35\351X\221|\365#v([\223p\310%\246\256ot\343\251m\315"
	.ascii "2#\257=A7\350\205\265\317\311"
	.ascii "3\13H\343\5\\\307\213\263\\yM\262\342\16\25\326\276\353i\366qB\23gt\364pE\311\335\310\211"
	.ascii "2|\27\35-R4\323\245\316EV\34\211.)\345\26\265{\232ml\273"
	.ascii "0\311\270KA\246\200\216yDsy\336\303\246Z<6drk\277\200&\227q\313\264\254\361=O&\301\325\207\236(\245c\322\262Ij?\305\212-\372\241x\36\213i\305\310\12\246\215er\243\213\32\372"
	.ascii "4+\352kf\262\270\311F\275Z\217Q\226\255D\7QC\17\260\342\304\202"
	.ascii "9\204\367\\\353\344L<6\36\335\21\311"
	.ascii "7\376\177\302\212]\251\365"
	.ascii "2\201L\306\334\367\322\360\222"
	.ascii "9\274\243b\224\302\362 +\356\367/X\270\323\326\314\245\1\324R\27\275\226Hr\377\24W\346x\225\307E2Yj\333]E-\243\365\215\303g\321\344!\334\11w\247&\363Zz\27u\351\250e\244G\237CZ>\203qI[4\210\310\244\305\257;\1\265D\357v6S~>\214]\224"
	.ascii "8\367\2Y\14(\213bQ\312tV\260\215\302\362g\254\350j(Q\361\260\250{\363SP\312V\206\367\23th\177\303o\11\233V\316\316np\305\313\241\221}\330VQ\315\374"
	.ascii "6\265\365\27h\342\353\325\317\25k+<\25\330Xl\342\340\352E4\371K\354\246E\323\201\230L\14\206\350(l,(\324Z,B\223\277\302\221\37Y\320\317\363aj\277\246\7\33\257\11\12\322Ph>\213SK\252Y\307k\331\216U\314\243\26\373m'g\272\355\324\242\353M\344\241i\255\257"
	.ascii "0\342X\325m\206e\222\311_\343&68\264\231g\325\230\"u\212\366}\315U\255\216h\362(.\17\372h=\327"
	.ascii "2\355\356\232\203)\275\236\251\377\2Z|\216\242\227\267\300\333\331\230\214\17\305k\303\244\251\366\16j\347\363\270C\352\325W\363vz\333\202L(e\336\\PFw\305\276\300\212^\305\31~<\270-\231\241C\264-\365H\363;\217&\217\341\352\234\25\376"
	.ascii "6\317)\277"
	.ascii "29*)V\347H)p\177\203\331\320\354\371k\236R\213\331\231\250$s\262;\204\242\377"
	.ascii "8Ny\31\271\205\347x\277\366\16\344\241\222\215\272\301\21\362\370\11\364x{;\204\217\372ee{8*\331\32,I\240v\376\26\207\370\226|\223w\363@\350\332(Jq\365i\315\342\16\250"
	.ascii "76g\260q[G\225\33\257j\312"
	.ascii "0\21\201\255)\246\346\364\224"
	.ascii "1_fEU\234\217\205Go\273\302\232\217\255\15\214\24\310(4O\262\242\\\341_\301k\321\306\16\315bk\206\205\362)\22t\225\25\203[\307<\371\250"
	.ascii "5\354"
	.ascii "7\215a\343\343\273\343\15\224"
	.ascii "1_a\305\341\331\261Y>\337\345NL\227\341\354\36\233_\255\"-Oa-#\312.>\260\253\244\226@\234\247"
	.ascii "3\312\247\7h\302}\32\3nI\351\342\265HSF\233q\16\334"
	.ascii "6\26\33i`?\303\212"
	.ascii "3\345\235\366\211"
	.ascii "5\242\241\376\10gR[\331\340\4\325\362,.\31I)s<~\245\13}\1\250%\320\272\342A\323\346s\254\30e\250\355\276\314gv\231\266\24\265T/Z\365"
	.ascii "4\311<\317\212\213\333\31#\\nt\316\242\25\265H\367#|(e\276\312\212Y+\3\345<.A\355;\32\324\342\252\316\353\243\270\274\300\212iG\351\355\274\241\204u_5j\231\315]\354 \271_c\305\245\355\302D\276\10\312\344\21\26\324R\231n\250\246\244\371:\16Y\335n\17\357\375\242\342b%j\231\211\336\36\244Y\6\27\300\314\341\310 \373\"\244+\220\241\26\213\324\322JN\377\35\26\335\13\262yC\336{\265\7\250\305V\330"
	.ascii "0JZ\376;N\372\313\5\213|\256\12\216JjD-\323S\33Q\324\215\177\217)\225\267\353\306\343\222S\355\341\207Z\246\265z\25"
	.ascii "9\375\15V\354\363\17\17\341\303\240v8\252\30\265\330\357\211:\323=\321\364\10\353(\317:\271\373z\31\256[\251\233\251\271d\362\"\366\221\373P#\237\204\274&Wp\331\262D\24VP.|\223\25\375\247\326cyv\327\324\267"
	.ascii "6\343\262u\324T\323Ls\303K\254\230\353\275\360\1Yd+\372\217\260\222\354\12\337\3\212\312?\340\214\324\265<\301\305\372\370"
	.ascii "5\7\240\222\232\370\302z\272\353\366"
	.ascii "2\366\206\277n\202wb\342\342"
	.ascii "0&\320\360R\374\20Y|\13\27\255\246"
	.ascii "2\13\237\202\322\332lVT2\347\341\273J\35\364mVl\16\212\344\13Eq\346\224\6\225T\26\312\367h\265y\5\265\256\313\376\214,\222C\23\325(d\376\240\356Q4\370GV\32K\236\232\341\241/\331p\377\15\256F\375\363\201\324\310wX\321\24o\33\342Y\20\330\233\256D\35\363\365\356\236"
	.ascii "4\336\377\211\25\33\12\303v\271"
	.ascii "3Q\312*\31\12\251\363\14\356\241t{\25g\340"
	.ascii "6\323\357\311\242:6\363\0\205\364\17\314\214SXq\27\322\27"
	.ascii "3\271\317\363$o\277\4#=\331n\325\222\305k\254h\36\336[\343}\23i\10\366C%\15\362\211\4R\362:\316\17\215\312T\356\216kE@1\355\221\370MAg\272)8\323\224\332\305\23\177+%\317\210\313Yi\247FE)\373=VLI\31\13\341\241\237l(\234\302E\261:\305\273\210"
	.ascii "2\351\373\250V\237\344\313\273xh\",\7\227\263\220L\365\16"
	.ascii "5\364\317"
	.ascii "8\313\370'\24\360Z\272\245\262P\\\24\15\201ys4!\374\200\25\325\5\205E\334\347\225\234\30\23j\11^\333o \247\177\210\271d\12]\347\265\34\264{\321\35\334\235\254\365\21\312\224\177a\305\315\351\301\5\336C\365\13)r\324\322WY\221DZ\376\25\7\341\314\374 \237\277\6eu\231\250EV\23\226N\36\375\210\25\375\262w2\370,\330\\\334\230\207Zls\212:\312\246"
	.ascii "7qy\333,\315\342\375\334\243\33\17G-QU\5\276"
	.ascii "4N\337b\305\203\254\214:\256e"
	.ascii "q}\177\24\265,g\15\34R*\374\33\366j\365\322W\311\342P>;\203R\"\303\26\247\310\347\37\343\212c\322\16\360^\34\257\336\212@)~\326\324Q\232"
	.ascii "2\376\35\267\23~ER\236\13m\303\363\371(\345`\303\332D\16\375\17V4\206\32\22\271\224\315\275\256Y\224b\232\252\263QC.\254\350"
	.ascii "1\235"
	.ascii "\250\341S\306LT\357\30m\232\352r\370\204\374\23\354\242\220\336\"\256e\250\241m\5\227;\203jOK\303\375m\234m'\206m|V\351N\321\353q\321"
	.ascii "4\231T+\324\320OYqU\251\36\347\221\333\222\232\343q\271\213l\32PS\322]\307\305!D\225\313M&'\226\323p\321\234\322\204\17\221\323\357`Q>\307Gs}\373\321\0J\211\321\34\24\223\224\33\270\232\270\227|\235ws\316\344**\361:\310I\245\341\374?11\242\243\17xTVd-\351\250$\270\247\201w\363\177\260b\253\251"
	.ascii "7\207O\352\7\13\306\4T\22+\327E\323"
	.ascii "4\371.+\372t\250\347\371 Z\324e\304\322\215KU\343\1"
	.ascii "5t\23\247\236\242\315(\36\333\303\342\352\24\324"
	.ascii "2\347\343WEj\177\206S\234{\312"
	.ascii "4o\250Y\236\260\204Z\32j'\\\320\342\347"
	.ascii "8\247\327y,\360\354\357Yw\353C)\336{\231"
	.ascii "3\24\267\367Xq\"\323\255\222\247\366\346\260\\\201RV\366\302\374)n\277@\223\302\251\377\344\275\\\355\37\205J\2\22\6\207i \276\217}\261\270\272\307\305\216Ge\365\240\22\375z\4_\352~\311\212\265\262\21\37>\342\333\366J\347QJb`\321\36\315>\277\302]\202n%\213\307\266f2\\\212K]\316\214y\236\244\374\32\347\210\211\234\5\256"
	.ascii "6\333\335\247\2\27L\277\270T5\305\366\3,\216\204\16p\23\271\"\327\214K\235w\310J<\245\323-V\324\16ex\363\261\352U\257l\305\5\323s\261k\211j\271\215\355\316n\327\362tJ[L\256F-\273\372\332\277D\213\17qF3\24ix\364\213\375T\356(\245aGSJ\16\341e\350x\260N\313\333\361\311\214\355@)\322:[\31u\363\307\254\330>Y\231\317{(\261\315{\23\245\24\352\347\7)\270\270\240h\323"
	.ascii "3\354\27\224\201\33\7;(e9=c\232\324\376\226\25\233Bf\264\274\226\250\320\271n\324"
	.ascii "2Sd,\242\206~\207\33\202\312@\3w(Y\331\340\205Z\246\16\264|\336\370O\\d\374WW\370tZ\322;\246B-\372\265!\25i\371_8\265\257\31\367x/F\356wv\241\226-]\362kh\361\277q\26\221\206\362-\271kl\317"
	.ascii "6*)\357\251\232\243L\370/\34.E\243*\36\225\352\212\355ZT\322w\324\335HI\371{V\264F\25\26\363Y#\317\260\340\211J\302k\342Bhb\221\342tU\263\333\21\315m\24\366\335H\226\267<\200\324\272\242MXt\331\223dR6w\244\307\25o/\316\30H]\344\206&\301-Q[Nd\343\337d\304+\266n\37\5\277s\341Nk\327\216\336\312C\27\223\326\222\206\253o\305H\354.U\343\201"
	.ascii "6\345^\263\321<0\225\201\372\1T\263\322a\363$\277=\351\313\363\320\275\25\356x\301Z\333*\312\351.SOP=^h\223\272R\31\302'\303\360\316e\274\14\212:\362\31\246!\340Mw\216\217\232\253\270\343\356y\346\4\224SRW\274A\222eh\263=\334_\302\367\301!\21\376\261(\247"
	.ascii "9OYIM\371\240M\333\364\250\214OB\36\273\362\24\224\23\350\345\365\30\232\370\242\211"
	.ascii "2N6\300\253Q\365\227\342\224"
	.ascii "2S0\257\243\305\323\17Mr\32\372\243y-\231\245Y}\250\246\335\26\352J6\376\364\225O\200o\27\257\306/\241Z\201j\302\272\32\307HM\0\332\314\254\367\344\363)$\336\226\21\205j&w\352_A\223@4\311R\354y\362\330d\214\270\341n$\320\333c\224"
	.ascii "28\210\356"
	.ascii "9\310\246\227\370@(\254M\230G5E\232\204"
	.ascii "5\32\10rJ\34W\233}\202hJWIq\325\262\231"
	.ascii "3\255\324U\301hs4\244\215\347Y\241kI\256\300\305\317\230\336\346JW\226!\324\235\203\331Q\274\37\346\247\275\315x\254l|\234\337\\\11\305\262a\265\246\220G\347\310"
	.ascii "3\266\25\227\342\212\356d\25\331\204Q\220\23S\354\323\336h\276O5\352\11"
	.ascii "6\37l\323x\240m\202|\312\34\302m:\264\341\356\250\347\310\337"
	.ascii "6Ay\21A\311\36\351\267\302\243\274\276\254\354\240\366S\342\212Is$\226\27'\24\12\36\237\271\200\334M\324Sm\332P\322\26$\12mdi\31\351\274'v\312zvP\217OTH:\15\254h\352\321\216>\3o\313"
	.ascii "4\330\331\215z\322\306\265\311\24\347\30\264\361"
	.ascii "5\347Z\371\4"
	.ascii "9\274\265@\351]\32X0Nm\321\215\231\200\224\360(>\345t\206o\253POj\311\302\22\371\25\207"
	.ascii "6\332\206\351\26\336\355k\252\271.\324\223:P\273L\373\263x\264\351\333\33\263_x\357\215\37l\243\236\370\376\302n\212s\2\332\4f\245u\362\30"
	.ascii "6\36\216\325\322\215\241`\323\16\365{\"\226\17\245IS|\30\353\343\33<QOS\257"
	.ascii "1\207"
	.ascii "2\225\356\357\254E\256\372\363\30\316\267\14\227\341J\326<?\276Bz\222\320\246\362 w\312\336\357\351\315\201t}\236\230\313'\344d\252G\271\251\347~5yN5\343\272Z\270=9OqNA\233\345<K'\317U\335\264\355\10W\347\262\272\252Y\312\215T\264\311\36\210\34\342\365\254kW\2P\317NRn$\325\223\206"
	.ascii "6\273\356"
	.ascii "3]<\237\347\362\327KQ\317l^\335\247\321$\35MJt\312"
	.ascii "1n2\32\320oE9%}\375\325\324T\6\332\270\255+\33y\312w,\267jPNj\207<\232l2\321F\227\37b\237\20\206\7K\324(g\273X\323F]\221\205"
	.ascii "6\371\245i\276\\rgY\246\5\345\354J\307u\24\346l\264\251\310H\354\341zv\302\3\224\250g\267"
	.ascii "4o\216\302\234C_\7i\342d\274+L[\301"
	.ascii "2\324\223=\261\325I)\226K]\232"
	.ascii "8>\317g\357\306q\367\203\213t^I\30uE\36m}\247\213\275x\372\350U\211\215\250\307wi\274\203\266\335\264=\356\37\235n\344m\255\305W\371\241\36u\370z*\205\271\0m\274{\353{\371\266z\357"
	.ascii "0\275\30\365lT\4\305\322\356P\211"
	.ascii "6>\13\351\261\274-\377"
	.ascii "9/#\256m\271r\371\12\351)D\233\206\24\245\201\247j\214W\314\24.\221\345K\356\23\264\376\25\241\215f\352\300\310\333R\244\325\345\340J\33\272\256\33'\233bZ\6r\252\222x\372\224"
	.ascii "5\245\204\342r\355m\264eQ\312\227P\177\215\205"
	.ascii "7\360a\32\276VhB=\361\341n+dS\212"
	.ascii "6I\13\355&\256\307=0o\10\365t\370\214eP_\224Q=\213:O\336\357\225y29\352\361Vy\311)>\345"
	.ascii "4L\207\313\253\370p/\350\14\313D=\361\5\333\26\322\\\201"
	.ascii "6\303+\372=\236c\252\335\371<\324\263\247\310\342\317\334T\322"
	.ascii "7\271\265\223\245<\206\231\21[\341\250'#3l\224\372\253\12mT\206\360\36\36\237\220\322\336Q\324\263\265\333\306\227\202jZ\274\242"
	.ascii "7\322\270_\36\375]3\250\247q~'\236\372\253\6m6\373\223sy[\31\266\361\10\324c\263j\270f\232F4\272\261`\276\262\27&4\346\243\236\255\224\202J\212\217\12m\12\306\14"
	.ascii "2n\343W;;\213z\352\203\327\224"
	.ascii "4=\327\361\351\261o\233\367W\374\310\376\30\352\351\364K\214\246z\324\364T\200\237\321>\215)=C\215\264P.x\265\320\30\254\247-BC\215\221\217\257\364\351\240)\\ps\6\322\367i\213\320\200"
	.ascii "6\263\241#9||\305\265d\347\340R\231\243\267\350\251\255F\332\34i\346m\\\217oz\31~\31\220\330\322\324B&Mh\222\233\341"
	.ascii "1\302\323'+"
	.ascii " \325D\367"
	.ascii "7\12\324a\324\25\32\264\231\\\256\14\341C\260n\271b\10\345\350\252\26"
	.ascii "7)\314\315\264\232\26\317\217\361"
	.ascii "0{j\343\345(g1\250t\224\246\204\26J\15\317\30W\236b\241\371\256x\177\267@\233t@\213E+\215\344\251p?^\215[\270"
	.ascii "5\17\345\270\5Y\371\363\230m\264\361)\210\344\11\26\266"
	.ascii "5\21\216j\26\253\213\347\310\244\35M\366'\315\366j\362\7\233FQ\315Qy\362\20\15\12Z[+B\326\362yGT\224\15\341\365c\230\373\344\1\365g'-\333\253\343I\274\232\330\370\366\10T\243\361\220\322\23\226]\364"
	.ascii "8Yj\326\1_I\3\16\7\362Q\215\325\234\334O\335\331\215"
	.ascii "6\306\204\300)\336\235\345\343\233\263\250&[\267j&\305Z\332\244\316\255\5\363~HR\255\341\25\374^hk\16\365x\17\215\342\210\14\373b\333\237\246-\303E\262\277p\226\307\246\227B\334\235Z\304\263\264\241\251/\20\27\333\216\275Z\3\215b\35\332$\267\270.\362\314\261\314\355"
	.ascii "4\343\"\31?\262\255\244\21\321\207"
	.ascii "6\305\226\314A>\372V\275\26\217hSU\\\303\277\257\350\247-_\305\202}3\322\225g\11@=\11\326\301.\12\262\36m\22\224I\237%\23c\347t)\312Q\5\207\363\373\271\364=\323j\227\316>\311M\254\325[QNOH\254\234\334\32D\233\241\203\243C\336\324n\340(e\245\375\301>g\376`\337\224\302\223{5[\232\244F5;\325\205\315T\215\1M\202\232;\362yS\346\376Z\13\312\311\362\11\264\220\342a\312@\237^5\267i\337\215R\242\34_\263\227\216$\33\321&\264D&\343=1\22\341A[\366\221Q\235\205lFh|\272\36\252yb\330j#\16P\217\254\254<\201zt\24m6\262\213\243y\247/\214\370"
	.ascii "6\242\36_\257\302!\252g\214\256(\2\375\27x\217\366\331\12\374PO\271\253"
	.ascii "1\231\352\31\247<\235hU\360!\241I(\246\265\243\332R\226A\341"
	.ascii "1\321\266"
	.ascii "9\316s\227\327ci\312\221\322\367\35\252E\15\215\276\11\232\343Vb\354\276\257\246\225W\340Z;l\326\352i2\230D\233\216\316\310\26\356W\277W\210\31\327\310"
	.ascii "6uO\2\305\220\356\26\226nv\14\363\241\325"
	.ascii "0\27\330\212k\355V\\\252+\351\231F\33\377*\257z\256g\242"
	.ascii "3\256\32\365\354\37\255v\220\236\31\264\11O\34\216\347zv\363\244\356\250'F\31\370_h2\213&q\272\361\11>D\273\2\323:PN\313\344\350\23h2G\263``l\30o\311\270V\271I\267\205\6\275\370\275\376y\264i9l8\340SS{\277f\7\325\364\7[\351V\361\2\232\304g\17\257r\307GJ\15\335\27i*Z\357\241a\263\210"
	.ascii "6\365"
	.ascii "2\367%\336\324l\304\241\27\252)\331\235\10\243\16]\242\311}\326\264\315\367\250\346]\223\12\345\14\207\267\255\321\254\274\214"
	.ascii "6\322lK\25\317\367\276\221\215.\224\263"
	.ascii "24\342K\303\230\276+\316\314\210\231\344\11\257\251]\335\246}\354\\m\32u\304*\355Q\217\6zytl\11\35\265\364"
	.ascii "0\335\240LKz\326\250C'\214"
	.ascii "1\274\236\5\333\240'\352\351\212"
	.ascii "6\225Pg\321u\221!^\325\301;\"nzw\5\27\310iC\200\214B\270N\363\351`g\37\237\345|=\227\364\270\320\252\22\232\307hB\335\240\375p\351F\7oK\231\336\35\217\13\244<v\255\232\332\332\244\30nE\264\363\370\244\267\350\322p\241\355\15\311\\\242z\266hP$U\226\362\276\360\\V\17\240\236\243\264\356T\32\24\333h\23"
	.ascii "2\336\31\313\7Wh\300\310*\352\11\324\245\305\320\314\274\203"
	.ascii "6]*\177\373\263\7Y\371{\351\250\247"
	.ascii "7\252\264\224\246\271]\352\213\256\316\11>\330\353\264"
	.ascii "3\11\250\307\307#u\232l,\264\271"
	.ascii "4\345"
	.ascii "7\330\327\233\255\350X\372~\306\252\14%\233=\264\231\313Ow\345SjE\270g\12\335\236i\212\321R\237\356\323\24\273\270\316\307\215[\231b\11\345H\267,\374R\351\200.\27z\24<\303\302\6k\372P\215E\223\300\357\211\34\242I\372\210j\231\253)?\314W\240\32\337\262N\276e\266\322\232^\330"
	.ascii "6\302\353I\212/\212B5\363YI\21\244\206&\374\301\336fO\373\362\247\212\354A9Qk\363\366/\7\2\306\375\346\261\375\262\270\252j\321\363%R\231B\375\12>\306\377\370\25![\204\317\315\344\300\257\\ \17\310\7\12D\370\304\216\240\204\337\205@\21P\14\224\0\245@\231\10\237\300\27\312E\370\350\261P!\302\207\206\205J\370]\5T\3"
	.ascii "5@-\240\2\352\0"
	.ascii "5P\17"
	.ascii "4\0\215@\23\240\1\232\201\26\240\25h\3\332\201\16\240\23\350\2\272\1-\320\303\332`\355\1}@?\240\7\6\200A\21>\353-\14\211\360)m\301\0\277\207\1#0\2\214\2c\300"
	.ascii "8`\2&\200I`\12\230\6f\200Y`\16\230\7\26\200E`\11X\6V\200U`\15"
	.ascii "0\3\353\300\6\260\11l\1\333\300\16\260+\302\247\353\5\213\10\37\214\27\366\340\367>p\0\34\2V\340\10\260\1R\361\25\301\25p\3\334\1\17\300\23\360\2\274\1\31\340\3\370\2~\200?\20\0\4\2A\200\34\10\6B\200P \14\10\7\"\200H \12\210\6b\200X \16\210\7\22\200D@\1$\1\311@\12\220\12\244\1\351@\6\220\11d\1\331@\16\220\13\344\1\371@\1\240\4\12\201\"\240\30(\1J\201"
	.ascii "2\240\34\250\0*\201*\240\32\250\1j\1\25P\7\250\201z\240\1h\4\232\0\15\320\14\264\0\255@\33\320\16t\0\235@\27\320\15h\201\36\240\27\320\1}@?\240\7\6\200A`\10"
	.ascii "0\0\303\200\21\30\1F\201"
	.ascii "1`\34"
	.ascii "0\1\23\300$0\5L\3"
	.ascii "3\300,0\7\314\3\13\300\"\260\4,\3+\300*\260\6\230\201u`\3\330\4\266\200m`\7\330\5,\300\36\260\17\34\0\207\200\25"
	.ascii "8\2l\200\324\21\372\37p\3\334\1\17\300\23\360\2\274\1\31\340\3\370\2~\200?\20\0\4\2A\200\34\10\6B\200P \14\10\7\"\200H \12\210\6b\200X \16\210\7\22\200D@\1$\1\311@\12\220\12\244\1\351@\6\220\11d\1\331@\16\220\13\344\1\371@\1\240\4\12\201\"\240\30(\1J\201"
	.ascii "2\240\34\250\0*\201*\240\32\250\1j\1\25P\7\250\201z\240\1h\4\232\0\15\320\14\264\0\255@\33\320\16t\0\235@\27\320\15h\201\36\240\27\320\1}@?\240\7\6\200A`\10"
	.ascii "0\0\303\200\21\30\1F\201"
	.ascii "1`\34"
	.ascii "0\1\23\300$0\5L\3"
	.ascii "3\300,0\7\314\3\13\300\"\260\4,\3+\300*\260\6\230\201u`\3\330\4\266\200m`\7\330\5,\300\36\260\17\34\0\207\200\25"
	.ascii "8\2l\200\364\14\364?\340\6\270\3\36\200'\340\5x\3"
	.ascii "2\300\7\360\5\374\0\177 \0\10\4\202\0"
	.ascii "9\20\14\204\0\241@\30\20\16D\0\221@\24\20\15\304\0\261@\34\20\17$\0\211\200\2H\2\222\201\24 \25H\3\322\201\14 \23\310\2\262\201\34 \27\310\3\362\201\2@\11\24\2E@1P\2\224\2e@9P\1T\2U@5P\3\324\2*\240\16P\3\365@\3\320\10"
	.ascii "4\1\32\240\31h\1Z\201"
	.ascii "6\240\35\350\0:\201.\240\33\320\2=@/\240\3\372\200~@\17\14\0\203\300\20`\0\206\1#0\2\214\2c\300"
	.ascii "8`\2&\200I`\12\230\6f\200Y`\16\230\7\26\200E`\11X\6V\200U`\15"
	.ascii "0\3\353"
	.ascii "\300\6\260\11l\1\333\300\16\260\13X\200=`\37"
	.ascii "8\0\16\1+p\4\330\0\251\4\372\37p\3\334\1\17\300\23\360\2\274\1\31\340\3\370\2~\200?\20\0\4\2A\200\34\10\6B\200P \14\10\7\"\200H \12\210\6b\200X \16\210\227\340K\203B\202\4_\27\312\230h*<\377\271$\251I"
	.ascii "a\266f\4^t\225*\232\\\245\322\243o\330\304\270?\310\242g\235O\274\35\230\305\36\204\25\22%\317;\10\12\311\347\330\236\"$V)\22"
	.ascii "7\320\323\264\373\335\266\201\363\342n*D\231\32\263\370>\252\274\332\3\277b\231\37\211L\220@s\322dS\205\356\232\332\3\232b\317o\203\205\220$\241\246\216\37\25N\226\260\246R@\250\220\212M\331_\31|\210\236\262\265\277"
	.ascii "3\371\20\177g2\262w\250\334Q<\216\215\213\214\31&\251\243\375"
	.ascii "1\357\323/\354eI\36\303*\204"
	.ascii "4\210E\272\204?\343\235\33U\213ozfJ\234\204\14\311\235G\274\37:~\304\333\253\255g\314\311\211W(\373C\25\256\37\177\345z\211\276r]t-<<s\377\267\270r%\374-.\330*\341v\267\272\276\360\342\311\367\262\36r\22r$\270\203b\357\227H\36\260\237\203\27\313\343y)\247\214\263%\177\300:\303\337lt\26\317Q\27\15j\27\276-6\323\337"
	.ascii "9Q\3\333l\303\230)\241\360\36X\375\"\4*\343\347+\35\332\200sT\306\315\344x\325t\254\23\225\361rESpT&\242"
	.ascii "2n@\363\312\203\202.R\31o\244\254\215en]\240"
	.ascii "2^co$t\375\210\212x\325\344\341c\356\342\325\343>X\243\251\300\333\201P\246\7\202\353*\203\317R\31\237\312u7\370\7\363\352\361\231\326\260\206\336y^=>\300*-\352\217\22S\31C\332-Ok>\213{_\263 \344Kp\357[(\301\275o\221\204\366\276\305\22\332\373\226Hh\357[*\241\275o\231\204\366\276\345\22\332\373VHh\357[)\241\275o\225\204\366\276\325\22\332\373\326H\370\336WB{_\25\245D^I`\216"
	.ascii "3$\177\17{-\306\353"
	.ascii "3\256R\23\364\30{\325\10\345\24\360\374?\356"
	.ascii "8%\346\177\35\33jj\314\377\25M\267\205E\374A'\251\375G\370=\34OK0\16\\\304\343\366Wg\361\313\335\256\301\221\274\263b+\215\207\203\224\231\236\213w\336j.J\23\261\\\327@\327"
	.ascii "6\36\347\372\203\307o5K\357\361\256m\23\244"
	.ascii "93\21\352Ab\3\371\24d\356\253\25X^\273\376\221'\314\26T.H\304\236g1\245\326;\222r\317\213\203\250\220<\276`c\371\243\341\371"
	.ascii "7\37\333\275\345\4\341\362H\202p\355\276\31\356&mrU\320\324\324\14\272[@\367\206\360\310\235\326\34\204V\214W\33\233/\332"
	.ascii "1^\3\241\345^b\376\366\25V\271\321\266\37#\271\327\213"
	.ascii "9\354uN\11{g\240C\302\337\31\260F\324-\235~\355\31\14N\214\330.\11\275\347\10\277\331}\224\324\256\231\323oE\346\235z\353\241\233[w\243\365\226a\346\343S\306\254\377O\274+\312\215\265h\274\275_\271y\331\211\277\255\"\373\277\274\255\"\364H\330\313\315\376k\226\341s\367"
	.ascii "9\347\256\227\323\205^<gb\253/E8\245\212\15\374cU:\256J\207\252*\372\242GN\274\346\361\12\276\\t\342\255Tn\334\207\306\215\265+\363\227NU\335|\252\352~n\335\217\326\1\31^\236\247\337 \11:U\267\236[\353\321:\177S\323$>)\204\275\267w\342uTn<\200\306>y\232\350\263"
	.ascii "8)+\360\366\\w\310\320K\367\237\224\207\354\223"
	.ascii "2\\\17\340\275M\305\244\253\344\223\257\326\16J\360:\201\275\225\212\363,\236\204\5"
	.ascii "8C;\246=\31\323W\360\315\313\343\6\206\271\270a\24'\13\260&\236=i\234v\312m#76\242\361N\365F\246\370T\220\14\247rh\204[\217\240\365\376rl\303\305\223U\307\236\252z\224\33\263\337\347>\274\371\376\355g\236v\271}\356\333\257\375\360\221\227\276\370E\207o\276\364\365\253\337\273\15\377\236{\362\271'\277r\365\7\277\374\345{\267\256\376\342\346\373\377\361\361\263_{\332\345\231\247\257\336|\376\205\347\277\374\361\363\317~\31\17\262\3\357_\177\357\303wn\\\275u\373\35\250\354\311w\251\322\347\237u\271\355x\375\335\267?\270\360w?\375\360\346{\267\277|\363\375\277wp\374)Tw\301\305\5L\257\277\375\336{..\27>\270q\353\306m\227\227\276\377\322"
	.ascii "3O\237\271\376\301\365g\236v|\367\355[\357\212o\335\376\371\347\331\37?~\362\311\253\267o\374\346\366\325'\257\302_\360\367\315_\260\206~\356\302\376\200\246\36B#v\200\375\341\202"
	.ascii "5\300\341\317\271\274\365\332"
	.ascii "3p\364Yv\364"
	.ascii "9<\372\324S'\232z\371\243k_y\370^\247^\377\325\257\34\36\0i\327\311\316\345\247"
	.ascii "7o\177|\363\326\215\253\367\250\357\205\273\315^~\343\237>\372\331\317\256=\365\264\323\361g\177s\217S\277r\374\361\235S\276\360G\330]{\301\351\366\215[\334\207G\357u\302\361\307/\377\364\332\263\316x\376\213\377\360\352\313\337\177\346\351\263o\277\363\336\215\17\236y\372\211\223\347}\225\37|\352\351\223\246\274\261\263\37\277}\363\266\313\207\267\34Y\260\37\266\237\306\12_\345\237\274\374\333k/\234wq\271\376\316\215\353\320\231g>x\347\366\255\353\342\353\277\372\360N\337\335\272\375\356\7"
	.ascii "7\336~\347\26\365\37|\202\235\7\277\241\223\376\204\327\370\14\24\237\303S_\376Hr\353\346\357n\270\334\376\377OB\27<\0\265\213\337\273\361\276\343\365[\267?\370\253Sy\204\315\303Q\227\17o\337|\357\26\313 \273_\354\350"
	.ascii "3p\22"
	.ascii "8\177\375\332\263\342_\374\362\243\207O}\4\7^~\343:\373\360\205\363\324\353?x\361\233\27\336x\375\325"
	.ascii "7]^{\375\273\377\370\342\253\237ry\353\325\247\236:q\340,\33\7/\300\330\302c`\355\14\26/\330\13g\371 \201\370\335\202ar\343\235\247\276\342\362\326\37\221+/\177\355\316\11\377\7\343\340\3\17"
	.text
	.section	.gnu.lto_.symtab.f43a773b,"dr0"
	.ascii "__ZN3stk4hash5crc3211reset_CRC32Ev@0\0\0\0\0\0\0\0\0\0\0\0\0\347\0\0\0_CRC32_TAB\0\0\0\0\0\0\0\0\0\0\0\0 \3\0\0__ZN3stk4hash5crc3218calc_CRC32_bitwiseEPKvjj@12\0\0\0\0\0\0\0\0\0\0\0\0\357\0\0\0__ZN3stk4hash5crc3210calc_CRC32EPKvjj@12\0\0\0\0\0\0\0\0\0\0\0\0\362\0\0\0__ZN3stk4hash5crc3210calc_CRC32EPKvj@8\0\0\0\0\0\0\0\0\0\0\0\0\370\0\0\0__ZN3stk4hash5crc3210test_CRC32Eb@4\0\0\0\0\0\0\0\0\0\0\0\0\376\0\0\0__ZN3stk4hash7adler3212calc_ADLER32EPKvj@8\0\0\0\0\0\0\0\0\0\0\0\0\3\1\0\0__ZN3stk4time7wait_usEy@8\0\0\2\0\0\0\0\0\0\0\0\0\14\1\0\0__ZN3stk3cpu5rdtscEv\0\0\2\0\0\0\0\0\0\0\0\0\24\1\0\0__ZN3stk4cstr3lenEPKc@4\0\0\2\0\0\0\0\0\0\0\0\0 \1\0\0__ZN3stk4cstr3movEPcPKc@8\0\0\2\0\0\0\0\0\0\0\0\0(\1\0\0"
	.text
	.section	.gnu.lto_.opts,"dr0"
	.ascii "'-fno-trapv' '-dD' '-malign-double' '-momit-leaf-frame-pointer' '-m32' '-mfpmath=sse' '-mpreferred-stack-boundary=8' '-mmmx' '-msse' '-msse2' '-mthreads' '-mtune=generic' '-march=i686' '-g' '-g' '-O3' '-fno-use-linker-plugin' '-fverbose-asm' '-fstrict-aliasing' '-fwrapv' '-funroll-loops' '-flto' '-fexceptions'\0"
	.text
	.section	.text.unlikely,"x"
LCOLDB0:
	.text
LHOTB0:
	.p2align 4,,15
	.section	.text.unlikely,"x"
Ltext_cold0:
	.text
	.def	__ZN3stk4hash5crc3210calc_CRC32EPKvjj@12.constprop.0;	.scl	3;	.type	32;	.endef
__ZN3stk4hash5crc3210calc_CRC32EPKvjj@12.constprop.0:
LFB711:
	.file 1 "hash/stk_hash_crc32.cpp"
	.loc 1 233 0
	.cfi_startproc
LVL0:
	pushl	%ebp	 #
	.cfi_def_cfa_offset 8
	.cfi_offset 5, -8
	pushl	%edi	 #
	.cfi_def_cfa_offset 12
	.cfi_offset 7, -12
	pushl	%esi	 #
	.cfi_def_cfa_offset 16
	.cfi_offset 6, -16
	pushl	%ebx	 #
	.cfi_def_cfa_offset 20
	.cfi_offset 3, -20
	subl	$748, %esp	 #,
	.cfi_def_cfa_offset 768
	jmp	L106	 #
LVL1:
	.p2align 4,,10
L18:
LBB13:
	.loc 1 239 0
	movl	$0, (%esp)	 #,
	movl	$0, 4(%esp)	 #,
	call	__ZN3stk4time7wait_usEy@8	 #
	.cfi_def_cfa_offset 760
LVL2:
	subl	$8, %esp	 #,
	.cfi_def_cfa_offset 768
LVL3:
L106:
	.loc 1 239 0
	movl	__ZZN3stk4hash5crc3210calc_CRC32EPKvjjE9__shared1, %eax	 # __shared1, D.30100
	movl	__ZZN3stk4hash5crc3210calc_CRC32EPKvjjE9__shared1+4, %edx	 # __shared1, D.30100
	movl	%edx, %edi	 # D.30100, tmp328
	orl	%eax, %edi	 # D.30100, tmp328
	jne	L18	 #,
	call	__ZN3stk3cpu5rdtscEv	 #
LVL4:
	movl	%eax, __ZZN3stk4hash5crc3210calc_CRC32EPKvjjE9__shared1	 # __unique1, __shared1
	movl	%edx, __ZZN3stk4hash5crc3210calc_CRC32EPKvjjE9__shared1+4	 # __unique1, __shared1
/APP
 # 239 "hash\stk_hash_crc32.cpp" 1
	mfence
 # 0 "" 2
/NO_APP
	movl	__ZZN3stk4hash5crc3210calc_CRC32EPKvjjE9__shared1, %esi	 # __shared1, D.30100
	movl	__ZZN3stk4hash5crc3210calc_CRC32EPKvjjE9__shared1+4, %ecx	 # __shared1, D.30100
	movl	%ecx, %ebx	 # D.30100, tmp329
	orl	%esi, %ebx	 # D.30100, tmp329
	je	L4	 #,
	movl	__ZZN3stk4hash5crc3210calc_CRC32EPKvjjE9__shared1, %ebp	 # __shared1, D.30100
	movl	__ZZN3stk4hash5crc3210calc_CRC32EPKvjjE9__shared1+4, %edi	 # __shared1, D.30100
	movl	%edx, %esi	 # __unique1, tmp137
	xorl	%edi, %esi	 # D.30100, tmp137
	xorl	%eax, %ebp	 # __unique1, tmp138
	orl	%ebp, %esi	 # tmp138, tmp331
	je	L4	 #,
	movl	%eax, %ebx	 # __unique1, __unique1
	movl	%edx, %ebp	 # __unique1, __unique1
LVL5:
	.p2align 4,,10
L17:
	movl	$0, (%esp)	 #,
	movl	$0, 4(%esp)	 #,
	call	__ZN3stk4time7wait_usEy@8	 #
	.cfi_def_cfa_offset 760
LVL6:
	movl	__ZZN3stk4hash5crc3210calc_CRC32EPKvjjE9__shared1, %eax	 # __shared1, D.30100
	movl	__ZZN3stk4hash5crc3210calc_CRC32EPKvjjE9__shared1+4, %edx	 # __shared1, D.30100
	subl	$8, %esp	 #,
	.cfi_def_cfa_offset 768
	movl	%edx, %ecx	 # D.30100, tmp332
	orl	%eax, %ecx	 # D.30100, tmp332
	je	L4	 #,
	movl	__ZZN3stk4hash5crc3210calc_CRC32EPKvjjE9__shared1, %edi	 # __shared1, D.30100
	movl	__ZZN3stk4hash5crc3210calc_CRC32EPKvjjE9__shared1+4, %esi	 # __shared1, D.30100
	xorl	%ebx, %edi	 # __unique1, tmp142
	xorl	%ebp, %esi	 # __unique1, tmp141
	orl	%edi, %esi	 # tmp142, tmp333
	jne	L17	 #,
L4:
LVL7:
	.loc 1 272 0
	movl	768(%esp), %ebx	 # a_src_ptr, tmp374
	.loc 1 276 0
	prefetcht2	_CRC32_TAB	 #
	.loc 1 272 0
	prefetchnta	(%ebx)	 # tmp374
	.loc 1 273 0
	addl	772(%esp), %ebx	 # a_count, r_src_ptr_end
	.loc 1 274 0
	movl	%ebx, %edi	 # r_src_ptr_end, D.30102
	.loc 1 273 0
	movl	%ebx, %ebp	 # r_src_ptr_end, r_src_ptr_end
LVL8:
	.loc 1 274 0
	andl	$-64, %edi	 #, D.30102
LVL9:
LBB14:
	.loc 1 281 0
	cmpl	%edi, 768(%esp)	 # D.30102, a_src_ptr
	jae	L12	 #,
	movl	768(%esp), %eax	 # a_src_ptr, tmp378
	movl	768(%esp), %esi	 # a_src_ptr, a_src_ptr
	addl	$64, %eax	 #, ivtmp.39
	movl	%eax, 508(%esp)	 # ivtmp.39, %sfp
	movl	%eax, %ecx	 # ivtmp.39, ivtmp.39
	movl	$-1, %eax	 #, crc
LVL10:
L8:
LBB15:
LBB16:
	.loc 1 283 0
	movl	%eax, %edx	 # crc, crc
	xorb	(%esi), %al	 # MEM[base: a_src_ptr_59, offset: 0B], position
	movl	%esi, %ebx	 # a_src_ptr, tmp163
	shrl	$8, %edx	 #, crc
	subl	%ecx, %ebx	 # ivtmp.39, tmp163
LBE16:
	.loc 1 281 0
	prefetchnta	(%ecx)	 # ivtmp.39
LVL11:
	notl	%ebx	 # tmp162
	andl	$7, %ebx	 #, tmp164
LVL12:
LBB17:
	.loc 1 283 0
	movzbl	%al, %eax	 # position, D.30105
	xorl	_CRC32_TAB(,%eax,4), %edx	 # CRC32_TAB, crc
	movl	%edx, %eax	 # crc, crc
	.loc 1 284 0
	leal	1(%esi), %edx	 #, a_src_ptr
	.loc 1 282 0
	cmpl	%edx, %ecx	 # a_src_ptr, ivtmp.39
	je	L98	 #,
	testl	%ebx, %ebx	 # tmp164
	je	L7	 #,
	cmpl	$1, %ebx	 #, tmp164
	je	L76	 #,
	cmpl	$2, %ebx	 #, tmp164
	je	L77	 #,
	cmpl	$3, %ebx	 #, tmp164
	je	L78	 #,
	cmpl	$4, %ebx	 #, tmp164
	je	L79	 #,
	cmpl	$5, %ebx	 #, tmp164
	je	L80	 #,
	cmpl	$6, %ebx	 #, tmp164
	je	L81	 #,
	.loc 1 283 0
	movl	%eax, %ebx	 # crc, crc
	xorb	(%edx), %al	 # MEM[base: a_src_ptr_59, offset: 0B], position
	shrl	$8, %ebx	 #, crc
	movzbl	%al, %edx	 # position, D.30105
LVL13:
	xorl	_CRC32_TAB(,%edx,4), %ebx	 # CRC32_TAB, crc
LVL14:
	.loc 1 284 0
	leal	2(%esi), %edx	 #, a_src_ptr
	.loc 1 283 0
	movl	%ebx, %eax	 # crc, crc
LVL15:
L81:
	movl	%eax, %ebx	 # crc, crc
	xorb	(%edx), %al	 # MEM[base: a_src_ptr_59, offset: 0B], position
	.loc 1 284 0
	addl	$1, %edx	 #, a_src_ptr
	.loc 1 283 0
	shrl	$8, %ebx	 #, crc
	movzbl	%al, %eax	 # position, D.30105
LVL16:
	xorl	_CRC32_TAB(,%eax,4), %ebx	 # CRC32_TAB, crc
LVL17:
	movl	%ebx, %eax	 # crc, crc
LVL18:
L80:
	movl	%eax, %ebx	 # crc, crc
	xorb	(%edx), %al	 # MEM[base: a_src_ptr_59, offset: 0B], position
	.loc 1 284 0
	addl	$1, %edx	 #, a_src_ptr
	.loc 1 283 0
	shrl	$8, %ebx	 #, crc
	movzbl	%al, %eax	 # position, D.30105
LVL19:
	xorl	_CRC32_TAB(,%eax,4), %ebx	 # CRC32_TAB, crc
LVL20:
	movl	%ebx, %eax	 # crc, crc
LVL21:
L79:
	movl	%eax, %ebx	 # crc, crc
	xorb	(%edx), %al	 # MEM[base: a_src_ptr_59, offset: 0B], position
	.loc 1 284 0
	addl	$1, %edx	 #, a_src_ptr
	.loc 1 283 0
	shrl	$8, %ebx	 #, crc
	movzbl	%al, %eax	 # position, D.30105
LVL22:
	xorl	_CRC32_TAB(,%eax,4), %ebx	 # CRC32_TAB, crc
LVL23:
	movl	%ebx, %eax	 # crc, crc
LVL24:
L78:
	movl	%eax, %ebx	 # crc, crc
	xorb	(%edx), %al	 # MEM[base: a_src_ptr_59, offset: 0B], position
	.loc 1 284 0
	addl	$1, %edx	 #, a_src_ptr
	.loc 1 283 0
	shrl	$8, %ebx	 #, crc
	movzbl	%al, %eax	 # position, D.30105
LVL25:
	xorl	_CRC32_TAB(,%eax,4), %ebx	 # CRC32_TAB, crc
LVL26:
	movl	%ebx, %eax	 # crc, crc
LVL27:
L77:
	movl	%eax, %ebx	 # crc, crc
	xorb	(%edx), %al	 # MEM[base: a_src_ptr_59, offset: 0B], position
	.loc 1 284 0
	addl	$1, %edx	 #, a_src_ptr
	.loc 1 283 0
	shrl	$8, %ebx	 #, crc
	movzbl	%al, %eax	 # position, D.30105
LVL28:
	xorl	_CRC32_TAB(,%eax,4), %ebx	 # CRC32_TAB, crc
LVL29:
	movl	%ebx, %eax	 # crc, crc
LVL30:
L76:
	movl	%eax, %ebx	 # crc, crc
	xorb	(%edx), %al	 # MEM[base: a_src_ptr_59, offset: 0B], position
	.loc 1 284 0
	addl	$1, %edx	 #, a_src_ptr
	.loc 1 283 0
	shrl	$8, %ebx	 #, crc
	movzbl	%al, %eax	 # position, D.30105
LVL31:
	xorl	_CRC32_TAB(,%eax,4), %ebx	 # CRC32_TAB, crc
LVL32:
	.loc 1 282 0
	cmpl	%edx, %ecx	 # a_src_ptr, ivtmp.39
	.loc 1 283 0
	movl	%ebx, %eax	 # crc, crc
LVL33:
	.loc 1 282 0
	je	L98	 #,
LVL34:
	.p2align 4,,10
L7:
	.loc 1 283 0
	movl	%eax, %ebx	 # crc, crc
	xorb	(%edx), %al	 # MEM[base: a_src_ptr_59, offset: 0B], position
	.loc 1 284 0
	addl	$8, %edx	 #, a_src_ptr
	.loc 1 283 0
	shrl	$8, %ebx	 #, crc
	movzbl	%al, %eax	 # position, D.30105
	xorl	_CRC32_TAB(,%eax,4), %ebx	 # CRC32_TAB, crc
	movl	%ebx, %eax	 # crc, crc
	xorb	-7(%edx), %bl	 # MEM[base: a_src_ptr_59, offset: 0B], position
	shrl	$8, %eax	 #, crc
	movzbl	%bl, %ebx	 # position, D.30105
	xorl	_CRC32_TAB(,%ebx,4), %eax	 # CRC32_TAB, crc
	movl	%eax, %ebx	 # crc, crc
	xorb	-6(%edx), %al	 # MEM[base: a_src_ptr_59, offset: 0B], position
	shrl	$8, %ebx	 #, crc
	movzbl	%al, %eax	 # position, D.30105
	xorl	_CRC32_TAB(,%eax,4), %ebx	 # CRC32_TAB, crc
	movl	%ebx, %eax	 # crc, crc
	xorb	-5(%edx), %bl	 # MEM[base: a_src_ptr_59, offset: 0B], position
	shrl	$8, %eax	 #, crc
	movzbl	%bl, %ebx	 # position, D.30105
	xorl	_CRC32_TAB(,%ebx,4), %eax	 # CRC32_TAB, crc
	movl	%eax, %ebx	 # crc, crc
	xorb	-4(%edx), %al	 # MEM[base: a_src_ptr_59, offset: 0B], position
	shrl	$8, %ebx	 #, crc
	movzbl	%al, %eax	 # position, D.30105
	xorl	_CRC32_TAB(,%eax,4), %ebx	 # CRC32_TAB, crc
	movl	%ebx, %eax	 # crc, crc
	xorb	-3(%edx), %bl	 # MEM[base: a_src_ptr_59, offset: 0B], position
	shrl	$8, %eax	 #, crc
	movzbl	%bl, %ebx	 # position, D.30105
	xorl	_CRC32_TAB(,%ebx,4), %eax	 # CRC32_TAB, crc
	movl	%eax, %ebx	 # crc, crc
	xorb	-2(%edx), %al	 # MEM[base: a_src_ptr_59, offset: 0B], position
	shrl	$8, %ebx	 #, crc
	movzbl	%al, %eax	 # position, D.30105
	xorl	_CRC32_TAB(,%eax,4), %ebx	 # CRC32_TAB, crc
	movl	%ebx, %eax	 # crc, crc
	xorb	-1(%edx), %bl	 # MEM[base: a_src_ptr_59, offset: 0B], position
	shrl	$8, %eax	 #, crc
	movzbl	%bl, %ebx	 # position, D.30105
LVL35:
	xorl	_CRC32_TAB(,%ebx,4), %eax	 # CRC32_TAB, crc
LVL36:
	.loc 1 282 0
	cmpl	%edx, %ecx	 # a_src_ptr, ivtmp.39
	jne	L7	 #,
LVL37:
L98:
	addl	$64, %esi	 #, a_src_ptr
LVL38:
	addl	$64, %ecx	 #, ivtmp.39
LBE17:
LBE15:
	.loc 1 281 0
	cmpl	%esi, %edi	 # a_src_ptr, D.30102
	ja	L8	 #,
	subl	508(%esp), %edi	 # %sfp, D.30106
LVL39:
	leal	63(%edi), %ecx	 #, D.30106
	movl	768(%esp), %edi	 # a_src_ptr, tmp353
	andl	$-64, %ecx	 #, D.30107
	leal	64(%edi,%ecx), %esi	 #, tmp354
LVL40:
	movl	%esi, 768(%esp)	 # tmp354, a_src_ptr
L11:
LVL41:
LBE14:
	.loc 1 286 0
	cmpl	768(%esp), %ebp	 # a_src_ptr, r_src_ptr_end
	jbe	L9	 #,
	.loc 1 287 0
	movl	768(%esp), %edi	 # a_src_ptr, tmp359
	movl	%eax, %edx	 # crc, crc
	movl	768(%esp), %ecx	 # a_src_ptr, tmp159
	shrl	$8, %edx	 #, crc
	xorb	(%edi), %al	 # MEM[base: a_src_ptr_66, offset: 0B], position
	notl	%ecx	 # tmp159
	addl	%ebp, %ecx	 # r_src_ptr_end, tmp158
	andl	$7, %ecx	 #, tmp160
	movzbl	%al, %eax	 # position, D.30105
LVL42:
	xorl	_CRC32_TAB(,%eax,4), %edx	 # CRC32_TAB, crc
LVL43:
	movl	%edx, %eax	 # crc, crc
LVL44:
	.loc 1 288 0
	leal	1(%edi), %edx	 #, a_src_ptr
LVL45:
	.loc 1 286 0
	cmpl	%ebp, %edx	 # r_src_ptr_end, a_src_ptr
	je	L9	 #,
	testl	%ecx, %ecx	 # tmp160
	je	L10	 #,
	cmpl	$1, %ecx	 #, tmp160
	je	L70	 #,
	cmpl	$2, %ecx	 #, tmp160
	je	L71	 #,
	cmpl	$3, %ecx	 #, tmp160
	je	L72	 #,
	cmpl	$4, %ecx	 #, tmp160
	je	L73	 #,
	cmpl	$5, %ecx	 #, tmp160
	je	L74	 #,
	cmpl	$6, %ecx	 #, tmp160
	je	L75	 #,
	.loc 1 287 0
	movl	%eax, %esi	 # crc, crc
	xorb	(%edx), %al	 # MEM[base: a_src_ptr_66, offset: 0B], position
LVL46:
	.loc 1 288 0
	movl	768(%esp), %ecx	 # a_src_ptr, tmp381
	.loc 1 287 0
	shrl	$8, %esi	 #, crc
LVL47:
	.loc 1 288 0
	leal	2(%ecx), %edx	 #, a_src_ptr
	.loc 1 287 0
	movzbl	%al, %ebx	 # position, D.30105
LVL48:
	xorl	_CRC32_TAB(,%ebx,4), %esi	 # CRC32_TAB, crc
LVL49:
	movl	%esi, %eax	 # crc, crc
LVL50:
L75:
	movl	%eax, %edi	 # crc, crc
	xorb	(%edx), %al	 # MEM[base: a_src_ptr_66, offset: 0B], position
LVL51:
	.loc 1 288 0
	addl	$1, %edx	 #, a_src_ptr
	.loc 1 287 0
	shrl	$8, %edi	 #, crc
LVL52:
	movzbl	%al, %eax	 # position, D.30105
LVL53:
	xorl	_CRC32_TAB(,%eax,4), %edi	 # CRC32_TAB, crc
LVL54:
	movl	%edi, %eax	 # crc, crc
LVL55:
L74:
	movl	%eax, %esi	 # crc, crc
	xorb	(%edx), %al	 # MEM[base: a_src_ptr_66, offset: 0B], position
LVL56:
	.loc 1 288 0
	addl	$1, %edx	 #, a_src_ptr
	.loc 1 287 0
	shrl	$8, %esi	 #, crc
LVL57:
	movzbl	%al, %ebx	 # position, D.30105
LVL58:
	xorl	_CRC32_TAB(,%ebx,4), %esi	 # CRC32_TAB, crc
LVL59:
	movl	%esi, %eax	 # crc, crc
LVL60:
L73:
	movl	%eax, %ecx	 # crc, crc
	xorb	(%edx), %al	 # MEM[base: a_src_ptr_66, offset: 0B], position
LVL61:
	.loc 1 288 0
	addl	$1, %edx	 #, a_src_ptr
	.loc 1 287 0
	shrl	$8, %ecx	 #, crc
LVL62:
	movzbl	%al, %edi	 # position, D.30105
LVL63:
	xorl	_CRC32_TAB(,%edi,4), %ecx	 # CRC32_TAB, crc
LVL64:
	movl	%ecx, %eax	 # crc, crc
LVL65:
L72:
	movl	%eax, %esi	 # crc, crc
	xorb	(%edx), %al	 # MEM[base: a_src_ptr_66, offset: 0B], position
LVL66:
	.loc 1 288 0
	addl	$1, %edx	 #, a_src_ptr
	.loc 1 287 0
	shrl	$8, %esi	 #, crc
LVL67:
	movzbl	%al, %eax	 # position, D.30105
LVL68:
	xorl	_CRC32_TAB(,%eax,4), %esi	 # CRC32_TAB, crc
LVL69:
	movl	%esi, %eax	 # crc, crc
LVL70:
L71:
	movl	%eax, %ebx	 # crc, crc
	xorb	(%edx), %al	 # MEM[base: a_src_ptr_66, offset: 0B], position
LVL71:
	.loc 1 288 0
	addl	$1, %edx	 #, a_src_ptr
	.loc 1 287 0
	shrl	$8, %ebx	 #, crc
LVL72:
	movzbl	%al, %ecx	 # position, D.30105
LVL73:
	xorl	_CRC32_TAB(,%ecx,4), %ebx	 # CRC32_TAB, crc
LVL74:
	movl	%ebx, %eax	 # crc, crc
LVL75:
L70:
	movl	%eax, %edi	 # crc, crc
	xorb	(%edx), %al	 # MEM[base: a_src_ptr_66, offset: 0B], position
LVL76:
	.loc 1 288 0
	addl	$1, %edx	 #, a_src_ptr
	.loc 1 287 0
	shrl	$8, %edi	 #, crc
LVL77:
	movzbl	%al, %esi	 # position, D.30105
LVL78:
	xorl	_CRC32_TAB(,%esi,4), %edi	 # CRC32_TAB, crc
LVL79:
	.loc 1 286 0
	cmpl	%ebp, %edx	 # r_src_ptr_end, a_src_ptr
	.loc 1 287 0
	movl	%edi, %eax	 # crc, crc
LVL80:
	.loc 1 286 0
	je	L9	 #,
LVL81:
L10:
	.loc 1 287 0
	movl	%eax, %ecx	 # crc, crc
	xorb	(%edx), %al	 # MEM[base: a_src_ptr_66, offset: 0B], position
LVL82:
	.loc 1 288 0
	addl	$8, %edx	 #, a_src_ptr
	.loc 1 287 0
	shrl	$8, %ecx	 #, crc
LVL83:
	movzbl	%al, %eax	 # position, D.30105
	xorl	_CRC32_TAB(,%eax,4), %ecx	 # CRC32_TAB, crc
	movl	%ecx, %ebx	 # crc, crc
	xorb	-7(%edx), %bl	 # MEM[base: a_src_ptr_66, offset: 0B], position
	shrl	$8, %ecx	 #, crc
	movzbl	%bl, %edi	 # position, D.30105
	xorl	_CRC32_TAB(,%edi,4), %ecx	 # CRC32_TAB, crc
	movl	%ecx, %eax	 # crc, crc
	xorb	-6(%edx), %cl	 # MEM[base: a_src_ptr_66, offset: 0B], position
	shrl	$8, %eax	 #, crc
	movzbl	%cl, %esi	 # position, D.30105
	xorl	_CRC32_TAB(,%esi,4), %eax	 # CRC32_TAB, crc
	movl	%eax, %ecx	 # crc, crc
	xorb	-5(%edx), %al	 # MEM[base: a_src_ptr_66, offset: 0B], position
	shrl	$8, %ecx	 #, crc
	movzbl	%al, %ebx	 # position, D.30105
	xorl	_CRC32_TAB(,%ebx,4), %ecx	 # CRC32_TAB, crc
	movl	%ecx, %eax	 # crc, crc
	xorb	-4(%edx), %cl	 # MEM[base: a_src_ptr_66, offset: 0B], position
	shrl	$8, %eax	 #, crc
	movzbl	%cl, %edi	 # position, D.30105
	xorl	_CRC32_TAB(,%edi,4), %eax	 # CRC32_TAB, crc
	movl	%eax, %ecx	 # crc, crc
	xorb	-3(%edx), %al	 # MEM[base: a_src_ptr_66, offset: 0B], position
	shrl	$8, %ecx	 #, crc
	movzbl	%al, %esi	 # position, D.30105
	xorl	_CRC32_TAB(,%esi,4), %ecx	 # CRC32_TAB, crc
	movl	%ecx, %ebx	 # crc, crc
	xorb	-2(%edx), %cl	 # MEM[base: a_src_ptr_66, offset: 0B], position
	shrl	$8, %ebx	 #, crc
	movzbl	%cl, %eax	 # position, D.30105
	xorl	_CRC32_TAB(,%eax,4), %ebx	 # CRC32_TAB, crc
	movl	%ebx, %edi	 # crc, crc
	xorb	-1(%edx), %bl	 # MEM[base: a_src_ptr_66, offset: 0B], position
	shrl	$8, %edi	 #, crc
	movzbl	%bl, %ecx	 # position, D.30105
LVL84:
	xorl	_CRC32_TAB(,%ecx,4), %edi	 # CRC32_TAB, crc
LVL85:
	.loc 1 286 0
	cmpl	%ebp, %edx	 # r_src_ptr_end, a_src_ptr
	.loc 1 287 0
	movl	%edi, %eax	 # crc, crc
LVL86:
	.loc 1 286 0
	jne	L10	 #,
LVL87:
L9:
	.loc 1 310 0
	movl	$0, __ZZN3stk4hash5crc3210calc_CRC32EPKvjjE9__shared1	 #, __shared1
	movl	$0, __ZZN3stk4hash5crc3210calc_CRC32EPKvjjE9__shared1+4	 #, __shared1
LBE13:
	.loc 1 313 0
	addl	$748, %esp	 #,
	.cfi_remember_state
	.cfi_def_cfa_offset 20
	popl	%ebx	 #
	.cfi_restore 3
	.cfi_def_cfa_offset 16
LBB18:
	.loc 1 309 0
	notl	%eax	 # crc
LBE18:
	.loc 1 313 0
	popl	%esi	 #
	.cfi_restore 6
	.cfi_def_cfa_offset 12
	popl	%edi	 #
	.cfi_restore 7
	.cfi_def_cfa_offset 8
	popl	%ebp	 #
	.cfi_restore 5
	.cfi_def_cfa_offset 4
LVL88:
	ret	$12	 #
LVL89:
L12:
	.cfi_restore_state
LBB19:
	.loc 1 240 0
	movl	$-1, %eax	 #, crc
	jmp	L11	 #
LBE19:
	.cfi_endproc
LFE711:
	.section	.text.unlikely,"x"
LCOLDE0:
	.text
LHOTE0:
	.section .rdata,"dr"
LC5:
	.ascii "123456789\0"
LC6:
	.ascii "ZYXWVUTSRQPONMLKJIHGFEDBCA\0"
	.align 4
LC7:
	.ascii "The quick brown fox jumps over the lazy dog\0"
	.section	.text.unlikely,"x"
LCOLDB8:
	.text
LHOTB8:
	.p2align 4,,15
	.globl	__ZN3stk4hash5crc3210test_CRC32Eb@4
	.def	__ZN3stk4hash5crc3210test_CRC32Eb@4;	.scl	2;	.type	32;	.endef
__ZN3stk4hash5crc3210test_CRC32Eb@4:
LFB705:
	.loc 1 123 0
	.cfi_startproc
LVL90:
	pushl	%esi	 #
	.cfi_def_cfa_offset 8
	.cfi_offset 6, -8
	pushl	%ebx	 #
	.cfi_def_cfa_offset 12
	.cfi_offset 3, -12
	subl	$756, %esp	 #,
	.cfi_def_cfa_offset 768
LBB30:
	.loc 1 128 0
	cmpb	$0, 768(%esp)	 #, a_reset_table
	jne	L109	 #,
L112:
	leal	412(%esp), %ebx	 #, tmp207
LVL91:
	.loc 1 130 0
	movl	$LC5, 4(%esp)	 #,
	movl	%ebx, (%esp)	 # tmp207,
	call	__ZN3stk4cstr3movEPcPKc@8	 #
	.cfi_def_cfa_offset 760
LVL92:
	subl	$8, %esp	 #,
	.cfi_def_cfa_offset 768
	.loc 1 131 0
	movl	%ebx, (%esp)	 # tmp207,
	call	__ZN3stk4cstr3lenEPKc@4	 #
	.cfi_def_cfa_offset 764
LVL93:
	subl	$4, %esp	 #,
	.cfi_def_cfa_offset 768
LVL94:
LBB31:
LBB32:
	.loc 1 192 0
	movl	$0, 8(%esp)	 #,
	movl	%eax, 4(%esp)	 # D.30196,
	movl	%ebx, (%esp)	 # tmp207,
	call	__ZN3stk4hash5crc3210calc_CRC32EPKvjj@12.constprop.0	 #
	.cfi_def_cfa_offset 756
LVL95:
	subl	$12, %esp	 #,
	.cfi_def_cfa_offset 768
LBE32:
LBE31:
	.loc 1 131 0
	cmpl	$-873187034, %eax	 #, D.30197
	je	L135	 #,
L119:
	movl	$1000000, %esi	 #, D.30198
	jmp	L110	 #
	.p2align 4,,10
L114:
	.loc 1 130 0
	movl	$LC5, 4(%esp)	 #,
	movl	%ebx, (%esp)	 # tmp207,
	subl	$1, %esi	 #, tmp209
	call	__ZN3stk4cstr3movEPcPKc@8	 #
	.cfi_def_cfa_offset 760
LVL96:
	subl	$8, %esp	 #,
	.cfi_def_cfa_offset 768
	.loc 1 131 0
	movl	%ebx, (%esp)	 # tmp207,
	call	__ZN3stk4cstr3lenEPKc@4	 #
	.cfi_def_cfa_offset 764
LVL97:
	subl	$4, %esp	 #,
	.cfi_def_cfa_offset 768
LBB37:
LBB33:
	.loc 1 192 0
	movl	$0, 8(%esp)	 #,
	movl	%eax, 4(%esp)	 # D.30196,
	movl	%ebx, (%esp)	 # tmp207,
	call	__ZN3stk4hash5crc3210calc_CRC32EPKvjj@12.constprop.0	 #
	.cfi_def_cfa_offset 756
LVL98:
	subl	$12, %esp	 #,
	.cfi_def_cfa_offset 768
LBE33:
LBE37:
	.loc 1 131 0
	cmpl	$-873187034, %eax	 #, D.30197
	je	L136	 #,
L122:
	.loc 1 130 0
	movl	$LC5, 4(%esp)	 #,
	movl	%ebx, (%esp)	 # tmp207,
	call	__ZN3stk4cstr3movEPcPKc@8	 #
	.cfi_def_cfa_offset 760
LVL99:
	subl	$8, %esp	 #,
	.cfi_def_cfa_offset 768
	.loc 1 131 0
	movl	%ebx, (%esp)	 # tmp207,
	call	__ZN3stk4cstr3lenEPKc@4	 #
	.cfi_def_cfa_offset 764
LVL100:
	subl	$4, %esp	 #,
	.cfi_def_cfa_offset 768
LBB38:
LBB34:
	.loc 1 192 0
	movl	$0, 8(%esp)	 #,
	movl	%eax, 4(%esp)	 # D.30196,
	movl	%ebx, (%esp)	 # tmp207,
	call	__ZN3stk4hash5crc3210calc_CRC32EPKvjj@12.constprop.0	 #
	.cfi_def_cfa_offset 756
LVL101:
	subl	$12, %esp	 #,
	.cfi_def_cfa_offset 768
LBE34:
LBE38:
	.loc 1 131 0
	cmpl	$-873187034, %eax	 #, D.30197
	je	L137	 #,
L125:
	.loc 1 130 0
	movl	$LC5, 4(%esp)	 #,
	movl	%ebx, (%esp)	 # tmp207,
	call	__ZN3stk4cstr3movEPcPKc@8	 #
	.cfi_def_cfa_offset 760
LVL102:
	subl	$8, %esp	 #,
	.cfi_def_cfa_offset 768
	.loc 1 131 0
	movl	%ebx, (%esp)	 # tmp207,
	call	__ZN3stk4cstr3lenEPKc@4	 #
	.cfi_def_cfa_offset 764
LVL103:
	subl	$4, %esp	 #,
	.cfi_def_cfa_offset 768
LBB39:
LBB35:
	.loc 1 192 0
	movl	$0, 8(%esp)	 #,
	movl	%eax, 4(%esp)	 # D.30196,
	movl	%ebx, (%esp)	 # tmp207,
	call	__ZN3stk4hash5crc3210calc_CRC32EPKvjj@12.constprop.0	 #
	.cfi_def_cfa_offset 756
LVL104:
	subl	$12, %esp	 #,
	.cfi_def_cfa_offset 768
LBE35:
LBE39:
	.loc 1 131 0
	cmpl	$-873187034, %eax	 #, D.30197
	je	L138	 #,
L128:
	.loc 1 129 0
	subl	$3, %esi	 #, D.30198
	je	L139	 #,
L110:
	.loc 1 130 0
	movl	$LC5, 4(%esp)	 #,
	movl	%ebx, (%esp)	 # tmp207,
	call	__ZN3stk4cstr3movEPcPKc@8	 #
	.cfi_def_cfa_offset 760
LVL105:
	subl	$8, %esp	 #,
	.cfi_def_cfa_offset 768
	.loc 1 131 0
	movl	%ebx, (%esp)	 # tmp207,
	call	__ZN3stk4cstr3lenEPKc@4	 #
	.cfi_def_cfa_offset 764
LVL106:
	subl	$4, %esp	 #,
	.cfi_def_cfa_offset 768
LBB40:
LBB36:
	.loc 1 192 0
	movl	$0, 8(%esp)	 #,
	movl	%eax, 4(%esp)	 # D.30196,
	movl	%ebx, (%esp)	 # tmp207,
	call	__ZN3stk4hash5crc3210calc_CRC32EPKvjj@12.constprop.0	 #
	.cfi_def_cfa_offset 756
LVL107:
	subl	$12, %esp	 #,
	.cfi_def_cfa_offset 768
LBE36:
LBE40:
	.loc 1 131 0
	cmpl	$-873187034, %eax	 #, D.30197
	jne	L114	 #,
	.loc 1 132 0
	movl	$LC6, 4(%esp)	 #,
	movl	%ebx, (%esp)	 # tmp207,
	call	__ZN3stk4cstr3movEPcPKc@8	 #
	.cfi_def_cfa_offset 760
LVL108:
	subl	$8, %esp	 #,
	.cfi_def_cfa_offset 768
	.loc 1 133 0
	movl	%ebx, (%esp)	 # tmp207,
	call	__ZN3stk4cstr3lenEPKc@4	 #
	.cfi_def_cfa_offset 764
LVL109:
	subl	$4, %esp	 #,
	.cfi_def_cfa_offset 768
LVL110:
LBB41:
LBB42:
	.loc 1 192 0
	movl	$0, 8(%esp)	 #,
	movl	%eax, 4(%esp)	 # D.30196,
	movl	%ebx, (%esp)	 # tmp207,
	call	__ZN3stk4hash5crc3210calc_CRC32EPKvjj@12.constprop.0	 #
	.cfi_def_cfa_offset 756
LVL111:
	subl	$12, %esp	 #,
	.cfi_def_cfa_offset 768
LBE42:
LBE41:
	.loc 1 133 0
	cmpl	$-1714553422, %eax	 #, D.30197
	jne	L114	 #,
	.loc 1 134 0
	movl	$LC7, 4(%esp)	 #,
	movl	%ebx, (%esp)	 # tmp207,
	call	__ZN3stk4cstr3movEPcPKc@8	 #
	.cfi_def_cfa_offset 760
LVL112:
	subl	$8, %esp	 #,
	.cfi_def_cfa_offset 768
	.loc 1 135 0
	movl	%ebx, (%esp)	 # tmp207,
	call	__ZN3stk4cstr3lenEPKc@4	 #
	.cfi_def_cfa_offset 764
LVL113:
	subl	$4, %esp	 #,
	.cfi_def_cfa_offset 768
LVL114:
LBB47:
LBB48:
	.loc 1 192 0
	movl	$0, 8(%esp)	 #,
	movl	%eax, 4(%esp)	 # D.30196,
	movl	%ebx, (%esp)	 # tmp207,
	call	__ZN3stk4hash5crc3210calc_CRC32EPKvjj@12.constprop.0	 #
	.cfi_def_cfa_offset 756
LVL115:
	subl	$12, %esp	 #,
	.cfi_def_cfa_offset 768
	jmp	L114	 #
LVL116:
	.p2align 4,,10
L138:
LBE48:
LBE47:
	.loc 1 132 0
	movl	$LC6, 4(%esp)	 #,
	movl	%ebx, (%esp)	 # tmp207,
	call	__ZN3stk4cstr3movEPcPKc@8	 #
	.cfi_def_cfa_offset 760
LVL117:
	subl	$8, %esp	 #,
	.cfi_def_cfa_offset 768
	.loc 1 133 0
	movl	%ebx, (%esp)	 # tmp207,
	call	__ZN3stk4cstr3lenEPKc@4	 #
	.cfi_def_cfa_offset 764
LVL118:
	subl	$4, %esp	 #,
	.cfi_def_cfa_offset 768
LVL119:
LBB53:
LBB43:
	.loc 1 192 0
	movl	$0, 8(%esp)	 #,
	movl	%eax, 4(%esp)	 # D.30196,
	movl	%ebx, (%esp)	 # tmp207,
	call	__ZN3stk4hash5crc3210calc_CRC32EPKvjj@12.constprop.0	 #
	.cfi_def_cfa_offset 756
LVL120:
	subl	$12, %esp	 #,
	.cfi_def_cfa_offset 768
LBE43:
LBE53:
	.loc 1 133 0
	cmpl	$-1714553422, %eax	 #, D.30197
	jne	L128	 #,
	.loc 1 134 0
	movl	$LC7, 4(%esp)	 #,
	movl	%ebx, (%esp)	 # tmp207,
	call	__ZN3stk4cstr3movEPcPKc@8	 #
	.cfi_def_cfa_offset 760
LVL121:
	subl	$8, %esp	 #,
	.cfi_def_cfa_offset 768
	.loc 1 135 0
	movl	%ebx, (%esp)	 # tmp207,
	call	__ZN3stk4cstr3lenEPKc@4	 #
	.cfi_def_cfa_offset 764
LVL122:
	subl	$4, %esp	 #,
	.cfi_def_cfa_offset 768
LVL123:
LBB54:
LBB49:
	.loc 1 192 0
	movl	$0, 8(%esp)	 #,
	movl	%eax, 4(%esp)	 # D.30196,
	movl	%ebx, (%esp)	 # tmp207,
	call	__ZN3stk4hash5crc3210calc_CRC32EPKvjj@12.constprop.0	 #
	.cfi_def_cfa_offset 756
LVL124:
	subl	$12, %esp	 #,
	.cfi_def_cfa_offset 768
LBE49:
LBE54:
	.loc 1 129 0
	subl	$3, %esi	 #, D.30198
	jne	L110	 #,
LVL125:
	.p2align 4,,10
L139:
LBE30:
	.loc 1 142 0
	addl	$756, %esp	 #,
	.cfi_remember_state
	.cfi_def_cfa_offset 12
	movl	$1, %eax	 #,
	popl	%ebx	 #
	.cfi_restore 3
	.cfi_def_cfa_offset 8
LVL126:
	popl	%esi	 #
	.cfi_restore 6
	.cfi_def_cfa_offset 4
	ret	$4	 #
LVL127:
	.p2align 4,,10
L137:
	.cfi_restore_state
LBB63:
	.loc 1 132 0
	movl	$LC6, 4(%esp)	 #,
	movl	%ebx, (%esp)	 # tmp207,
	call	__ZN3stk4cstr3movEPcPKc@8	 #
	.cfi_def_cfa_offset 760
LVL128:
	subl	$8, %esp	 #,
	.cfi_def_cfa_offset 768
	.loc 1 133 0
	movl	%ebx, (%esp)	 # tmp207,
	call	__ZN3stk4cstr3lenEPKc@4	 #
	.cfi_def_cfa_offset 764
LVL129:
	subl	$4, %esp	 #,
	.cfi_def_cfa_offset 768
LVL130:
LBB55:
LBB44:
	.loc 1 192 0
	movl	$0, 8(%esp)	 #,
	movl	%eax, 4(%esp)	 # D.30196,
	movl	%ebx, (%esp)	 # tmp207,
	call	__ZN3stk4hash5crc3210calc_CRC32EPKvjj@12.constprop.0	 #
	.cfi_def_cfa_offset 756
LVL131:
	subl	$12, %esp	 #,
	.cfi_def_cfa_offset 768
LBE44:
LBE55:
	.loc 1 133 0
	cmpl	$-1714553422, %eax	 #, D.30197
	jne	L125	 #,
	.loc 1 134 0
	movl	$LC7, 4(%esp)	 #,
	movl	%ebx, (%esp)	 # tmp207,
	call	__ZN3stk4cstr3movEPcPKc@8	 #
	.cfi_def_cfa_offset 760
LVL132:
	subl	$8, %esp	 #,
	.cfi_def_cfa_offset 768
	.loc 1 135 0
	movl	%ebx, (%esp)	 # tmp207,
	call	__ZN3stk4cstr3lenEPKc@4	 #
	.cfi_def_cfa_offset 764
LVL133:
	subl	$4, %esp	 #,
	.cfi_def_cfa_offset 768
LVL134:
LBB56:
LBB50:
	.loc 1 192 0
	movl	$0, 8(%esp)	 #,
	movl	%eax, 4(%esp)	 # D.30196,
	movl	%ebx, (%esp)	 # tmp207,
	call	__ZN3stk4hash5crc3210calc_CRC32EPKvjj@12.constprop.0	 #
	.cfi_def_cfa_offset 756
LVL135:
	subl	$12, %esp	 #,
	.cfi_def_cfa_offset 768
	jmp	L125	 #
LVL136:
	.p2align 4,,10
L136:
LBE50:
LBE56:
	.loc 1 132 0
	movl	$LC6, 4(%esp)	 #,
	movl	%ebx, (%esp)	 # tmp207,
	call	__ZN3stk4cstr3movEPcPKc@8	 #
	.cfi_def_cfa_offset 760
LVL137:
	subl	$8, %esp	 #,
	.cfi_def_cfa_offset 768
	.loc 1 133 0
	movl	%ebx, (%esp)	 # tmp207,
	call	__ZN3stk4cstr3lenEPKc@4	 #
	.cfi_def_cfa_offset 764
LVL138:
	subl	$4, %esp	 #,
	.cfi_def_cfa_offset 768
LVL139:
LBB57:
LBB45:
	.loc 1 192 0
	movl	$0, 8(%esp)	 #,
	movl	%eax, 4(%esp)	 # D.30196,
	movl	%ebx, (%esp)	 # tmp207,
	call	__ZN3stk4hash5crc3210calc_CRC32EPKvjj@12.constprop.0	 #
	.cfi_def_cfa_offset 756
LVL140:
	subl	$12, %esp	 #,
	.cfi_def_cfa_offset 768
LBE45:
LBE57:
	.loc 1 133 0
	cmpl	$-1714553422, %eax	 #, D.30197
	jne	L122	 #,
	.loc 1 134 0
	movl	$LC7, 4(%esp)	 #,
	movl	%ebx, (%esp)	 # tmp207,
	call	__ZN3stk4cstr3movEPcPKc@8	 #
	.cfi_def_cfa_offset 760
LVL141:
	subl	$8, %esp	 #,
	.cfi_def_cfa_offset 768
	.loc 1 135 0
	movl	%ebx, (%esp)	 # tmp207,
	call	__ZN3stk4cstr3lenEPKc@4	 #
	.cfi_def_cfa_offset 764
LVL142:
	subl	$4, %esp	 #,
	.cfi_def_cfa_offset 768
LVL143:
LBB58:
LBB51:
	.loc 1 192 0
	movl	$0, 8(%esp)	 #,
	movl	%eax, 4(%esp)	 # D.30196,
	movl	%ebx, (%esp)	 # tmp207,
	call	__ZN3stk4hash5crc3210calc_CRC32EPKvjj@12.constprop.0	 #
	.cfi_def_cfa_offset 756
LVL144:
	subl	$12, %esp	 #,
	.cfi_def_cfa_offset 768
	jmp	L122	 #
LVL145:
	.p2align 4,,10
L109:
	pxor	%xmm1, %xmm1	 # tmp208
	movl	$-306674912, __ZL11POLY_NOMIAL	 #, POLY_NOMIAL
LBE51:
LBE58:
LBB59:
LBB60:
	.loc 1 150 0
	prefetchnta	_CRC32_TAB	 #
LVL146:
	movdqa	LC2, %xmm5	 #, vect_cst_.45
	movl	$_CRC32_TAB, %eax	 #, ivtmp.120
	movdqa	LC1, %xmm4	 #, vect_vec_iv_.46
	movdqa	LC3, %xmm3	 #, tmp205
	movdqa	LC4, %xmm2	 #, tmp206
LVL147:
	.p2align 4,,10
L111:
	.loc 1 159 0
	movdqa	%xmm4, %xmm6	 # vect_vec_iv_.46, vect__57.49
	movdqa	%xmm4, %xmm7	 # vect_vec_iv_.46, vect__55.47
	paddd	%xmm5, %xmm4	 # vect_cst_.45, vect_vec_iv_.46
	addl	$16, %eax	 #, ivtmp.120
	psrld	$1, %xmm6	 #, vect__57.49
	pand	%xmm3, %xmm7	 # tmp205, vect__55.47
	movdqa	%xmm6, %xmm0	 # vect__57.49, vect_c_59.50
	pxor	%xmm2, %xmm0	 # tmp206, vect_c_59.50
	pcmpeqd	%xmm1, %xmm7	 # tmp208, tmp135
	pand	%xmm7, %xmm6	 # tmp135, tmp136
	pandn	%xmm0, %xmm7	 # vect_c_59.50, tmp137
	movdqa	%xmm7, %xmm0	 # tmp137, tmp137
	por	%xmm6, %xmm0	 # tmp136, vect_c_60.53
	movdqa	%xmm0, %xmm6	 # vect_c_60.53, vect__66.57
	pand	%xmm3, %xmm0	 # tmp205, vect__64.55
	psrld	$1, %xmm6	 #, vect__66.57
	movdqa	%xmm6, %xmm7	 # vect__66.57, vect_c_68.58
	pxor	%xmm2, %xmm7	 # tmp206, vect_c_68.58
	pcmpeqd	%xmm1, %xmm0	 # tmp208, tmp143
	pand	%xmm0, %xmm6	 # tmp143, tmp144
	pandn	%xmm7, %xmm0	 # vect_c_68.58, tmp145
	por	%xmm6, %xmm0	 # tmp144, vect_c_69.61
	movdqa	%xmm0, %xmm7	 # vect_c_69.61, vect__75.65
	pand	%xmm3, %xmm0	 # tmp205, vect__73.63
	psrld	$1, %xmm7	 #, vect__75.65
	movdqa	%xmm7, %xmm6	 # vect__75.65, vect_c_77.66
	pxor	%xmm2, %xmm6	 # tmp206, vect_c_77.66
	pcmpeqd	%xmm1, %xmm0	 # tmp208, tmp151
	pand	%xmm0, %xmm7	 # tmp151, tmp152
	pandn	%xmm6, %xmm0	 # vect_c_77.66, tmp153
	movdqa	%xmm0, %xmm6	 # tmp153, vect_c_78.69
	por	%xmm7, %xmm6	 # tmp152, vect_c_78.69
	movdqa	%xmm6, %xmm7	 # vect_c_78.69, vect__84.73
	pand	%xmm3, %xmm6	 # tmp205, vect__82.71
	psrld	$1, %xmm7	 #, vect__84.73
	movdqa	%xmm7, %xmm0	 # vect__84.73, vect_c_86.74
	pxor	%xmm2, %xmm0	 # tmp206, vect_c_86.74
	pcmpeqd	%xmm1, %xmm6	 # tmp208, tmp159
	pand	%xmm6, %xmm7	 # tmp159, tmp160
	pandn	%xmm0, %xmm6	 # vect_c_86.74, tmp161
	por	%xmm7, %xmm6	 # tmp160, vect_c_87.77
	movdqa	%xmm6, %xmm0	 # vect_c_87.77, vect_c_87.77
	movdqa	%xmm6, %xmm7	 # vect_c_87.77, vect__93.81
	pand	%xmm3, %xmm0	 # tmp205, vect__91.79
	psrld	$1, %xmm7	 #, vect__93.81
	movdqa	%xmm7, %xmm6	 # vect__93.81, vect_c_95.82
	pxor	%xmm2, %xmm6	 # tmp206, vect_c_95.82
	pcmpeqd	%xmm1, %xmm0	 # tmp208, tmp167
	pand	%xmm0, %xmm7	 # tmp167, tmp168
	pandn	%xmm6, %xmm0	 # vect_c_95.82, tmp169
	por	%xmm7, %xmm0	 # tmp168, vect_c_96.85
	movdqa	%xmm0, %xmm6	 # vect_c_96.85, vect_c_96.85
	movdqa	%xmm0, %xmm7	 # vect_c_96.85, vect__102.89
	pand	%xmm3, %xmm6	 # tmp205, vect__100.87
	psrld	$1, %xmm7	 #, vect__102.89
	movdqa	%xmm7, %xmm0	 # vect__102.89, vect_c_104.90
	pxor	%xmm2, %xmm0	 # tmp206, vect_c_104.90
	pcmpeqd	%xmm1, %xmm6	 # tmp208, tmp175
	pand	%xmm6, %xmm7	 # tmp175, tmp176
	pandn	%xmm0, %xmm6	 # vect_c_104.90, tmp177
	por	%xmm7, %xmm6	 # tmp176, vect_c_105.93
	movdqa	%xmm6, %xmm0	 # vect_c_105.93, vect_c_105.93
	psrld	$1, %xmm6	 #, vect__111.97
	movdqa	%xmm6, %xmm7	 # vect__111.97, vect_c_113.98
	pand	%xmm3, %xmm0	 # tmp205, vect__109.95
	pxor	%xmm2, %xmm7	 # tmp206, vect_c_113.98
	pcmpeqd	%xmm1, %xmm0	 # tmp208, tmp183
	pand	%xmm0, %xmm6	 # tmp183, tmp184
	pandn	%xmm7, %xmm0	 # vect_c_113.98, tmp185
	por	%xmm6, %xmm0	 # tmp184, vect_c_114.101
	movdqa	%xmm0, %xmm6	 # vect_c_114.101, vect__120.105
	pand	%xmm3, %xmm0	 # tmp205, vect__118.103
	psrld	$1, %xmm6	 #, vect__120.105
LVL148:
	movdqa	%xmm6, %xmm7	 # vect__120.105, vect_c_122.106
	pxor	%xmm2, %xmm7	 # tmp206, vect_c_122.106
	pcmpeqd	%xmm1, %xmm0	 # tmp208, tmp192
	pand	%xmm0, %xmm6	 # tmp192, tmp193
	pandn	%xmm7, %xmm0	 # vect_c_122.106, tmp194
	por	%xmm0, %xmm6	 # tmp194, vect_c_123.109
	.loc 1 162 0
	movaps	%xmm6, -16(%eax)	 # vect_c_123.109, MEM[base: _98, offset: 0B]
	cmpl	$_CRC32_TAB+1024, %eax	 #, ivtmp.120
	jne	L111	 #,
	jmp	L112	 #
LVL149:
L135:
LBE60:
LBE59:
	.loc 1 132 0
	movl	$LC6, 4(%esp)	 #,
	movl	%ebx, (%esp)	 # tmp207,
	call	__ZN3stk4cstr3movEPcPKc@8	 #
	.cfi_def_cfa_offset 760
LVL150:
	subl	$8, %esp	 #,
	.cfi_def_cfa_offset 768
	.loc 1 133 0
	movl	%ebx, (%esp)	 # tmp207,
	call	__ZN3stk4cstr3lenEPKc@4	 #
	.cfi_def_cfa_offset 764
LVL151:
	subl	$4, %esp	 #,
	.cfi_def_cfa_offset 768
LVL152:
LBB61:
LBB46:
	.loc 1 192 0
	movl	$0, 8(%esp)	 #,
	movl	%eax, 4(%esp)	 # D.30196,
	movl	%ebx, (%esp)	 # tmp207,
	call	__ZN3stk4hash5crc3210calc_CRC32EPKvjj@12.constprop.0	 #
	.cfi_def_cfa_offset 756
LVL153:
	subl	$12, %esp	 #,
	.cfi_def_cfa_offset 768
LBE46:
LBE61:
	.loc 1 133 0
	cmpl	$-1714553422, %eax	 #, D.30197
	jne	L119	 #,
	.loc 1 134 0
	movl	$LC7, 4(%esp)	 #,
	movl	%ebx, (%esp)	 # tmp207,
	call	__ZN3stk4cstr3movEPcPKc@8	 #
	.cfi_def_cfa_offset 760
LVL154:
	subl	$8, %esp	 #,
	.cfi_def_cfa_offset 768
	.loc 1 135 0
	movl	%ebx, (%esp)	 # tmp207,
	call	__ZN3stk4cstr3lenEPKc@4	 #
	.cfi_def_cfa_offset 764
LVL155:
	subl	$4, %esp	 #,
	.cfi_def_cfa_offset 768
LVL156:
LBB62:
LBB52:
	.loc 1 192 0
	movl	$0, 8(%esp)	 #,
	movl	%eax, 4(%esp)	 # D.30196,
	movl	%ebx, (%esp)	 # tmp207,
	call	__ZN3stk4hash5crc3210calc_CRC32EPKvjj@12.constprop.0	 #
	.cfi_def_cfa_offset 756
LVL157:
	subl	$12, %esp	 #,
	.cfi_def_cfa_offset 768
	jmp	L119	 #
LBE52:
LBE62:
LBE63:
	.cfi_endproc
LFE705:
	.section	.text.unlikely,"x"
LCOLDE8:
	.text
LHOTE8:
	.section	.text.unlikely,"x"
LCOLDB9:
	.text
LHOTB9:
	.p2align 4,,15
	.globl	__ZN3stk4hash5crc3211reset_CRC32Ev@0
	.def	__ZN3stk4hash5crc3211reset_CRC32Ev@0;	.scl	2;	.type	32;	.endef
__ZN3stk4hash5crc3211reset_CRC32Ev@0:
LFB706:
	.loc 1 146 0
	.cfi_startproc
	pxor	%xmm1, %xmm1	 # tmp188
	movl	$-306674912, __ZL11POLY_NOMIAL	 #, POLY_NOMIAL
LBB64:
	.loc 1 150 0
	prefetchnta	_CRC32_TAB	 #
LVL158:
	movdqa	LC2, %xmm5	 #, vect_cst_.129
	movl	$_CRC32_TAB, %eax	 #, ivtmp.200
	movdqa	LC1, %xmm4	 #, vect_vec_iv_.130
	movdqa	LC3, %xmm3	 #, tmp186
	movdqa	LC4, %xmm2	 #, tmp187
LVL159:
	.p2align 4,,10
L141:
	.loc 1 159 0 discriminator 1
	movdqa	%xmm4, %xmm6	 # vect_vec_iv_.130, vect__35.133
	movdqa	%xmm4, %xmm7	 # vect_vec_iv_.130, vect__33.131
	paddd	%xmm5, %xmm4	 # vect_cst_.129, vect_vec_iv_.130
	addl	$16, %eax	 #, ivtmp.200
	psrld	$1, %xmm6	 #, vect__35.133
	pand	%xmm3, %xmm7	 # tmp186, vect__33.131
	movdqa	%xmm6, %xmm0	 # vect__35.133, vect_c_37.134
	pxor	%xmm2, %xmm0	 # tmp187, vect_c_37.134
	pcmpeqd	%xmm1, %xmm7	 # tmp188, tmp126
	pand	%xmm7, %xmm6	 # tmp126, tmp127
	pandn	%xmm0, %xmm7	 # vect_c_37.134, tmp128
	movdqa	%xmm7, %xmm0	 # tmp128, tmp128
	por	%xmm6, %xmm0	 # tmp127, vect_c_38.137
	movdqa	%xmm0, %xmm6	 # vect_c_38.137, vect__44.141
	pand	%xmm3, %xmm0	 # tmp186, vect__42.139
	psrld	$1, %xmm6	 #, vect__44.141
	movdqa	%xmm6, %xmm7	 # vect__44.141, vect_c_46.142
	pxor	%xmm2, %xmm7	 # tmp187, vect_c_46.142
	pcmpeqd	%xmm1, %xmm0	 # tmp188, tmp134
	pand	%xmm0, %xmm6	 # tmp134, tmp135
	pandn	%xmm7, %xmm0	 # vect_c_46.142, tmp136
	por	%xmm6, %xmm0	 # tmp135, vect_c_47.145
	movdqa	%xmm0, %xmm7	 # vect_c_47.145, vect__53.149
	pand	%xmm3, %xmm0	 # tmp186, vect__51.147
	psrld	$1, %xmm7	 #, vect__53.149
	movdqa	%xmm7, %xmm6	 # vect__53.149, vect_c_55.150
	pxor	%xmm2, %xmm6	 # tmp187, vect_c_55.150
	pcmpeqd	%xmm1, %xmm0	 # tmp188, tmp142
	pand	%xmm0, %xmm7	 # tmp142, tmp143
	pandn	%xmm6, %xmm0	 # vect_c_55.150, tmp144
	movdqa	%xmm0, %xmm6	 # tmp144, vect_c_56.153
	por	%xmm7, %xmm6	 # tmp143, vect_c_56.153
	movdqa	%xmm6, %xmm7	 # vect_c_56.153, vect__62.157
	pand	%xmm3, %xmm6	 # tmp186, vect__60.155
	psrld	$1, %xmm7	 #, vect__62.157
	movdqa	%xmm7, %xmm0	 # vect__62.157, vect_c_64.158
	pxor	%xmm2, %xmm0	 # tmp187, vect_c_64.158
	pcmpeqd	%xmm1, %xmm6	 # tmp188, tmp150
	pand	%xmm6, %xmm7	 # tmp150, tmp151
	pandn	%xmm0, %xmm6	 # vect_c_64.158, tmp152
	por	%xmm7, %xmm6	 # tmp151, vect_c_65.161
	movdqa	%xmm6, %xmm0	 # vect_c_65.161, vect_c_65.161
	movdqa	%xmm6, %xmm7	 # vect_c_65.161, vect__71.165
	pand	%xmm3, %xmm0	 # tmp186, vect__69.163
	psrld	$1, %xmm7	 #, vect__71.165
	movdqa	%xmm7, %xmm6	 # vect__71.165, vect_c_73.166
	pxor	%xmm2, %xmm6	 # tmp187, vect_c_73.166
	pcmpeqd	%xmm1, %xmm0	 # tmp188, tmp158
	pand	%xmm0, %xmm7	 # tmp158, tmp159
	pandn	%xmm6, %xmm0	 # vect_c_73.166, tmp160
	por	%xmm7, %xmm0	 # tmp159, vect_c_74.169
	movdqa	%xmm0, %xmm6	 # vect_c_74.169, vect_c_74.169
	movdqa	%xmm0, %xmm7	 # vect_c_74.169, vect__80.173
	pand	%xmm3, %xmm6	 # tmp186, vect__78.171
	psrld	$1, %xmm7	 #, vect__80.173
	movdqa	%xmm7, %xmm0	 # vect__80.173, vect_c_82.174
	pxor	%xmm2, %xmm0	 # tmp187, vect_c_82.174
	pcmpeqd	%xmm1, %xmm6	 # tmp188, tmp166
	pand	%xmm6, %xmm7	 # tmp166, tmp167
	pandn	%xmm0, %xmm6	 # vect_c_82.174, tmp168
	por	%xmm7, %xmm6	 # tmp167, vect_c_83.177
	movdqa	%xmm6, %xmm0	 # vect_c_83.177, vect_c_83.177
	psrld	$1, %xmm6	 #, vect__89.181
	movdqa	%xmm6, %xmm7	 # vect__89.181, vect_c_91.182
	pand	%xmm3, %xmm0	 # tmp186, vect__87.179
	pxor	%xmm2, %xmm7	 # tmp187, vect_c_91.182
	pcmpeqd	%xmm1, %xmm0	 # tmp188, tmp174
	pand	%xmm0, %xmm6	 # tmp174, tmp175
	pandn	%xmm7, %xmm0	 # vect_c_91.182, tmp176
	por	%xmm6, %xmm0	 # tmp175, vect_c_92.185
	movdqa	%xmm0, %xmm6	 # vect_c_92.185, vect__98.189
	pand	%xmm3, %xmm0	 # tmp186, vect__96.187
	psrld	$1, %xmm6	 #, vect__98.189
LVL160:
	movdqa	%xmm6, %xmm7	 # vect__98.189, vect_c_100.190
	pxor	%xmm2, %xmm7	 # tmp187, vect_c_100.190
	pcmpeqd	%xmm1, %xmm0	 # tmp188, tmp183
	pand	%xmm0, %xmm6	 # tmp183, tmp184
	pandn	%xmm7, %xmm0	 # vect_c_100.190, tmp185
	por	%xmm0, %xmm6	 # tmp185, vect_c_101.193
	.loc 1 162 0 discriminator 1
	movaps	%xmm6, -16(%eax)	 # vect_c_101.193, MEM[base: _21, offset: 0B]
	cmpl	$_CRC32_TAB+1024, %eax	 #, ivtmp.200
	jne	L141	 #,
LBE64:
	.loc 1 177 0
	rep ret
	.cfi_endproc
LFE706:
	.section	.text.unlikely,"x"
LCOLDE9:
	.text
LHOTE9:
	.section	.text.unlikely,"x"
LCOLDB10:
	.text
LHOTB10:
	.p2align 4,,15
	.globl	__ZN3stk4hash5crc3210calc_CRC32EPKvj@8
	.def	__ZN3stk4hash5crc3210calc_CRC32EPKvj@8;	.scl	2;	.type	32;	.endef
__ZN3stk4hash5crc3210calc_CRC32EPKvj@8:
LFB707:
	.loc 1 191 0
	.cfi_startproc
LVL161:
	subl	$508, %esp	 #,
	.cfi_def_cfa_offset 512
	.loc 1 192 0
	movl	516(%esp), %eax	 # a_count, a_count
	movl	512(%esp), %edx	 # a_src_ptr, a_src_ptr
	movl	$0, 8(%esp)	 #,
	movl	%eax, 4(%esp)	 # a_count,
	movl	%edx, (%esp)	 # a_src_ptr,
	call	__ZN3stk4hash5crc3210calc_CRC32EPKvjj@12.constprop.0	 #
	.cfi_def_cfa_offset 500
LVL162:
	subl	$12, %esp	 #,
	.cfi_def_cfa_offset 512
	.loc 1 193 0
	addl	$508, %esp	 #,
	.cfi_def_cfa_offset 4
	ret	$8	 #
	.cfi_endproc
LFE707:
	.section	.text.unlikely,"x"
LCOLDE10:
	.text
LHOTE10:
	.section	.text.unlikely,"x"
LCOLDB11:
	.text
LHOTB11:
	.p2align 4,,15
	.globl	__ZN3stk4hash5crc3218calc_CRC32_bitwiseEPKvjj@12
	.def	__ZN3stk4hash5crc3218calc_CRC32_bitwiseEPKvjj@12;	.scl	2;	.type	32;	.endef
__ZN3stk4hash5crc3218calc_CRC32_bitwiseEPKvjj@12:
LFB708:
	.loc 1 197 0
	.cfi_startproc
LVL163:
	pushl	%edi	 #
	.cfi_def_cfa_offset 8
	.cfi_offset 7, -8
	pushl	%esi	 #
	.cfi_def_cfa_offset 12
	.cfi_offset 6, -12
	pushl	%ebx	 #
	.cfi_def_cfa_offset 16
	.cfi_offset 3, -16
	.loc 1 197 0
	movl	16(%esp), %ebx	 # a_src_ptr, a_src_ptr
LBB65:
	.loc 1 203 0
	movl	20(%esp), %esi	 # a_count, r_src_ptr_end
	.loc 1 201 0
	movl	24(%esp), %edx	 # a_previous, crc
	.loc 1 203 0
	addl	%ebx, %esi	 # a_src_ptr, r_src_ptr_end
	.loc 1 201 0
	notl	%edx	 # crc
LVL164:
LBB66:
	.loc 1 210 0
	cmpl	%esi, %ebx	 # r_src_ptr_end, a_src_ptr
	jae	L146	 #,
	movl	__ZL11POLY_NOMIAL, %ecx	 # POLY_NOMIAL, D.30296
LVL165:
	.p2align 4,,10
L147:
	.loc 1 211 0
	movzbl	(%ebx), %edi	 # MEM[base: a_src_ptr_59, offset: 0B], D.30295
	xorl	%edi, %edx	 # D.30295, crc
LVL166:
	.loc 1 218 0
	movl	%edx, %eax	 # crc, crc
	andl	$1, %edx	 #, D.30295
LVL167:
	negl	%edx	 # mask
LVL168:
	shrl	%eax	 # crc
LVL169:
	andl	%ecx, %edx	 # D.30296, D.30295
LVL170:
	xorl	%eax, %edx	 # crc, crc
LVL171:
	.loc 1 219 0
	movl	%edx, %edi	 # crc, crc
	andl	$1, %edx	 #, D.30295
LVL172:
	negl	%edx	 # mask
LVL173:
	shrl	%edi	 # crc
LVL174:
	andl	%ecx, %edx	 # D.30296, D.30295
LVL175:
	xorl	%edi, %edx	 # crc, crc
LVL176:
	.loc 1 220 0
	movl	%edx, %eax	 # crc, crc
	andl	$1, %edx	 #, D.30295
LVL177:
	negl	%edx	 # mask
LVL178:
	shrl	%eax	 # crc
LVL179:
	andl	%ecx, %edx	 # D.30296, D.30295
LVL180:
	xorl	%eax, %edx	 # crc, crc
LVL181:
	.loc 1 221 0
	movl	%edx, %edi	 # crc, crc
	andl	$1, %edx	 #, D.30295
LVL182:
	negl	%edx	 # mask
LVL183:
	shrl	%edi	 # crc
LVL184:
	andl	%ecx, %edx	 # D.30296, D.30295
LVL185:
	xorl	%edi, %edx	 # crc, crc
LVL186:
	.loc 1 222 0
	movl	%edx, %eax	 # crc, crc
	andl	$1, %edx	 #, D.30295
LVL187:
	negl	%edx	 # mask
LVL188:
	shrl	%eax	 # crc
LVL189:
	andl	%ecx, %edx	 # D.30296, D.30295
LVL190:
	xorl	%eax, %edx	 # crc, crc
LVL191:
	.loc 1 223 0
	movl	%edx, %edi	 # crc, crc
	andl	$1, %edx	 #, D.30295
LVL192:
	negl	%edx	 # mask
LVL193:
	shrl	%edi	 # crc
LVL194:
	andl	%ecx, %edx	 # D.30296, D.30295
LVL195:
	xorl	%edi, %edx	 # crc, crc
LVL196:
	.loc 1 224 0
	movl	%edx, %eax	 # crc, crc
	andl	$1, %edx	 #, D.30295
LVL197:
	shrl	%eax	 # crc
LVL198:
	negl	%edx	 # mask
LVL199:
	.loc 1 227 0
	addl	$1, %ebx	 #, a_src_ptr
LVL200:
	.loc 1 224 0
	andl	%ecx, %edx	 # D.30296, D.30295
LVL201:
	xorl	%eax, %edx	 # crc, crc
LVL202:
	.loc 1 225 0
	movl	%edx, %edi	 # crc, crc
	andl	$1, %edx	 #, D.30295
LVL203:
	negl	%edx	 # mask
LVL204:
	shrl	%edi	 # crc
LVL205:
	andl	%ecx, %edx	 # D.30296, D.30295
LVL206:
	xorl	%edi, %edx	 # crc, crc
LVL207:
	.loc 1 210 0
	cmpl	%esi, %ebx	 # r_src_ptr_end, a_src_ptr
	jne	L147	 #,
L146:
LBE66:
	.loc 1 229 0
	movl	%edx, %eax	 # crc, D.30296
LBE65:
	.loc 1 230 0
	popl	%ebx	 #
	.cfi_restore 3
	.cfi_def_cfa_offset 12
LVL208:
LBB67:
	.loc 1 229 0
	notl	%eax	 # D.30296
LBE67:
	.loc 1 230 0
	popl	%esi	 #
	.cfi_restore 6
	.cfi_def_cfa_offset 8
LVL209:
	popl	%edi	 #
	.cfi_restore 7
	.cfi_def_cfa_offset 4
	ret	$12	 #
	.cfi_endproc
LFE708:
	.section	.text.unlikely,"x"
LCOLDE11:
	.text
LHOTE11:
	.section	.text.unlikely,"x"
LCOLDB12:
	.text
LHOTB12:
	.p2align 4,,15
	.globl	__ZN3stk4hash5crc3210calc_CRC32EPKvjj@12
	.def	__ZN3stk4hash5crc3210calc_CRC32EPKvjj@12;	.scl	2;	.type	32;	.endef
__ZN3stk4hash5crc3210calc_CRC32EPKvjj@12:
LFB709:
	.loc 1 234 0
	.cfi_startproc
LVL210:
	pushl	%ebp	 #
	.cfi_def_cfa_offset 8
	.cfi_offset 5, -8
	pushl	%edi	 #
	.cfi_def_cfa_offset 12
	.cfi_offset 7, -12
	pushl	%esi	 #
	.cfi_def_cfa_offset 16
	.cfi_offset 6, -16
	pushl	%ebx	 #
	.cfi_def_cfa_offset 20
	.cfi_offset 3, -20
	subl	$748, %esp	 #,
	.cfi_def_cfa_offset 768
	movl	768(%esp), %ebx	 # a_src_ptr, a_src_ptr
	jmp	L222	 #
	.p2align 4,,10
L168:
LBB68:
	.loc 1 239 0 discriminator 2
	movl	$0, (%esp)	 #,
	movl	$0, 4(%esp)	 #,
	call	__ZN3stk4time7wait_usEy@8	 #
	.cfi_def_cfa_offset 760
LVL211:
	subl	$8, %esp	 #,
	.cfi_def_cfa_offset 768
L222:
	.loc 1 239 0
	movl	__ZZN3stk4hash5crc3210calc_CRC32EPKvjjE9__shared1, %eax	 # __shared1, D.30312
	movl	__ZZN3stk4hash5crc3210calc_CRC32EPKvjjE9__shared1+4, %edx	 # __shared1, D.30312
	movl	%edx, %edi	 # D.30312, tmp278
	orl	%eax, %edi	 # D.30312, tmp278
	jne	L168	 #,
	call	__ZN3stk3cpu5rdtscEv	 #
LVL212:
	movl	%eax, __ZZN3stk4hash5crc3210calc_CRC32EPKvjjE9__shared1	 # __unique1, __shared1
	movl	%edx, __ZZN3stk4hash5crc3210calc_CRC32EPKvjjE9__shared1+4	 # __unique1, __shared1
/APP
 # 239 "hash\stk_hash_crc32.cpp" 1
	mfence
 # 0 "" 2
/NO_APP
	movl	__ZZN3stk4hash5crc3210calc_CRC32EPKvjjE9__shared1, %esi	 # __shared1, D.30312
	movl	__ZZN3stk4hash5crc3210calc_CRC32EPKvjjE9__shared1+4, %ecx	 # __shared1, D.30312
	movl	%ecx, %ebp	 # D.30312, tmp279
	orl	%esi, %ebp	 # D.30312, tmp279
	je	L153	 #,
LVL213:
	.p2align 4,,10
L152:
	movl	__ZZN3stk4hash5crc3210calc_CRC32EPKvjjE9__shared1, %esi	 # __shared1, D.30312
	movl	__ZZN3stk4hash5crc3210calc_CRC32EPKvjjE9__shared1+4, %edi	 # __shared1, D.30312
	movl	%edi, %ecx	 # D.30312, tmp135
	xorl	%eax, %esi	 # __unique1, tmp136
	xorl	%edx, %ecx	 # __unique1, tmp135
	orl	%esi, %ecx	 # tmp136, tmp281
	je	L153	 #,
	.loc 1 239 0 is_stmt 0 discriminator 12
	movl	$0, (%esp)	 #,
	movl	$0, 4(%esp)	 #,
	movl	%eax, 504(%esp)	 # __unique1, %sfp
	movl	%edx, 508(%esp)	 # __unique1, %sfp
	call	__ZN3stk4time7wait_usEy@8	 #
	.cfi_def_cfa_offset 760
LVL214:
	movl	__ZZN3stk4hash5crc3210calc_CRC32EPKvjjE9__shared1, %edx	 # __shared1, D.30312
	movl	__ZZN3stk4hash5crc3210calc_CRC32EPKvjjE9__shared1+4, %eax	 # __shared1, D.30312
	subl	$8, %esp	 #,
	.cfi_def_cfa_offset 768
	movl	%eax, %ebp	 # D.30312, tmp282
	movl	504(%esp), %eax	 # %sfp, __unique1
	orl	%edx, %ebp	 # D.30312, tmp282
	movl	508(%esp), %edx	 # %sfp, __unique1
	jne	L152	 #,
L153:
	.loc 1 273 0 is_stmt 1
	movl	772(%esp), %ebp	 # a_count, r_src_ptr_end
	.loc 1 240 0
	movl	776(%esp), %edx	 # a_previous, crc
	.loc 1 272 0
	prefetchnta	(%ebx)	 # a_src_ptr
	.loc 1 276 0
	prefetcht2	_CRC32_TAB	 #
LBB69:
	.loc 1 281 0
	movl	%ebx, %eax	 # a_src_ptr, a_src_ptr
LBE69:
	.loc 1 273 0
	addl	%ebx, %ebp	 # a_src_ptr, r_src_ptr_end
	.loc 1 240 0
	notl	%edx	 # crc
LVL215:
	.loc 1 274 0
	movl	%ebp, %edi	 # r_src_ptr_end, D.30314
	andl	$-64, %edi	 #, D.30314
LVL216:
LBB72:
	.loc 1 281 0
	cmpl	%edi, %ebx	 # D.30314, a_src_ptr
	jae	L161	 #,
LVL217:
L166:
LBB70:
	.loc 1 281 0 is_stmt 0 discriminator 1
	leal	64(%eax), %esi	 #, a_src_ptr
	prefetchnta	(%esi)	 # a_src_ptr
LVL218:
	.p2align 4,,10
L156:
LBB71:
	.loc 1 283 0 is_stmt 1 discriminator 3
	movl	%edx, %ecx	 # crc, crc
	xorb	(%eax), %dl	 # MEM[base: a_src_ptr_61, offset: 0B], position
LVL219:
	.loc 1 284 0 discriminator 3
	addl	$8, %eax	 #, a_src_ptr
	.loc 1 283 0 discriminator 3
	shrl	$8, %ecx	 #, crc
LVL220:
	movzbl	%dl, %edx	 # position, D.30316
	xorl	_CRC32_TAB(,%edx,4), %ecx	 # CRC32_TAB, crc
LVL221:
	movl	%ecx, %edx	 # crc, crc
	xorb	-7(%eax), %cl	 # MEM[base: a_src_ptr_61, offset: 0B], position
	shrl	$8, %edx	 #, crc
	movzbl	%cl, %ecx	 # position, D.30316
	xorl	_CRC32_TAB(,%ecx,4), %edx	 # CRC32_TAB, crc
	movl	%edx, %ecx	 # crc, crc
	xorb	-6(%eax), %dl	 # MEM[base: a_src_ptr_61, offset: 0B], position
	shrl	$8, %ecx	 #, crc
	movzbl	%dl, %edx	 # position, D.30316
	xorl	_CRC32_TAB(,%edx,4), %ecx	 # CRC32_TAB, crc
	movl	%ecx, %edx	 # crc, crc
	xorb	-5(%eax), %cl	 # MEM[base: a_src_ptr_61, offset: 0B], position
	shrl	$8, %edx	 #, crc
	movzbl	%cl, %ecx	 # position, D.30316
	xorl	_CRC32_TAB(,%ecx,4), %edx	 # CRC32_TAB, crc
	movl	%edx, %ecx	 # crc, crc
	xorb	-4(%eax), %dl	 # MEM[base: a_src_ptr_61, offset: 0B], position
	shrl	$8, %ecx	 #, crc
	movzbl	%dl, %edx	 # position, D.30316
	xorl	_CRC32_TAB(,%edx,4), %ecx	 # CRC32_TAB, crc
	movl	%ecx, %edx	 # crc, crc
	xorb	-3(%eax), %cl	 # MEM[base: a_src_ptr_61, offset: 0B], position
	shrl	$8, %edx	 #, crc
	movzbl	%cl, %ecx	 # position, D.30316
	xorl	_CRC32_TAB(,%ecx,4), %edx	 # CRC32_TAB, crc
	movl	%edx, %ecx	 # crc, crc
	xorb	-2(%eax), %dl	 # MEM[base: a_src_ptr_61, offset: 0B], position
	shrl	$8, %ecx	 #, crc
	movzbl	%dl, %edx	 # position, D.30316
	xorl	_CRC32_TAB(,%edx,4), %ecx	 # CRC32_TAB, crc
	movl	%ecx, %edx	 # crc, crc
	xorb	-1(%eax), %cl	 # MEM[base: a_src_ptr_61, offset: 0B], position
	shrl	$8, %edx	 #, crc
	movzbl	%cl, %ecx	 # position, D.30316
	xorl	_CRC32_TAB(,%ecx,4), %edx	 # CRC32_TAB, crc
LVL222:
	.loc 1 282 0 discriminator 3
	cmpl	%eax, %esi	 # a_src_ptr, a_src_ptr
	jne	L156	 #,
LVL223:
LBE71:
LBE70:
	.loc 1 281 0
	cmpl	%esi, %edi	 # a_src_ptr, D.30314
	movl	%esi, %eax	 # a_src_ptr, a_src_ptr
	ja	L166	 #,
LVL224:
	movl	%ebx, %eax	 # a_src_ptr, D.30318
LVL225:
	notl	%eax	 # D.30318
	addl	%edi, %eax	 # D.30314, D.30318
	andl	$-64, %eax	 #, D.30319
	leal	64(%ebx,%eax), %ebx	 #, a_src_ptr
LVL226:
L161:
LBE72:
	.loc 1 286 0
	cmpl	%ebx, %ebp	 # a_src_ptr, r_src_ptr_end
	jbe	L158	 #,
	.loc 1 287 0
	movl	%edx, %esi	 # crc, crc
	xorb	(%ebx), %dl	 # MEM[base: a_src_ptr_69, offset: 0B], position
LVL227:
	movl	%ebx, %edi	 # a_src_ptr, tmp157
LVL228:
	shrl	$8, %esi	 #, crc
LVL229:
	notl	%edi	 # tmp157
	addl	%ebp, %edi	 # r_src_ptr_end, tmp156
	andl	$7, %edi	 #, tmp158
	movzbl	%dl, %edx	 # position, D.30316
LVL230:
	xorl	_CRC32_TAB(,%edx,4), %esi	 # CRC32_TAB, crc
LVL231:
	movl	%esi, %edx	 # crc, crc
LVL232:
	.loc 1 288 0
	leal	1(%ebx), %esi	 #, a_src_ptr
LVL233:
	.loc 1 286 0
	cmpl	%ebp, %esi	 # r_src_ptr_end, a_src_ptr
	je	L158	 #,
	testl	%edi, %edi	 # tmp158
	je	L159	 #,
	cmpl	$1, %edi	 #, tmp158
	je	L204	 #,
	cmpl	$2, %edi	 #, tmp158
	je	L205	 #,
	cmpl	$3, %edi	 #, tmp158
	je	L206	 #,
	cmpl	$4, %edi	 #, tmp158
	je	L207	 #,
	cmpl	$5, %edi	 #, tmp158
	je	L208	 #,
	cmpl	$6, %edi	 #, tmp158
	je	L209	 #,
	.loc 1 287 0
	movl	%edx, %ecx	 # crc, crc
	xorb	(%esi), %dl	 # MEM[base: a_src_ptr_69, offset: 0B], position
LVL234:
	.loc 1 288 0
	leal	2(%ebx), %esi	 #, a_src_ptr
	.loc 1 287 0
	shrl	$8, %ecx	 #, crc
LVL235:
	movzbl	%dl, %eax	 # position, D.30316
LVL236:
	xorl	_CRC32_TAB(,%eax,4), %ecx	 # CRC32_TAB, crc
LVL237:
	movl	%ecx, %edx	 # crc, crc
LVL238:
L209:
	movl	%edx, %ebx	 # crc, crc
LVL239:
	xorb	(%esi), %dl	 # MEM[base: a_src_ptr_69, offset: 0B], position
LVL240:
	.loc 1 288 0
	addl	$1, %esi	 #, a_src_ptr
	.loc 1 287 0
	shrl	$8, %ebx	 #, crc
LVL241:
	movzbl	%dl, %edi	 # position, D.30316
LVL242:
	xorl	_CRC32_TAB(,%edi,4), %ebx	 # CRC32_TAB, crc
LVL243:
	movl	%ebx, %edx	 # crc, crc
LVL244:
L208:
	movl	%edx, %ecx	 # crc, crc
	xorb	(%esi), %dl	 # MEM[base: a_src_ptr_69, offset: 0B], position
LVL245:
	.loc 1 288 0
	addl	$1, %esi	 #, a_src_ptr
	.loc 1 287 0
	shrl	$8, %ecx	 #, crc
LVL246:
	movzbl	%dl, %edx	 # position, D.30316
LVL247:
	xorl	_CRC32_TAB(,%edx,4), %ecx	 # CRC32_TAB, crc
LVL248:
	movl	%ecx, %edx	 # crc, crc
LVL249:
L207:
	movl	%edx, %eax	 # crc, crc
	xorb	(%esi), %dl	 # MEM[base: a_src_ptr_69, offset: 0B], position
LVL250:
	.loc 1 288 0
	addl	$1, %esi	 #, a_src_ptr
	.loc 1 287 0
	shrl	$8, %eax	 #, crc
LVL251:
	movzbl	%dl, %ebx	 # position, D.30316
LVL252:
	xorl	_CRC32_TAB(,%ebx,4), %eax	 # CRC32_TAB, crc
LVL253:
	movl	%eax, %edx	 # crc, crc
LVL254:
L206:
	movl	%edx, %edi	 # crc, crc
	xorb	(%esi), %dl	 # MEM[base: a_src_ptr_69, offset: 0B], position
LVL255:
	.loc 1 288 0
	addl	$1, %esi	 #, a_src_ptr
	.loc 1 287 0
	shrl	$8, %edi	 #, crc
LVL256:
	movzbl	%dl, %ecx	 # position, D.30316
LVL257:
	xorl	_CRC32_TAB(,%ecx,4), %edi	 # CRC32_TAB, crc
LVL258:
	movl	%edi, %edx	 # crc, crc
LVL259:
L205:
	movl	%edx, %eax	 # crc, crc
	xorb	(%esi), %dl	 # MEM[base: a_src_ptr_69, offset: 0B], position
LVL260:
	.loc 1 288 0
	addl	$1, %esi	 #, a_src_ptr
	.loc 1 287 0
	shrl	$8, %eax	 #, crc
LVL261:
	movzbl	%dl, %edx	 # position, D.30316
LVL262:
	xorl	_CRC32_TAB(,%edx,4), %eax	 # CRC32_TAB, crc
LVL263:
	movl	%eax, %edx	 # crc, crc
LVL264:
L204:
	movl	%edx, %ebx	 # crc, crc
	xorb	(%esi), %dl	 # MEM[base: a_src_ptr_69, offset: 0B], position
LVL265:
	.loc 1 288 0
	addl	$1, %esi	 #, a_src_ptr
	.loc 1 287 0
	shrl	$8, %ebx	 #, crc
LVL266:
	movzbl	%dl, %edi	 # position, D.30316
LVL267:
	xorl	_CRC32_TAB(,%edi,4), %ebx	 # CRC32_TAB, crc
LVL268:
	.loc 1 286 0
	cmpl	%ebp, %esi	 # r_src_ptr_end, a_src_ptr
	.loc 1 287 0
	movl	%ebx, %edx	 # crc, crc
LVL269:
	.loc 1 286 0
	je	L158	 #,
LVL270:
L159:
	.loc 1 287 0
	movl	%edx, %ecx	 # crc, crc
	xorb	(%esi), %dl	 # MEM[base: a_src_ptr_69, offset: 0B], position
LVL271:
	.loc 1 288 0
	addl	$8, %esi	 #, a_src_ptr
	.loc 1 287 0
	shrl	$8, %ecx	 #, crc
LVL272:
	movzbl	%dl, %eax	 # position, D.30316
	xorl	_CRC32_TAB(,%eax,4), %ecx	 # CRC32_TAB, crc
	movl	%ecx, %ebx	 # crc, crc
	xorb	-7(%esi), %cl	 # MEM[base: a_src_ptr_69, offset: 0B], position
	shrl	$8, %ebx	 #, crc
	movzbl	%cl, %edi	 # position, D.30316
	xorl	_CRC32_TAB(,%edi,4), %ebx	 # CRC32_TAB, crc
	movl	%ebx, %ecx	 # crc, crc
	xorb	-6(%esi), %bl	 # MEM[base: a_src_ptr_69, offset: 0B], position
	shrl	$8, %ecx	 #, crc
	movzbl	%bl, %edx	 # position, D.30316
	xorl	_CRC32_TAB(,%edx,4), %ecx	 # CRC32_TAB, crc
	movl	%ecx, %eax	 # crc, crc
	xorb	-5(%esi), %cl	 # MEM[base: a_src_ptr_69, offset: 0B], position
	shrl	$8, %eax	 #, crc
	movzbl	%cl, %ebx	 # position, D.30316
	xorl	_CRC32_TAB(,%ebx,4), %eax	 # CRC32_TAB, crc
	movl	%eax, %ecx	 # crc, crc
	xorb	-4(%esi), %al	 # MEM[base: a_src_ptr_69, offset: 0B], position
	shrl	$8, %ecx	 #, crc
	movzbl	%al, %edi	 # position, D.30316
	xorl	_CRC32_TAB(,%edi,4), %ecx	 # CRC32_TAB, crc
	movl	%ecx, %edx	 # crc, crc
	xorb	-3(%esi), %cl	 # MEM[base: a_src_ptr_69, offset: 0B], position
	shrl	$8, %edx	 #, crc
	movzbl	%cl, %eax	 # position, D.30316
	xorl	_CRC32_TAB(,%eax,4), %edx	 # CRC32_TAB, crc
	movl	%edx, %ebx	 # crc, crc
	xorb	-2(%esi), %dl	 # MEM[base: a_src_ptr_69, offset: 0B], position
	shrl	$8, %ebx	 #, crc
	movzbl	%dl, %ecx	 # position, D.30316
	xorl	_CRC32_TAB(,%ecx,4), %ebx	 # CRC32_TAB, crc
	movl	%ebx, %edx	 # crc, crc
	xorb	-1(%esi), %bl	 # MEM[base: a_src_ptr_69, offset: 0B], position
	shrl	$8, %edx	 #, crc
	movzbl	%bl, %edi	 # position, D.30316
LVL273:
	xorl	_CRC32_TAB(,%edi,4), %edx	 # CRC32_TAB, crc
LVL274:
	.loc 1 286 0
	cmpl	%ebp, %esi	 # r_src_ptr_end, a_src_ptr
	jne	L159	 #,
L158:
LVL275:
	.loc 1 310 0
	movl	$0, __ZZN3stk4hash5crc3210calc_CRC32EPKvjjE9__shared1	 #, __shared1
	.loc 1 309 0
	movl	%edx, %eax	 # crc, crc
	.loc 1 310 0
	movl	$0, __ZZN3stk4hash5crc3210calc_CRC32EPKvjjE9__shared1+4	 #, __shared1
LBE68:
	.loc 1 313 0
	addl	$748, %esp	 #,
	.cfi_def_cfa_offset 20
LBB73:
	.loc 1 309 0
	notl	%eax	 # crc
LBE73:
	.loc 1 313 0
	popl	%ebx	 #
	.cfi_restore 3
	.cfi_def_cfa_offset 16
	popl	%esi	 #
	.cfi_restore 6
	.cfi_def_cfa_offset 12
	popl	%edi	 #
	.cfi_restore 7
	.cfi_def_cfa_offset 8
	popl	%ebp	 #
	.cfi_restore 5
	.cfi_def_cfa_offset 4
LVL276:
	ret	$12	 #
	.cfi_endproc
LFE709:
	.section	.text.unlikely,"x"
LCOLDE12:
	.text
LHOTE12:
	.section	.text.unlikely,"x"
LCOLDB13:
	.text
LHOTB13:
	.p2align 4,,15
	.globl	__ZN3stk4hash7adler3212calc_ADLER32EPKvj@8
	.def	__ZN3stk4hash7adler3212calc_ADLER32EPKvj@8;	.scl	2;	.type	32;	.endef
__ZN3stk4hash7adler3212calc_ADLER32EPKvj@8:
LFB710:
	.loc 1 334 0
	.cfi_startproc
LVL277:
	pushl	%ebp	 #
	.cfi_def_cfa_offset 8
	.cfi_offset 5, -8
	pushl	%edi	 #
	.cfi_def_cfa_offset 12
	.cfi_offset 7, -12
LBB74:
	.loc 1 387 0
	xorl	%ecx, %ecx	 # b
LBE74:
	.loc 1 334 0
	pushl	%esi	 #
	.cfi_def_cfa_offset 16
	.cfi_offset 6, -16
	pushl	%ebx	 #
	.cfi_def_cfa_offset 20
	.cfi_offset 3, -20
	.loc 1 334 0
	movl	24(%esp), %ebp	 # a_count, a_count
LVL278:
	movl	20(%esp), %ebx	 # a_src_ptr, a_src_ptr
LBB75:
	.loc 1 387 0
	testl	%ebp, %ebp	 # a_count
	je	L229	 #,
	movl	$1, %edx	 #, a
LVL279:
	.p2align 4,,10
L226:
	.loc 1 388 0
	cmpl	$5550, %ebp	 #, d_count
	movl	$5550, %esi	 #, t_count
	movl	%ebx, %edi	 # a_src_ptr, tmp127
	cmovbe	%ebp, %esi	 # d_count,, t_count
LVL280:
	notl	%edi	 # tmp127
	.loc 1 389 0
	subl	%esi, %ebp	 # t_count, d_count
LVL281:
	addl	%ebx, %esi	 # a_src_ptr, a_src_ptr
LVL282:
	.loc 1 390 0
	addl	$1, %ebx	 #, a_src_ptr
	movzbl	-1(%ebx), %eax	 # MEM[base: a_src_ptr_15, offset: 4294967295B], D.30329
	addl	%esi, %edi	 # a_src_ptr, tmp126
	andl	$7, %edi	 #, tmp128
	addl	%edx, %eax	 # a, a
	addl	%eax, %ecx	 # a, b
	cmpl	%esi, %ebx	 # a_src_ptr, a_src_ptr
	je	L268	 #,
	testl	%edi, %edi	 # tmp128
	je	L225	 #,
	cmpl	$1, %edi	 #, tmp128
	je	L255	 #,
	cmpl	$2, %edi	 #, tmp128
	je	L256	 #,
	cmpl	$3, %edi	 #, tmp128
	je	L257	 #,
	cmpl	$4, %edi	 #, tmp128
	je	L258	 #,
	cmpl	$5, %edi	 #, tmp128
	je	L259	 #,
	cmpl	$6, %edi	 #, tmp128
	je	L260	 #,
LVL283:
	movzbl	(%ebx), %edx	 # MEM[base: a_src_ptr_15, offset: 4294967295B], D.30329
	addl	$1, %ebx	 #, a_src_ptr
LVL284:
	addl	%edx, %eax	 # D.30329, a
	addl	%eax, %ecx	 # a, b
LVL285:
L260:
	movzbl	(%ebx), %edi	 # MEM[base: a_src_ptr_15, offset: 4294967295B], D.30329
	addl	$1, %ebx	 #, a_src_ptr
LVL286:
	addl	%edi, %eax	 # D.30329, a
	addl	%eax, %ecx	 # a, b
LVL287:
L259:
	movzbl	(%ebx), %edx	 # MEM[base: a_src_ptr_15, offset: 4294967295B], D.30329
	addl	$1, %ebx	 #, a_src_ptr
LVL288:
	addl	%edx, %eax	 # D.30329, a
	addl	%eax, %ecx	 # a, b
LVL289:
L258:
	movzbl	(%ebx), %edi	 # MEM[base: a_src_ptr_15, offset: 4294967295B], D.30329
	addl	$1, %ebx	 #, a_src_ptr
LVL290:
	addl	%edi, %eax	 # D.30329, a
	addl	%eax, %ecx	 # a, b
LVL291:
L257:
	movzbl	(%ebx), %edx	 # MEM[base: a_src_ptr_15, offset: 4294967295B], D.30329
	addl	$1, %ebx	 #, a_src_ptr
LVL292:
	addl	%edx, %eax	 # D.30329, a
	addl	%eax, %ecx	 # a, b
LVL293:
L256:
	movzbl	(%ebx), %edi	 # MEM[base: a_src_ptr_15, offset: 4294967295B], D.30329
	addl	$1, %ebx	 #, a_src_ptr
LVL294:
	addl	%edi, %eax	 # D.30329, a
	addl	%eax, %ecx	 # a, b
LVL295:
L255:
	addl	$1, %ebx	 #, a_src_ptr
LVL296:
	movzbl	-1(%ebx), %edx	 # MEM[base: a_src_ptr_15, offset: 4294967295B], D.30329
	addl	%edx, %eax	 # D.30329, a
	addl	%eax, %ecx	 # a, b
	cmpl	%esi, %ebx	 # a_src_ptr, a_src_ptr
	je	L268	 #,
LVL297:
L225:
	.loc 1 390 0 is_stmt 0 discriminator 1
	movzbl	(%ebx), %edi	 # MEM[base: a_src_ptr_15, offset: 4294967295B], D.30329
	movzbl	1(%ebx), %edx	 # MEM[base: a_src_ptr_15, offset: 4294967295B], D.30329
	addl	$8, %ebx	 #, a_src_ptr
	addl	%edi, %eax	 # D.30329, a
	movzbl	-6(%ebx), %edi	 # MEM[base: a_src_ptr_15, offset: 4294967295B], D.30329
	addl	%eax, %ecx	 # a, b
	addl	%edx, %eax	 # D.30329, a
	movzbl	-5(%ebx), %edx	 # MEM[base: a_src_ptr_15, offset: 4294967295B], D.30329
	addl	%eax, %ecx	 # a, b
	addl	%edi, %eax	 # D.30329, a
	movzbl	-3(%ebx), %edi	 # MEM[base: a_src_ptr_15, offset: 4294967295B], D.30329
	addl	%eax, %edx	 # a, a
	addl	%eax, %ecx	 # a, b
	movzbl	-4(%ebx), %eax	 # MEM[base: a_src_ptr_15, offset: 4294967295B], D.30329
	addl	%edx, %ecx	 # a, b
	addl	%eax, %edx	 # D.30329, a
	movzbl	-2(%ebx), %eax	 # MEM[base: a_src_ptr_15, offset: 4294967295B], D.30329
	addl	%edx, %ecx	 # a, b
	addl	%edi, %edx	 # D.30329, a
	addl	%edx, %ecx	 # a, b
	addl	%eax, %edx	 # D.30329, a
	movzbl	-1(%ebx), %eax	 # MEM[base: a_src_ptr_15, offset: 4294967295B], D.30329
	addl	%edx, %ecx	 # a, b
LVL298:
	addl	%edx, %eax	 # a, a
	addl	%eax, %ecx	 # a, b
	cmpl	%esi, %ebx	 # a_src_ptr, a_src_ptr
	jne	L225	 #,
LVL299:
L268:
	.loc 1 392 0 is_stmt 1
	movzwl	%ax, %esi	 # a, D.30329
	shrl	$16, %eax	 #, D.30329
	movl	%eax, %edx	 # D.30329, tmp110
	sall	$4, %edx	 #, tmp110
	subl	%eax, %edx	 # D.30329, tmp111
LVL300:
	.loc 1 393 0
	movzwl	%cx, %eax	 # b, D.30329
	.loc 1 392 0
	leal	(%edx,%esi), %edx	 #, a
LVL301:
	.loc 1 393 0
	movl	%ecx, %esi	 # b, D.30329
	shrl	$16, %esi	 #, D.30329
	movl	%esi, %ecx	 # D.30329, tmp114
	sall	$4, %ecx	 #, tmp114
	subl	%esi, %ecx	 # D.30329, tmp115
LVL302:
	addl	%eax, %ecx	 # D.30329, b
LVL303:
	.loc 1 387 0
	testl	%ebp, %ebp	 # d_count
	jne	L226	 #,
	.loc 1 396 0
	movzwl	%cx, %ebp	 # b, D.30329
LVL304:
	shrl	$16, %ecx	 #, D.30329
LVL305:
	movl	%ecx, %ebx	 # D.30329, tmp118
	sall	$4, %ebx	 #, tmp118
	subl	%ecx, %ebx	 # D.30329, tmp119
	addl	%ebp, %ebx	 # D.30329, b
LVL306:
	.loc 1 398 0
	leal	-65521(%ebx), %edi	 #, b
	movl	%ebx, %esi	 # b, tmp123
	sall	$16, %esi	 #, tmp123
	movl	%edi, %eax	 # b, tmp124
	sall	$16, %eax	 #, tmp124
	cmpl	$65520, %ebx	 #, b
	cmova	%eax, %esi	 # tmp124,, D.30329
	.loc 1 401 0
	leal	-65521(%edx), %eax	 #, tmp122
	cmpl	$65521, %edx	 #, a
	movl	%esi, %ecx	 # D.30329, D.30329
LVL307:
	cmovb	%edx, %eax	 # tmp122,, a, a
LBE75:
	.loc 1 404 0
	popl	%ebx	 #
	.cfi_remember_state
	.cfi_restore 3
	.cfi_def_cfa_offset 16
LBB76:
	.loc 1 402 0
	orl	%ecx, %eax	 # D.30329, D.30330
LBE76:
	.loc 1 404 0
	popl	%esi	 #
	.cfi_restore 6
	.cfi_def_cfa_offset 12
	popl	%edi	 #
	.cfi_restore 7
	.cfi_def_cfa_offset 8
	popl	%ebp	 #
	.cfi_restore 5
	.cfi_def_cfa_offset 4
	ret	$8	 #
LVL308:
L229:
	.cfi_restore_state
LBB77:
	.loc 1 383 0
	movl	$1, %eax	 #, a
LVL309:
LBE77:
	.loc 1 404 0
	popl	%ebx	 #
	.cfi_restore 3
	.cfi_def_cfa_offset 16
LVL310:
LBB78:
	.loc 1 402 0
	orl	%ecx, %eax	 # D.30329, D.30330
LBE78:
	.loc 1 404 0
	popl	%esi	 #
	.cfi_restore 6
	.cfi_def_cfa_offset 12
	popl	%edi	 #
	.cfi_restore 7
	.cfi_def_cfa_offset 8
	popl	%ebp	 #
	.cfi_restore 5
	.cfi_def_cfa_offset 4
LVL311:
	ret	$8	 #
	.cfi_endproc
LFE710:
	.section	.text.unlikely,"x"
LCOLDE13:
	.text
LHOTE13:
.lcomm __ZZN3stk4hash5crc3210calc_CRC32EPKvjjE9__shared1,8,8
	.globl	_CRC32_TAB
	.data
	.align 64
_CRC32_TAB:
	.long	0
	.long	1996959894
	.long	-301047508
	.long	-1727442502
	.long	124634137
	.long	1886057615
	.long	-379345611
	.long	-1637575261
	.long	249268274
	.long	2044508324
	.long	-522852066
	.long	-1747789432
	.long	162941995
	.long	2125561021
	.long	-407360249
	.long	-1866523247
	.long	498536548
	.long	1789927666
	.long	-205950648
	.long	-2067906082
	.long	450548861
	.long	1843258603
	.long	-187386543
	.long	-2083289657
	.long	325883990
	.long	1684777152
	.long	-43845254
	.long	-1973040660
	.long	335633487
	.long	1661365465
	.long	-99664541
	.long	-1928851979
	.long	997073096
	.long	1281953886
	.long	-715111964
	.long	-1570279054
	.long	1006888145
	.long	1258607687
	.long	-770865667
	.long	-1526024853
	.long	901097722
	.long	1119000684
	.long	-608450090
	.long	-1396901568
	.long	853044451
	.long	1172266101
	.long	-589951537
	.long	-1412350631
	.long	651767980
	.long	1373503546
	.long	-925412992
	.long	-1076862698
	.long	565507253
	.long	1454621731
	.long	-809855591
	.long	-1195530993
	.long	671266974
	.long	1594198024
	.long	-972236366
	.long	-1324619484
	.long	795835527
	.long	1483230225
	.long	-1050600021
	.long	-1234817731
	.long	1994146192
	.long	31158534
	.long	-1731059524
	.long	-271249366
	.long	1907459465
	.long	112637215
	.long	-1614814043
	.long	-390540237
	.long	2013776290
	.long	251722036
	.long	-1777751922
	.long	-519137256
	.long	2137656763
	.long	141376813
	.long	-1855689577
	.long	-429695999
	.long	1802195444
	.long	476864866
	.long	-2056965928
	.long	-228458418
	.long	1812370925
	.long	453092731
	.long	-2113342271
	.long	-183516073
	.long	1706088902
	.long	314042704
	.long	-1950435094
	.long	-54949764
	.long	1658658271
	.long	366619977
	.long	-1932296973
	.long	-69972891
	.long	1303535960
	.long	984961486
	.long	-1547960204
	.long	-725929758
	.long	1256170817
	.long	1037604311
	.long	-1529756563
	.long	-740887301
	.long	1131014506
	.long	879679996
	.long	-1385723834
	.long	-631195440
	.long	1141124467
	.long	855842277
	.long	-1442165665
	.long	-586318647
	.long	1342533948
	.long	654459306
	.long	-1106571248
	.long	-921952122
	.long	1466479909
	.long	544179635
	.long	-1184443383
	.long	-832445281
	.long	1591671054
	.long	702138776
	.long	-1328506846
	.long	-942167884
	.long	1504918807
	.long	783551873
	.long	-1212326853
	.long	-1061524307
	.long	-306674912
	.long	-1698712650
	.long	62317068
	.long	1957810842
	.long	-355121351
	.long	-1647151185
	.long	81470997
	.long	1943803523
	.long	-480048366
	.long	-1805370492
	.long	225274430
	.long	2053790376
	.long	-468791541
	.long	-1828061283
	.long	167816743
	.long	2097651377
	.long	-267414716
	.long	-2029476910
	.long	503444072
	.long	1762050814
	.long	-144550051
	.long	-2140837941
	.long	426522225
	.long	1852507879
	.long	-19653770
	.long	-1982649376
	.long	282753626
	.long	1742555852
	.long	-105259153
	.long	-1900089351
	.long	397917763
	.long	1622183637
	.long	-690576408
	.long	-1580100738
	.long	953729732
	.long	1340076626
	.long	-776247311
	.long	-1497606297
	.long	1068828381
	.long	1219638859
	.long	-670225446
	.long	-1358292148
	.long	906185462
	.long	1090812512
	.long	-547295293
	.long	-1469587627
	.long	829329135
	.long	1181335161
	.long	-882789492
	.long	-1134132454
	.long	628085408
	.long	1382605366
	.long	-871598187
	.long	-1156888829
	.long	570562233
	.long	1426400815
	.long	-977650754
	.long	-1296233688
	.long	733239954
	.long	1555261956
	.long	-1026031705
	.long	-1244606671
	.long	752459403
	.long	1541320221
	.long	-1687895376
	.long	-328994266
	.long	1969922972
	.long	40735498
	.long	-1677130071
	.long	-351390145
	.long	1913087877
	.long	83908371
	.long	-1782625662
	.long	-491226604
	.long	2075208622
	.long	213261112
	.long	-1831694693
	.long	-438977011
	.long	2094854071
	.long	198958881
	.long	-2032938284
	.long	-237706686
	.long	1759359992
	.long	534414190
	.long	-2118248755
	.long	-155638181
	.long	1873836001
	.long	414664567
	.long	-2012718362
	.long	-15766928
	.long	1711684554
	.long	285281116
	.long	-1889165569
	.long	-127750551
	.long	1634467795
	.long	376229701
	.long	-1609899400
	.long	-686959890
	.long	1308918612
	.long	956543938
	.long	-1486412191
	.long	-799009033
	.long	1231636301
	.long	1047427035
	.long	-1362007478
	.long	-640263460
	.long	1088359270
	.long	936918000
	.long	-1447252397
	.long	-558129467
	.long	1202900863
	.long	817233897
	.long	-1111625188
	.long	-893730166
	.long	1404277552
	.long	615818150
	.long	-1160759803
	.long	-841546093
	.long	1423857449
	.long	601450431
	.long	-1285129682
	.long	-1000256840
	.long	1567103746
	.long	711928724
	.long	-1274298825
	.long	-1022587231
	.long	1510334235
	.long	755167117
	.align 4
__ZL11POLY_NOMIAL:
	.long	79764919
	.section .rdata,"dr"
	.align 16
LC1:
	.long	0
	.long	1
	.long	2
	.long	3
	.align 16
LC2:
	.long	4
	.long	4
	.long	4
	.long	4
	.align 16
LC3:
	.long	1
	.long	1
	.long	1
	.long	1
	.align 16
LC4:
	.long	-306674912
	.long	-306674912
	.long	-306674912
	.long	-306674912
	.text
Letext0:
	.section	.text.unlikely,"x"
Letext_cold0:
	.file 2 "C:/Qt/Qt5.5.0/Tools/mingw492_32/i686-w64-mingw32/include/_mingw.h"
	.file 3 "C:/Qt/Qt5.5.0/Tools/mingw492_32/i686-w64-mingw32/include/stdint.h"
	.file 4 "C:/Qt/Qt5.5.0/Tools/mingw492_32/i686-w64-mingw32/include/stdio.h"
	.file 5 "<built-in>"
	.file 6 "C:/Qt/Qt5.5.0/Tools/mingw492_32/i686-w64-mingw32/include/c++/bits/exception_ptr.h"
	.file 7 "C:/Qt/Qt5.5.0/Tools/mingw492_32/i686-w64-mingw32/include/c++/i686-w64-mingw32/bits/c++config.h"
	.file 8 "hash/../text/./.././time/stk_time.h"
	.file 9 "hash/stk_hash_crc32.h"
	.file 10 "hash/../sthreads/./../cpu/stk_cpu.h"
	.file 11 "hash/../text/stk_cstr_utils.h"
	.file 12 "hash/../sthreads/stk_threads.h"