	.file	"stk_rs232.cpp"
 # GNU C++ (i686-posix-dwarf-rev1, Built by MinGW-W64 project) version 4.9.2 (i686-w64-mingw32)
 #	compiled by GNU C version 4.9.2, GMP version 6.0.0, MPFR version 3.1.2-p9, MPC version 1.0.2
 # warning: MPFR header version 3.1.2-p9 differs from library version 3.1.2-p10.
 # GGC heuristics: --param ggc-min-expand=100 --param ggc-min-heapsize=131072
 # options passed:  -fpreprocessed stk_rs232.ii -malign-double
 # -momit-leaf-frame-pointer -m32 -mfpmath=sse -mpreferred-stack-boundary=8
 # -mmmx -msse -msse2 -mthreads -mtune=generic -march=i686
 # -auxbase-strip debug\stk_rs232.o -g -g -O3 -Wno-write-strings
 # -Wno-multichar -Wno-unused-variable -Wno-unused-parameter
 # -Wno-unused-value -Wno-unused-label -Wno-unused-but-set-variable
 # -Wattributes -Winline -Wshadow -Wunknown-pragmas -Wall -Wextra
 # -std=gnu++11 -std=c++11 -fno-keep-inline-dllexport
 # -fno-use-linker-plugin -fverbose-asm -fstrict-aliasing -fwrapv
 # -funroll-loops -flto -fexceptions -frtti
 # options enabled:  -faggressive-loop-optimizations
 # -fasynchronous-unwind-tables -fauto-inc-dec -fbranch-count-reg
 # -fcaller-saves -fcombine-stack-adjustments -fcommon -fcompare-elim
 # -fcprop-registers -fcrossjumping -fcse-follow-jumps -fdefer-pop
 # -fdelete-null-pointer-checks -fdevirtualize -fdevirtualize-speculatively
 # -fdwarf2-cfi-asm -fearly-inlining -feliminate-unused-debug-types
 # -fexceptions -fexpensive-optimizations -fforward-propagate
 # -ffunction-cse -fgcse -fgcse-after-reload -fgcse-lm -fgnu-runtime
 # -fgnu-unique -fguess-branch-probability -fhoist-adjacent-loads -fident
 # -fif-conversion -fif-conversion2 -findirect-inlining -finline
 # -finline-atomics -finline-functions -finline-functions-called-once
 # -finline-small-functions -fipa-cp -fipa-cp-clone -fipa-profile
 # -fipa-pure-const -fipa-reference -fipa-sra -fira-hoist-pressure
 # -fira-share-save-slots -fira-share-spill-slots
 # -fisolate-erroneous-paths-dereference -fivopts -fkeep-static-consts
 # -fleading-underscore -fmath-errno -fmerge-constants
 # -fmerge-debug-strings -fmove-loop-invariants -fomit-frame-pointer
 # -foptimize-sibling-calls -foptimize-strlen -fpartial-inlining -fpeephole
 # -fpeephole2 -fpredictive-commoning -fprefetch-loop-arrays -free
 # -freg-struct-return -frename-registers -freorder-blocks
 # -freorder-blocks-and-partition -freorder-functions
 # -frerun-cse-after-loop -fsched-critical-path-heuristic
 # -fsched-dep-count-heuristic -fsched-group-heuristic -fsched-interblock
 # -fsched-last-insn-heuristic -fsched-rank-heuristic -fsched-spec
 # -fsched-spec-insn-heuristic -fsched-stalled-insns-dep -fschedule-insns2
 # -fset-stack-executable -fshow-column -fshrink-wrap -fsigned-zeros
 # -fsplit-ivs-in-unroller -fsplit-wide-types -fstrict-aliasing
 # -fstrict-overflow -fstrict-volatile-bitfields -fsync-libcalls
 # -fthread-jumps -ftoplevel-reorder -ftrapping-math -ftree-bit-ccp
 # -ftree-builtin-call-dce -ftree-ccp -ftree-ch -ftree-coalesce-vars
 # -ftree-copy-prop -ftree-copyrename -ftree-cselim -ftree-dce
 # -ftree-dominator-opts -ftree-dse -ftree-forwprop -ftree-fre
 # -ftree-loop-distribute-patterns -ftree-loop-if-convert -ftree-loop-im
 # -ftree-loop-ivcanon -ftree-loop-optimize -ftree-loop-vectorize
 # -ftree-parallelize-loops= -ftree-partial-pre -ftree-phiprop -ftree-pre
 # -ftree-pta -ftree-reassoc -ftree-scev-cprop -ftree-sink
 # -ftree-slp-vectorize -ftree-slsr -ftree-sra -ftree-switch-conversion
 # -ftree-tail-merge -ftree-ter -ftree-vrp -funit-at-a-time -funroll-loops
 # -funswitch-loops -funwind-tables -fvar-tracking
 # -fvar-tracking-assignments -fverbose-asm -fweb -fwrapv
 # -fzero-initialized-in-bss -m32 -m80387 -m96bit-long-double
 # -maccumulate-outgoing-args -malign-double -malign-stringops
 # -mavx256-split-unaligned-load -mavx256-split-unaligned-store
 # -mfancy-math-387 -mfp-ret-in-387 -mieee-fp -mlong-double-80 -mmmx
 # -mms-bitfields -mno-red-zone -mno-sse4 -mpush-args -msahf -msse -msse2
 # -mstack-arg-probe -mvzeroupper

	.text
Ltext0:
	.section	.gnu.lto_.profile.f43af12e,"dr0"
	.ascii "x\234cf```c\200\0F\206}\314W\30\1\5L\1\241"
	.text
	.section	.gnu.lto_.jmpfuncs.f43af12e,"dr0"
	.ascii "x\234\225\222\271K\3A\24\306\347\315\232dM$\366\"\354\202\330\331\212b%\242X[\370\27h\204\200F\320\210\225$\205\205Z\30\4\213@PQ\301\373>\243\306x\337\27b+(b\221V$h\220\210\357M\222\302$#\353"
	.ascii "4\273\373\276\357\315|\277}\243\260\354\253.\207\261r|\346"
	.ascii "0\23\320\322<\264\200\277q\30~\350_\340]_\336\36\257\32\343,\316\321\5\23\320\305\350\205Y2\34\20\347\200\216Ir\240v\270;\320g\217\360\30\347^\\y\14\246\240@\10O\257w\367*\11\12\272\247\323\213\30\7f\222\305\305\221\350"
	.ascii "7\10\247\302`\226\212\231~\23\372\347\260\210\233q(J\210+\241H4\237Ds!\203y\24MT\375\362\365\217\252\32\14y\375z\214[\30V\2\343\357\201\\\214\357\247\370*,\200\206\233-b~&\266\11\306?\303\252V\226h\310\245\206\311\347\336\275\374T\203\25\226D\303r\22"
	.ascii "8\344\363\235X\350T\233\306`\5OEM\366\33W\351\20\251\272\206\252\31g\221}\14h\201ut\340\317"
	.ascii "6\306\265!bn\32\347\12\212\206\255$W\360"
	.ascii "1\360a\26\\\335\300`[\16F\301v\244`\244\206P\265*Hf\361H\340\350N\354\242\13\307\252tB\342\212\376\232w\36\32\302\206G\272'H\366\215\243\37\210\206\303\24\372\355X\330&\320\7\21\375H\216N\261\217\245\350\244\236\240j\377\23\235n\376i:\372?X\317D\364s\343\254\27\242\341"
	.ascii "2\311\272\34}\211X\5\353"
	.ascii "8\262^\311Y)\347\265\224\225\324\33RK\253k\252\352k+\364\342\366\12\275\306\345v\264\351M\35\256\6\267\263\325E\265\312\342F\275\331\351r\224\350M\255m:~\270\235-\16+\366\262\37\324\37r\241"
	.text
	.section	.gnu.lto_.inline.f43af12e,"dr0"
	.ascii "x\234cf\300\16.2Bh\26\6\231\7\14Z\214\\\214\231\37\231\30\327L8p\201\363\5\323O&\356\6o\6\306e\214R\14\214\31`\212)\3({\377\311\371\213\34 Y^\6\6\306\345"
	.ascii "0\321\213\263\226"
	.ascii "5\363\203E\31\31\30W\300D\317?8\334\317\3\26eb`\\\11\24e\0\332\307\10\304L@\314\14\304,@\314\245\326\220\313\300\266@\236\211\201\355\203^\3#\203\322\275\320\6&\6\221\16\341\6\26\6\266.\201\6\16\6\266w\254\15\2\14,\22\16@\254\0\304\2@\27\3\25"
	.ascii "2q\203\314c\346\1\32"
	.ascii "7\301\217\201S\210\201\201\35\352-\26\240\333\230\201"
	.ascii "4\33?\3\3+\3P\22\210\21\252\301\4#\3\33\203\212\26\320- \327\310l\250\202\270\0\24\22\10\205\214\23\374\360\232\300\305\242\241\307\310\4\362\13\330\24\271\206.F\230"
	.ascii "1\34Pc\300\372'\370\201 \1\347\360Q\323"
	.ascii "0\6\0$\342A\317"
	.text
	.section	.gnu.lto_.pureconst.f43af12e,"dr0"
	.ascii "x\234cf``\340d\200\0\26\206H\266H\256H\276H\0\7\11\1\223"
	.text
	.section	.gnu.lto__ZN3stk3com4openEaiccc.f43af12e,"dr0"
	.ascii "x\234\205XkPTG\26\356\323w\230\367\14o\324\21\4E\24\202Hb6Y\313\312&\251\255Mm\325nU\376m\345\317VQ>\253\250\215h)\376\310VQ^\36\342[\24\23\337 \4\5\262\276\215\242Q\324\21\321`V\361\21\4t\21\301(\32"
	.ascii "5\210\16"
	.ascii "8\216\212\354"
	.ascii "9\335w\306\31\30\342\374h\356\351{\276s\276\376\372t\337n\24"
	.ascii "6\364\227\2\214\231#\31[\203\317"
	.ascii "0\202\1_\333\310X\256\221s\245)\206\251f}\355\37\231jU\270\316\317\322\361\30\306\226\31C\244g\10\350\345\203\236\33\332,\350d<T\307\320\313\0F\331o\344\321\265c\260\337\324\224\216\335&n^6\21-\33\265V3\267\370Y\26n\365\263\254<\372\247w\311:\27\207\226M\213b\27Q\354<\372\324{h\205^\211E+\224Go\376\4\255"
	.ascii "0\267\35\255"
	.ascii "0]T}$S\215\341\242\215\20m\244\354\201(I)\302\373\20\351}\210\202h\371\20\15@\17,\206\1[\314\25]\210\336`4\231-V\233=4,<\"2*:\6\26\303\257\374\11\207\37\366\366^\264\334\347\36\316\22\30\232\307\212\33"
	.ascii "6\351\311\4\35\231\353K\335G\15\23w\252\252\332Swo\361\332\257\313\360\15g.\316\240\22\34P\5\16\322\273\32&\242\353\232\252\343\313\215J\24\20\254\260\271\251\306\224T\241\256U\235\27\267\251\237\202\207+\360\35(\204\233\344\200\24\7\363p\35\203\377@\22\372\336\257\311kW\224X\201k)\357\310"
	.ascii "3K\334\253"
	.ascii "2\365S\235\207\207\300.\211\363\346\303.\6\273\5\262\371\321\371Z\263"
	.ascii "2V \257\256_\177\"D\"K\316(#=\\\17{\206$\334+a\277\364\264\30\224d\1k8V\260\304.a\15\32l\337\20\330~\1+\336\323\230\254L\21\250\366\336\243\355\26\211\352\326P\7\206\240\16B\22\371>)\350o\261\350\13P\301"
	.ascii "0\322\15\345\372\36\364X\255\272~\316\372\361"
	.ascii "5\207}\367\17\325\204*\37\211\310\316\273\267.\351\23\313U5\257\343T\361J\243\332\240\26t\14\14\304{\270\1\16\5\352 \177p\30\22\21V\346\274V\313\225\277\211\20\307\237\327T\331\305\204v\10\373`\355\375\276P1\243\261d\366\26"
	.ascii "5\266\33"
	.ascii "1\203S\355x<\331\27\336\10"
	.ascii "52\374\21\14\177\364M\370\37 q_\204S\35\30p\225v\326\177\2\37\203\310\310q\204\334\200\215\311Dc\265`c\266bc\11#3\234\232(\240\351\215\306Gk\14"
	.ascii "6\266\21@\223"
	.ascii "6\22\37\355\243\250!\221\354\243\251\211\245&\216\232"
	.ascii "1\324\304S\223@\315X\240\11\33G\350D\240I\30O\31\223\310\236\0$\357D\262\223\311N\305&4\15\233\260tj\246\22\203i\330\204\263\7\34\353\205=\344By\306\24\366\230\3\343\275\302fw\260\245er\27M\374\253\334\200\274g+6\236j\326\243N\337\256\277^`T>\27\22\226u\356<\240\23\263\342|\231\257\363\233\223c\301\346$p\322\373\271\"g\32\216C\"\211G\232\212\"@B\265\240ws\3\2J\177^\263\227\347\274T\227\251F\17\217\350\307\372\241"
	.ascii "0\267\356\\\272b\244\251"
	.ascii "3\10\263:\267`\33\224\300\326\\Uu\356Rp\354p\2r\340$%\206S\370\202]\203\202V\345M\320\334\312\343\253\14\4\267\242\203S\343w\227+\254)Fi\203\202d\351i\32\234>\322\205\22"
	.ascii "18\15"
	.ascii "9\354\355\314\"\204\371\242\342\33\233$\206NQP\207\264\316P>z\265\352\330"
	.ascii "9\23\342\11\15\365\310\222\262"
	.ascii "28\13"
	.ascii "9\36\36M\214\257k\214M\220\350e\250c\347\365\310P{a\31\314\"\306E\323\7\347\220\240\207\217\350\"\266wq\226\21\203\23xU/QV\4"
	.ascii "2\264\213EB\14\361\343\341g\325zo\210\221\375\\\316\224O\243\221\302,\253m\273\11\276\221X\340G\34I\203\20\370<vcT\346\25n\210"
	.ascii "6\243\\\250,\203\237~O\266A:\375w8\235.\370t\272H:9\204*zQ\243\315\220\247\226\230\351%\25\24\2\213\216|W\255\213\347%\352\246\4\17\37M\241^^\250\\\256`\250M\24,\26\32!\36y]B^\204=n\27X\271o\\\331R\231/\366\6\3.\354\313\310DD\217\364\363\350\272W\272S|\17L\13)\264\353U\341u\337\260\14pEHsU\206\16\363\356FA\235~F'\252\317\374\333\23\264\11\11F\223\276#{w\270\4\247p\205\314\337J\235=\241\244\331Zr3A\23jvM\323\254f\373\352\35\241\336\10\6h\246"
	.ascii "5\300\240\5=.\373\252\335\300\332,B\264\3#\374\206\25T\242V\244H\20\243Wh9\"7\26\30\25Ry\227A\226V\330\340j\212\353\247\32\364\257\246\270 \325\244\203\353\310\354\206P\343\177D\365\6\344\27k\325\32\216Qa\274C\344\351\224y\206M28j\233/\352MQ\243\341X\243#\203\226\350\30\27\325!\264\313\22}Y\264\246\334\30\377\205,\234x\352\331Z\341\332j\362\252\222\0\267 ^\26a\7\344\270\305\247\352h\377\363\223\306\370\325 1c\11S\325\261\374\224o\16\306A\247\27s\33r\360mmQ\321Y!\210.\236\301/\340@v\36\236(F^\330\330\24\"\7\37\355\346Q\350[WQ\263\323J\276\312\200\367\207\207\224; Ti\327\264\217q\313]\243"
	.ascii "1\337\256u \262\265\374\321\6\33!mF\6w\345\324w\1\14_c\203\213\252k\370\242\272'\213\352>\344\350\207\13\10\277B\216\341\325\322g\34k\307\304\232\322q\33\312?\270\264\275^\333\277F\272\371\10D\256.m\271a\26Rd1x F\205^\267u\322i\224t\272\260\274\345\204\320@\267\33\277+\17\245\327\363\302\366zM*\207\10"
	.ascii "7J\354\233\371\273\336\321:\375"
	.ascii "7d;\362y\344\253~3{0B\322\351\366\322\31-3\335\272rl\243\"2\265\342a\345"
	.ascii "7/\237\247\32\237X\351\265\365\\^\13\27^\373M\14\272\275|\272\275|\342D\274X\377}<\316/\275\205\365Yd\372\327\336\364cd\340\302c{\266\204\210\300\35\21\14\36{\323\327iq\343\245W\311\321\303[\304\341T\347Lb\320\343M\377\332[9\11\"^\274\177\372\4\277\364V\366\"D\21Rur\371\226\202\356^\353\274l\22A\325\277"
	.ascii "3x\342\363\266\261\27\251\364\5i_\332uV\213?\316\215E.\252\355\241\246\365"
	.ascii "8\14p\251\343L\221\230$\33\316\321S\37\336\316\356;\24Q\331\257\373"
	.ascii "4\374x7\247\335\306\375}w\203\30\254\336\343W\331\256\300\312NBw\231\353\245\226+\311\177\207\266\341\16\335\353\313\25\312\36\230d\256\346gZ\256\211n>\301\177\25\351\375WQ_`\256dt\227\271\252R\265\36\277\340a\254\7\360\363[\350|r\200\7\335G\306\273\350P\5\317\344>\262\343u[\27-\30\261\35%\321\361F\356\0n\\T\211\16\377\23\350\204X\6\317\301\341\301\344H\246\247\247\366cm\243kZ\343:mI\333%C$S\210\247\342\200\6\36H#\204\340\276\264\371\236"
	.ascii "6\324T\234\310\200o{0<\20\376\5\244\241\273\204\267\37\321F\217]\23\206\207\247H\270"
	.ascii "80\276$x\232\204\337\326\320\351n\261\201\375>Z!\364+B\247\263\353\260\304\331o\223\340\261tUy\365\252\32\212`un\1\1\336a\254\227\324d\320\217\235\376+Y/\266\243\345\7\217\226Z\245w\307\200\31\375\341"
	.ascii "5\352\321Ko\31\14H\210"
	.ascii "\257H\364\342\270\332]\\|\325,!e+\25\202\250\234 \6\202\344r\1\361\325\260\236\23dWig\205\306\251\254H@\362\4\304H\220|\204\210\302\10g\37)\255\220\33Fc!\6"
	.ascii "4\211\373\353;C\202\11\221*\205\320Q\200\2\236\346?\260T\354Z\302\35\262\6\352\257\4\205k:\12a\12\3\341)\330\265T;\23E\4"
	.ascii "02HF\347\336\316h\231\10\351\323-\25\27\327r/\243sog\264B\300}\32\246\340>\260Rc\24\31\300\310(\31]x;\243U<\355\15\205\13o\247\260:p\4)8\202"
	.ascii "5\32\205(Z\277o8\204P\314\15\7\32\327y\217\25\1kyR?~\263\2\216\364\223\6_6\320+\15\212x\16\254\345\362\23y|\367\311\276\220\364=H\312"
	.ascii "9\206>\237\353"
	.ascii "8\36W\223\304\366\1\305\264@\242\344\222\351\336\274\15d\335O\245\276"
	.ascii "6\330\242\356\377\267\354\230"
	.ascii "6\230\307d\27\225"
	.ascii "4\254\347C\217\317>\212\203"
	.ascii "9}\355\307\351\346\235\27_\310\343\363$\370\206{\217\317\33"
	.ascii "8\235B\352N\254[!\256\304\241HY\265"
	.ascii "2\330\30\370\315L\306\304\233\2\273\322\261k\263\350\332\267\275\357"
	.ascii "5\10/\205\301\26\356\30\354\371.zn\345\270\251\275'O\211}\20L\346)\375\370-\16\220yJ\220!\275\17\333pH%\332\220\252\6\272\237\32\245\314\237c\36(\345t\274\233*d\336N2OCI\227"
	.ascii "8O\24\376)\350.\375\7\27\255x(CE\245\336o6j\347W\1;u9\307K\306\7\242v\242\265\213p]\253\250@\362A\244z\372\272[\377\341!u\31x\260\244\341[\376!k\307\372\302\270\234NZ\34\367y\353\205\213"
	.ascii "4\317Q\225/\14h\31+[\1\377\204"
	.ascii "2l\354\324\330(x\14^\300\251.\31\335\277\361\"U\375\374\322"
	.ascii "5\30\356"
	.ascii "2\205[\17T\4\251\206\341.S;\370"
	.ascii "0\227\251\235\276j\250\344\342"
	.ascii "2u\7\324"
	.ascii "0\306\305\375\37h\270\370\30\236"
	.ascii "9\357\237\13\263\377\225\261`\341\224\367\247L\236"
	.ascii "9\177>3\314\234"
	.ascii "77#k\321\\\335\214\351\213f\351\347O_\220\231\375\225i\326\364\354\351\31"
	.ascii "32\263\27\232\26f\317\233/\236l\31\31s2\277\234\235\221"
	.ascii "5}\356\354\214\14e\326\314\31F\255'\343\203\277|\366\347\177\374uZB\322\302i\11\237ee\317^\220"
	.ascii "0gQ\326\314\354\314yY\324\367i\322\254\204/3\263fOJ\230"
	.ascii "3oA\2\32\331\231sg\233\351\277\24\377\7\213 \367\215"
	.text
	.section	.gnu.lto__ZN3stk3com5closeEa.f43af12e,"dr0"
	.ascii "x\234\225V\375OSg\24~\317{oooA\276\5]\347l7\306\334\26\247\211\306,1Yf\226\231\375\5\373mI\263 &\4\1#\230\305\37\32/\320\241\30\206\15n\11\31\362"
	.ascii "5\4\312\234"
	.ascii "0\277P\301\217\356C\304\315\217\201\250\200\310\307\6\305m\331\246+\261\353\264a\347\274\367\266\222\332nY\223\336\336s\337\363\234\363\274\317}\356\271\225\330\323\237B\374\6T\306\266\341/$0\340\356k\214\225\251\234K\303YLKP\316\276\316\264%\22\227\27E2\267"
	.ascii "0\266W5\351\231&P\364\23\205\233\375\251\230\244"
	.ascii "6\274\201IfP\365\313*\0\235"
	.ascii "0\13\3\266\233K\262I1\253\26\330\15?\363\7\34\316t\315_M\274\307\203\234\331\31\206\275\265\3u\12\205 Sx\240"
	.ascii "1p\332\274\252M\323\264\373\265\203\363\334\375q3.q\346\347\14\332\301\12\35`%\322\36X\205\271"
	.ascii "5\35}U\252\264\24\10Wyk\270\307\222\323\252\271"
	.ascii "5\357\265\203\332&\10r\11:A\"\334j+\274beA.3\370\34r(\371\201+t;Qqa\223T\252\214\5\17\203\2\214I!\316B\270\314\241\373\336\211\236\24i\205(\355\235\235\274\256d\267hZ\371T\365\305c\340\326\232\313\335\332\302\302\233\330\303\4_\350=\236p\243\17\34\201\354\356t/&\35\277X;\260\212g\201\270$#\11E!&*\36\314\26<\250I\24&\323!\15\210^:\235f\340\301\222)(\377\302Ab\277r\240\252\214\263?\360\14\346"
	.ascii "9q\236\301\3\251<\213\21\376JcP\376p\237\317"
	.ascii "3\242 \345\317\16\214\272T\351UA\277y\272\355\250,\350{\37W\310\3\232kja\301F\324\273bQG\300\374\236\356;fi\275\0"
	.ascii "74u\36"
	.ascii "6\351{\257i\253T\265\10<\1\276\214\3_$n\210\33\212B7d\223\2p\24\262\205\330\270\233c\240\4\270\214\200\306\33"
	.ascii "5]\334\371H\333\253\251A\236\30\302MS\231\311\231\353\203*\371\302$BO\231\353 4@}\231\246MU\177X\200B\302qp\302\11\352\14'q\205\335\4\327\210\364\244jY{_\265\231\360K0\241\307 8\313%6\234%\215\203\353e=S\211\356\237\344'\255\341\24"
	.ascii "8\331\177SK\24\341\337\255\237$\351\314"
	.ascii "0)\31N#\255"
	.ascii "3\324\217\226\252{\373-\210'4\364\"K\352\312\240\17\234A\236B\214G\15\306\12d\207\31\312\354\262\202\14\215\5"
	.ascii "5\232E\252\237\356>\234E\202A\236\346#\266\263\250\21b\320\0C\212\216\262 \220a\\+\32b\211K'\37z\224p\211\364\20\327oUD\243t\21"
	.ascii "6\237\35\277\13\221\235\250p\16wr^\10|\1/cU\26\26\356)m2\374\250,\3\357\277\311\26\245\323W\361t\372:\242\323"
	.ascii "7\244\323R\241\212\"<~\13\312\265\246\4Z$G!p\377\251N\217l\343\15Z\235=\310"
	.ascii "3\251\324\243+\355U\22\226\252\243bY\360-\330\220\327E\344E\330s\311\2{D`\7?m\257H\21\16\303g\252\37\231\210\352\31\213"
	.ascii "2|s\215mb6)%T\332\377\270r4\262-\23\\\22\322\14\350\245S\231\201\211\231t\31\223\310\237\25\276\227\214\33\22\213&\215\264\256C~\301\311\"Q\370[\243\367~\12i\346\246"
	.ascii "4\5\276C\315\276"
	.ascii "74\353i\372\350PJ\270\202\11\256\320"
	.ascii "3\300\340*f\364G\334nf\376T!\332\361e\213\266\25S\242kH\221 jXh}G\1"
	.ascii "4\30\31i\332g\326\255\225\24\355\246e!\362\340b7-\213\341&\31\256#\263\37\204\32\203Du\14*j\15\267&cUx\321*\372\264\314\231cY6\322$\272\352P\244\352\15\341\321d\364\350\362\230\26]\356'\37\302\260n\321G\373kZT\333\6\335"
	.ascii "8\317\320\225\372V\177\275%\254\212\25n\202M7\341-p\6\304;\341t\350\257\363\252\255@\207<K\220\216\251\252\13\221[\260\2n\207!#\340\244\374\361\372\200p\217\354B\203\215\202\25\331\5\371s\264\315\211=\375\235C\240\357>=\300\323\350Z\257\21gD\23_\31"
	.ascii "2f`d\356\254\214\36\211\230e\203"
	.ascii "1\224\342\216a\216\216\205\337\377T\327\276\26\344v\30\27\272\244\213\367\322]X\213\372\310z\243\314\350F\317\373\251\21L\240BH#\310_\20O\304M\301\213&7\211t\325S%\357\372\0\347?\342\365\315N\302.6\1e\336\276}IF]\306|\0\361=\36m\352\251\370\246\236\326M\375#8\225x\5\341'p\232\257\14\316\254A\357\342\177\24i\4\312R\31\275!qVy\334\5\361\246\25\275\201f\376\307\264\232\215"
	.ascii "7\255|\221i5\247O\253\31\300\177\25 ^\320@\317\22\316\332\264\374\342\367JJ\13\34;J\326\255_\267&w\373vf\316-.t\24\355,Lr8\266\346o\313s\24\275_\230\347p\250F\344\200\374\15oo~\353\335w6\332sJ6\332"
	.ascii "7\27\225\346\355\260o\335Y\224[\232_\\D\327"
	.ascii "6\345l\261o\313/\312[m\337Z\274\303\216Ai~a^\2\375E\370\7\334\213D\23"
	.text
	.section	.gnu.lto__ZN3stk3com4sendEaPvi.f43af12e,"dr0"
	.ascii "x\234\225V\377OSW\24\277\347\276\307{\257 _\4D\250n\255\303\352\226"
	.ascii "8M4\272\304d\233Yf\266\177`\277-i\214\242!J1\202?6>\240\361\313\342\260A\227\220)\10\"P\277\301\20D\305o\325\315\257S\21\5\5E\304\15\352\367MWc\355\264c\347\334\327vX\313\226"
	.ascii "5\351\353;\367\236s\356\347|\356\347\236[\211\275\375)\300\357c\23c\253\361\27\22\31p\367e\306J4\316\245\356,\246'*G?b\372"
	.ascii "8\211\313\243,\231\243\377z-\301\360L\0\305xQ\270\352OC'\255\352ctRA3\206"
	.ascii "5\0za&\6l\15\227\344\4E\325L\260\6\36\360g\34\16"
	.ascii "7=\277\224t\237\7"
	.ascii "9\263"
	.ascii "24;*\316U*d\202L\346\346\352\300!uz\275\256\353O+z\206\306\271\267\324\340\24g~\316\240\1\314\320\10f\2\355\201\351\350[\336xd\203&e\2\305\255\275\336\335n\262\325\351n\335{i\233\276\0\202\\\202] Q\334\14"
	.ascii "3|`fA.3\330\15"
	.ascii "6\364\255\275Q\356Q\245\311\"\256\345\301\313A\300"
	.ascii "8\275\324\373\250F_ \7y\2\354"
	.ascii "1\342\"\353\341\20\203\275\"r\333\251R\207"
	.ascii "4\245D\27\310"
	.ascii "7\365\327u$\32K\226\227\311_\6\271\2\373b#\25\6M`#\357g\256\320\215$\305\205\205\245Q5XD3(\300\230\34\342,\204\323\34\232\357\267\265\247J6\1\313;|\247S\311\255EX\203{O\357\7\267^S\352\326GF>\305\272T\370\341\315U\214\17\264@.\6>_\327|K\225\346\210$m\353\366"
	.ascii "5\230"
	.ascii "0\211\267t\260\251~\255\246\237\323]\203##\226 \327`\177\334\24\255\220\333\234\356\305uZ{*<\263\370$\20Ye\254\303\244\20\201\32>\22M\370HJ&3\205\36\343\201*L\307\327q\31@\4g\322\350\4b-\13\210\266l\232\312a\264\213\17"
	.ascii "9R\311\36qQ>c\22\373\235\3\343\317\205\315\206\360I\252\31F\23\177\245\233P\372\342\33\337\356^\5+\331\261\271\317\245IsEU5w\353[dA\215\367u\231\34\255I\205\266x5\275\311|\210K\6\335p\0r\251"
	.ascii "6*Y\354\4\2j\7%\300e\14\250\276V\336\304\235\257\364\365\272\26\344\311!\24\16\245\271"
	.ascii "3\324\331\245\221PUazJ\\\333\240\12\266\226\350\272w\257\204\14\301Ap\302!Z\30\16\343\4\353\1W\257\364O\322\222\206#\33U\12OA\207\216"
	.ascii "0\276a.\261\356,\251\37\\\357\33\236J\354\362\251~\244\210\301\21p\262\377F\226,\314?\353\276K6\200\241S\32\34EX\307h=\232\332\330q\306\204\361\24\15\307\21%\255\312\340\4"
	.ascii "8\203|<!\356\13#V 7\202Pf\347\25D\30\236\320bQ\244\373i\373\300\213\0\203<\303Gh\207q\227"
	.ascii "1\6"
	.ascii "7\360\252bD\231"
	.ascii "0\220\241]!\26\304\24g\17\274\360(\221\24\231!n\354T\224\243La\326\34\355\277\15\321J\222\340$VrJ\20\374#\16cV\26!\356-n&\370\221Y\6?\375\33m1<\235\36\213\247"
	.ascii "3Q\236\316\22OY\202\25Eh\364:\224\352\333\23i\222\4E=\341\340.\217l\341Uz\245"
	.ascii "5\310'R\252W\27\33"
	.ascii "6H\230\252\222\222e\303"
	.ascii "9\260 \256\363\210\213b\217\245\210X\343\350v}\337P\226*\4\206\347\356\2\"\21\331"
	.ascii "3Fy\370\356U\327\213^i*\242\324\376\327k\373\242e\251\360\263\240\346\242\221:-\322\20\342:]B'\322g\231oZxC\342\301\244\26\333\264\323/0%Hd>\251\366>M%\316\334\344f\202\313\310Yg\230\263\366\355\337\356L\215dP\341\12\235\1\6]\350q!\252v\225\371\323\4i\255\23G\225\25\227\242\253\10\221B\264\10\321FE\1\24\30\11\351\256O5\244\225\34\253\246\234\20ip\264\232r\342\250I\206k\210\254[\260\321CPoBYEX\255)\230\25\246\232\305:\265\367\324x\222\215.\22\233\365z4\353\15\241\321\24\324hv\\\211\232\375\244C\350"
	.ascii "5$\372jSy\255f\371\304\20\316$\32\331Z\347\337j\212\260"
	.ascii "2\31\372\300b\210\360&8\3\342\276"
	.ascii "8\24zy\\\263\24\33!\357PH\343\340\206\23\321-x\27nEB\372\301I\376\227w\34\27\27\257\274\5\5v\33\314\210.\310-T\346\300\272"
	.ascii "3{:\302\325\247\7\260\25\320X\230\340\314\0\317 \273\3\14{Bl!\326\20u\365\321}\310\32\333!\321k\12\14 5w\302bi\34\371\355\17m\326\207A\376\36\14\12\236"
	.ascii "2\305\5t\27f!_\225\372\225eq)\313\365\323J\360\13R\206"
	.ascii "8\2<\13\321\242O\347_/\272T\364\301N\\\205\235x*5u\243\360_E\341Q\\6\14\36\2s\220O\23{\333"
	.ascii "2\260#\334\325\262\305=0\252\350\34\34C\373To\202\320i\253\320\251~\262/\240\314k\323\327\343-\254"
	.ascii "1\30\206yl\0\302\254\240\306|\0c\37\244\330\223\343\33\373\344\334"
	.ascii "3N\316}p*c%\204\7\340T/\366\14\315\304\3\202\177\314\244^(Ict\217bC\364\270\227\217\325\22\351\226{\370?Z\342\243\261Z\342\343hK|b\264\304!\300\277"
	.ascii "5\\\334\342@\7\26_\307\347\27~]T\274\334\276\252h\366\234\331"
	.ascii "3\27\257\\\311\324\305\205\5v\307\352\2y\311\242\342E\322\212<G\262\335\276"
	.ascii "4\177E\236\335\261\250 \317n\207|-l\333\347~\276\360\263\257\276\230o\265\25\315\267.t\24\347\255\262.]\355X\\\234_\350\240\261\5\266%\326\25\371\216\274\31\326\245\205\253\254h\24\347\27\344%\322_\212\277\1l}\231\\"
	.text
	.section	.gnu.lto__ZN3stk3com4recvEaPvi.f43af12e,"dr0"
	.ascii "x\234\225V\377OSW\24\277\347\276\307{\257\310w\20\241\272\265\16;\267\304i\242Q\23\223mf\231\331_\260\337\226"
	.ascii "4F\321\20\245\30\301\37\33\37\320(.\212\4\267\204(\"\210|qC\360\13*\"ju\363\373\27\206_\251\"\242\3D\35\233\256\314Z\265\262s\356k;\254e\313\232\364\365\235{\317"
	.ascii "9\367s>\367s\317\255\304\336\375\344\342w\330\304\330\32\374\205X\6\274\354\12c\205\32\347\322\365t\246\307*\35\363\231\36'qy\214%s\364/\321b\14\317\30P\214\27\205\253\336$t\322\266\177\212N*h\306\260\6@/\314\304\200\255\345\222\34\243\250\232\11\326\302#\376\214\303\221\346\221\313\23\206\270\237"
	.ascii "3+C\263\275\374\\\205B&\310dn\251\362\265\251\323\353t]\177Z\344\31\221\312\276\253\306)\316\274\234A=\230\241\1\314\4\272\21\246\243oi\303\321\15\232\224\6\24\267\265\260\307\245\332j1\316}\242R_\10~.\301n\220(n\206\31>63?\227\31\374\0"
	.ascii "6\364\255\271U\332\250JSD\334\276G/\372\200\342\212\334w\253\365\205\262\237\307\300\217F\\h=\34b\320$\"+O\25"
	.ascii "9\244\251\205\272@\276{\313\235Mq\306\222/\215P\16{\"C\321h\6\33\271?s\5nMP\\\350\236D\345`\25-\240\0cr\200\263\0Nsh\31j=\224(\331\4.\367\300\275N%\253\6q\365]<\275\37\312\364\352\242"
	.ascii "2}t\364s,L\201\275o\257b|`\37da\340\310\372\226;\252"
	.ascii "4G$i]\277\247\336\204I\334E}\227\353\326i\372"
	.ascii "9\335\325"
	.ascii "7:j\361s\25\366GMq\0\262ZR\334\270\216\267\277\274d>\237\14\"\253\214uh\12"
	.ascii "1\250\341\303d\302Gl<\231\11\364H\6\252"
	.ascii "0\5_'\244\2"
	.ascii "1\234F\243\23\211\266t \336"
	.ascii "2h*Sp\361\230#\227\354\11\27\345"
	.ascii "3&\261?80>\"l\326\217O\222\315\0\232\370+\335\206\242\347\337\366"
	.ascii "6u+X\311\316-\36\227&\315\25UU\337\257\333'\13j\334\257\213\345pM\12\264F\253\351m\346\3\\2\350\206\203\220E\265Q\311b'\20\320!P|\\\306\200\252k\245\315\334\371J/\321"
	.ascii "5?\217\13\240r(\315\275\376\316.\215\224\252\10\263\261\320U\11\333a[!\356\177\223\204\14\301apB\33-\14Gp\202\335\0W\267\364O\322\302\372\243\33U\12\217G\207\366 \276\1.\261\353\351R\17\270>2<\225\310\345\23\274H\21\203\243\340d\377\215,N\230/k\277\217"
	.ascii "7\200\241S\"t \254c\264\36Mml?c\302x\212\206\343\210\222Vep\2\234~\236D\210=A\304\12d\205\20\312\354\274\202\10\203\23Z$\212d/m\37\270\21\240\237\247\14\22\332\1\334e\214\301\15\274\252\30Q&\14dh\227\213\5"
	.ascii "1\305\331\203\317\33\225P\212\324\0"
	.ascii "7v*\314Q\252"
	.ascii "0\253;z\356B\270\222X8\211\225\234\22\4\377\204\303\230\225\205\210{\207\233"
	.ascii "4/2\313\340\347\177\243-\202\247\323\343\361t&\314\323Y\342i\242`E\21\32\275\11E\372\216X\232$Aa\340\346\303\273\33e\13\337\256WX\375<\235R\275\272T\277A\302T\25\224l\22\234\3\13\342:\217\270(\366X\202\210"
	.ascii "5\216n\327\326\372\342D!0<w\27\20\211\310\236:\306c\360aU\235h\226Z>\245\366\276^\347\11\227\245\300EA\315%#uR\250!Du\272\214N\244\317\342\301\17\203\33\22\15&\365\330\346]^\201)F\"s\270\312\375"
	.ascii "4\221"
	.ascii "8+#7\15\256 g\235A\316\16\355\330\264+1\224A\201_\350\14"
	.ascii "0\350B\217\13a\265\253\314\233$H;0iLYQ)\272\212\20)D\13\21mT\344C\201\221\220\356\17\252\206\264\342#\325\224\21 \15\216USF\24"
	.ascii "5\311p\15\221]\27l\334 \250\267\241\270<\250\326\4\314\12\323\314b\235\232\207j4\311\206\27\211\314z3\234\365\226\320h\2j4#\252D3\275\244C\350"
	.ascii "6$\372jsi\215f\371\314\20\216\231F\266\325z\267\231B\254L\6\17X\14\21\336\6\247O\334\27m\201\27\307"
	.ascii "5K\201\21"
	.ascii "2\205B\32\372"
	.ascii "6\234\10o\301{p'\24\322\3N\272\353\376z0\24K|\310\265(\260\273`Ft~\376>\225\331\273\376MS[\260\372\24\37O\26cA\202\323|x\34\321n\7\303\236\30Y\210%@]}l\37\262DvH\364\262B/Rs/(\226\206\321\337\377\324f}\342\347S\241O\360\224&.\240\373"
	.ascii "0\13\371\252\320\367.\217J\331\7^Z\11\36 e\210\303\307\323\21-\372t\276y\336\245\242\17v\342J\354\304\242\251\33\205\377*\12\17\343\232\206\301\375`\366s\233\330\333g\303;\203]-C\334\3c\212\316\304"
	.ascii "1\264Ou\307\10\235\36\20:\325Oz|\312\274V\275\4oa\225\301\0\314c\275\20d%\223\261A\200\361\17R\344\311\31\34\377\344<4N\316\20"
	.ascii "8\225\361\22\302#p\252\35\236\376\231x@\360\237\231\324\15\205I\214\356Ql\210\215e+\306k\211t\313=\376\37-\361\311x-\361\267pK\34"
	.ascii "6Zb?\340\337\32.nq\240\3\213\257\311"
	.ascii "9y\337\344\27\254\260\257\316\237=g\366\314%\253V1uI^\256\335\261&W^\272\270`\261\264"
	.ascii "2\333\21o\267/\313Y\231mw,\316\315\266\333!G\13\332\366\271_.\372\342\353\257\26Xm\371\13\254\213\34\5\331\253\255\313\326"
	.ascii "8\226\24\344\344"
	.ascii "9hl\241m\251ue\216#{\206uY\336j+\32\5"
	.ascii "9\271\331\261\364\227\342oJ'\232\245"
	.text
	.section	.gnu.lto_.symbol_nodes.f43af12e,"dr0"
	.ascii "x\234U\213;N\3"
	.ascii "1\24E\357\330\271\316\304I\14\12\377OM\313\256\330\306\213\304\210\6\11\321\321 \222\300\0\341#  \1\2\4)RS\262\0H\311\"`\354\211\344\270"
	.ascii "9\357\310\347j\0\233\12\341\251c\12\260\377\11\210\340\250\233\202=\242\253D\363\212\364\274\241\361\354"
	.ascii "0\351)\1\273\254\26T9%\231\32\236P\371\360\221\251\347\23k\5\325\31EM\205\247\324>x\241\365|e\335\207}\212\236\12\317Y\361\301;\33\236\37l\26L\36(\225\20\242\335N\221\334S\30\373\200bb\277\243Tc\277\245\244\261_Sj\261_Rl\354\27\224z\354\317\224F\354o\224f\354C\212\213\\c\5\343\376\206\306"
	.ascii "2\362ASc\11\331\316W\242\261\210l\367\267"
	.ascii "3\253\261\200\374\340"
	.ascii "0\325\230\307\350{\270\375\377"
	.ascii "3\207\354\307\37-\344[\332\204\271\11sS\316\315dnV1\16G\13c\247m\250m\250mY\333Im\327\220\355\371\243\205\321\214v\241v\241ve\355&\265[/kW\324\370\3\266\351\220\257"
	.text
	.section	.gnu.lto_.refs.f43af12e,"dr0"
	.ascii "x\234%\311A\16\202@\20\4\300\356\36p\6\26\\'\233\310\201\204O\372A\243'~\5\201\272\226\1\370\340"
	.ascii "6\2\244h\224\213\1KZc\367\205\272\37\330\377!\356\210\7\374|c\270<0$\207\206\376-_cD\241\212qr\225\300\234\234\317YT\266x\242R\325\370r\325@&\363\232\272\341\0\305e\6~"
	.text
	.section	.gnu.lto_.decls.f43af12e,"dr0"
	.ascii "x\234\315{\13TTW\232n\355\263OQEQ@\214N\322\343\355\351\330\244\233\244ow\307\304\330\271\316\254\271\355\223D\323\216\332j\272\223\254Y\213&Z\264\364 8\200&\351\265\356\352\303\373\245\10\242\210(Z*((\17AD@\345%\310KD\5DT\260@\221\207\200(\240\210\12\363\357\275\317\251s\12\252\246"
	.ascii "3\231\231\273\206\225\337:{\357\177\377\373\373\37\373\337\217s\202U*U?\257RM\302_\330G*U\214\275J\245\206\272\325@N@i@\271@\32\240\2\240\353@\315@\313\201\332\200\332\201:\200:\201>%}\220J\325\242b\177\316@oC\371]\240\271@\363\200\26\0\345\0]\2j\6\272\13\324\11"
	.ascii "4\10"
	.ascii "4\14"
	.ascii "4\16\244\347T\252"
	.ascii "796\376\337\302\357\17\201~\4"
	.ascii "4\7\310\5\350\247@\357\2\275\17"
	.ascii "4\17h>\320G@\13\200\376\1\350\37"
	.ascii "9\225\305\37\301\360\221\250\217\36\350"
	.ascii "5(\377_\216\341\375"
	.ascii "5\307\360.\204\337\305@\31\360\354B\352\201f\0\271A\335\12\216\351\377\6\320*\321&\277\201\272Y\360;\4\262V\302s/\221\11\345\177\"x\340y-\374\256#2\241n=7\335V\267\200\347"
	.ascii "3\250\377\35\307ly\25"
	.ascii "1\373nE\314\366\213\20\263{\16\320\357"
	.ascii "9\331\356\345P\377"
	.ascii "9\224\337\3\372\202\340\205\262\35\324\357\204\337"
	.ascii "0\240X\240d\240"
	.ascii "8\240\203@\366\242\376\303\242\215;E\233"
	.ascii "7\213>\310\21}\342\240\222\355\372%\320\37"
	.ascii "8f{\17\240\257\200"
	.ascii "6\0m\24}\361\376\24\373\22\377\276m\303\276\13\247\330t\225\30Gi\242}\377+\354(\331\203\330\307\0\277O\21\303\245\21\261M\325}\\\324\231\330M\212\37O\240Mb\234M\325\217\304\356;6\364[%\306\20\321\223\350\245\324U\363\337\250\247\27\301\310\261\371\246\345d}\347Z\321\227\314'I_i\236\374\11\310[\234SS\365%\363\324u\212\276o Y\337\377\337\272nV\350:S\241\353<+\272\276\251\320U\312\5>@[\304\334"
	.ascii "1U\327\307\34*\314\32\251w\350\341\220\223n\16)\26\355\252N\264\203\242^\307\223bpA\344I\255>J\20\202\310\177\366\325Nh\226\16\35C\263\321q4[\245Bi\210X\210\376\2s\365\311\344?`\16A?\376\321\265\227\205\216h\366l\235k\242\20!\214\275\205"
	.ascii "2\220NE\36K{&'\377"
	.ascii "2\311\376vjhu\204\0\177\246"
	.ascii "8\1\377@\205~1\33\375l\266\12e\"W\332\244B'a\254\23"
	.ascii "0V\12\360\304\206\13KT\244\36\245#l\251EZ\347\225]\216T\213wI\261\277q\177\221\236j\241&E\343\253\344lG\35\35G\324B\257\324\342\24\35\351]V\4\366\361\274\264]N\257\307\22n\370g\16\242Cf\1{6e\317A\257K\235\10wb\307\275\4\275\205\211\200A!=W\264Q.\265Q\177\323\360c\7<\223\30\11\335+\215\273\347\360\213\23"
	.ascii "0\14\330\245\32\313\332\4\36;\267]\3\360"
	.ascii "5:Z\274\273\377y\212=-\22\253"
	.ascii "9C\25\327\32>\372\310\1\271\352\210Y\206j\307\252~(\10<*\0\230\247\21Fy\350\27d@\322\233\374E\310\320Tf\\\350,\230\230p\240"
	.ascii "3P\223Oj\240;\14v\252\344d\244=\265\344\37\310\330\317B\207\"u\324\222zR\354>9\232\350\200"
	.ascii "7Q\370\21\321\217\353\34\361\377\243\317\225\247#\303\34q(\"\5n$<\253\331\16\271\352\11"
	.ascii "8Sb\252N@\250\4\351\321\5\31\332*=\203\246\264\332\352"
	.ascii "7dp\305\0\216\361\200\354}\331]\267"
	.ascii "9\274\235\312Fa\265\307o\351\360aV\310j\273\370"
	.ascii "5`\373TG\\5F\214\203\376\2\325"
	.ascii "5\215\15W\325\264\236Ti\10\244\244}=\215:\321^\246\366\243\32\200T\11\326*\223!}*[K\230n\255\12\0D8P9\324\\da\22"
	.ascii "5\320P\346\214\323\31\224\334\243\251\371\314l\213\240\250\35O\352K\301h\37R\315\234\351\352\342\342\342\272\27\241Z4\223\4\31\14\21'F\326\242\0\25*\4yEd\204:\30\1X\10\34\324\0\317\227\221\13\252\7\272\2\4m\4b5\21h\265s\303w\354L\303e,\265\352\35!\216G5\320\341\34\30\200\0\3\6\366\3\177FP\337t0\277\224/\255\300"
	.ascii "4\246\316"
	.ascii "3&\331\32D\13\364\277gK\274\207\12\30/qr\251U\336cHd\26LiE\214\231\230\377\222U\346*\312\234\"\30\5Sr\223\260\250\224\232\216\"e\256\222\347IU\310\265qG<\311<0*\234l\327Y\314C\245h\25\272\206\304\200\342.\217tuBD\273\332\342E\215`B\221\235\6Lz\23\322\242\353\240\335U9^\304vx\272N'\366\370\316\244\325x\17\315~\334X|\327-\207)\3(\303\373\206"
	.ascii "9\274\251C\316GN~\32$,B\315"
	.ascii "0B\323\364IB\352a\200\375{\263\36\251ub\262\214\370w\223%p\357\250\210\273\345L\343"
	.ascii "1\15\223r\314\253\201\20-\235\307\277\"\305\311\374\226\16D\213\363i(\277\310\230\300\266\23\344m)A\336b\302;#\343\7uS\23\344M`o\245\354wh\202\274-%\310\23\15"
	.ascii "7R8%w\213Mn\324\206^'I2zW\234\306\302\225m\26)\265]L\251\355\324"
	.ascii "0\223\307\212\323\265\266\301\337\225\300\277K\261\367\307$_\20\261\233\2%\354\314\222*d\242X\356J\310\357_\236\354uT\362\266\330\340E\35\24\367}\343\356\26\265\5\356\16\13\334\235\"\356N\212\273\342\332\355\223v\324EF\32\300{\352\12\332X\252\235E\212\3Q\371\311z\334N#\12\265d\335\352\260\307},\274\206c\313"
	.ascii "3\364R\362\357\177x\233&\377\36\200\366\340\273&\377\356\251\311\237DL\365\336J-.\300t\274\333\31;\376\31\227\261\347\224=\11\31j\212KK'\335\201\256O\361\25\326\24\34\235\320\342\210\233\305BS\226\35"
	.ascii "6\321g\356\370\344\341"
	.ascii "8\265\270\4@|?[A\342{\10\342{\360\273/\2\217\224\213@I|d\227=~\300F*\252\356\276\356\200\7Y\241\256sl\230\255\365\257A\361\315\236\266\240A\204\\\\!\333\261\377 \377\316\204?WWW\227Y\263\\H2&I\13\262`\214>6\320\330\211h\212\33\0X\257l\244-\232\2\262\317\13\313\264\350%\311\341\257X\276|%\345K\310\355\257\314\271\35\12!\334,\271"
	.ascii "0in\241b\262\236\20"
	.ascii "1\241\204\203\260\251\244\37"
	.ascii "1;\226\236<\22\264\10\222#\25\1]I.D\17\247dF\232s\317\211i\224\330\364"
	.ascii "1\242=\254\345g\266Z\4\321\325\302,k\24\14K\224%}\2"
	.ascii "9W\24\316\271\240\21X)F\331J\361T^f\246t$\314\337\255#[\237\356A\307\373\244c\20"
	.ascii "0O\212\353S\24<G@\307`\240q\350\34\11\277\244]\340\250\220"
	.ascii "1\233B\242\376\203B\350\12\2\6'+\210dPy\371\240\255\340U\322J\335gv\204"
	.ascii "9\355\237|I\234"
	.ascii "5\1Cv\201\205YoY\10uCf1s\3\231}}\214\311j\14\355\262fN\0KMI:\221\347"
	.ascii "0P\342\5(\363\34\374\23\310\24yF\24\261\332\231"
	.ascii "0}\227\316t\321\315\316\372I\365\2\263\232S\242J^\310\13N\311\213~\277\325\31!\363f(4\357\265\252\271\314{A\334 \220\5\356\311T\336adf\246>9\311\326\374I\321\354S\327\374\314\304\232\263Z<\312\346\376\243\234\240F{\213\204;i\261\346o"
	.ascii "\347\244"
	.ascii "5\277\374\300\320\200\264'5\26\13\202V\205b8=\212\346\314\351H\344\265\314G\26Hw\200\231E.\322\31\306?\327\35\324\252\301A<\315y\243\243E'\264H\347j}\7\31\307M\331A\322\324\230\224s\376O\201\220\32c9\35\332\311M\333\214\302\20\207B^\224\332\341z:\4*\357*\331CV\361\31:A<C\261\35o\343\304\225\213\210\326\377\205 9\27"
	.ascii "6\30\312K\273\335\272/\265(\1\304\357\222\305\317P\356u-O^{\0&iF\361\334l\264\233\243+CqA\315oy89\322\245\362Kz.\34;12\340h\256\333\313\321\312\311\360\364\10\255\271"
	.ascii "2\221U\346\37\352\36\327\323J\242\343>V\371\244"
	.ascii "5\374\26\343$\310\222X\345\323\324\240!\365\233{\304\325\366"
	.ascii "5D;H\253\355\1\356M\370w?pR\253\264\17\226f\253q\23\263JC}\304s\214[yX\242I1\356p{\222\3n\223\212\245gG\263"
	.ascii "5?;\16\241"
	.ascii "5Ts\332\364\15\261"
	.ascii "6\254"
	.ascii "2\207"
	.ascii "8\313\320\2\306\240\275B\37\317\30c\316\334y\213,\252\300x\20\30\215\334\317\224\214\201\251=\365N8AM\7O\270;\\\347"
	.ascii "4\347\240`4\16\265\235\31Z\321\21(l\27L\223\223oQ\310(\31z\37f\275\321\21\216\35\361\320Qn\16t\354\330\263\303\305l\2f\325\230\326\211\347\234-\13\244R\13\244H\26"
	.ascii "8\361p\350\201\36\227"
	.ascii "0\20my/w\331\341JV\310\330\27\333\242\246\210N\265\235I\231\25#\230\4a\2\2\205\212@\307\24\210\216K\210\322(\242\363'\257\307i\315\256b\220\362\356\337;\251\241u\253\364(\235"
	.ascii "9*\272*'Vg\206~\202U\206\354\317\313\261\263\205=\203b?)a\277R\37\342\207[\31\332\300\260\266\33\16\270\235\25\256O\\\332\316S\350\306\364J\234(\224NN.$\235Q\246\2u\226\204:\233\242n\272|}/\207G\230\200\301\366\246*\7\374\234\25R\207\356\335\347\230\264j\13i\247\24\322r$i\271TZ\331pg<\13\354"
	.ascii "4HV\314\6\207\204\360\4\13\325 ,$\315\362\250f\247%\315\302#\366\17\330\341\235vt\374KAyw\340\254\312\12\7BL-\304h(\237\16Hv\213\217RGH\344\230b!r^~\221t\300X\36h|\11\216BD*:C\371\320Y\20->C\251\200\202\274\262c{>\306\307\230`\343P\316\20\231`\250P\22|n,\377\270\23\335X\232\330\331\364|\317\250"
	.ascii "3\335!\375\220Z\277"
	.ascii "7.X\203sY\357\374\346\260X\15>\313\12\7\367<q\302e\364\31\267V\205\237\321#\335\354\331t\7i\12\214}\355_Uf\255K9\222\"\312 E\224C\212H\24\264\264\206\334\357\260'\262k\34\355\14\303\270\226\11\216\15=\275\323\36_g\205\224\341\224\14vT^L\347g\316\330A\36\337bmc\11"
	.ascii "9\5z\332\266\204\32\315\270{-\356fM\23\25\347/\261\213\252\245\4_Z\272p\21\241\331\272\331d\324\37\240:N\247\22\221\32\225H\353(\322\313\200\264VDZ\307\360\15\354\350\337\251\301#LvRK\327\10\246\262"
	.ascii "9:\267\12\242^hiq\31M6w\243r\355\261\240\241\254\267\36&\337T\323\266\217)\302\212\313\305\34\216em\335!Q\203L\314'\244\370\340lW\31\306GX[aN\354s\346\224\345\244\230\376dp\300\21\247\261\266\236\27%.\264i\5\235\314\225\225;\264"
	.ascii "8\223"
	.ascii "5\355k\352\211a\"?\245\233\335\221\354(\36\27\210\335\312\202C\331\1\342"
	.ascii "7\324\355=\201w\365\270\230\265\225\204\306]\345i\333Jz?3^\221\211p-k\353\254}\325\300,\271\212X\362\310\263k\361Z\263\247\205\240X\265r\341\202\203\16"
	.ascii "5a'\230\260\203\232"
	.ascii "0\202\\\265"
	.ascii "8\323jbO\23\263\347\236K\317.8\343\233l\204\261\316'\365\14\365\14\232\327\262R\206Y\0\322\263hyl\307A\206{\265r\3\357D7\360f_\350\231/\6\23v\336p\306&&W\272\30\233\303.\306\366>\34\313\323\322\342\344$\221\314uU\266y\262\25"
	.ascii "8H\30\12\24\324i\240H7\0\357\1\340h\0\226"
	.ascii "6\322\21\365A\315CN\\\201k\237\206\377\35I\365\375\220\256z\345%r\216\274\2\337J;\325\245\301]\242f\17cZ\325\370\21+\34\212\311}\316\24\331B\212\247\262{s\34\361S\326"
	.ascii "6\232\\\333\250\305\23\226\270\337`\270c\352\222\312"
	.ascii "0-N\322\235\303\276\340\301?I\260-\227\343\247\200\231tB\303\200yD\304l\32?\352$ 4\12\210\237\310\210\337\220\21\357\212<\266[\213\203\265,\266C\33^h\361vV\330\367\354\362%v-\360\3R\274y?\265\3\341x\326\326\327}\375\32\302\7X\341\376\376X\10\246\24V\270\373\354n\271\206\366z\237\306\356\375\347\247"
	.ascii "0\316dm\201\245\231\215\254m\1)\16\367\267\215\352\360Y\326v1;\254\27\326(\255\30\344\217&\20\256b\205\356\342~\201\243\275\326@\321\345ED\\\202\35r\241\177\260guqu\261\362G\17r\364\354v\242q\350\247\31\306\240\250\37\221d\203.\202\15R\360L\364sf28\351\223\375k4vQ\236\227jkv.7v`\332\341\272\315\16\215\234|\300\352\15[.\300\246\231"
	.ascii "4\225\210\35l\\j\5\231jzc\314\322\257\332\224~M\222.\230\372k\302>\21\22\27\320\215R f\35D\227\263\375p\263\231\327\330W\363\266\310"
	.ascii "9\301Y\341\234\344\304\243&\264\210GM:DaM\224V\200#\374r\235\312\12x\371\222\15\216\26\177`\34\27\246\354\211\230n\3"
	.ascii "5\227>\21\322\26\320\11\22$B5\317)\6!\30\233\301\366\230\301\276\260\6"
	.ascii "6K\266Y\221\302\300\305V\15,\37 \356\212\346\"!?nM\256\302\27\27\"\243\315\276\250\260\351\213J\331\27\17\25\276\20\254\371B\16#\343\355\336\267ES<\342\246\230\202B\36\222\335\326k\266\304Kk\210_\311\241\326\332\33E\21C&E\367D\336\373 \266\213\263\304\374@\356R\335\313\224\204\305\14\325\213]\256p\323\264l\220{\\N\217"
	.ascii "2\233\345\206M\263\264\310\35J\"\345\230\256\266\331\241F\356p3]\356\320n\263\303]\271\303\35Ed=\236jN\305\261\220"
	.ascii "2_\251\221\361\337\262)\375\266,\275Aa\242;\266M\324&\367hSD\331"
	.ascii "3k>\353"
	.ascii "6\363\32\333\251w\11\347\230"
	.ascii "5\316\347"
	.ascii "2\347-s\310\14Z\15\231B9t\353\24:6\331\324\221\245\6\272\20\24\366F/\12A(U\234\274$\3\250T\342\217"
	.ascii "4~}d\312\34Q\346M\233"
	.ascii "2[e+\24+\374~\311vj\345\246\276\311"
	.ascii "8\7Z\235'Zm\307\256\264\23\271\247!\317;\201=\14(\4(\16\350(P\"P\2P8P(\220\21h/\320\21\240\375@\7\200\366\1\355\1:\4\24\17\224\4\224\14t\20(\26(\6h7P$\320.\240\10\240\35@\207"
	.ascii "1\275\375\210\302S.\222\314\0\17\377\17\2\10k\341\356\243=\321j\234`O\13\343Uw\366:[\334h(\363\"\34\331\260t\243q}8,\\3\345%\203E\16M\7\325Dv\32,\203"
	.ascii "5v\260kH\303zt\14\233w\15\"\3\335"
	.ascii "6\354\254J\315d\347?\302\304\316>Or\273S\330Y\217\\\336\234\300\354\255p\314\366>^y \252\224\356\305Q\21"
	.ascii "9\256d`z\334\303\342\241(\244"
	.ascii "'\355\177\341\3L\277\253\373\37\251q:{\356\11\254HU\223\223K\26\26O.\347#\36w8\340\323\254"
	.ascii "9\261\371\356UL\316G\2,\370c\206\334\234\2!$\270ll\22Mb2\2\312\224\264@\331"
	.ascii "0\22:\205\305"
	.ascii "3R\16\236c\365X\24T\331\372X\207\313\251p\356l\351\351X\255t\207~>"
	.ascii "\362\350\22rA}\6\353\320i\331"
	.ascii "6\364\245\212\215{\222<l\345\245K_KW\202\235\265W4V\271;\13\373z\234p\25S\266W\210\253\266|\321\236\217\225o1\12\314~\317"
	.ascii "8\324Z\346<\305\357J^T\4\203\25`\305\353\245\232\342?\23\355\12\301\251ge\355\12\24\236\237H\330\23\311\231\275\314<\177\257\355\\\267\232\326\221"
	.ascii "9\177\216y>\244\276\272\7\231+\317\263\312\316\364\372\333,F\310;\262\13\254\262\340\331\331\323vf\316bV\331w3/[\226Y\302*\307\22'CYw\202\260\224U\266\235\15,\327*C\214\0c!\226K\274]NC\254L\12\261\212\24\323\21"
	.ascii "5\276b+\256\366\355\351\257\207"
	.ascii "3\246\30W\21\321MN,\256Z[F\326&\36\20\312\313\304s7HE\27\315aUA\6\252\224\302\352\222\215\260:\177,G\215"
	.ascii "3u\26\373\374\345\226/\356\227\313/\356\17vU]\320J{\375i\227\204\227\301u\244/\252\301p`\305\342\21\245\277\265\177n\226@\216\256\340\346j\331\203\313\345\35\377\343\361\207'\231\3\11\17s\340\256\22\323+L\353\336\200M\2"
	.ascii "3kh\344x\231\263t\235s\205\325\235\33\312\237\243\264\364*\311\320UD\377\253\324\320\15\222\241\253\206B_b\374L'^\256\25?x\222\350\214_H\305\222\322\346!\35\273B\233\274m\372&\230\335\265]\307\323\256\320&\214"
	.ascii "1p\326"
	.ascii "0:\260\234Pq\343\245\206:\304TP\364\367\345\201\302Kr\234##\243k\320\265\21\263\233\232&\311\23\315\324\23\315"
	.ascii "7\362\363\235p\1\23\221y(\357\20\321\37\335\220\\\336\20{\342\205\345\204\"/\357\344\11uS\232P\350f\332\271\24\236\332\204\326AM\315\371\263%N\326.|P\13"
	.ascii "1\311-j\222V\311$\301\333\203o\333\343r\7\321\6\211\217NE\351q\215T<\270\177pX\274UL\276\233\362\255h\222;\323Mr\321"
	.ascii "4X\312\343n\246O\177\177\342!=3I\366)\331$02\272\15]\333D\223\264K&\271KM\222\374\342\351<<\351`\343\276\351Btf(o\373\276\311De\241\16\242\241I\222\333I\345\356\36*\270i\217\343\365\26"
	.ascii "1\356\302b\374yxd\210\216\26'\315W\322$\320\13\36\27\26#)\320c\203\204\31\201"
	.ascii "9?T\274\276\350\206H'\22\320}\210\364.l\276\16\357Y\33\12\26z\0A|O\16t\27"
	.ascii "9\320\247\317\277\323C\211\207"
	.ascii "5Jg\221\316\314[=D\227^\352\255/Eg\35\316\37\270\357\200\17\350E\357\234N\35\217B8\205i\26R\233\27\341l\276)^\24\302\\\365p\272\253*/5\14jq:\353\25\337p\355"
	.ascii "9K'\246\375\347eW\301\260\250\17\272\366\213\256\32\220L:HM\372\235\356\31?\225oP\207\250\26\217\244\230\33\211-[\215\313\365"
	.ascii "6<m\234\210\350\263\267\356i\220\203\36"
	.ascii "3O?!\326y,\301\32\266\221\336\254-\15\367\343Z\33\265\326\327\377\21\"\364)\5;*\201=\234\20\264\2\337\320\333\310\315\201#\325\317"
	.ascii "4\270\223"
	.ascii "5\37\332\37\34\303\263\334\334"
	.ascii "3\234\361\205"
	.ascii "27\203P\364\314\234\233\307\310"
	.ascii "8\317%\360\343"
	.ascii "6\300\27\27e\234\345p\276#\215\310\226\224\341~'\351\235tm~\355\233\344\332g\2\226\234\227r\244}l\345\35\320'\212w\322\257 l?\226\22Gri'L\374b*\35e_)\203\325O\331\257\300\"\337\10\274\264\200\33\333\203\357\241)\13\270\222\27\5\361\256\22;\335\270\355\254$\237P\5\362z\330\371\230\221\212\14\24\310\376\370\210,vIO\336i1\37\305\7\357\252u\240u\244c0\317\226\332sC\17\235\314\353o\10\253l\353\275p\202\255\277\304\30\241\254\362\302\256\342"
	.ascii "3\262\333\303X\345\225\372\376&\215u\277\277 \376\210\340\211\337\303y\321\357\371\23\311"
	.ascii "7\355\360%G\33\216\17k|\232\207\361U\326|-\372a>\226\26\345\261"
	.ascii "7\242/\6\33\23#*\300\361o\21\251(\222\227\34\37\5\322Q4/:~;o\335\361\177\335\"1\326,\262\223U\366\16\14\216"
	.ascii "2\213\220O\232bYe{\370s\223\336l\221"
	.ascii "8Vy\274\342j&\266n\221\35\4h<\265\310.\311\"\327\223\257M\250q\233-\213\274HM\202\314\373\200"
	.ascii "5_\32\275z\230\243\26"
	.ascii "1^\251\14\236C\255\261\220\10D\273\315\306\330C\306H\220\214\261\227\32\243\374N~\255\32?aB\32\13[&\234\336>,\224\222\267S/\275\22\312\203*\2\5ab!l\241g\351P\"\364"
	.ascii "4\247d\25-\22"
	.ascii "9\373\370\267\311\276&\275"
	.ascii "0\320\31'8\211\231\362B\342\256\243\374[F\247d!q\16\375\4\222\304\303\301\242,\36\244\233\214\246\354_$\12\364\275\27\375\372"
	.ascii "1\211!T|4\231Dd\243\375<y/F\305\277<}\263\202\303\307\234(\314;\315=\275X\202yj\326\340\221\264R\"n!(\14"
	.ascii "0\223-a&\213"
	.ascii "0\17R9E\21\321\265\32\\\305\344\364\37\30\275\240\246r\214\31\251!\352\210`\201fc\"\344\220\245\220C\242\20#\25"
	.ascii "2 <\17\263\303}L\310\271\254\336\333vLH\335\24!\207-\205\34\26\205\34\241B\212;*\37\351\361\16g\226\16\266\247\227!\234\300\12O\213\232\372\35@\242\300\274\20\26*T\4\32\231\27~\355\200\216\202\261\216rs\24rSD\271\251T\356\356\213\325\365\16\270\200\211j0\356{\352\214\253X!)0\276CK\345\226\326\4\363\325B\10u\0\254\32\307D\221\212s#\265\377O \273\244Q\241\227\32k\357\261\213`\323B\32z\375\255\237\323K\367\227\32\32\233\351\207\23\330\267H\23,/\207$v#\333\337Xe\360\342"
	.ascii "7V'y\366\221UgK\237\275\374\311W\0}y\310\303\311\207'\334\231\374\353R\37\302\34\21\35\32\242V2\223\371e\223\373UQ`\201\3\36r\26\303"
	.ascii "2\"\251t\273\35\13\301\202S|\251\331YY\374\353([\214BYV\266h\330S\324\6g\363s\357\352\361+f\313;\307OU:J>\202\20\274*@\10\206\320\20\24}\224f\341\243\34QT.\25\325\264}\347\36;|\340"
	.ascii "5*\252\251\265\371\32\307\334R;\315-i\26n9mvK\36\225s\374\16\34\245p9\223sp\177R\230=\225c\312\250\334?K\210\10.e\312\211\200\262-\0\235\21\1\345SA\241\223%\36\370\36\223s\374UM\220\336\26\236l\13<g\315x\12\30\236\330\332\6\15\216\236\301\202`4\376\214\232\341\251\263\206'\327\2O\241\210\247\210\12J\216zZh\207"
	.ascii "3\230\240\3;\212\356"
	.ascii "9\331\2\224k\1\350\234\31\320y*\247&\347\376\20o\355\210=\355\303\5t\201'\337"
	.ascii "3\227d\344\307\352\244\310\215\370+\337d\240b\332\347US\366\3\313\357\370"
	.ascii "2,\326\362\22\266\366\222_\340\276QQ\17)\251\211\252\306\335\277P\322\315\241\231\256V/\236\312\371\377"
	.ascii "9\27Ot\27t\242\261\340\35\262\337.\343g\242R\336\274\267"
	.ascii "0_ \222\206\307\34\276|\243r;G\276\346\247/\377\26\242J\236\275\372#\277\342KW\305\335\210\212\326\303\361\31\246\335E\230v\244\10f:V\332S\307\341\233\324L|\360\301\11\1#\327\331\366\263)\216p\262\25C5\274=\272\304+\277\354'\203@\255*|\332;hT\5\266$M*T\15\343\324\362\263\305\327\317\244\216\374C\346\341H\357"
	.ascii "9K7\222\335\257"
	.ascii "\354\306:\321\215u\324\215u\371W\343\25\334\313\351\16^f\276,2_\246\314\323E\223#\224\314]/r\327S\356\274\222\323O\330\33\316\10\213\327\243z\366z\264"
	.ascii "93\243\300\331vr\275*%\327avot\270(\242M?\365\353\333+`\204\6\232\343\256\321|yU\312\227aq5\7\35\247~}k\235\33]\347\311W\254\15\367\236q\26\252A\265\2N\243\250Z#U-\264\274|\304r\333{\313\302lM\"w\23\345\276\366j\330\250Q\332\370\252\5s\263\310\334L\231\217\207\26\325[\236\340I\230\312\334"
	.ascii "7D\356\33\224;\256\374r?\257\24]n!\272Edn\241\314}\275\315\241\226\242\263,t\274)r\337\244\334\367\312\222s\265J\321\31\26\242[E\346V\312\274\357\345\201\6\364\343C`\356\210\322r-\34 \351\367>l6\335\342\177\14\34\246&c\267\26\267\261T8\322\223"
	.ascii "2\204]S\250\357cy\222\3o[\314\0`y\234\227\364\322\301F\6\273\303O\377\377\22\36\325E\217\361\270\203\311\17\254\16lw\306C\254\360"
	.ascii "4\234,'\211t\27\362\333\240 !E\10\32\232\\\370\26j\343u\250}\332\226\341.M\275\251\10v\250&\232{\243\356d\215"
	.ascii "8\213\252-\261\324\254\203j\326\236\323\231\355H\31L\223Q\202\32Y\362tR\236\372\243\361\13(\213"
	.ascii "1:x\32\313=\312r\262\372\260\300"
	.ascii "3\236\235\323y\356S\236\210\243Wr\35\225>yj\341\223.\321']\324'\375\365\17\216O\361I\232$\356\1\25Wu\353P\227"
	.ascii "3\336\367:\373\220y(\336Y\262\323\251Y'\214Bi\210\270[\223\14e\271\210w\313\206\352\241\206\212\177\271\267\22)\301\221#\214\314\337+\202\353\245\340F\273\12\33u\226\340\262%p}\24\334\236\370\343\17\354q\11\3w43x\334\211\242"
	.ascii "3f\204\232\327N\11\230\345j\376P\6\326O\201=9\222\220\247S\2\213\267\0"
	.ascii "6 \2\33\240\300\242[\203Z\261%\260\\\11\330 \5\366\254\362\340q\7\334\315\200u\24^9g\307\200\325M\7f\271\252?\222\201\15\361o\253\370\15\233<\374\34\376\361\253\255^\336\1\277\364\362\371\265J\275\354\367\253\327.\323~\262\352\263"
	.ascii "9K\177\376s\225\333\322\177\230\373\333\0\370\357W\357\375\352\275\367\347\256\367\365\365\366\237\273\331\313\347\217_\317\377\373y\356\37\316\233\353\365\321\202\217~\371\365G\363\177I+I\205\317\6\357\255\33\15\204\351k/\237\215\6\317\367"
	.ascii "6\251f\271\257s[\372\331\332\25\353\277p_\274~\375\332\25K>[\357\266N\343\263\322\340\363\307\200Mv+\327\374n\365\212e\263\274\267\254"
	.ascii "3l\330\352\347\25\360\355"
	.ascii "2\203\377\6?\257-\1\276~\232\337\257X\265d\365\352\225N_\255\360\331d\200\266\345\36>\33\275\15\37\377'Q}\345\341o\0X\177\263r\215\25\\v\313\27\257Z\266\322m\361\367\36\3\6\360\11\0\361\16\356\253\177\347\266v\345\342"
	.ascii "5k\334\226\331\177\266r\365\252O\334\327\254_\273\364{\313%\250\3\374"
	.ascii "7\202d\355\12\237\0\203\237\217\207\267^zX\356\365\307Mv\253==\201C\307~H\215\232ZV\263\306\327\213\260\331mr\333f\360\11\320\257\\#\343\322@\313\207\363\334\3\226|oT\376\1\33\275\250\272v\360\263\300=\200\367\335b\360\301\33|7c\377\200\177\371\211\227\357?\277"
	.ascii "7\367\275\367\346\6\30\276\11\230K\237\340\331k3\351\366/\356\344\1::\3\23)\372\371\317\373p\36\224\337p\377r\325\207P\361!\10\231O\244\271yxm\330\260a\206\5\333\206-[T\352\15\336\276\376\206\231\12\366_\321\32"
	.ascii "7\17\336\337\340\263\361o\224rH\205\233\307\232m^\274\237a\303"
	.ascii "6\213&RA\233f\270\273o\370\306\303\375\217[=\374"
	.ascii "6\272{|\345\353\27\300{\33<<\35\334\335A\311\15\36\336\336\356\356\274\373\262\245K\354\201\274i\354j\227xl\335\270\326#\300\240\361\\\342\345\343\341\367\255\306s\215\7\11a\275\347\352\255\1\337,\15\360\377\330\333\367kVX\346\357G\12\16\236\313\2\374\226\372\372\4\370\371z;{B\345:\203\217\277W\200\327"
	.ascii "6\350"
	.ascii "5\303s\375\347\244\311\313g\253a\265\317\347\276\236\236j\322\365s\336s\205\317\347:O7??_\277\245"
	.ascii "0a\325\236\253\266z{;x\256\15\360\27%9z.&xW\373P\36\215\347\262\255\233"
	.ascii "7\177;\217's\331\376\353\265\6\177\203\337"
	.ascii "6\303F\273\317}}Vzm\326\20\301\360\313/\371b\275\233v\311\267\1\206u^\177"
	.ascii "6\330"
	.ascii "1\340\332u\1\276[\226x\5\370\3\227\17\31KK\270\311\203\275yx\215\233\257'\373\335\26@~u\346\21>\370\376\321-OK\365\312"
	.ascii "5``\375:C\300R\337\315\233\327\5\200y\355"
	.ascii "7z{{m\336\2\32:)\253\27-\340\227._\274\26"
	.ascii "2\310\322u\353\327:,\365"
	.ascii "3@\345\307^\336\206\305N\212\347E\363\26|\177X\236 \301c\213\27\211o\177\260\322\177f\246\270\323\12\220\204az\342\315\206\315s\246\317\16\250\245S\3~\201\361M)L\241\370!tr[\263m\323\237\26}0\317\36\2u\243a\3\304\243\335\26?\230v\376"
	.ascii "0\337|\376V\222\346\345KE@\225\277\257\267A)\6\252>b\35\334\326\374f\303\237g*\343\335\317\0\212\372\33\264[\241\371\243\371\356\1\32"
	.ascii "2;\335"
	.ascii "7\373\363\344\367\7\242\204\371\244\360\177\304\26\267m\213\336\267\20\341\261\341_\267z\371\31\34\226\222I\310"
	.ascii "2\265\243\342y\321\374\357\277\232l\242\22\230#4\340n\232\327 Nh\200\377\36\2\227\272Zo~Z4\357}\355Z\203\307F\362\354 =@\345\333\356_~\362;\253\351\305m\201;MH\356\37\20\353\372nv\337h\330\246^\272\372\237>P\315\261\354#\345\30\271\203\313\24\241\346\\c\233\305\234sd\26\255\364\360c\367/\377\12B'ww\3\311\350\206\215\264\342][\35>\230o\311\250g\232"
	.ascii "1c\376H\331k\272R?\265\332<U\342\34\213\241\255(\376\216\15\206\177_\220\25\363\274c\203a\252 \14\271\203\377\12\"\13C +\14\345\355\345\363\335\14E\30\377\272\362\204\353\273\350"
	.ascii "6\235\317:t\302\367o)\"\255G"
	.text
	.section	.gnu.lto_.symtab.f43af12e,"dr0"
	.ascii "__ZN3stk3com4openEaiccc\0\0\0\0\0\0\0\0\0\0\0\0#\1\0\0___com_dev\0\0\0\0\0\0\0\0\0\0\0\0\34\2\0\0___com_handle\0\0\0\0\0\0\0\0\0\0\0\0"
	.ascii "0\2\0\0__ZN3stk3com5closeEa\0\0\0\0\0\0\0\0\0\0\0\0(\1\0\0__ZN3stk3com4sendEaPvi\0\0\0\0\0\0\0\0\0\0\0\0/\1\0\0__ZN3stk3com4recvEaPvi\0\0\0\0\0\0\0\0\0\0\0\0"
	.ascii "2\1\0\0___cxa_guard_abort\0\0\2\0\0\0\0\0\0\0\0\0"
	.ascii "8\1\0\0_SetCommState@8\0\0\2\0\0\0\0\0\0\0\0\0\261\1\0\0_CreateFileA@28\0\0\2\0\0\0\0\0\0\0\0\0\306\1\0\0__ZN3stk3mem3setEPvhj@12\0\0\2\0\0\0\0\0\0\0\0\0\325\1\0\0__ZN3stk3con6printsEPKcz\0\0\2\0\0\0\0\0\0\0\0\0\337\1\0\0___cxa_guard_release\0\0\2\0\0\0\0\0\0\0\0\0\342\1\0\0__ZN3stk4time7time_msEv@0\0\0\2\0\0\0\0\0\0\0\0\0\356\1\0\0___cxa_guard_acquire\0\0\2\0\0\0\0\0\0\0\0\0\363\1\0\0_CloseHandle@4\0\0\2\0\0\0\0\0\0\0\0\0\372\1\0\0_WriteFile@20\0\0\2\0\0\0\0\0\0\0\0\0\14\2\0\0_ReadFile@20\0\0\2\0\0\0\0\0\0\0\0\0\27\2\0\0"
	.text
	.section	.gnu.lto_.opts,"dr0"
	.ascii "'-fno-trapv' '-dD' '-malign-double' '-momit-leaf-frame-pointer' '-m32' '-mfpmath=sse' '-mpreferred-stack-boundary=8' '-mmmx' '-msse' '-msse2' '-mthreads' '-mtune=generic' '-march=i686' '-g' '-g' '-O3' '-fno-use-linker-plugin' '-fverbose-asm' '-fstrict-aliasing' '-fwrapv' '-funroll-loops' '-flto' '-fexceptions'\0"
	.text
	.section .rdata,"dr"
LC0:
	.ascii "io\\stk_rs232.cpp\0"
LC2:
	.ascii "\0"
	.align 4
LC3:
	.ascii "DEBUG: %s: Enter function: %s@%d line, for %d time\12\0\0"
	.section	.text.unlikely,"x"
LCOLDB5:
	.text
LHOTB5:
	.p2align 4,,15
	.section	.text.unlikely,"x"
Ltext_cold0:
	.text
	.globl	__ZN3stk3com4openEaiccc
	.def	__ZN3stk3com4openEaiccc;	.scl	2;	.type	32;	.endef
__ZN3stk3com4openEaiccc:
LFB702:
	.file 1 "io/stk_rs232.cpp"
	.loc 1 29 0
	.cfi_startproc
	.cfi_personality 0,___gxx_personality_v0
	.cfi_lsda 0,LLSDA702
LVL0:
	pushl	%ebp	 #
	.cfi_def_cfa_offset 8
	.cfi_offset 5, -8
	pushl	%edi	 #
	.cfi_def_cfa_offset 12
	.cfi_offset 7, -12
	pushl	%esi	 #
	.cfi_def_cfa_offset 16
	.cfi_offset 6, -16
	pushl	%ebx	 #
	.cfi_def_cfa_offset 20
	.cfi_offset 3, -20
	subl	$1004, %esp	 #,
	.cfi_def_cfa_offset 1024
LBB2:
	.loc 1 31 0
	cmpb	$0, __ZGVZN3stk3com4openEaicccE8__time_1	 #, MEM[(char *)&_ZGVZN3stk3com4openEaicccE8__time_1]
LBE2:
	.loc 1 29 0
	movl	1024(%esp), %ebx	 # com_num, com_num
	movl	1032(%esp), %esi	 # parity, parity
	movl	1036(%esp), %edi	 # data_bits, data_bits
	movl	1040(%esp), %ebp	 # stop_bits, stop_bits
LBB3:
	.loc 1 31 0
	je	L43	 #,
L3:
LVL1:
	.loc 1 31 0 is_stmt 0 discriminator 2
	movl	__ZZN3stk3com4openEaicccE14__entered_time, %ecx	 # __entered_time, tmp172
	movl	$LC0+3, %eax	 #, __file_name__
	movl	$LC0, %edx	 #, tmp171
	cmpl	$1, %eax	 #, __file_name__
	movl	$31, 12(%esp)	 #,
	movl	$LC2, 8(%esp)	 #,
	cmove	%edx, %eax	 # __file_name__,, tmp171, __file_name__
LVL2:
	movl	$LC3, (%esp)	 #,
	leal	1(%ecx), %edx	 #, D.29967
	movl	%eax, 4(%esp)	 # __file_name__,
	movl	%edx, 16(%esp)	 # D.29967,
	movl	%edx, __ZZN3stk3com4openEaicccE14__entered_time	 # D.29967, __entered_time
LEHB0:
	call	__ZN3stk3con6printsEPKcz	 #
LVL3:
	.loc 1 33 0 is_stmt 1 discriminator 2
	leal	-1(%ebx), %eax	 #, D.29970
	.loc 1 52 0 discriminator 2
	xorl	%edx, %edx	 # D.29965
	.loc 1 33 0 discriminator 2
	cmpb	$8, %al	 #, D.29970
	ja	L34	 #,
	.loc 1 34 0
	cmpl	$110, 1028(%esp)	 #, baud
	je	L8	 #,
	cmpl	$300, 1028(%esp)	 #, baud
	je	L8	 #,
	.loc 1 37 0
	cmpl	$600, 1028(%esp)	 #, baud
	je	L8	 #,
	cmpl	$1200, 1028(%esp)	 #, baud
	je	L8	 #,
	.loc 1 39 0
	cmpl	$2400, 1028(%esp)	 #, baud
	setne	%cl	 #, D.29972
	.loc 1 40 0
	cmpl	$4800, 1028(%esp)	 #, baud
	setne	%al	 #, D.29972
	testb	%al, %cl	 # D.29972, D.29972
	je	L8	 #,
	cmpl	$9600, 1028(%esp)	 #, baud
	je	L8	 #,
	.p2align 4,,10
L34:
LBE3:
	.loc 1 126 0
	addl	$1004, %esp	 #,
	.cfi_remember_state
	.cfi_def_cfa_offset 20
	movl	%edx, %eax	 # D.29965,
	popl	%ebx	 #
	.cfi_restore 3
	.cfi_def_cfa_offset 16
	popl	%esi	 #
	.cfi_restore 6
	.cfi_def_cfa_offset 12
	popl	%edi	 #
	.cfi_restore 7
	.cfi_def_cfa_offset 8
	popl	%ebp	 #
	.cfi_restore 5
	.cfi_def_cfa_offset 4
	ret
	.p2align 4,,10
L8:
	.cfi_restore_state
LBB4:
	.loc 1 42 0
	movl	%esi, %ecx	 # parity, tmp173
	.loc 1 52 0
	xorl	%edx, %edx	 # D.29965
	.loc 1 42 0
	cmpb	$2, %cl	 #, tmp173
	ja	L34	 #,
	.loc 1 47 0
	leal	-7(%edi), %eax	 #, D.29966
	.loc 1 46 0
	cmpb	$1, %al	 #, D.29966
	ja	L34	 #,
	.loc 1 50 0
	leal	-1(%ebp), %ecx	 #, D.29966
	.loc 1 49 0
	cmpb	$1, %cl	 #, D.29966
	ja	L34	 #,
	.loc 1 56 0
	leal	740(%esp), %edx	 #, tmp174
	movl	$28, 8(%esp)	 #,
	movl	$0, 4(%esp)	 #,
	movl	%edx, (%esp)	 # tmp174,
	call	__ZN3stk3mem3setEPvhj@12	 #
	.cfi_def_cfa_offset 1012
LVL4:
	subl	$12, %esp	 #,
	.cfi_def_cfa_offset 1024
	.loc 1 59 0
	movl	%ebp, %ecx	 # stop_bits, tmp176
	.loc 1 60 0
	movl	%edi, %edx	 # data_bits, tmp177
	.loc 1 58 0
	movl	1028(%esp), %eax	 # baud, tmp175
	.loc 1 57 0
	movl	$28, 740(%esp)	 #, dcb.DCBlength
	.loc 1 59 0
	movb	%cl, 760(%esp)	 # tmp176, dcb.StopBits
	.loc 1 60 0
	movb	%dl, 758(%esp)	 # tmp177, dcb.ByteSize
	.loc 1 58 0
	movl	%eax, 744(%esp)	 # tmp175, dcb.BaudRate
	.loc 1 62 0
	movl	%esi, %eax	 # parity, tmp178
	cmpb	$1, %al	 #, tmp178
	je	L11	 #,
	cmpb	$2, %al	 #, tmp179
	jne	L44	 #,
	.loc 1 72 0
	orb	$2, 748(%esp)	 #, dcb.fParity
	.loc 1 73 0
	movb	$1, 759(%esp)	 #, dcb.Parity
L13:
	.loc 1 76 0
	movb	%bl, ___com_dev+3	 # com_num, __com_dev
	.loc 1 77 0
	movsbl	%bl, %ebx	 # com_num, D.29965
	movl	$0, 24(%esp)	 #,
	movl	%ebx, 496(%esp)	 # D.29965, %sfp
	movl	$0, 20(%esp)	 #,
	movl	$3, 16(%esp)	 #,
	movl	$0, 12(%esp)	 #,
	movl	$0, 8(%esp)	 #,
	movl	$-1073741824, 4(%esp)	 #,
	movl	$___com_dev, (%esp)	 #,
	call	*__imp__CreateFileA@28	 #
	.cfi_def_cfa_offset 996
LVL5:
	subl	$28, %esp	 #,
	.cfi_def_cfa_offset 1024
	movl	496(%esp), %esi	 # %sfp, D.29965
	.loc 1 78 0
	leal	740(%esp), %edi	 #, tmp180
	movl	%eax, (%esp)	 # D.29975,
	movl	%edi, 4(%esp)	 # tmp180,
	.loc 1 77 0
	movl	%eax, ___com_handle(,%esi,4)	 # D.29975, __com_handle
	.loc 1 78 0
	call	*__imp__SetCommState@8	 #
	.cfi_def_cfa_offset 1016
LEHE0:
LVL6:
	subl	$8, %esp	 #,
	.cfi_def_cfa_offset 1024
	movl	496(%esp), %edx	 # %sfp, D.29965
	jmp	L34	 #
LVL7:
	.p2align 4,,10
L43:
	.loc 1 31 0 discriminator 1
	movl	$__ZGVZN3stk3com4openEaicccE8__time_1, (%esp)	 #,
	call	___cxa_guard_acquire	 #
LVL8:
	testl	%eax, %eax	 # D.29967
	je	L3	 #,
LEHB1:
	.loc 1 31 0 is_stmt 0 discriminator 3
	call	__ZN3stk4time7time_msEv@0	 #
LEHE1:
LVL9:
	movl	%eax, 496(%esp)	 #, %sfp
	movl	%edx, 500(%esp)	 #, %sfp
	movl	500(%esp), %eax	 # %sfp,
	fildq	496(%esp)	 # %sfp
	testl	%eax, %eax	 #
	js	L45	 #,
L5:
	.loc 1 31 0 discriminator 5
	movl	$__ZGVZN3stk3com4openEaicccE8__time_1, (%esp)	 #,
	fstpl	__ZZN3stk3com4openEaicccE8__time_1	 # __time_1
	call	___cxa_guard_release	 #
LVL10:
	jmp	L3	 #
	.p2align 4,,10
L45:
	fadds	LC1	 #
	jmp	L5	 #
LVL11:
L44:
	.loc 1 64 0 is_stmt 1
	andb	$-3, 748(%esp)	 #, dcb.fParity
	.loc 1 65 0
	movb	$0, 759(%esp)	 #, dcb.Parity
	.loc 1 66 0
	jmp	L13	 #
L11:
	.loc 1 68 0
	orb	$2, 748(%esp)	 #, dcb.fParity
	.loc 1 69 0
	movb	$2, 759(%esp)	 #, dcb.Parity
	.loc 1 70 0
	jmp	L13	 #
LVL12:
L21:
	movl	%eax, %ebp	 #, tmp167
	.loc 1 31 0
	movl	$__ZGVZN3stk3com4openEaicccE8__time_1, (%esp)	 #,
	call	___cxa_guard_abort	 #
LVL13:
	movl	%ebp, (%esp)	 # tmp167,
LEHB2:
	call	__Unwind_Resume	 #
LEHE2:
LVL14:
LBE4:
	.cfi_endproc
LFE702:
	.def	___gxx_personality_v0;	.scl	2;	.type	32;	.endef
	.section	.gcc_except_table,"w"
LLSDA702:
	.byte	0xff
	.byte	0xff
	.byte	0x1
	.uleb128 LLSDACSE702-LLSDACSB702
LLSDACSB702:
	.uleb128 LEHB0-LFB702
	.uleb128 LEHE0-LEHB0
	.uleb128 0
	.uleb128 0
	.uleb128 LEHB1-LFB702
	.uleb128 LEHE1-LEHB1
	.uleb128 L21-LFB702
	.uleb128 0
	.uleb128 LEHB2-LFB702
	.uleb128 LEHE2-LEHB2
	.uleb128 0
	.uleb128 0
LLSDACSE702:
	.text
	.section	.text.unlikely,"x"
LCOLDE5:
	.text
LHOTE5:
	.section	.text.unlikely,"x"
LCOLDB6:
	.text
LHOTB6:
	.p2align 4,,15
	.globl	__ZN3stk3com5closeEa
	.def	__ZN3stk3com5closeEa;	.scl	2;	.type	32;	.endef
__ZN3stk3com5closeEa:
LFB703:
	.loc 1 130 0
	.cfi_startproc
	.cfi_personality 0,___gxx_personality_v0
	.cfi_lsda 0,LLSDA703
LVL15:
	pushl	%ebx	 #
	.cfi_def_cfa_offset 8
	.cfi_offset 3, -8
	subl	$760, %esp	 #,
	.cfi_def_cfa_offset 768
LBB5:
	.loc 1 132 0
	cmpb	$0, __ZGVZN3stk3com5closeEaE8__time_1	 #, MEM[(char *)&_ZGVZN3stk3com5closeEaE8__time_1]
LBE5:
	.loc 1 130 0
	movl	768(%esp), %ebx	 # com_num, com_num
LBB6:
	.loc 1 132 0
	je	L60	 #,
L48:
LVL16:
	.loc 1 132 0 is_stmt 0 discriminator 2
	movl	__ZZN3stk3com5closeEaE14__entered_time, %ecx	 # __entered_time, tmp112
	movl	$LC0+3, %eax	 #, __file_name__
	movl	$LC0, %edx	 #, tmp111
	cmpl	$1, %eax	 #, __file_name__
	movl	$132, 12(%esp)	 #,
	movl	$LC2, 8(%esp)	 #,
	cmove	%edx, %eax	 # __file_name__,, tmp111, __file_name__
LVL17:
	movl	$LC3, (%esp)	 #,
	.loc 1 136 0 is_stmt 1 discriminator 2
	movsbl	%bl, %ebx	 # com_num, D.29990
	.loc 1 132 0 discriminator 2
	leal	1(%ecx), %edx	 #, D.29990
	movl	%eax, 4(%esp)	 # __file_name__,
	movl	%edx, 16(%esp)	 # D.29990,
	movl	%edx, __ZZN3stk3com5closeEaE14__entered_time	 # D.29990, __entered_time
LEHB3:
	call	__ZN3stk3con6printsEPKcz	 #
LVL18:
	.loc 1 136 0 discriminator 2
	movl	___com_handle(,%ebx,4), %eax	 # __com_handle, tmp105
	movl	%eax, (%esp)	 # tmp105,
	call	*__imp__CloseHandle@4	 #
	.cfi_def_cfa_offset 764
LEHE3:
LVL19:
	subl	$4, %esp	 #,
	.cfi_def_cfa_offset 768
LVL20:
LBE6:
	.loc 1 142 0 discriminator 2
	addl	$760, %esp	 #,
	.cfi_remember_state
	.cfi_def_cfa_offset 8
	popl	%ebx	 #
	.cfi_restore 3
	.cfi_def_cfa_offset 4
	ret
LVL21:
	.p2align 4,,10
L60:
	.cfi_restore_state
LBB7:
	.loc 1 132 0 discriminator 1
	movl	$__ZGVZN3stk3com5closeEaE8__time_1, (%esp)	 #,
	call	___cxa_guard_acquire	 #
LVL22:
	testl	%eax, %eax	 # D.29990
	je	L48	 #,
LEHB4:
	.loc 1 132 0 is_stmt 0 discriminator 3
	call	__ZN3stk4time7time_msEv@0	 #
LEHE4:
LVL23:
	movl	%eax, 496(%esp)	 #, %sfp
	movl	%edx, 500(%esp)	 #, %sfp
	movl	500(%esp), %eax	 # %sfp,
	fildq	496(%esp)	 # %sfp
	testl	%eax, %eax	 #
	js	L61	 #,
L50:
	.loc 1 132 0 discriminator 5
	movl	$__ZGVZN3stk3com5closeEaE8__time_1, (%esp)	 #,
	fstpl	__ZZN3stk3com5closeEaE8__time_1	 # __time_1
	call	___cxa_guard_release	 #
LVL24:
	jmp	L48	 #
	.p2align 4,,10
L61:
	fadds	LC1	 #
	jmp	L50	 #
L54:
	movl	%eax, %ebx	 #, tmp108
	.loc 1 132 0
	movl	$__ZGVZN3stk3com5closeEaE8__time_1, (%esp)	 #,
	call	___cxa_guard_abort	 #
LVL25:
	movl	%ebx, (%esp)	 # tmp108,
LEHB5:
	call	__Unwind_Resume	 #
LEHE5:
LVL26:
LBE7:
	.cfi_endproc
LFE703:
	.section	.gcc_except_table,"w"
LLSDA703:
	.byte	0xff
	.byte	0xff
	.byte	0x1
	.uleb128 LLSDACSE703-LLSDACSB703
LLSDACSB703:
	.uleb128 LEHB3-LFB703
	.uleb128 LEHE3-LEHB3
	.uleb128 0
	.uleb128 0
	.uleb128 LEHB4-LFB703
	.uleb128 LEHE4-LEHB4
	.uleb128 L54-LFB703
	.uleb128 0
	.uleb128 LEHB5-LFB703
	.uleb128 LEHE5-LEHB5
	.uleb128 0
	.uleb128 0
LLSDACSE703:
	.text
	.section	.text.unlikely,"x"
LCOLDE6:
	.text
LHOTE6:
	.section	.text.unlikely,"x"
LCOLDB7:
	.text
LHOTB7:
	.p2align 4,,15
	.globl	__ZN3stk3com4sendEaPvi
	.def	__ZN3stk3com4sendEaPvi;	.scl	2;	.type	32;	.endef
__ZN3stk3com4sendEaPvi:
LFB704:
	.loc 1 146 0 is_stmt 1
	.cfi_startproc
	.cfi_personality 0,___gxx_personality_v0
	.cfi_lsda 0,LLSDA704
LVL27:
	pushl	%ebx	 #
	.cfi_def_cfa_offset 8
	.cfi_offset 3, -8
	subl	$1016, %esp	 #,
	.cfi_def_cfa_offset 1024
LBB8:
	.loc 1 148 0
	cmpb	$0, __ZGVZN3stk3com4sendEaPviE8__time_1	 #, MEM[(char *)&_ZGVZN3stk3com4sendEaPviE8__time_1]
LBE8:
	.loc 1 146 0
	movl	1024(%esp), %ebx	 # com_num, com_num
LBB9:
	.loc 1 148 0
	je	L76	 #,
L64:
LVL28:
	.loc 1 148 0 is_stmt 0 discriminator 2
	movl	__ZZN3stk3com4sendEaPviE14__entered_time, %ecx	 # __entered_time, tmp117
	movl	$LC0+3, %eax	 #, __file_name__
	movl	$LC0, %edx	 #, tmp116
	cmpl	$1, %eax	 #, __file_name__
	movl	$148, 12(%esp)	 #,
	movl	$LC2, 8(%esp)	 #,
	cmove	%edx, %eax	 # __file_name__,, tmp116, __file_name__
LVL29:
	movl	$LC3, (%esp)	 #,
	.loc 1 152 0 is_stmt 1 discriminator 2
	movsbl	%bl, %ebx	 # com_num, D.30000
	.loc 1 148 0 discriminator 2
	leal	1(%ecx), %edx	 #, D.30000
	movl	%eax, 4(%esp)	 # __file_name__,
	movl	%edx, 16(%esp)	 # D.30000,
	movl	%edx, __ZZN3stk3com4sendEaPviE14__entered_time	 # D.30000, __entered_time
LEHB6:
	call	__ZN3stk3con6printsEPKcz	 #
LVL30:
	.loc 1 152 0 discriminator 2
	leal	764(%esp), %eax	 #, tmp107
	movl	1032(%esp), %ecx	 # len, len
	movl	1028(%esp), %edx	 # data, data
	movl	$0, 16(%esp)	 #,
	movl	%eax, 12(%esp)	 # tmp107,
	movl	___com_handle(,%ebx,4), %eax	 # __com_handle, tmp110
	movl	%ecx, 8(%esp)	 # len,
	movl	%edx, 4(%esp)	 # data,
	movl	%eax, (%esp)	 # tmp110,
	call	*__imp__WriteFile@20	 #
	.cfi_def_cfa_offset 1004
LEHE6:
LVL31:
	subl	$20, %esp	 #,
	.cfi_def_cfa_offset 1024
	.loc 1 156 0 discriminator 2
	movl	764(%esp), %eax	 # i, D.30005
LBE9:
	.loc 1 157 0 discriminator 2
	addl	$1016, %esp	 #,
	.cfi_remember_state
	.cfi_def_cfa_offset 8
	popl	%ebx	 #
	.cfi_restore 3
	.cfi_def_cfa_offset 4
	ret
LVL32:
	.p2align 4,,10
L76:
	.cfi_restore_state
LBB10:
	.loc 1 148 0 discriminator 1
	movl	$__ZGVZN3stk3com4sendEaPviE8__time_1, (%esp)	 #,
	call	___cxa_guard_acquire	 #
LVL33:
	testl	%eax, %eax	 # D.30000
	je	L64	 #,
LEHB7:
	.loc 1 148 0 is_stmt 0 discriminator 3
	call	__ZN3stk4time7time_msEv@0	 #
LEHE7:
LVL34:
	movl	%eax, 496(%esp)	 #, %sfp
	movl	%edx, 500(%esp)	 #, %sfp
	movl	500(%esp), %eax	 # %sfp,
	fildq	496(%esp)	 # %sfp
	testl	%eax, %eax	 #
	js	L77	 #,
L66:
	.loc 1 148 0 discriminator 5
	movl	$__ZGVZN3stk3com4sendEaPviE8__time_1, (%esp)	 #,
	fstpl	__ZZN3stk3com4sendEaPviE8__time_1	 # __time_1
	call	___cxa_guard_release	 #
LVL35:
	jmp	L64	 #
	.p2align 4,,10
L77:
	fadds	LC1	 #
	jmp	L66	 #
L70:
	movl	%eax, %ebx	 #, tmp113
	.loc 1 148 0
	movl	$__ZGVZN3stk3com4sendEaPviE8__time_1, (%esp)	 #,
	call	___cxa_guard_abort	 #
LVL36:
	movl	%ebx, (%esp)	 # tmp113,
LEHB8:
	call	__Unwind_Resume	 #
LEHE8:
LVL37:
LBE10:
	.cfi_endproc
LFE704:
	.section	.gcc_except_table,"w"
LLSDA704:
	.byte	0xff
	.byte	0xff
	.byte	0x1
	.uleb128 LLSDACSE704-LLSDACSB704
LLSDACSB704:
	.uleb128 LEHB6-LFB704
	.uleb128 LEHE6-LEHB6
	.uleb128 0
	.uleb128 0
	.uleb128 LEHB7-LFB704
	.uleb128 LEHE7-LEHB7
	.uleb128 L70-LFB704
	.uleb128 0
	.uleb128 LEHB8-LFB704
	.uleb128 LEHE8-LEHB8
	.uleb128 0
	.uleb128 0
LLSDACSE704:
	.text
	.section	.text.unlikely,"x"
LCOLDE7:
	.text
LHOTE7:
	.section	.text.unlikely,"x"
LCOLDB8:
	.text
LHOTB8:
	.p2align 4,,15
	.globl	__ZN3stk3com4recvEaPvi
	.def	__ZN3stk3com4recvEaPvi;	.scl	2;	.type	32;	.endef
__ZN3stk3com4recvEaPvi:
LFB705:
	.loc 1 161 0 is_stmt 1
	.cfi_startproc
	.cfi_personality 0,___gxx_personality_v0
	.cfi_lsda 0,LLSDA705
LVL38:
	pushl	%ebx	 #
	.cfi_def_cfa_offset 8
	.cfi_offset 3, -8
	subl	$1016, %esp	 #,
	.cfi_def_cfa_offset 1024
LBB11:
	.loc 1 163 0
	cmpb	$0, __ZGVZN3stk3com4recvEaPviE8__time_1	 #, MEM[(char *)&_ZGVZN3stk3com4recvEaPviE8__time_1]
LBE11:
	.loc 1 161 0
	movl	1024(%esp), %ebx	 # com_num, com_num
LBB12:
	.loc 1 163 0
	je	L92	 #,
L80:
LVL39:
	.loc 1 163 0 is_stmt 0 discriminator 2
	movl	__ZZN3stk3com4recvEaPviE14__entered_time, %ecx	 # __entered_time, tmp117
	movl	$LC0+3, %eax	 #, __file_name__
	movl	$LC0, %edx	 #, tmp116
	cmpl	$1, %eax	 #, __file_name__
	movl	$163, 12(%esp)	 #,
	movl	$LC2, 8(%esp)	 #,
	cmove	%edx, %eax	 # __file_name__,, tmp116, __file_name__
LVL40:
	movl	$LC3, (%esp)	 #,
	.loc 1 167 0 is_stmt 1 discriminator 2
	movsbl	%bl, %ebx	 # com_num, D.30012
	.loc 1 163 0 discriminator 2
	leal	1(%ecx), %edx	 #, D.30012
	movl	%eax, 4(%esp)	 # __file_name__,
	movl	%edx, 16(%esp)	 # D.30012,
	movl	%edx, __ZZN3stk3com4recvEaPviE14__entered_time	 # D.30012, __entered_time
LEHB9:
	call	__ZN3stk3con6printsEPKcz	 #
LVL41:
	.loc 1 167 0 discriminator 2
	leal	764(%esp), %eax	 #, tmp107
	movl	1032(%esp), %ecx	 # len, len
	movl	1028(%esp), %edx	 # data, data
	movl	$0, 16(%esp)	 #,
	movl	%eax, 12(%esp)	 # tmp107,
	movl	___com_handle(,%ebx,4), %eax	 # __com_handle, tmp110
	movl	%ecx, 8(%esp)	 # len,
	movl	%edx, 4(%esp)	 # data,
	movl	%eax, (%esp)	 # tmp110,
	call	*__imp__ReadFile@20	 #
	.cfi_def_cfa_offset 1004
LEHE9:
LVL42:
	subl	$20, %esp	 #,
	.cfi_def_cfa_offset 1024
	.loc 1 171 0 discriminator 2
	movl	764(%esp), %eax	 # i, D.30017
LBE12:
	.loc 1 172 0 discriminator 2
	addl	$1016, %esp	 #,
	.cfi_remember_state
	.cfi_def_cfa_offset 8
	popl	%ebx	 #
	.cfi_restore 3
	.cfi_def_cfa_offset 4
	ret
LVL43:
	.p2align 4,,10
L92:
	.cfi_restore_state
LBB13:
	.loc 1 163 0 discriminator 1
	movl	$__ZGVZN3stk3com4recvEaPviE8__time_1, (%esp)	 #,
	call	___cxa_guard_acquire	 #
LVL44:
	testl	%eax, %eax	 # D.30012
	je	L80	 #,
LEHB10:
	.loc 1 163 0 is_stmt 0 discriminator 3
	call	__ZN3stk4time7time_msEv@0	 #
LEHE10:
LVL45:
	movl	%eax, 496(%esp)	 #, %sfp
	movl	%edx, 500(%esp)	 #, %sfp
	movl	500(%esp), %eax	 # %sfp,
	fildq	496(%esp)	 # %sfp
	testl	%eax, %eax	 #
	js	L93	 #,
L82:
	.loc 1 163 0 discriminator 5
	movl	$__ZGVZN3stk3com4recvEaPviE8__time_1, (%esp)	 #,
	fstpl	__ZZN3stk3com4recvEaPviE8__time_1	 # __time_1
	call	___cxa_guard_release	 #
LVL46:
	jmp	L80	 #
	.p2align 4,,10
L93:
	fadds	LC1	 #
	jmp	L82	 #
L86:
	movl	%eax, %ebx	 #, tmp113
	.loc 1 163 0
	movl	$__ZGVZN3stk3com4recvEaPviE8__time_1, (%esp)	 #,
	call	___cxa_guard_abort	 #
LVL47:
	movl	%ebx, (%esp)	 # tmp113,
LEHB11:
	call	__Unwind_Resume	 #
LEHE11:
LVL48:
LBE13:
	.cfi_endproc
LFE705:
	.section	.gcc_except_table,"w"
LLSDA705:
	.byte	0xff
	.byte	0xff
	.byte	0x1
	.uleb128 LLSDACSE705-LLSDACSB705
LLSDACSB705:
	.uleb128 LEHB9-LFB705
	.uleb128 LEHE9-LEHB9
	.uleb128 0
	.uleb128 0
	.uleb128 LEHB10-LFB705
	.uleb128 LEHE10-LEHB10
	.uleb128 L86-LFB705
	.uleb128 0
	.uleb128 LEHB11-LFB705
	.uleb128 LEHE11-LEHB11
	.uleb128 0
	.uleb128 0
LLSDACSE705:
	.text
	.section	.text.unlikely,"x"
LCOLDE8:
	.text
LHOTE8:
	.data
	.align 4
__ZZN3stk3com4recvEaPviE14__entered_time:
	.long	1
.lcomm __ZZN3stk3com4recvEaPviE8__time_1,8,8
	.align 4
__ZZN3stk3com4sendEaPviE14__entered_time:
	.long	1
.lcomm __ZZN3stk3com4sendEaPviE8__time_1,8,8
	.align 4
__ZZN3stk3com5closeEaE14__entered_time:
	.long	1
.lcomm __ZZN3stk3com5closeEaE8__time_1,8,8
	.align 4
__ZZN3stk3com4openEaicccE14__entered_time:
	.long	1
.lcomm __ZZN3stk3com4openEaicccE8__time_1,8,8
.lcomm __ZGVZN3stk3com4recvEaPviE8__time_1,8,8
.lcomm __ZGVZN3stk3com4sendEaPviE8__time_1,8,8
.lcomm __ZGVZN3stk3com5closeEaE8__time_1,8,8
.lcomm __ZGVZN3stk3com4openEaicccE8__time_1,8,8
	.globl	___com_handle
	.bss
	.align 64
___com_handle:
	.space 1020
	.globl	___com_dev
	.data
___com_dev:
	.ascii "COM1\0"
	.section .rdata,"dr"
	.align 4
LC1:
	.long	1602224128
	.text
Letext0:
	.section	.text.unlikely,"x"
Letext_cold0:
	.file 2 "C:/Qt/Qt5.5.0/Tools/mingw492_32/i686-w64-mingw32/include/_mingw.h"
	.file 3 "C:/Qt/Qt5.5.0/Tools/mingw492_32/i686-w64-mingw32/include/minwindef.h"
	.file 4 "C:/Qt/Qt5.5.0/Tools/mingw492_32/i686-w64-mingw32/include/winbase.h"
	.file 5 "C:/Qt/Qt5.5.0/Tools/mingw492_32/i686-w64-mingw32/include/stdint.h"
	.file 6 "C:/Qt/Qt5.5.0/Tools/mingw492_32/i686-w64-mingw32/include/stdio.h"
	.file 7 "<built-in>"
	.file 8 "C:/Qt/Qt5.5.0/Tools/mingw492_32/i686-w64-mingw32/include/c++/bits/exception_ptr.h"
	.file 9 "C:/Qt/Qt5.5.0/Tools/mingw492_32/i686-w64-mingw32/include/c++/i686-w64-mingw32/bits/c++config.h"
	.file 10 "io/./../text/./.././time/stk_time.h"
	.file 11 "io/stk_rs232.h"
	.file 12 "io/./../io/stk_console.h"
	.file 13 "io/./../text/./../mem/stk_mem.h"