	.file	"stk_base64.cpp"
 # GNU C++ (i686-posix-dwarf-rev1, Built by MinGW-W64 project) version 4.9.2 (i686-w64-mingw32)
 #	compiled by GNU C version 4.9.2, GMP version 6.0.0, MPFR version 3.1.2-p9, MPC version 1.0.2
 # warning: MPFR header version 3.1.2-p9 differs from library version 3.1.2-p10.
 # GGC heuristics: --param ggc-min-expand=100 --param ggc-min-heapsize=131072
 # options passed:  -fpreprocessed stk_base64.ii -malign-double
 # -momit-leaf-frame-pointer -m32 -mfpmath=sse -mpreferred-stack-boundary=8
 # -mmmx -msse -msse2 -mthreads -mtune=generic -march=i686
 # -auxbase-strip debug\stk_base64.o -g -g -O3 -Wno-write-strings
 # -Wno-multichar -Wno-unused-variable -Wno-unused-parameter
 # -Wno-unused-value -Wno-unused-label -Wno-unused-but-set-variable
 # -Wattributes -Winline -Wshadow -Wunknown-pragmas -Wall -Wextra
 # -std=gnu++11 -std=c++11 -fno-keep-inline-dllexport
 # -fno-use-linker-plugin -fverbose-asm -fstrict-aliasing -fwrapv
 # -funroll-loops -flto -fexceptions -frtti
 # options enabled:  -faggressive-loop-optimizations
 # -fasynchronous-unwind-tables -fauto-inc-dec -fbranch-count-reg
 # -fcaller-saves -fcombine-stack-adjustments -fcommon -fcompare-elim
 # -fcprop-registers -fcrossjumping -fcse-follow-jumps -fdefer-pop
 # -fdelete-null-pointer-checks -fdevirtualize -fdevirtualize-speculatively
 # -fdwarf2-cfi-asm -fearly-inlining -feliminate-unused-debug-types
 # -fexceptions -fexpensive-optimizations -fforward-propagate
 # -ffunction-cse -fgcse -fgcse-after-reload -fgcse-lm -fgnu-runtime
 # -fgnu-unique -fguess-branch-probability -fhoist-adjacent-loads -fident
 # -fif-conversion -fif-conversion2 -findirect-inlining -finline
 # -finline-atomics -finline-functions -finline-functions-called-once
 # -finline-small-functions -fipa-cp -fipa-cp-clone -fipa-profile
 # -fipa-pure-const -fipa-reference -fipa-sra -fira-hoist-pressure
 # -fira-share-save-slots -fira-share-spill-slots
 # -fisolate-erroneous-paths-dereference -fivopts -fkeep-static-consts
 # -fleading-underscore -fmath-errno -fmerge-constants
 # -fmerge-debug-strings -fmove-loop-invariants -fomit-frame-pointer
 # -foptimize-sibling-calls -foptimize-strlen -fpartial-inlining -fpeephole
 # -fpeephole2 -fpredictive-commoning -fprefetch-loop-arrays -free
 # -freg-struct-return -frename-registers -freorder-blocks
 # -freorder-blocks-and-partition -freorder-functions
 # -frerun-cse-after-loop -fsched-critical-path-heuristic
 # -fsched-dep-count-heuristic -fsched-group-heuristic -fsched-interblock
 # -fsched-last-insn-heuristic -fsched-rank-heuristic -fsched-spec
 # -fsched-spec-insn-heuristic -fsched-stalled-insns-dep -fschedule-insns2
 # -fset-stack-executable -fshow-column -fshrink-wrap -fsigned-zeros
 # -fsplit-ivs-in-unroller -fsplit-wide-types -fstrict-aliasing
 # -fstrict-overflow -fstrict-volatile-bitfields -fsync-libcalls
 # -fthread-jumps -ftoplevel-reorder -ftrapping-math -ftree-bit-ccp
 # -ftree-builtin-call-dce -ftree-ccp -ftree-ch -ftree-coalesce-vars
 # -ftree-copy-prop -ftree-copyrename -ftree-cselim -ftree-dce
 # -ftree-dominator-opts -ftree-dse -ftree-forwprop -ftree-fre
 # -ftree-loop-distribute-patterns -ftree-loop-if-convert -ftree-loop-im
 # -ftree-loop-ivcanon -ftree-loop-optimize -ftree-loop-vectorize
 # -ftree-parallelize-loops= -ftree-partial-pre -ftree-phiprop -ftree-pre
 # -ftree-pta -ftree-reassoc -ftree-scev-cprop -ftree-sink
 # -ftree-slp-vectorize -ftree-slsr -ftree-sra -ftree-switch-conversion
 # -ftree-tail-merge -ftree-ter -ftree-vrp -funit-at-a-time -funroll-loops
 # -funswitch-loops -funwind-tables -fvar-tracking
 # -fvar-tracking-assignments -fverbose-asm -fweb -fwrapv
 # -fzero-initialized-in-bss -m32 -m80387 -m96bit-long-double
 # -maccumulate-outgoing-args -malign-double -malign-stringops
 # -mavx256-split-unaligned-load -mavx256-split-unaligned-store
 # -mfancy-math-387 -mfp-ret-in-387 -mieee-fp -mlong-double-80 -mmmx
 # -mms-bitfields -mno-red-zone -mno-sse4 -mpush-args -msahf -msse -msse2
 # -mstack-arg-probe -mvzeroupper

	.text
Ltext0:
	.section	.gnu.lto_.profile.f438b987,"dr0"
	.ascii "x\234cf```c\200\0F\206"
	.ascii "9\314\263\230\0\4Q\1F"
	.text
	.section	.gnu.lto_.jmpfuncs.f438b987,"dr0"
	.ascii "x\234u\220\261N\303@\14\206\375\333i\23\4\25\210"
	.ascii "2e\345Ex\24\336\"St\351\334\1\26\"\252\252[\5)\24X\221\372\12\355\306\200\350\326\251\3\14\214\21B\252\235k\244\242\6\353\22\237\343\377?\177\27\241\346\230\301\347\16"
	.ascii "1 \316A\303\201\277\31\263\371\344\205\327\\2eL\270CLR\365\210\332\226C\257g3\213\275\314\263\\-\6\225\7\346\271WO\264#;\360\373\303\300\206\34;\15\226\204\254u\264UiigulR\250"
	.ascii "5$\321"
	.ascii "6\203J\326CM\31\324{\1\351\300\374\352\355U\322\237\354"
	.ascii "6\213J\226_S\350\327\361M>m\31F\20Y\371\371\321/x\204a\357\332T-\24H1Q6\353\255\277\336\317j\177\33\17\30\351\375\360\210\364\2\347\361\245>\25\200b\331o:\361\224\247\373\374\335-\260\253\360B]\315x\240&\236\351\277<O\236\347\371\17\17j\36\370\274\1\272\260ih"
	.text
	.section	.gnu.lto_.inline.f438b987,"dr0"
	.ascii "x\234mQ=K\3A\20}3\273\336]\310]r\211\12\22\304D\4\323\370\321\330\330\5\322Y\4KK\33E\13\377\203\330\30\261I!\26Z$ \210\205\205\205\235MHk#\"\210`\25\210D+\5A\355\234\335\215\222\240W\314\314\316\355\274y\357\255\302\377_\235]\216\200\300'\205M\232\312\251Ul\270DP\253\36u}\370\325\"C\212\230"
	.ascii "1T-\306\240\266\16\330F3L\210\236"
	.ascii "4\201\303\317\275"
	.ascii "2\202\263K\317\202\252\320\374Q\360RD\266\320\322\364\32y\13\244]4\367"
	.ascii "8)\367j\25\17\211\7\3\222\254\355\224\341"
	.ascii "7\317\35\210\217T\236X\0\34\226\356'\23\270\370\263\213k\25AI\313\301\24\10\220\310\20\333)3>\304"
	.ascii "7\351?\333\245\27\16\214'\260"
	.ascii "8#.\254\275"
	.ascii "1\35\335w\336U\227\277\330\254"
	.ascii "9\245\234*a\275\227\5\263\344-\267\237\25r/\7"
	.ascii "4h\314\273"
	.ascii "2\340\22\5"
	.ascii "6F\22\223\37D\244\204\0\317\324w\307\20w\256u\317\35\6\337-!D\30\375\370^r\276\273\5Z7\362\10^\347\6\340\35Wm\310\"\32\31\237\377\265\6j\254yEN`\277*1\326\212\23\347\305\31\15#\262V\211\321\302\2\351\177^\333\204m\12V\252-\215\211\323\303?\342\12\302^=&\13B\301\332\310\275G\314\242\320\26*<\273\177\222E\324\271\345\236Hi\35g0<2\232'M\33"
	.ascii "4\235\3m\332h\34"
	.ascii "1\264S\27[\216\265\310\265\372\372yZ\255\"\1\337\347\347a\247"
	.text
	.section	.gnu.lto_.pureconst.f438b987,"dr0"
	.ascii "x\234cf``\220g\200\0~\6)F)&\11f)V\11"
	.ascii "6)vI\16IN)n)\36)^)\1)!)a)\0\"\300\2"
	.ascii "4"
	.text
	.section	.gnu.lto__ZN3stk6cipher16__base64_decoderIPcS2_E6FinishES2_.f438b987,"dr0"
	.ascii "x\234\225\220\315K[Q\20\305\347\314\275y\6u\21JA\10\242\205\22\244\213\324E\245\177C\327\256\5Q\21\".*M\\{\23#\224\256\242\270\20Z\241\240&~k\255\10\332.\322\235\233*\202\"\272P*\212-\244m\242B\310\242\330\231\247\320\322n\332\13\217\373f\356\234\337\234\31C\177\237G\362=`\242F\271\21 pf\213(\31d\266\357\33\310U\233\335fr\265\6\366&m\1\375!\320\0\33\213\1|\341\22c}\361\352c\315g\256"
	.ascii "0\335#\11"
	.ascii "7F6\307<\15a5\314N\26\206\252\232\246\234K\25/\16\372"
	.ascii "2\243\257\345\205\351\222\11Y\204\221CXy\323h\222\322\275\225\302F\255\251\203\312rk\357\262\325\221\11\227I\345_\15\246\355\223\12\33\314\300\374\256\223\24a\26\21\251\276\374\360\274dL\275\257\374t\222\333\264\242t\251\374\330\240\12\31s\177\12%\230GD\253K\351\37\373"
	.ascii "5^\332"
	.ascii "9\27RS\342e\1\36\344^\272\223w\327\327\347\307\221\240\201v\11\210\314z\360ut*\225\272\211"
	.ascii "3!\311m\16\221*\26\13\255\252\25\346\361\351\366NP7\20 m\361\"9\371\275j\34/\223\241\12{e\231cQ\207\226\207\331\231\241C\23\235\223\336Aac\11\343\270P\13\204eDq?L\202]\33\376\312\212-s\340?Po|\224\216\201\25Di\17\351\3sKQ\256\236"
	.ascii "3\331\336n\263\357|\371\333\210\271\265\376\257\15\336\376j\260z\343U\211\326_\306\21\222!*\263G\272'hJ\206\272\333\325\323\27\353~\326\26O\364\266wv\304\273\37\267<\214\221M\304z\342\346i\177\342'V\13\305\251"
	.text
	.section	.gnu.lto__ZN3stk6cipher8__base64C2Ev.f438b987,"dr0"
	.ascii "x\234mS\333K\24Q\30?\337"
	.ascii "9gg\307\235"
	.ascii "5\245\207\240\15"
	.ascii "2\20\261 {\212\350\241\207\336{\351\17\10\242DPz\221\364U:\273\256\24=\310\246=\210ei\27\315V\335\326k^\33\337\204\262\220\264\213\205\31h\27(\314\24\246Aj\372\276"
	.ascii "3\3\271\325\302\354\234\357\234\363\375n\347\214`\377\376N\340"
	.ascii "3\"\30+\302"
	.ascii "7\30\14x\352)cq\223\203\360\7\202\207V\30S\21\331"
	.ascii "3\213\257\250\364\347\247\315\20\0\15\30\260\13\\\310\20\340?\3\17\364\203\277\317|\235C\312N\267X\245w\225R\337n\245\325I\33\\\316\330\6\367\211\241\23Jq\317B\377\227\261\250\330\15\14\307\243}\233\263\326'\356r\330G\345X\323L\213A%\227Tv\15\217wFJn\253Tb\371q\353\364q[\272\\@\27\10\4\204{\20\203n\210"
	.ascii "1\227T\334\207\22\332\277\236\374\371\322"
	.ascii "2\222\310^\350\223B\32\14\24\7\270\266y1\363&,\366j\326w\15\15\217\214\342\16\245\22\313[SG\355x\273\372\345y(UB\217\17~0\6\7bA\\\320\13\305\231\235\266\362\274\217\213<_ aH\2"
	.ascii "1\206qh\230z=\17\207<B\265\245k\306V\220\36S\\\345\34_\342-$\355\354\244\370K\"\251C\374>0\34Nk7\236"
	.ascii "7\366\361\272-uI\231.\17opR\236\201:R<\376\244;\303)\30S\241\274\7\20sy\36[\204DS\307"
	.ascii "1\352'O+\317\346L\332\21a\324p9~g-\334\6\327\342\205.\267\34t\226\305\254h\241y\376\352\225hY\32\5 \211\1\375\320\6\337\365\371\300\0\224\241\16\366\2x\0\331>;8_\200"
	.ascii "1Q\374\211\244\234Q\311e\317+\372\317\31\4A\15B12!@\302vz!\307\254=\220\5Z\327n70\224\334(tf0\244\343\30\306#\303r\273%\211\323#\232g\25\5\342%\24\310Q\250\223v\270I9\14g\247b\324\351\360"
	.ascii "06\16\375\270\371"
	.ascii "5\237\314k\223"
	.ascii "9\366\257o6\277.\370c\377a`_s\303(\224\21\330R\330\207\312\363\301\353[\14\277\216 \272\23\344\376~\7\315m\27ih\374\\j\211M0F\324"
	.ascii "0\216L\204\267\0\311W\365\316\36\37\321\304\216F\274\332\202\0\242\364-M\370q~\0\223\34\363\211"
	.ascii "5$\265\344~4.\31~\217\2\345"
	.ascii "4\5r,\277\177\256\265\263\276@\247\204\355\223\330N\7\30\204\210\233th!\272\204K\20\267\207B\376\245\243\13\12"
	.ascii "8\211\326w\225WUWV\234?US{\356\364\331"
	.ascii "35\25G\16\37*\257\256f\262\266\262\252\6\252~\3\275\"O\326"
	.text
	.section	.gnu.lto__ZN3stk6cipher8__base64D2Ev.f438b987,"dr0"
	.ascii "x\234eQ\277K\233Q\24\275\347~\361"
	.ascii "34\31\202\203\320\200\320E2\305\251d\366O\360\17\20\304\6Aq\11\215k\310K\310 \16\22k\207\200\325E\233\264\215F\23\32\241vI:uiE\214\332\212\266\35\264\376\250hc\4\371\20\211\367"
	.ascii "6CK}\360x\367\276{\356"
	.ascii "9\347\276g\321\375\345\227]\3Q\227\234\260\10\234\376L\224p3\240\1\201\342\214"
	.ascii "8N\270\316HW\362\31O\340\245"
	.ascii "1\346wi\311\364U\340"
	.ascii "0Q\203[<\310\" \230\255\322\331\232\327z\10\222\370]\341\352\223\347\230\35\306#M\327\236}\314\330\232\262K\323\334\352\373\354\203\356y\223N\376\330\177Q\355\255\270\34\266\220\203%\204x\5?^\303OrEx\203n\305\327S\267;\36;%\352\276\226(\362\260\305"
	.ascii "8-wTL\263y\364\213m1-`K\332\\t\312`:g\5"
	.ascii "4\30"
	.ascii "5\17iD\7\322\250s\35"
	.ascii "2\353i\355\"\271Z,\367\374G\257\314\302\277\10\373\232-\251}?X\337p\253\363"
	.ascii "6R'\23\211\205\213\366Y\314$|\16\13\202\261$V\265"
	.ascii "0]{>\345\15\346\205\303-\26P\300,.\377<\17\226\21\244=\244\314\200\222*tns\262\300\261\33"
	.ascii "3\256\320\366\206\330!\254 F\"\350\260\373'\307w\361\341K\275\14\305\377+\231V\374_Q\24EC\352\246\372\365\332\16\275"
	.ascii "5\343\362'6\241\204\20m#\351\323A\256\324\301"
	.ascii "7\240"
	.ascii "5\224>\1tt\271\355\14\217D\206\207\236\366G\307F\7\236\14F\207B\217{\302\221\10\271\306\206G\242w\354\264\250\7"
	.text
	.section	.gnu.lto__ZN3stk6cipher8__base6410initializeEv@4.f438b987,"dr0"
	.ascii "x\234eR[k\23A\24\236o\366\222\253\32|\20\\A\205R\252`}\22\361\27\370\342_\20\274\224J\203/\301\364\335\311\245\10>\310"
	.ascii "6\366!T\212\25"
	.ascii "5U\323"
	.ascii "46\332\210U\352\346M\220*\5[E\241^HE\301Rk\13k\20\215\347\354T\250\270\260;s\316\234\363}\337\371f\15\361\377s\214\336\232\24b\17\255\260\5\244\373\\\210LX\302\320\33CZM!T\324\34\237\245%n\352|#l\1\274\21\20\347\245aZ\240\257@\33\301K\317\27\271*\341z\345b\254\353\246R\352\333\307\312\31"
	.ascii "5t\262EDkR\23\243\204.\252\231\257}\235\216\33;!h\377pb}6\366Y\266$\366r8]xZ\264"
	.ascii "9\224&\207c\365G\245h\347u\345f\225\353\216R\332\300\30\14\202\303-8\270\15G\264X\303\35tr\365j\376\327\253\230\235'\356\204\246D\31"
	.ascii "6I\3\235\255_\250\276\15\31\273\3\316w\3\3O\354\216kJe\337\377\234"
	.ascii "9\342eF\325\357v\33-ib\\\203\37p\260\337\331"
	.ascii "0\13\25tT\267{\252\335^{\320p\355(\202\214\11&\265\210\336\262\351#C\274\213\4GB4\211\233\14\\\222\222\26c\1Y\317\257\340_}A!\313#\202\11\22I!\13k\276\230\13\363\364&\245\253`\11K4\37\231\316(\211\0\336\227\20o\220\255O\316"
	.ascii "8\334\351Kks#\341Qx1sc%4\202+\231DK\206|\232\353.c\321\301\345\227C\203\361\356"
	.ascii "2)\10\223^Lb\4\337\203\273A\15\335\14\273\30\322\240\266\246\311\25m\35\23\212EY.)|\330\312\271\315\254V\0>\365\343\352\362\26fU\312sh\6\352\302=&\306}\342a\300y\344_\347\374]\32\222\35\271\364l\270a0B\230\177\243\251`b\361\11\340\341\345\343\225\250/#\346>\362\300\24\364+\32\244\247\260\241'\242\373\347\206K\271m\201a\324^\247\366\5\310\277~RQ\340\237\305\227\260\210\214"
	.ascii "7xT\33\316\27\4J\322\340;z\222\251\276\336s\307\323\375gO\234>\225\356=|\350`O*%\314\376\276d\32\311?e\215\366\242"
	.text
	.section	.gnu.lto__ZN3stk6cipher8__base646encodeEc@8.f438b987,"dr0"
	.ascii "x\234\225\222\333KTQ\24\306\367\267\316q\316q\34Mz\210\234\207\12\206A\204\354!\242\347\336\373\27\"3\221\224z0\365\305\7q\317`4\335d,\11\315\13\226y)\313kY\216/\3\201\4\245!\225F\205IY\24\224f\12\303\241\313\264\326"
	.ascii "9F\27\237:p\316\336{\355o\257\365\373\366:\206\332\370\4\371=b(U\300#\14\5\212O+\25\261\11\220\211\202\252#\324\341\3\255\20\226\32g&\354\374n\255\365\347\221\341\316\354\206\246C\16)\265J\12;\203(\220D\350A>\13\237\216|L\4\214<(\236\217\17\254Me\275'\207\260C\226\211\363\367\233}\262$S\226\275c\23=\376p\227\216Gu<\336\311a\3\275"
	.ascii "0$e\37\202\270\206\240\342\220\302u\204Y\334\335\361f\332gls\323.\255\265\307|rP'\333\356\31[\35"
	.ascii "2\321\357\35\364X\34\312P\270\201\260hW\352\277\317e\371\352\231;Wh\31\363&|\340Ax>%\222d\204\334\234\17\336]\32\262B\227\265\216.4w]\264tsg\375B:\275\335!\37\6\376\314\355=\30DhpsR\247\323\243\223\215\261|d\3R\220\244\264\11A\316\340\251e\361\307\266]u&O3\375\22\14(\271"
	.ascii "9\265\310\37\271\345\267D2\32\263\210&\207'\305\352\231\271\225\345\34#\354b\235=\367-\346w\261\222\375mz_\344\212\376\221NC\250\206"
	.ascii "6R\375m\27\303\10Ie\327"
	.ascii "1#\217\260o\16\261\250u\252\357\224Y\223bQr?\247Jq\277ySa\24"
	.ascii "5\352"
	.ascii "9\242\363'\37\346I E\304[\22\31\203\267\316\340\303\257\26\37\315\330\322D\277[\360t\344\352\262\325\216\326H\256CY)\356\304-\356\233l\\x\322\324\30(\354\347\"6\233\306m\264\343\13\271w7\206B\365\222a\334\224\26K;\36"
	.ascii "7\14P\355W\35\23i`\225\244=wP\253\270 3\260\340\305\353\251\26\222\232\331\232-\337E\320\241\34\341zfyIl\316\243fA\256G\266\314\21\317\310t\313AO\221\271\36\372\345\304\377\37\350\343\277\321\23.\372\11}\334\275\260\177\321"
	.ascii "7\255r/\25&\\t?\27u(\327\343\230m\331\355\325\15\10\351<\326)\2\356\177\0\351?\37\334RR^QVZy\240\252\372h\321\341\342\252\322\275{v\225TT(\263\272\254\274\312,.*)C\245y\214\207\237\16"
	.ascii "7-\355"
	.text
	.section	.gnu.lto__ZN3stk6cipher8__base646decodeEc@8.f438b987,"dr0"
	.ascii "x\234eQ]KTQ\24=k\337\231{\357|\201\364\20"
	.ascii "5\17\25\330 A\372\20\321\257\211\314D\30\351eR_\305"
	.ascii "3\323D\203\17"
	.ascii "2S>\14ScJ\251\225"
	.ascii "6~L\12)\301@/AdHf\20a\202\26\5i~\341t\211\230\366\276\267\207\211\16\334{\366\332g\357\265\326\331\307P\377\257(\177\317I\251\323\274\303P\240\354\222RI\233\0\11\24T\37\241\17\337h\227\260\235[^\264\233F\265\326;{\345\341\310\300\340e\207\33\367I\341l\24g\204\10ch\342\302w\263\337\27\302\306q(\216\237\225\16^\207\276\222C8%p\341\326\313\274)\220|\2\307\347\27\307\202\261\373:\233\322\331\354"
	.ascii "0\247\15\214\303\20\312\207\210\342\21\242\212S\12\217\21\343\342\321\241\215%\323"
	.ascii "8\341\322n\37\24"
	.ascii "3\246"
	.ascii "4\352\312\335\27\306"
	.ascii "1\207|\230\360\32=/\16\371\25&\21\223\332\335\364\357\367!3\315\276\33\304-\333|\2\23\274\211\237\255\205\12\31\215.\347\253/\205i\253qD\353\324\372\344F\277\245\363\303\351\365Z\355\244C&J\365\334\336\302\24\32\247\216Tt\255V^\311eZ\20\346\221\261O\203\245-\37D\333\317\241m\362\217,I\332nK\200\303@H\311\344\324&\377d\312\237\211d7> 5?\263:\22\372\327\263t\271\226Ys\32f\225\14>\377\264\371f\331\226"
	.ascii "9\6\225X\357O>\370a\25q'\331\340P\250J\204\31\36\235\34\334^\31\314\205\233'\230\307f\13\230E\21{\344\332/\243Y\261\340\232\345\221\372\253\374\"uXR\214\257\347M\17[\254\313Y)9\14z)\273\336\207\345\312\315\375\274\267\25a\37p\204\300\302S\261\201"
	.ascii "9VU\253 i\223\333p\253+us\273p\311\243\12H\352#n\350k\202\205i\350\355@\211z\177\351\214\30\17\357\223\274\327<z\225k#\340P\304c8,\234\363\30B\302\260\6\374E\356t!S\345\333\36m\357L\304;\272.v\367\\m\275\322\326\335q\341|K{\"\241|=\361\316n_[k{\34]\177\0\311T\364>"
	.text
	.section	.gnu.lto__ZN3stk6cipher16__base64_encoderIPcS2_E11EncodeCurr3ERS2_.f438b987,"dr0"
	.ascii "x\234\225V[L\224W\20>\363\377\377\376{\5\204\200\334\12"
	.ascii "4P\\\271,K\12A\342%}l_\373\326\207&\306"
	.ascii "6&\230>\324\24\372\320\7\343rSb\32Ej\232M[*\246\26\212T\24[\221[u\275\324R*P[(\224\332U,\24\261\"\254\220*i\214\235"
	.ascii "9\347\337ew\365"
	.ascii "7\273&\316\236sf\346\314"
	.ascii "73\337\34~\231=\375\357\3\374\177\331\306X\26\376\202\225\201\324"
	.ascii "8\302X\265I\222\344\6;sY\24\222"
	.ascii "6\31\24q\254H\206\245$<V[\312\361\330\0Fq\254\372\27F\311"
	.ascii "4\220\211z\363\230\23\365&\260\210c\263\177a\1\240\5\3\266W\222\25\203j4\231-\260\27\346%\237\4\215\236\16\267\325\376\245\313\345Z\272\324\233R\237\262*1\266,\11\224\320\12v4\31?s\257\317&'\3\303uo\347\312\260\365\216\264*\301\213\264\355k\32t\253\264\225\24\332\266u\367\267Zr\277p5\326x>\253\255S^[\225dh\3\31\357\203\257 \15\332!\215\341\21\203\23\220\213\326\313\27\33|\262\374\2\277\267y\360\366"
	.ascii "9\263\360t\327\222\243\2\35\341\216\12\203\257!\227\254}u\217'\254j\35\202^'\300\302IP\1\177O%x\\O\236\314\335\315\331f\0\212\242\242\233\301\4\344g\306\245j!aCa\214!M,\211"
	.ascii "8\24\246xR$\220H$m\22)\326\223H\246m\12\211T\332\22\16C:yd\320*\223<\262Hd\223\310!\221K\306\33Hk'\261\221\266y$\362i[@\242\220.(\242\225\223<\212I\224\220(%QF\306\233H[Nv\233i\273\205\304V\22\214\315`\306\324\317YI\242_y\12j\272\273\346^\247\32<\224T,\317\315\231\321\353&\352\212\231Q\265\16T\37_46\303\247\325\353V%\313C\311\0\235XNR\234h\257\237\222\35\35XF\23\6\203S\320\14\17x\353\341"
	.ascii "48\330"
	.ascii "8\324\15\313k\227~21\273\"\323\245\6lJ\27\335\300\10\202\314\32\354\204`\251%\231l\203\303"
	.ascii "5\272<o\204E\374h\354\310a\233?\242\25\316\360\210\324"
	.ascii "8\324\35<}\364\202\311\351\300\24\341\33p`P\216\344[p\242\256\272\265\377C#\5\307\364\341,\17>\213|\320\262\377\367\300\325f\213@j\16N_y*}\264"
	.ascii "0A7\371\303"
	.ascii "9\214\315\246\240\326\255\12O\304i\206\274"
	.ascii "4<\252i\202\360TB]{\320\25\35\310\264\357\230C\270\333\236W\350\260\264{\203\323\236\236j\233\326\322\356\3\7\344\360\302B?8\351z\357\376Bq}\14F \264^\15m,\36\361.p\14\261\342"
	.ascii "0\16\257\373\370\320X\217\274\347?\227\233B\331\36K\"H\240$6\276m?t\204r\240\26\241U\14\14\300\36\370N\303:9\337"
	.ascii "0\254"
	.ascii "8O\272"
	.ascii "0\207X8\317"
	.ascii "3\215\345\220.\10HM\323\222V\235\300\245*w<\373\350\350B\14^\12\310Y\252\245\207\327\352\"\277!\216\361"
	.ascii "6\15e\10\240\361\372\265\275\24\326\226\4\264\216\260-\227y\250\4Q\222\"\341\236\30E[\256\350\264\345\373\265\266\\\345"
	.ascii "5\250}\264Ok\313f\21\341`\347\361\345"
	.ascii "8NO|\334~\20]\361\32\205I\22Z\221\317\15-\241\365x\24\374r\32\360Y\33\324\32\331\265p\314*\254\222\243\300\375\243\16\356!\304\375\222\300\375\223\300\355\335"
	.ascii "7\342\37\224\24\214\341\217\353\207\232\212\307d\266\242AM\343hSC8\226\256\313\261pR]\323#\325"
	.ascii "0\357\223\0"
	.ascii "6\22N\252P\26\305k,\32\345.\351d\332\355[\330!\240dD\361\266\375\274\366\266]\27o\333\244\366\266eh5\302\7\305\300\226\222\304{rESf\352\263\355\227"
	.ascii "0\242f\241u\204D\375\225g\223E\246\273\237\231v\246\226\366\30\32\242\322=Q\243\20UL\333\30\214k\217\237\312Z\312\5\326\373\315/\13\4\331\372\21\177\13\3\233\203\326\21\202\235\340`s\4\11J\205{n\24\354\234\324a\347\357k\354\234\362O\325"
	.ascii "5\20\367o\21!&o\325\14\361\217\15c\34\203?B\271\272\1\255\202\307\312\216G\201\7\261kqZ\233\243\215Q \275\21\214\264i\177\373a\15\351\237\210T\373\203\7^\377 \5\252\236'\202"
	.ascii "4\325\367\364\304\362yV\31\334\14\305\232\217V\301sU\300\341\346\213\222&\212\263\302\210\347\352\226\336\\M\363N\25p\234\267\375se{&\301\262"
	.ascii "5\202\375\305]\12"
	.ascii "9\243\214\201\217\11\337\242\366"
	.ascii "1Q\24\305\204\315\254M\330l\350\327CQ\320\347\202\211\15d\12\332\256HB\353\324\247\336\337a\254-F\353\10Y;\307\23+\326\37"
	.ascii "1\247V\201;h\30\30*3\33s\12t#\237k\355-\321\217"
	.ascii "1\37\6\257\24\255#\204w\227\303+\25\14p\12\367\262(\250\372\217\16U\357\5Qu!|\252\266\212\30"
	.ascii "3\243\343\347\305\267\324+\14\356\207"
	.ascii "2u\23Z\205\320\262<bZ.\352\321r\211\347\272\211c\362=\237\226%ZS\36p\227r\336\23\13\247\245\27\252=\343\257\222\23\335"
	.ascii "3\203\251\343)\"I|{\327\356\212\235\357\275YY\365\316\366\267vT\356,+-\252`JU\305\256J\371\335\367\253\376\7\342 :f"
	.text
	.section	.gnu.lto__ZN3stk6cipher16__base64_encoderIPcS2_E6FilterES2_S2_S2_.f438b987,"dr0"
	.ascii "x\234\235U\377OSW\24?\347\336\327\367^\337+[Yf&\210\246\4\211\343\207\352/\313~\330?\260%\376\266\237\227\30"
	.ascii "7I K\34\31\354G\342\243\24"
	.ascii "5\225\30`\204\310"
	.ascii "6\7\213\210S\267\12"
	.ascii "8\331\204"
	.ascii "9[t\340\4\252F\221\305\30\306\242|1q\33\35f]\263\20v\316}\305\26t?tMz_\357"
	.ascii "9\347\363"
	.ascii "9\347\236\317\271\257\22\236\375t\321w\267\1\260\223\236\350\3\24-\11\200\6S\240\344\37(\321\353\32"
	.ascii "4\341\31\221\340Xz\342:\200\343\363 \262\35t4\370\31"
	.ascii "7\15\241)\217er\230\317tqq\323+,\327n+\273\345\306\243\355\362\307M\204\3Bj\36\335"
	.ascii "0\275\226\215\7"
	.ascii "4\351\226\345u\37\6\340*}^T\233G\")\360b\364\311\244\275(\322\2\2@\333\241\266k\307t\336\242\306\333\336\236\307M\306\216\223\216\23Zj\353\257ii\357&\217\200e\1\330\213\305x\12\213\371\224_\342\16\12\235\32x<\344\223\257 \303N\15\16\367Z\345'\234\226\320l\363\225#f\370\255\264\220x\32e.\220L\200g\260\234\302\227\343\207\223R\226(\350\312\312\257aA\320Xh6r\"b:\4\25xv#\224"
	.ascii "6_)ho\343\370\4\312\200\202>\232\33h\347\254Nh\366\310\203C\31\350\327\317\201F\25\364dO\242\303'_U\320\236\371\305>MA\273\233\33"
	.ascii "5\5<\367\34`\37\226st2\274"
	.ascii "2m\353a\307q\374\334\13jA?\352H\317s/\305\234\325\325\205h\331vTY\334\\R\255\6\362\352E>\263Et\232\315\234>\345+\340\237~^\12y\331\304\356\315\274\24\361\262\5"
	.ascii "9q\211\212\334J\6\317"
	.ascii "6Z\364\200\332\227r@\231\252\16\36\322"
	.ascii "7*a\216~G\245\204y\364\245\4\11N\6\11\323\22\357b\310\257"
	.ascii "0)A\265\316#\246\204O\320\"m\16\321\200\306JNa\370\347\306\205\346\12>PJ\210\224\330\242&eNx\230\362\36\206:\372'[\245\353-c\11`\6"
	.ascii "1\263Uq:t\217\1\7\376\25\231\351|\333\365l\245\226\375\362\360\306-sQM\17w\360\302\337]\277\25\34\307O\221NCyp\200'\11\317\343q\4\302\316\30.p\33ay\337\246R\344\262\30\212%\322\320\363\207A,\15-NlwZ\230)\341\305o\230\211|\37\337io\365\5\317\222Ff\232\314\27\210\372O\226\212}G\373\272.\233\273\202\324D\34\304`\212\372\315\32~\213\273(%\345k<vp~\255\366\0WWQ\14wQ(\221U\373\2\34\324vp\264\363\15"
	.ascii "7\250\224(p{\361\272R\237\326\346\337P\330\231\323M\367\344Za\32~\247\12\343\341\301\213\\K\251j\243\1t\233s\25\23L>\230i\365\246<\370\207\262\374\303\30\4\22xRfY>\231\236{\"\271\241\32\215\352\367\352:\323d\220\356%\26MF@\237"
	.ascii "8\337\303\303a\302\210\224\367\261)vi\364\5\6s\236\317o\37\215\212\372\177\234\303\234\307Z\346\24x\11\353\201j!\357\27\375\237%m\362\252*l\236\24\205\303\37\260>MCO\207Y\272y#\337^]\316\236%\206A,S\35\37L\216\255M\344\346<\270\342\212K]\336\21\352\13\13\252\273,E.\321\323"
	.ascii "7\241\246\1^\301\377\247\356\325l\226\37Y\335\"\245\256\27:\15\231#\256\314\25\327\312\203~4K?\266^\\fY\10G~w\305}\23\360\332\232\270\222\256\277$q\205\311\312Z\260\244\363\253\242\204\252\360\262\301\206\12u\317o\335\311\324\243\304S\267\"\323\237\2\266U\344\364\203\3\310\314\206\232L\177\326\337o;s\277\177\242r\311\231\30\356{\240\376r<\5\200\327\335\316v\264Ne\362\371"
	.ascii "7\346+d\333\263\371\12\377;\237?\223o\334\315\27\32\277z[\250|\26\340\204\233o\351\346T\276ZNf\233\235p\247\217_\271H/F\262\275\374^uMU\345\207\357\324\326\275\277\347\335\275\265\225\257\277\266\263\12\264\272\252\352Z\371\301GuF\365\376=U\225{\367\351\364\254\334\277\357_\342\241pQ"
	.text
	.section	.gnu.lto__ZN3stk6cipher16__base64_encoderIPcS2_E6FinishES2_.f438b987,"dr0"
	.ascii "x\234\225QMkSQ\20\235s\357m\362\332dQD\20\202T\241\204\256\242\13\305\337\340\266{A\252\24R\\XL\\\206\336\244/P]H(\"\5\333\242XS\333j\332T\215\30"
	.ascii "7\257\33\321\205\212H\25\213\266\10)*\24L\214 \17\11u\346"
	.ascii "5~\240\253>\270\314\233{\346\234"
	.ascii "93W\323\377\337\21>\27\24\321\1\216\350 \250\302s\242\254\243\224\256\366\220\355"
	.ascii "2\257\17\223\215j\230\235k\3\310\17\201F\224"
	.ascii "6\30\301g\325PxX\372\366,\362I\371\212\16\22\247\325\361'\23!Ia$-\316l\345\303}7\255\315\325\307\37\14\27._cDQS\21\212\210a\26"
	.ascii "1\321\273\205>.]]\336\252F\365>\10m\266\362\250\330\25\277a\13"
	.ascii "9or\324"
	.ascii "5\307}\245"
	.ascii "1\7\375"
	.ascii "7\217\257\10\363\210suse\254\241\365\376\200\331j}p\25"
	.ascii "3\275\234"
	.ascii "71*D\205\205\177\211\234\334F\\\252\33n\353M$\344Zk\273\305\24{\271\203\20"
	.ascii "8.\356\361\354\366\366\307\247\275\235\32\322\305"
	.ascii "0\315"
	.ascii "8\1\227j|d\21\233\234p\324k\310U\32\357\373\205\372]\31V\335\250\275x\351\310\16:H\232\\\314\316|\11O\341j\266\333W\\\241Q\222\261\31\230\237\313\257\351\304\2wwX\35\213\230\302W1AXB\202V\341\276\325mQ\364\306\202\7\333\344\241\253=\372\35\362\236\377"
	.ascii "8*\240\350L\277\272TR\231\37vLt\302M\305\3\240\214\14q/F\257\227'\33\21F\203.\216L\36\360\260\214\214\257:\3Q\363k\216z}}@\320]\270\276\373\307\365=$\304\250\350,m\364\357R\347~\240#\273G\345\267\316\225rm\245\275\203\300"
	.ascii "9\255\3\355\224\344! \306\271\371\336\323C\303\311\301s'R\351"
	.ascii "3'O\15\244\6\217\35=\224$\223N\16\245\364\331\363\351\237\262\261\350"
	.ascii "7"
	.text
	.section	.gnu.lto__ZN3stk6cipher11char2base64EPciS1_@12.f438b987,"dr0"
	.ascii "x\234\205UmLSW\30>\357"
	.ascii "9\267_P\13S\346"
	.ascii "67\315\26t\362\207-\331\26\177c\262\37\313\342\237e\311~,K\226\315\230h\374\1\21\367\263\361Z!%\352"
	.ascii "6\202\350\20\250\326\1\312\246\342\307\324I\371\272\210"
	.ascii "8?\206\312\324R*`\5\\t\321\244\265\272\266Y\260{\337s/\375\2\365\206\266\234\363~<\317\373\274\347=W\260\271\317\207\370\371\330\306\330j\374\5\23\3^{\225\261\255V\316\205o\31S\363\24\377\373L\265\13P\364m\5\200\376a\300\266p\241\300\26x\300#\34:;\236\14\345\337\347\11\316\336f\270\364\325]l0\323\22\24Z\36l}XmY\331\246\252\256\360\317S\33k\353\275h\341,\312\31\34\204%p\10\226P\276vX\211\256\207O\327\356\262\210"
	.ascii "7\200\302\316\335\356\213"
	.ascii "8V\264`\230\266s\233\362I\202\13\370\5Df\30n1\370\25V\240\363\366\326\23^\273xS\6\326\304}#\234\2U\255I\6*p87PapD\6F\373k\"B,\225\201w'\17]Tt\304#\6\342\321y\20;`\5yG\252fF\362\315U\10SH\305`\15\307\300\14\214\11\264MtU_\262\213wd\326\275\376\211A[\361\1\314\32\362\364\226iU^\365Y2\11\224\374xvr\375\201\23P\214Qc=\221\363yb\271\314\260\273\273\271\316&\345U\345\372\312d<j\227\372\26\322\362\316\223)\267\202\0\232\32\332\327lJ\3\230\340\244\16\360\33\2\234J\3\234\226\0\373\373\352\377\21\24\345\12"
	.ascii "56\256\316\244ut^Zg\240\370\330BMM&\243\337\17~\361\32\0\351'HI\5\277\300\4\324\10"
	.ascii "3\11d\1R\310&\13\261\343\6wH\331\330"
	.ascii "4jDg\347\36"
	.ascii "6\37\177\205\37\\Zg+ \25\177\333\275\0\27\357\312\332\256\355\350~j%\265T\315\343U\313R\264\24\370}>Z\331}\200\263PL\260T\242l\7\362\356\304\246\340v\214\3CD\365s\332\300\250['\37\372\354\242Dbz\207N\335,@\314Z\222\242?\243Ef\360\315\253E\227T\360@\"xYq\376\207\300\250;z[\10\226\322"
	.ascii "3\350\6'\241\205\272f\206\315Y\24C\203\356\225\24.yE9\344\36$\350\221\244{%\307:\177\335\261\202\222\203\24v\266E+\263&\270u\226A\37\224\240\303\256\275\236\270\265\364"
	.ascii "0:\240\315F\360\217Qd\231\3\255;'\36\270\12$?\212\4\15J\321\326\237\301\314\200I\227\257U\273\\\313\325\255\361d\322\222\340y\317)\376\34\26\211\360,\10\256\177\335\177o\312*@K\266\13r\220\25D\261\321\271\345\15\310\362\316K\334\264~\341\311\201E\231\372\321\241\236\276"
	.ascii "6l\245"
	.ascii "3n\225Mn\236\256\367\344{\240i\253Q\352 8\341\2qB\333x\337\323!\333\254\12\371\360\7x\340"
	.ascii "1*+\261\340\"\224\242\313\236\37o\236\25\10\325@.\366\31\256\33\321\320\272{\317\21\23\301,\260\322\362apG;'\230Zrt\300%\204\271l\300\334\177\24(\222)\302\343\201\267\10\350\12\2\351 \177\242\250R\216g-\13\14Q_\334\232HC\333cK\232\362\20\224J\306d\205\253\363"
	.ascii "2\206\331\320\\\212\327\346R|\235r^'v2\341\260\316\256\302`v}t\352\203YhE'\306\15\350\277\240\24\212\227\274\304Y\30\316"
	.ascii "7R\316\23\356\237\366"
	.ascii "7\0u.\306\25\32\264 lk0\353k\374"
	.ascii "3\341.\33\3\267\332d\370\330"
	.ascii "0\361\276\33?tp\344ZC\231\13\242tA\300M$\232u.\264"
	.ascii "5YSu\13\234"
	.ascii "1n\221\11\315\11^(\347Y\317IC\217yq\207\33\363\235>\324\336F\257\267\354\245#\355\317\35\351\366MY\330#\272\210\275\237\312\233P\307r\25\312\5}\310v&\321\321\325\2\331\343^\275}\251t\361\247F^\231"
	.ascii "3\23\1"
	.ascii "9\23\243\244\214xn\177\310\11\202"
	.ascii "8\302\267\240jt \26l\312"
	.ascii "3\"\250\7\364\334C\11}\313\304\30Tk\211\13v2\262\\\231_\211\342;A&\272\235\253t\330\325\346\310\252w\14\234\350\340\36\366"
	.ascii "4\332f\257\220\205\262\22J\14\343\340L\360E\22U\221\227"
	.ascii "9\226\37\216w\364\14\0\331_\\\304D\352\334\204\217\337\371\354\371\376\302\360\277\223\362\337sb\272_\350e;\244\350t\221\221\302\251\23\340\220i\303\365%\306)H\335\"B\316\307\351\370\376G\13pv\360\34\24Q\216\20\365\37\356\342\244d\372\26\341\336$Z\306\240\252=\240g\217q{\256\230\257F9\265m\12\225\304C\231\340\213\21\372\\\300$\271\350oX\265\177"
	.ascii "4f^uJ\255\241w1\203iX\305&\300\30\1;\243\27\"\220vx-,^\273\241b\375\272M_Un\336\370\365\267\337T\256[\365\321{k+*\30|\11\225\242\374\273\315\274\274\34\326\301\32e\363\372\15\225Es]\327\263\377\1<\206S\266"
	.text
	.section	.gnu.lto__ZN3stk6cipher16__base64_decoderIPcS2_E11DecodeCurr4ERS2_.f438b987,"dr0"
	.ascii "x\234\235WiLTW\24\276\347>f\336\354\14D)\"\10\25(\22Y\\\200\20B\335"
	.ascii "5\332\237\375\335\244i\33\33M\177\264\251\366\247q\330\304hR\21MC]\242\266uA\253\210\255\212\330V\244\242h\5wET\26\5\227\326\5\224\2SK\351"
	.ascii "9\367\276a\336\214\31\342s\2g\336=\373\366\276\13\12{\365s\1\177\13\334\214\275\215\337\20\311\200\227"
	.ascii "5#\303\302\271\262:\205yl\26\242\16\5,\222m\201\10z\0\23"
	.ascii "7\327+(V\233\317"
	.ascii "1\224\233\301-\345\252\224\237\264Dp\323\332,T\260\226\304\240\334\312m=c\361\344\334\236\213'\33\267\213\223C\234\354>[\207\357\301\311]g\302Q\36~v\6\312]>v\270\357\301\15@\17\14\330J\256XLf5\302j\263;\234\256p7\254\344\21X\2\375\340\347\21\357\345PV\267\257\302\236\262\323\343\361\364|w'\272$\332\213\242\27\\\326\16\273 \5U\256\35z\\\353P\336\2\206\317\307\16\364"
	.ascii "5\331\37r/\207\4:\326\226"
	.ascii "7V\230\351\310\303\350\270\373\310\361]\266\344\357=e\205u[\212\212\303\26z\271\2\273AA\177\260\7b\240\22b\30\262\30\354\205d\324~qru\257\242\304\12\277[\33\357\36\265J\313\212\"2\14\203}\301\206a\14~\204d\322\356-\36\272a7\27c\322n\231,\354\7"
	.ascii "3\340\27\312\372J\253n\251J\202\360z\251\241\372\0$\356@\275\16oC\251\305\323\350)\356\30\36\216\367r\23\34\10\364\256\25\\\5\211U\221u\236\341\341\7\233R\336\3q\346\202\232\201\222V1\13\223\205\210\225\210\3\211\331IO.zr\13\315\10:G\22\31\3\224\357X|T\243\210D\223\322"
	.ascii "8\222P5\246\361H,\261\304\213\243\343\4\"\361\304K 2\221\4\211D\222H\220Ld\22\221T\342M&\177iD2\350\230I\202)D\246\222\355"
	.ascii "4\342M\247c\26\221l\342\345\20\311%A\36\231\345\23\231A\307\231\244"
	.ascii "2\213\310lR\231C\274\271t\234GO\363\211\267\200\310B:.\"\302X\27\366\274:\226us\216_J+\24\36\251\356\177?h.4\22\354\350A0\17p\25e\355]\27.YhU\254\214F\263\246\340\207g\352V\330\\\340\366r\333\0"
	.ascii "7C5M\1\5{+KZ\225\364}\350\303Bs:\4[\341\271\330G\370\11\322\331"
	.ascii "5(\276\251hN!Q\316\255\33W\352[\227H\243\267\277\\\223Z\14\304\370Y\304\0\212q\30c\264BQ\271Yz\261\242#H\212AVa9\20\313\200\327#~\257G!\35}\221\227\236\262\1n\320O\215\277\3\307 ]\26\335\315-\324yv\37"
	.ascii "82\224-\355{\0\277"
	.ascii "9\11Llm\26\365\242\266z\250\\\15\234\11\255\247\230\10\272\252\245\362\34\243\245\261\341\352\306\365\16_\32v8.\322\240<P\366\365\301m',\231\351\270\14\360\13\325\6\"\275_!\223\6\324R\364\251\337\375pu\375\35\240\261\233\337e\360\33\370&ff?r9\261\241\313\212\324\216"
	.ascii "0\320\223\23\376\336\326\215LLx\211DG\376\211\325\32\352\364I\277\327z\252*R\244\252\262\366\251\224j[i\177U\276\14\342\304\332(B\355\216"
	.ascii "8\311p\241\263o\326]\255QV\274\364T\220"
	.ascii "3\307\220\326\251\221\265w\210c\345\272\215"
	.ascii "4\317\315\5e\244\345\204\337a\5\234\322\262iy\264\272),s\277\7\263tA\3ja \321\327\323\330W\252gGxpAe\236\272\274\321\307v&\304\330\32\375c;\13\231X\201h\342\252\346*\233\254\310\215R\352\343u\334"
	.ascii "0d\320\352 S4$\202\341\365\2\327\241P\2\36\271\301\251"
	.ascii "7ic\24V\370\271\17\230?\276=h\245\222\225\225\225\304P\33\373\327\324\347\312\227k\254\276=a\257\240\202:\300\307\300"
	.ascii "9\252\12\376\300\"(\277\12\355\265\214BcH\15\375Z\352L\317\213>F\211iu\306I\363h\3k\337\244\357_g\353\356N\255\177\315\276W\221\301\5"
	.ascii "9\236\266\322"
	.ascii "4\351~\34F\240lok\331\306 \13\215"
	.ascii "7\335\350\356S\250T\23^)\27Ad\337\242J\225\361\250%S\314\222\214X\3)^\12\221\342eLQ\316\2\256\210\24\213\6Wi).\224\21\332\7\332\353U\361rNapU\246\324\246\245\24\207Zd\323\246U1\1Y\372\33\337\204\327\361\265\300*\342Q\213L\372"
	.ascii "4\223\4QX|\300\230F\6\256\212t\17\17n{\342\304\32\1o\30\32\352u1\264\33bh\11\242#\275\247\256\230\244\273\211\6z\322\242\357Iyi\345z\255'7\261'\27%\12A\253\17\256\242"
	.ascii "4\377:|\262\261\235\252D\321\206\15Zu\211\6\302\337\12"
	.ascii "1\222\333\30>YF\277\343\7K\351^\27\335\316J\4:\366t$\31\274,\332\374\227E\273o\374\335\210=\333M\22m\33\356i\367c\222\1\247\35~\\\354\14\274\37\223\321\321\233\336\217w\375^\357\21\30%\213T\235\254#R\242\355\323\232i2\310$\34\215|9\264A\245\206D\333`x\355\12\5\257\335b\303&\211F\335\327\340\265\323\21\\\1\302k\372\350\203~\20b\317\36\352\366\354\21\341k*\23\330\327\357+jrh\310\372"
	.ascii "3\10\355\322P\373"
	.ascii "5\321\356/QV\232\274\233\222\244y\206\201\275}\34bo\237\370\241\344\251\17\355\316\203\364\217\305e\350\341n\12\262\202\221a*\262eR3%c\232\201\244\236\205\350q\217\256\307\275>\200\363e\265H\306\30\364\14"
	.ascii "6\12\270"
	.ascii "1\347"
	.ascii "3x\36\210p\323QK\217pY\310\12\6\346ld\353!-G\324\222\35"
	.ascii "0\213@\14\233\254a\330\13"
	.ascii "1\212\34\211ag| \222k\240\356\276\20\303\370\333\17\"\375A \222\253\3\21\27kS\336\14D\6\374 2\350\7\221pV\30./\360\323\307\362e\270\274\320\233\350\15Z\342|\324~\315%\376Gt._\276\362\357H\363\31\6\372\366"
	.ascii "2\304\276\374\253\333\227!\337\26\367i\373"
	.ascii "2\23c\350\267x\26\262\310\274\244\246\306%\256;3\203\377\2wc6j\311$\263%c\216\201$\207C\14\327\303G\206[\300"
	.ascii "3\365\353:\27\3\210pZ\306\363^\33\5\13y\10\24,\342\324\351\271\"Z1\17\352\310|\14\241_\375\5\242\342\371\243\254~\236\266\372%\302\355\2\261"
	.ascii "5n\372?\245\15\12\352\274k\305\237\343\24\253\13Q\277:\26\223\35\363\311\322/\226,\376\362\203e\313?\373\360\343\217\226-\316\311\312X\302\302\226/Y\272L\371\374\253\345\260\364\177\"\23p\370"
	.text
	.section	.gnu.lto__ZN3stk6cipher16__base64_decoderIPcS2_E6FilterES2_S2_S2_.f438b987,"dr0"
	.ascii "x\234\235U]L\34U\24\276\347\316\354\314"
	.ascii "03\273,\24\261Yh\332\4"
	.ascii "7\324(\256"
	.ascii "1\306\32\23\37|\363\305\27\343\203\17&MmI &\265\21\352\33a\330]~B\265]\220\"Q[ R\312OKam\221R*\364\277\265@m\201\266"
	.ascii "6\25i\302bIPA\214\24\15]\317\271"
	.ascii "3[\20\373 \222\354\235{\317\371\276\363\363\335\37$\366\357\277\26\374\275\255"
	.ascii "2\366<~\301\303\200G\206\31+\321"
	.ascii "8\270\355\211\304\345\260\312,\335\365\321%\306,S\6 ;sq\265\341e4+\263O\240U\341*}u\215l\246\12\272\315\325xRE6\232u\32\315\244\204Y\7\303\236\30v\222\327\334\\\352\333\202"
	.ascii "8s4\35qf\302\15\254\230K\262KQ\265$\335p\233P\314\335v\315\323|\216\303\311\216\337\207\214\373|\221\263M\14\227\275\325\227\353\24Z\202L\313\346\246\231R5\373\220e\5go\214\354\212\324"
	.ascii "4\240\207\263y\316\240\31|p\30|\324n\13d#t,:\323kJO\2\321\16w\237j\326\375_Z\221\340D\313\205=Z\370\365E.A+H+\211hb\320\6~\204\317\237\251\230\223\244LA]Z\272\27\346H\35\10N\34,\255\324,\244rh_M\305\305\21Am\16]\35\4i\223\240N\307\242"
	.ascii "5\224\325\12N\324\307\312\35\352\321\307P;\4\365P\323p\255)m\26\324\246\251\373\235\262\240"
	.ascii "6\264\224\312\202x\354"
	.ascii "1\304N\360\23z.\274t\313P\302\226eyI\13\224\240\13\24\300\17\372J\"\307\333\222\245\200\210Zvd\377\214\231\325H\5\265\305*U\253\316\12O\304\343\33\27\271\14Q;\372\263>x\332\347\34!\370\12\262\216\245\16X\361\370O\203\376\15 \312t\1I\244\2\315"
	.ascii "5\254\301e\0\25a\342Tq\13\206\207\254\311"
	.ascii "8\310^\34\324\24\32RiXG\216"
	.ascii "4\32\322E\250\365"
	.ascii "4\315\20\323L\321\15\233\304_\\f1\234\307e\351\16\4gg\307\336\374g{\224At\207\345\35\7\5\235?N^\273\256\321\1\321\30\265XY\322\364\253z\0>/\361.\362\244\5\356\202\23t&\320\321\326ZzG\312i\307 \32\346\205n8\0\277q\321\346\327\220\3Y\324t\14O@\337\26i\14\302\267C\375\373"
	.ascii "7P\202\5\16\13\334\20r\304\270\354\224U\333u\267Z\262\275\231\264\355l\34\300Y\12\234\213\235~\201p\177T\16\267\277b;\314\225\225rQ\320\211\7\365?\273\261R@\351"
	.ascii "0\15\364P\241p\22\353b\310\35Wm\242\33\271\354&pZQ\363h\21\356\362\33\317\330\0\217c\351m\334h\33\222"
	.ascii "1v\355\276\321\36\251\350/\334`lV_\242>W\26\240\213e\353\276\232\36 \251\"\204"
	.ascii "2\240\27\212\340\224\243\326\355\351\212!9p\324B\25M\350C\24&\22b\235\206\0C\201\276\17}\270\234m\344\341\360"
	.ascii "9\240\270r1\203o\300\347\310\245\260*\217\20\323\321\312\215\320x\327\331\37l\350\253\14\372\37AU\326\274\31\25\13U\227\215\267\177\346h\271~\201k\360\224\217z\253\6g\263\377\353\356\16\210\335\5*\370\14\344`,\21\345^\332\352"
	.ascii "0\21k\340\215U\221>\31\255\251"
	.ascii "2\23\221\334pVDr\4\334\333Y\337\257\5r\350\276\234\243\260\232\220\344<\4\26\304\23\26C\303\247:\365\21-\237j\177\313n\303k7>\23m\270(\264\227\361\232\\\0j+\24u\366"
	.ascii "8\305\206|\374\347\334\220G@t\6\27m\310\3\305\206\244\212@)BzG\316\324\225;\212/=\\z$g\22\333\343\242\3\330\335\30\260\261\353\326\240\335\345\345\233q\5r\250\210j\247\210"
	.ascii "4\14\364\177w\344\333\345\250WI\272"
	.ascii "4Q\250n\337\224P]\331/\211\233\222Aw\1\337\240\304\231\307\347\1\215\2m\260\252+LbS\220\216\30\23\217d\206Nf7\303\377+p\23\202^f\243\305\5\352\356\272\225\270\244\332\32\352\34\\>9C\330=\352=\224\210\2~\241\357\24`\346t\3\7\25q1\274\236\243\351\322](\35x\250\23\220b\36\34\331\333\301\361\372UPL\317<\205\203a(b\230\27\275\215]_\314\31\350\25\31\223\351\1\21<\270\6E\213\334K\265\317F&\371\32\365\375n\271\356\353\211\367\14\203\340\213\205\242\247m\317\337\225\227\373\301;\5\205\357m}w[A\356K/>\227\307\344\302\274\374\2\351\375\335\205j\376\316\255y\271\333v(\370\315\335\271\3\266\377\15\177\5\204\10"
	.text
	.section	.gnu.lto__ZN3stk6cipher11base642charEPciS1_@12.f438b987,"dr0"
	.ascii "x\234\225U\335O\\U\20?s\356~\261\237X\320(J\242\241\24^0&\32\236\333"
	.ascii "7\37\372\27\30\23\243\15\11M\37 \200\217\244\227\5\204\26C7H\351*\255\245)m\251\224oP\330\205\366B\201B[@\12,[\240\24M\251\230P\3\254\10\33\322\256"
	.ascii "3\347\336\205\335\5"
	.ascii "5n\262ww\316\231\231\337o~s\346\\\211\355\377|\210\337\\\23c\307\360\27\364\14\270k\234\261\"\23\347\322p2\223\315\272\373\37"
	.ascii "0\331*\201N]\326\1\320\37\6\354"
	.ascii "4\227tp\32~\347\353\34z\232\377\34\263\254\360 g\357"
	.ascii "24=U#n\3\231\240#\363\354V\333Ek\332"
	.ascii "5Y\226\327\36\225\236rU\327\341\16g\1\316\340:$\301\15H\242|\15\220\206\256\215]\256o\214\322[@a\3\363w\326\355\251We\331\251\234)\326}\34\344\22\334\4)2\14\227\30\374\0\251\204Q\337Vg\225\336\26\201\345\333\236YN\201\262\342\26\201\230"
	.ascii "76\20\215[\"0\320_\276.I\311\"\360\227_o\214\350T\304\233\32b\323\1\210\315\220J\336\353%/g-\206\22\204\211\247b\260\206\26"
	.ascii "0\0c$\310\242\267t\324*\275'\262~\353[\34\212K\271\202Y\227<\267\217*%u\362\253P\10(yktr\365\3m\220\202Q\13}\353\203f\351\260\310"
	.ascii "089\337(\364du\302>\377\240\373\211Y\350\233H\346\232w\260U\217\0\212\274\344\275\250\337\3\320A\273\12\320\201\0\235{\0]\220\322rH\221C\241\216\13C.x\35\204\24\34\350\211\355E=\365X\247\336 \226\215\370\27LTw\34P\341\26\301\317F\12\332\351\341\20Z\262g\370\245s\261\214\6\376J3P\342/\276"
	.ascii "3\12\310\316wm\331\317\245#\202\370DE\357\246\211\244\220\227z<\21Rp\370\361 )\242E\206\237 \205\300\211\277\320\32K\351\6\303\26F\37Q#\226\261;\303\311\322\2\224"
	.ascii "4\270+\223\325M=&\371~\252\262\231\27\356\310\345\262)\310\15\1\216M\202\36(d[\\\27\344F6\7\316\305\262\5I\365\247\20\346\3N\26\11\200+\"\263N\324\345\3g<S\227\1\275\234J\240\36\204'rS\227D b\316\264\257z\254R\272(\273n\254s\332\201e\273\234KM\325\375\21u\233\300s\340\21\360\212#\260S\272VaC\332"
	.ascii "2\365\25\275\343\250rJ\317\240\27\331#\374\222ws\300\20\245\322\322re\32\205\13i\2\330\215\230\203\12}B\267\333\202c\225\257\252\305\221~\235\302\272\257*GQ\34s\230\301\35HG\207\251\372\215M)\243\21\35p\317B\360\33\330h\221\3w\345\206\346v\213\340G\221\240@\6\356\365G0\323`\366\312WJ\235\316\303r\321v(d\14r\353?\24?\200E\"<\265\345\257\262\347yQ\5(\336+\22"
	.ascii "9\210\12\2\330\356\330\362\356\212\362\6\5\356\236~k\355\367\22\"\365\303\315\247\317&&M4Cfq\316\276\353\354_\325_\202\332\"\255\324!(\204a\342\204{\347\212*\236Z\302*\330\340\36\\\202\15\354\265\300\202\21\310@\227\232s\323\335\22B\271\311\305\376\222\253\233\270Q\177\276\346\226\236`\34&2W\347*\32"
	.ascii "8\301\270\310"
	.ascii "1\36F\21\346\276\6\263\362\302\237(R\254=\361\277C@\17\20H\5y\210\242\12"
	.ascii "9\376(\265i\242\376{kj\316\24U:\366(\217A\206`L\273"
	.ascii "0~ c\10\207\306R\234\330O\361M\312\371"
	.ascii "3\261\23\11'Uv\271\32\263\332qy\312\32\306\346*3\256a?\202\14HI\372/oI\363\236\332\365^,\273\320\353\6uB\215"
	.ascii "4hsP\354"
	.ascii "6\250\266\11\307\30W\331\2\224\311\265\232\217%v\352_\13\340\4"
	.ascii "3\230F\252Q'C9\36"
	.ascii "5W3P\270\305\343DB\14:D'Y\313I7\17\346\215\230\360\377=\325\276\330\251\356\313\213\2\237UGG\11v\206!\332}\35g\315\352\253\243\251\372X\344\253\243\351@\4\177\230\243S\331Y\331\245\315H\301\265\326\313\351Z\326\335\243/\211\246vm_~a\303\206c\336\4\214\206\307\224\17\346\260\275\221\276\11\270"
	.ascii "6\17\242\31\376\262Ww\365\252\316"
	.ascii "6\202\243%\243j\333Q=\352M\365W\17\265\373\324!\234\354\270"
	.ascii "8\340\27AT/]\36\375\217\267\14\231\235r9\275\250\30,@&[\4\255{\16\306\236\3\340\305\316\361a\220\276\376\315\216/\30\240\13\30\217\370\33'N\346fg\345}\232_p\352\263/>\317\317\312\374\350\375\23\271\271\14>\201|)\347\313\2\236\223\3Yp\\W\220}2?q\277k6\373\33p\10\377\256"
	.text
	.section	.gnu.lto_.symbol_nodes.f438b987,"dr0"
	.ascii "x\234U\220\273N\2A\24\206\317\314\341gwY\320\25\264\25\244\262\263\361\11|\261\203\11!\206\2}\2A\274a\247\211\367\373\205\240\242bi\213T\26\274\202\304\335!\230\235i\376\371\276\314\371g2LD+\232\306K\237B\210"
	.ascii "6zD\"\264\331rI7!\352_4B\261\15\321\23Q)y\244w!\34?\241^ \211\261\240\322Z8\261\7\201"
	.ascii "5\261\17IND-\352lA\34K\34@\\K\234A\274\370%x\202nha}\10IY\17>\202\370\226\250C\322\361.\\\201\267\264\20.AQ\352sH\306\352\356 a\272O SVU\3"
	.ascii "2mU]@\231\252\7\300d\27\311 \214{8\6\357\340\232|\205\27\351[\244\14\336\300"
	.ascii "7y\215t\224\352\15\22\304>L\275Cf&\\\12\371\3\222\215\363'$\27\347\36d6\316\317\220\271\30\263\232\247\235\376hU1\347\251\335\37)v\26\250\374\35\11\247@;\225a=`\267@e\263\361=z\254~-r\332\243\301\361"
	.ascii "2g|\32T\206y\316\204\272\333Ir\246H\345Z\310\331\200\232\353\277"
	.ascii "5\346\\\221\332?K\234\313R\263:\314\323\37<\232\240?"
	.text
	.section	.gnu.lto_.refs.f438b987,"dr0"
	.ascii "x\234%\312\321\15\202@\24\5\321\373\346\202\11\13..\262\202\242\15\30\13\260'\33\265,I\234\237\363"
	.ascii "3\226\364\321\277\300\241"
	.ascii "0\215\242\265\325tJIiQz*\275"
	.ascii "9\222[\306\3\231\312\303#+=\203O*Y\345\245\362UL*\35gr\317<xfcB\373|a\361\312\225\33\325\333\356\235\252\37\22=\5<"
	.text
	.section	.gnu.lto_.decls.f438b987,"dr0"
	.ascii "x\234\245|\11\\\224\327\265\370\334\371\206}\200$\246\23k_\33k\32\333\244M\214\306\330\344mI\233j\323&/\315\322tI\373\36"
	.ascii "1\206$\266F-\242I\372\236/\37\373\276\312*\2\203\2\202\262\312\"\373\16\202\310\"\262\310&\303&\210\"\210\"\"\342\374\317\275\347~\314"
	.ascii "7,&}\177~\236"
	.ascii "9\337\271\337\271\347\234{\356\271\347\334o\276;\12\12\205\342\3S\205B\17\177^\257+\24C\26\12\205\15\264\375\6\0.\25\257\1\244\0\274C\24\212\337\3\274\11\327\371\0\5\0\373\201\376\265\2\377"
	.ascii "4\0^@G\3h\1N\2\234\0H\3\310\6(\4(\1\250\246"
	.ascii "2\0^\7h\0h\1\370\34\240\13`\6d\14\0\36\5\230\0\270\7`\251T(\254\241\375\347p\375%\300\243@\317\1\375\266\240P\334\0\334\17"
	.ascii "0\16\260\31\356=\1\260\1`\27\300'Da\364Gm3S\340\330\324\0?\5\372\35\1\355w 8\26\20\255\370\33`W\0\302\373,\376\243\343\263\346\376\221d\275\13r\374\271o\2\1\377V@\277\365\302u\4@(A\377Pqa\360!p9\3\334"
	.ascii "7\213\377\250\357,\226\321\21(\223\367\36\320\303\304X&\355\367\7\1\375G\333\377(\30\313\315^A.\265=p\5[\211by\33\351|>\14\270v\221\254\263\12\364\251$\363Q\36C\222\354\367\5\214\247Y\270\376\23\\_[4\206B>\357\23\313\350\244\361c\363\15tj\26\351\\\254G\311e-\247\203\306\247\355\"\37\375\31\372\227\362X\377)\227Omx\217\340\272"
	.ascii "0\3\370O\340yH\211\266P\371\257A\333\313\\g5\307"
	.ascii "4v\345\177o\362X\222\307\344\237yLR\371\232E:\376\13\356\331\1Tp_Q\371T\317\33|Lo\362\365\265\370\217\256"
	.ascii "5\313\25\364H\362\345\262%\373%\271\257\257 \227\256\337\307drS\270l*\367\35\256\203\312\377\200\32\13x\273\200yC\236G\266\301\365o\26\351\247c\377\20\256\225\240\\\5\327\257B\333}\231Mf\\\367\307\300\363W\301\220O\252y\276\240"
	.ascii "6\323\34\361\363E6\267,3\267\357\310\346V\303\355\247\372\245\234\360'\232O\200\347\273 \364"
	.ascii "1%\372\235\346\207\203\0_\361ym\341\370\355E\353\355s\276F\26\347\34\252G\232\343\275\202A\227\\\17\325\353\300}\322\304\347\233\352\374\33\327\253\344\362W\322\335\305\327\236\244[\212]\252\347"
	.ascii "5\231\177\337\341\372\37"
	.ascii "4G\377\3\327.\334/t>\276\340\363!\345J\23\256\217\372\376\0\237\223\317\211a\36\276\\4\17"
	.ascii "7\224$?\355V\203\325\250\222\330X\256\245dApm\204)\220jK\25%\213\22"
	.ascii "3M\4%\241\227\203eA\203V?9!\212\242\247XVK\14\22\234\22\13}\315\240\313k\226\214\354\213\232\215\267`$\255d\266\320\244\214\31>SlN,\327{\212\242"
	.ascii "3\375gQk\243 \211d\15"
	.ascii "9N\326(H*Y\317\372\222\23\320r\22Z\342A\307\344\211\333\341\217\211\242\212\244\20K\222D\4\222L~B\375B\31\351\37m\7e\241EG\202-\230\365\"3\262~\340\316M53\377!J6\370\367t\253\205\367\330\255\256\346\321\12\245\360\261\223\310\306\31\24w\351\260\225\360\31\247\312NO\247\233=u\\\324\212\223W\\jl\251\336\337h\310\251\5\265\13cu\35\37J\267D\306\244\4\367'9c&0f\221\247\344\214}C\316\367\254\205\4\302TO5\347\246\251\37\13\205a\211:'\361!B~mI~\262\206<\265\6\306\221K\36[\350\24]~=\307D8\305:)\223\343\262'\254\311z5\363\206\267\231+!\371DMN\23yxy\33\34J\5\31|\232\7>\5v.w\316\305\327Y\255\226"
	.ascii "3SQ\22\263\202\24,pv\371\273\34\261\21\32\321l\377\264\370\233\266\314\231\2%\357\352\213\356\232Xz\322Qp)jK\231\220bB\347\360GkH\21\220\300\236\321\327t\233<\22H\271\341c\255#\323\231\6\354\351\214\275\204<\"u\242\334^}^z\265\320\217\212\245\210\262\306\210:\324"
	.ascii "4\341,|9\3qg\316\204\224Q\1\320~\352XB.N\376+\224\214\17\15K1a\346\232SR\253k\16R\12\236\30\274\265'\243?\20\242\330\265j\342\374\275|k\262f\215\345\372\10\20y\347qR\13F\320\313\262Q\275\376+=\376\5\230\261f6Z]\220(\254V\360\31#u\340\332Z6\326"
	.ascii "30\230\32\36\257"
	.ascii "0H\25m&\325F\23\4\252\243\302\323&\270\333tA\236\17\24\4\334M\201'\346\314\215\246\352,\221{\271^\232*Usm\241\207\25Y\265n\375\272 \246\336Y|\305QA*\200\263\222F@#H?GV\341E\23YG\32\310:f\222\226\12\16\24\265J3&\214"
	.ascii "2\31\342\346GTG\"\325\204\243\12\2>d\251\202q-H\347\177"
	.ascii "2Q\333\226\225\364\364\32\364AJ\302\255 \13A\313\374/\244\226\234\375.Y\267j\275VR`\206\206\266@\367\5\363\15\335\227\35\335\5\30T\13\355D/\316\363\221\305\303\262\344\26SY\315\313XL\303d>\267\306z\25\227\252]V\252bA$\360\273\345\24\267*\215f\244U6N\5i[X<\316z\235\267\251\220\257\344I\245g\372|\233\251\324\321\363k\226h\306ls\260\315\242\325\302\362\334E\272N\244\325\331\25\330k%g\352X\206\251\246\266\255\212\30\331\333I\36\221\331\333\265\240"
	.ascii "3,\260\365\212\265\240\303\25\322\22*z\253\5w\201\21"
	.ascii "5\367\346JM\204\10\201\217\244\261\334\257[\305\262\236\310"
	.ascii "3^\357\222\324\250\254\274\336\24hCV\255g\236\205\277WX\211 :\30f\37"
	.ascii "8\354\22y\212^/L\324d\275\337us1\320U$\354v\17\10\274$K\241T\355\245\36\367(\365\23q\342\244Vt\12\213S\213\201w\364z36\232n\340\356\243\23\5\12\272q\301\1\177j\317h\217\362\340\234\30\1y\2FI\372\311\23\254\375\376L\326y\233mU\254}\233\232\14\220\203\30\22p\253\271\257.F\315RH\204\222\322"
	.ascii "7\222\332\236d)\344\11J\365\326\24\324\252\30\271\216\222\263C\375\311\246+'\300\21)\1^\306\245<\334qc\267a\262\10\313\16C\300=\314\270GY\376\33\221\362\337\365b?'39\367\331\7q\207\314\216U\333\30\315\361\25\243"
	.ascii "9\36[\230\343\204{Z\37S\241@\232\311c\211A\227m\37\357\27\242\305\210\265\264\17m\323O\226\16Kn\16\321\376@tfn\246\2\257\322\25d0\202\221\360A\256\221\307\331\312(\367\321\251\270\277A#\31\347\376\256<\327\336o\273%[\364\324>\304r\2\315>\203d\33\315@\344:9HY\306\203._\262a,\346l9\301z#\23d\13\233\305\321BwSf\316d\222[\275\20\24\242u\326\212z\375\313\204"
	.ascii "1\266\33-j$\341\203Lbg\367\272\274r\23n\22,Lr\203\233\24Z\23\365\34T\220\10^A\246\300\12fFC\366S\362\272\14\221-\325\345[\264.\223\367U\350\306\344\223\363g\214\27\325-\331ZV\220\351\5\207"
	.ascii "7%\366\4\250\5"
	.ascii "7\25[G\243\256!\203\266kc \361Oz{\210f\361\21b\25\214\204\11'\267y\241X\270\0~\317\332\306\32\2\346\323J\7\"\311\14Y\213v\36\235\212\261\220U\300;\334~?\337\362I5u#D\14-\250\244\234|\251 7\351"
	.ascii "\7e!\263puCi\221\353"
	.ascii "5\323mE\236X\37I\24\353V\255\332\266\376\340\202w\235\302\264\276\242\353\244\376\345\307i\177R\12\236\24\225\253de\272\224:\230"
	.ascii "6\337\5\7\323\222\240Ku\326\376`5\321\303\\\344 7\35\3\"\370\13'\354\232.\3'\345"
	.ascii "6,\21\272\24\377*U\355\213t\233A\12\271\206\305u\2%\4\211e\20\377e,\327/p\334\203\14B\273dC\6qV\256'\367!V\240MA/\24d\236\300\250\226\355Gy\277\246\37\346\4j\227\213\222'\5VD\234\2?`cbC\314\226\247\245\271\205\36s<\264\"g\316\325\330\262\24\262\232\222\207;\206o\11,g\260\204r\345L\326]\353\225s\206\273\222\347\14"
	.ascii "7%\313\31"
	.ascii "3\36~\245\246\362"
	.ascii "4\240\261$\256J\334S)\210\207\362\21\251\17en\257\276\257\263\20\"0\324\302c\32\252,\205"
	.ascii "8$\\\17\235\231\262\26\222\221\310(=\351\205\333\244\17X\12\10\250>o\11c7\314\24J\253\272"
	.ascii "88h&dc\237\225\266\\3n\223^\226ltjJ\346\224\15O\13B\237\212g\227\303a\316"
	.ascii "9|w\354m\6\33r\22\250\224m\206\250\16"
	.ascii "7w'\245"
	.ascii "0\310t(#B\375\323\255\227\26\214\20\230\252C\340\372 \345S\364\332P\331\351\16\213\336\10V\12\364\246\221\340\263m\36a\266\253\270$\355RI\13\214\251)W\247\255\214\26r\250R^\315\303\224\322BN\272\235"
	.ascii "8b)\214"
	.ascii "3[UQ\3\272cV\260iY\267d\327\22\251|\300\256Ed\21\351\3\23\30\0\363K\242\300\240H\352sz\21\241\\G\16+\227\354\311\250\1L\250\361\12\251\340{2\32\234l\207CY\302\301\275\13\322\15\316\310)lL3\343;\34Q\273\254\5\12#\365\320g(b\252\306\330/G\214\374\22\275\340\227\242\304\324\"K\301\313\204\317yq\366T\225\255\220m\302\302\346d\336H\235\205\320\313\10eG\307\211\353\26K\347\367(\230\20\247\304\15\301Q\345\262\33\2z[\253\\\272!\250\364\34x|\331\375@,0\307a\12\242\327\234}\360\372l\264Z\266\37"
	.ascii "8\246\304\25\333\231:^)\30\366\3\361J\303~\300\353\374\311`\201\255\225<\266|\263\312N\212J\26\357?d\22]\23|,\30\271\236=\327"
	.ascii "9y\4\332\256\274\270\223\245\305\235\204\213\273\265\246\270N\275xG\220\10Ss\234N\37"
	.ascii "9\301Vw\262\264\272\323r\203+\226\354\10V\344\36\210\230\351"
	.ascii "2~\304;\251\224\357\10R\26\346\317)\375\366\220\245"
	.ascii "0%\315\337Xb\341]\333\307\243M\331\216\0\372\260U\36s\344\212j\311\216\200\12L\245\21g0\202\221\360A\322\224lG0\230\325\221b\311=\16\32I:\367x\306\11qN\275hG\220\240\304\35A\206\362\340\203*w\320\370\315\36\251+\15I\32\267\231\312-4v\311)\354\232"
	.ascii "8\224v\204H;\206&\301\311\260c\240\35b\214\26\11\222\360A\262\224l\307\340|y\264\325\212\353\205 '\331\334\344\376\343\267C\255d[\206\34%\226\334\371\326\364\313&F\216\256"
	.ascii "5z@;\275\340\350\311\316\271|s\225\22\333\350N\202\26\13\217{\327\204\205\266<%k,n\361"
	.ascii "9C\26\32\363\261"
	.ascii "1\352\342X\221R\250"
	.ascii "6e\353\352\350\225\352\233\26\302"
	.ascii "9$\232\373\32\223\210\340f\306\210\254\356\213\351\202\340\313\210\325\363\355#\347Ud\335\301\203O\254\333\22I\210Z\275n\233j\355:\325\332\325\253\327\257ZuPMsW\231\256\376\236\253\252\254\\\240\305\204x\202\37Z\300GR\211\221?\377\341.\344\14XT\257\\+\221"
	.ascii "5@6R\222z[W\224Vf\342\351\":\335\323\353\5\266\177\360\343\362\14\373\7?\352n\332\\\5\356f\271\23\246\7\322\34+=-\313l\4@\263l?\343\257\204\255L.\375(\7\377\223"
	.ascii "2\370\10wZ\313:\372*\241\210\321\325UG\367\31\362\11iR\256\226MH\15N\210\234\241\331\210\341\14"
	.ascii "20\347\234;U\246*\253\22\350\27"
	.ascii "4^|,\313\345a\303\276\241UJ\36t\372\332\300;\5"
	.ascii "0}\260\341\313\320\345\273xx\20"
	.ascii "1\251\254L\257/\245\265\220*-F\231"
	.ascii "4M\375`\15)\241\276)a\351\212)o0(\367^V\271\17K\363\222\246<I\223\227A\23\354-\351\350\13\15z\236\200\231\245z\212\230\236"
	.ascii "0\303^\227\306\232\264\331\205>\360y\26\4\262n+p53\256\6\211\213\355\6\213\331n\360\2\230\232A\26t\266H\273A\371\276L\212\11\322\16\5\240\205\357\313\350u%\254\344R\200Z\200s\0\347\225\322\36\255Z\271ho\267 \343\374?&\303\260k\253\240\313[\36\13-Fe\256\15c\201\326#\210nQ\265\232\335\317X\274\13\244\255\364\1(\317\267\337\332(\27\224\30=\206u\240"
	.ascii "4\212\351\346\347|\367ISV[\264l\351\206\326\347\365\342^\352QJ\306\351/FZ\13\245\270\254\333\316\225;[`\362\7\311\270\17"
	.ascii "4\310\355V\32}wv\251p\252\322Dh\306\236\243\363\211\267\325B'\22-\247\342\373\4\241\37\211S\347\372\316[\13cH\254\264\13\254\361\13\277a&\334"
	.ascii "2{\340.\320\251\333\373e!\326\234W\220\7\224\323\243im\27\254\205\263\22g\225On\277\331\343\323\346\362Z3\337U\222e\213\311\233n\0 ;\304\363\7\22Zo\206\215\353\15#\341\203\\\306z\323:\355Vm&\253"
	.ascii "7#<yk\235\257\365\230/\252"
	.ascii "7C\274\336\214>\270\336\370f'\351\310\242zs\205\327\233"
	.ascii "1\354:\341\254\375\31/7\325\355\213\313\315\240q\271a$|\220\253Xn\256\366\6\346Z\310\312\315"
	.ascii "5n\361\265\346\356\"\23Y\271\31\347\345&4i\366\204\271\20m\201_a\317\245\231\13\355\354\372\333\305>uz\23\262N}\360\340\252Uk\327=\301\323\375:\225j\365\352u\353\17\256\337\262\226\245\224"
	.ascii "1CJ\351\5#\246W\310g\362\20\236"
	.ascii "6Z\20S\30\302\230\375\357\201\301"
	.ascii "3\206b0\7\244\227\260\326x\231_\204\241w\322\255\246\233\260\236\311\242K\224^\337\1\7\352\1n\0\270\12\353\310<`\17AZ\246w\27/\365\5"
	.ascii "9\36\377\270\34\226\25\243\335\344Y\321E\300\254"
	.ascii "8\275\220\25'\350\314LH\331W\324u\245\211&\360\220\312V\303R?\261\302\304\267\236Z5\337\21\321\325\336\317\335j(y\375T0m\366\24\266\260jEo\353\244ju\177q\265r\26\344\305hni\265r1b\270'\253V\327\14\263\333\267xv\321\226\247\215\253\225\273\300\327&\353~\345n\31\333\11@:!=\313F\7\356\4\224\30\7\254\264I\327\264\370\254P&`@\360\351$\250\230\37W\342ra\\\242\304\305\14\272j\30\317\245e\355\301\2\310\262s\27\313\316\224\245K\271\342"
	.ascii "3\372,]]\254Nu\263:u\233\263\363(\230\226\352\224l\307"
	.ascii "1@7\33\327\351\307M\272\343\270\5\37,\234\232\334\214\313"
	.ascii "9\235\266b\203((\347\223t\336'Y@\321VX\257sS\1G\224\202\227%>\240\237\277xZ%\4[\32\275\341\320\340\33\16\377\372\303\345\2#\365\354\321\251\373\270NTI/\314\214_?\4\300\22\240\275\210\257\260\206\370\11\374mYAg\306\337\235\341\11\313_\260$>\302\302\333"
	.ascii "2\215\345\302\263S\377\255\13\307\214\277\301\242\274\206\270\12\24\244}kMxT\233 \364"
	.ascii "2CM\235\356\325\264Z\223\365\260\177\\"
	.ascii "\7\1\314\236\323\222\252G^r\12\374\200\204\12\253\210\267\260\310\367\324\232\262$\361\250"
	.ascii "9<~\363\373\300GmA\244X\341K\236C0,*\220\256\362`\270\16\203\225\15m\264c\270\260\322"
	.ascii "7<\301_\323\11\202\252B\227|\306\373"
	.ascii "5\21\26"
	.ascii "6\14\220\4\241"
	.ascii "9\313\255m\272P\251\211\13\225p8\247\242\313"
	.ascii "\326\370\233\2A\236\31#\26\34"
	.ascii "6\233\347\37o\302\366\357\320\306"
	.ascii "7\372"
	.ascii "9\303\231'\255W\313b_\366\325\342a\26\372\221"
	.ascii "4\364\251F\340\356\353;\276Y\30\304\320h\213,\350\262\22&\221HM*\32\267Z\33#j\241:\216\277\343/j\235\312\356\353!F\250\14\22\265\340\\\5"
	.ascii "9\"\360o\23\243\205\265\320\357\314\351\372[\266\202\257\25\23\342\226\34"
	.ascii "3a-D\"1=\220\275\221\11\24A\32\321\352\365_1Y12Y\261\222,-\223u3'D\247\374\306C9w\275\336\331B\310Ae\325\355\272T3\241\2\211\212\246\274"
	.ascii "0|\314yS\362RJp\341!s\251)^`m!WB\333LY\333:K\222\200maCAz5k\203\324\220\210m\327sk\357\230\254\360R5I\240_\336\36\27\370\267\267\11\207\6}\325\302%4#\255irFE= \216:\5\253'\365z[\312N\222\245AK\27\264(\327\35\257\265\241\254\31\332\336#\342+\316\342}\372\240\23\7\356:*s\327"
	.ascii "1\332\201\234\240\205\220\234d\36\233)\36\17"
	.ascii "1\25n\242\276\20}\325e\245 \252\31\241M\313\214"
	.ascii "6a\22\231\373\313\250\373\251\274\24\231\274T\311\222"
	.ascii "4&\254\321\317"
	.ascii "7W\20\216\360\376\223\231\223\324\21$\235"
	.ascii "1A\313\305\371{Q\313\316\16\311\240\263\222\271d\202.\373\211\315DHBy9'\273\247\254\205,$\304\210\253\203\302Z\226\355\256\207\275T\346,\302s\235\213"
	.ascii "9\223AN\311\14\314\222\14\314f\6.\265\251$\257\356m6[\364\321\30g\272\376\276o\235a\215\344\342\24^,N=.\310m\247\374h|\16\265"
	.ascii "8\217\31\177Zf|rU\326\254J\350F{'\353<\234\315\204\1$\234]]\212\4\26\330Z\237J!I\244e\237\12 \371"
	.ascii "2\313\13$\313\13\231\345\321"
	.ascii "3\227\206\325\202\233"
	.ascii "5\23p\247k\270\336R\360E\242?\\\33h\213\322b\215\244\25\311\244\25K\322J\230\264\236\242\324c\346\326>\262\204A\353\235!a\224\12\326<\256\306n\36\273\251b\316\200"
	.ascii "6\356\240\206\353\351\236J\225\364lW\206\16\322\205y;\221\25\226^\5sN\271\300\237\306\250\13"
	.ascii "2\302\377MH\307\1\304\372W\246\330\10\205H8\17z}\217\316\353\344d\222\333\315\347h\26q\306,\2"
	.ascii "2H\245 =\267)H\25\214\210}\300u\365\12\223\273\334\327\32\271W{F\225\322\372<\203\266\273\266\327uX,\360\325\362\306\371\313\351F\213"
	.ascii "6ea\306k\350H\316\262\205['-\334\234I\337K6\302\264"
	.ascii "5\177~\230\361+w\267\21\234l\330\240\202\317\26\314Y\260\245"
	.ascii "4Y\337P\263\336_\324\211\"\216\12\204\220zCa\"\347\244yj\300Y\317\322\266`(N\31<\235\356s\334\317r\5O71O7J[\25\312\235Z1c\"\34GC\256\235(\254"
	.ascii "2\23\262\220\230J;\355e\316}]]\260Q\346k\220B\232\5i\303\0\217\260\324\327\347\321\327-\377W_\267.\347\353"
	.ascii "6l\314\355"
	.ascii "9}n\331\4I.\320\241t0W\267K\256\36Is\362\262\25\306m\270\253\373\342\322\303\325\302\254\15?:38\244\344\256N\365yR\346j\20B.\312\\\335)\271\272k\205\21\335\270{\365$Z\237\262\220\33R+tUDn\350\233|\233H\272\251\241\275\314\320\36\311\320\346\224\360(\33!\326\226\33Zry*\302VH\220\310\322\262\266I\376\12\242s^\367\205\13\354\211`&\341!x\361\1\35\277\231\300<s\241\312\26"
	.ascii "3\337\310\351\0\366\236N\324E\27\274T\341D3\237\300"
	.ascii "4\223K\320U'\340\350\372\245\321\15\254"
	.ascii "0\272eJ\234\266\373\336}\263\345\336"
	.ascii "1\222A:\270a6\270!ip\371\305\207*TB\227"
	.ascii "4\232\310\263\245\205*\241\17\215Ll\217\17\267B#c\363\14F\202\4rYf\344\210d\344\350?0\5\301\245\272yA2|\14\343'\364\222\266\333j\331i\271B-\277\306,\277*Y~9>6\337L\230\226,\317\364\355(\266\22f\321\362\236\366\321[\26hy\261\314\275 \201\214\313,\277.Y>\301,\237h\270Y`.\4<\304D\214W7\336\241_\226<j)J\177\344+Z\332c\272\333\255Y;?\270\243\377\212n\240\347\263\265Wlp\3\315\16\217<\354\224\371O\262\203\36\267`\263\370(\335D\337\200M\364\224l\23\255\256\23\341\321\341&\354\214'\15\273\350G\15\273\350o\346\315\312\342\373"
	.ascii "7M\26\12\340mtgeT\331\20&\375m\360\24\215m\223\363\275\242\271\334\305T3\372x\232\372x\226\371\370\216\344\343\341\362\334\0\23!\342!\356\343+mMc\260"
	.ascii "3@\7]\316\217(@\37C\340k\35F\234\2}E\235^\377"
	.ascii "8\23B\356\312\334<'\271\371\36ss[{n\256\215\220\203R\212\343+'-\204R$\206s\375\2\350N\214\334\227\6\353Q\36\351A\7F\346i\362\322\343 F\246\372+1\371\324\23)\352\335N\204\237V-\237\347E\25\14\314YE\7\346\244\342\3\363\363\276\342\245\24\316H\3K\357\363<d#4Jd\215sv\217\245\320\216F\371W\15\37&B7\22A\3\263-T5qWI\333\241\342\323\376V\264\305\15Z\210\207\212Y\323\347\335\324L\323(q\245\215\236\330\330\35\37\353\312\226S\340d\355\241\374\277\16Q\207\15\200\303\\\304\220g\250}\304E\305#\200xQ\223]T\334m\336*\352\266\321\224\376\323\226\354\333<O&.\376f|\12\276\32\372\31%\245\263ij<\233\26\353Z\234\361\200"
	.ascii "7E\376*\376\246\310O\305\336\24\325y\264tZ.~S\344\243ZC|U\224=@\365\210\324\211\355\\\372\313\243L\26\277)Z\221\333\267\314\307\315T8\366"
	.ascii "0>\15dVf\13\302)$|\7K\234\314\37\277\360"
	.ascii "0\373z.P\305\276\236k\252=\237n\375D\234\330\254\235L\32\276\364-'Q[\345\4\311\377e\330\7\3\7\11R\261\334/\323\26L\335D\16\251 \360BTO\320\11\213\272"
	.ascii "7f%\204>\302T\204"
	.ascii "5\25oXo8\321\250\261$\241\252E\347\345&{&\343\314-\371\223\257\374\274\\\230j\321\223/\335 \25\234\213"
	.ascii "5\307\363\237\354\300g\341\271\344t|_'\262\367w\322\203\265\32\37\254I\254oR\330\3^\307GI\363p\30\347\341F\232\330\245Z\364:>\2\206\32\311\206z\204"
	.ascii "96Jr\354\341\306\346\31\243\327{\341\252\7p\213\275\256Z\225p\14\335r/\254\260\212\10)H\\\270\337XI\330\227\1_\261\355\305\205\250\2<\322j\302"
	.ascii "2\265[^\236\15#M\331\226\350\230\356*a\244\31\13\377\332\360\27\30e\301\226\325\335\33\15\310k\311\26j`R:J\262b\202Oik\314\31i\315"
	.ascii "2v\\\367\14\272\312\206I\322"
	.ascii "9\237\265b\244-\213\261\201\251\6\274\373"
	.ascii "0%=\307#\3\360.\213\222\310\372p\256\210m\217J#'bQ\321\267(\331[^\331e\306H\15\253\6\315m'\221\371"
	.ascii "1\326\227\237\237P\343\371\211\241\344 =*\372"
	.ascii "6%\357g\226\316\240(6!gg\7G\360\214\347w\330*+\32\235\306\276\377D\311\250\330\216\353\326\214\374.%\3\16\315ga0|\217\222E\1\1\325h\6\373\356X:\370\254\306\203\317-7C\222\220\374>%\343\6\317\326#\371\3J\216N\246\347\342\261\350')\231"
	.ascii "4\320\30\214\212~\304"
	.ascii "6}\245\35"
	.ascii "=xN\354)J\336\352\310\216A\275O3Q\205\215\245\350\347\37\263\1\16\302\206\205M\357\277\263\275USf?z\343'\254\300\14\216\264\341\210\236\241d{O\272'\352}\226\222\235WN\17\242\344\15LTS[\11~\213\364"
	.ascii "2Ks3}\25"
	.ascii "8\300\347(\251\317\355\350\307"
	.ascii "8\332\314\234\223VX\202\222"
	.ascii "7\262\225"
	.ascii "1?\356j\316\356\276@\311\343\247\207\332"
	.ascii "1\216"
	.ascii "6\261u46\337f\311\356\262o\255\247\273\263\272q\26\236g\261{7\214\235(\321X\376T\256H\215\212\234\312R/\240U/\312\25\251Q\321\345\224\261z\264\352%\271\"5*\312O\354,T\261\273\377,W\244FE\303\221\323\35\370"
	.ascii "5\331\277\310\25\251Q\321\35\361N-\216\350_\345\212\324\250H\237Y\321\213z\377M\256H\215\212$\311j\224,\211R\243(\251\257\32\373J3\250\306\31\224fA\215\263p',3\17}\365sJ\236\211\36=\205#b\213\373~UQ\15\306\325\253,g\360\323B\32<-t\"\317{\16\365\376\202\271\216\37\300\326\340\1\354\242\350\314r\14\376\255\224\224\216\352k\360\250~\327\325\350\213xw\233<mh0m\214\270z_\307\1\376R\236E4\230E\362"
	.ascii "3\3g1\10_\223'\25\15&\225\321\271\322u\354\346\257X\241\343\307\254"
	.ascii "5x\314:\262u\324\37\5\377Z\226\200"
	.ascii "4\230\200F\313]\334"
	.ascii "0|_\227\347#\15\346\243R\267\240f\234\203"
	.ascii "7\344\351I\203\351\251\265}\270\17=\365\37\314&~\362H\203'\217\6\316\316"
	.ascii "7\341\335"
	.ascii "7\345\271L\203\271\254\"\260?\6\365\376F\236\332"
	.ascii "4\230\332FJ\256\361C\35o\311"
	.ascii "3\235\6"
	.ascii "3]\316\271\352\22\234\354\267))\375\242@\203\277((<\346q\12#\362\35yZ\324`Z\14N*\273\215\222\337\225gI\15f\311N\377\324\21\214\365\337\312\223\246\6\223f\320\304\335\12\34\321{\224\224\336\16j\360\355\340\355\344\33=8\273\277\223gX\15f\330\13\371yq\250\367\367\362\204\253\301\204\353Y\24\222\210"
	.ascii "6\377A\236\177"
	.ascii "5\230\177\365#\332R\234\373?\312\323\261\6\323qDA\272"
	.ascii "7\6\367\373\362\354\254\301\354|-\271\375\36\316\340\237(\31\36"
	.ascii "26\210C\370"
	.ascii "3%}\346\343{q\235\374'%\347\246\346\253\320\214\377b\245{\260T\217\314v\224\224N\251\251\361\224Zg\311l\23\256\204\355\362"
	.ascii "2\240\301"
	.ascii "2\240\323\225\214c\337\17\345UA\203U!\274\252\275\14gp\207\274Hh\260H\14V\207^D\253>\222\327\14\15\326\214\303\325sY\250\327^^B4XB\334\347N\306c\260\177,\257(\32\254(A\315\25\334\223\237\310\13\214\6\13LT`K$\346\205O\345\365F\203\365&\251\244r\16%\357d3\310O\36k\360\344\361\210\227O\1Z\365\27J\362S\312\32<\245\\Q\334o\307\356\375U^\270"
	.ascii "4X\270<f\223\206\321\27\273\344uL\203ul|6\304\27}\361\31s\15?\336\244\301\343M~1\35]\30\257\273))\235\205\322\340Y\250\266\33a<G\356\221\227D\15\226\304X\377S\263\270\2\367\312+\244\6+\344\311\341\311Q\324\373"
	.ascii "7y\301\324`\301\364"
	.ascii "9\22_\206\236r\220\327O\15\326O\217\340\361h\234\373}\362\372\251\301\372\351"
	.ascii "6\326p\25\373:\312\313\251\6\313\351L[\361w\331\315\375\362\342\252\301\342Zq\273:\7M> \257\265\32\254\265b\251>\27'\350sy\255\325`\255\315l\33\355@W}!\257\265\32\254\265\327\22\217\17\241Q_\312k\255\6k\355\360\251\356S(\371\357\362Z\253\301Z;8\327\304\327\324\177"
	.ascii "3\257O\\,AE\377\303<\327r\364MF\261\27\323\247\233\13FpJ\376\227e\5\276\221T\343FR\372\255\224\232\377V*\331#\320\17E91z\366H\267?\216\337\231\321\215^Z\276\361tat^O\324\14\336w\305G\362z\275\33jsC\376\334\262~\274\357\316\350\210\373^]8\311\36\214\316.\315\232By\236\370#\203\324\214|\344\367\302';w\367\365\214\364\306\247\317\364\321\26\314x>\214>\253?\344\204\264/~\257\336Py\11\273\373"
	.ascii "1z\340v\371k\214\364Gi\36\256\275\350\267\0<\375P\35"
	.ascii "3\201^\16d\264~2i\36\255\17btwb\235\23n\351\202\31\235\333\327\307w\270\207p\364\215GK\220\16\301G\317\311\271itn(\26v_}?\216"
	.ascii "6\214\321\235\307\216d\241\274pF\27\352\246"
	.ascii "20\221F0\332+\"8\21\275\37\311\350\204\276\246\243h\337a\374f\336?\275\17\371\243\30\35\237}\345*\312?\202t{\361"
	.ascii "5L\371\321\214\216n\315lD\373b\30=\24\244\273\215\343\213e\264t\372D\315O\237\324\214\366\215c\377"
	.ascii "8F\367\305\246\360(<\312\350\314\351\201Q\264\357\30\372\243\264\340"
	.ascii "2\216"
	.ascii "7\236\321\267\343R\302\361~\2~\377\220Z\372"
	.ascii "0#\23q\262/\264\26\"\373q4\267>0\22\351$|\360\314\252\256Cs\223\31=#\366\265\240y'\220\316I\35A\363N2\372D\377\255s\350\216\24|1V\235\35\202\346\246"
	.ascii "2\332\373j_=V\242"
	.ascii "4F\227\205\336\210G\363\322\361{\331\274\200(\314\315\31\214N\11\14\34\307\376\231\214>}\325\245\37\27\307)<\372r\243\245\17\351,F{t\353\223\321\235\331\350\356P\347q\244s\30]\357u\351"
	.ascii "8\332\233\213\374%\356\201\250\377"
	.ascii "4\362\247O\337Ayy\270\330\264\311\374A&\237\321\307\223Bz\321\376\2F\337\232\251\343\341Z\310\350\312\321\333\321h\177\21\206\357|5\227W\214\374\307\322\363Q\177\11\243\313\203&20\374J\31}\316'6\22\357\227\341j\271\342~\6\347\243\34O\356\266'\336\305\305Y\201t\333\235"
	.ascii "6\344\257\304\7\347"
	.ascii "3Ug\220\256\302cF\351e!ho5\236"
	.ascii "4*\30\273\211\366\325"
	.ascii "0z, \247\27\347\363\14\243\323\233\342\346"
	.ascii "0|k\361\225D\300<\377\235i\35\362\27f\215 }\26\227\323\351\243\27\321\277\365\270\332]\6\346p<\347\360\315\242\253\270\232\221\15\214\234\237<\332\212\303i\304pi\271>\211\342\232\320\335\207jO\342\360\232\31\335\232y\231\253?\217\323"
	.ascii "7[\334\211\323\325\202\323\325"
	.ascii "3\235\201\356\275\200\346d\25\361\207\305VF\307\314w4\240ym\214.\11\12\345\217\"\355\214n\16\216\12D\371\35\230]\274\202\\\320=\27q\365\24f\326\340\375N\314\305^\376wP^\27\206\363\244{\13\312\353\306oP{[\356 \335\303h\317\334\323"
	.ascii "18\236^\344w\317\274\210\367/a8;u\37\305\373}\230}\356\344\36G\375:\14\237\222\261j\234\216~\374\206\177\262\251\15\247s\200\321ue\315"
	.ascii "1h\317 \206\327\221x'\354?\304\350\273\367\257\327c\377aF\37\316\360\377_F^f\344\231\201\336\247\30"
	.ascii "9\302H\367\16w\376t5\212\336\17\232\307\7\212+\250,\375F3:{\14s\307L\177\10\16\346*\32\27Z7\201\261w\15\13\317\305\36o\234\254qLe#\305\11h\354uF\273vx6a\377\11F7D\352\262\321\370IL\215\235~\236h\316\15\234\274\230\232K\30[S\214\16\214\232(D\376\233\214>\37\234t\25\357\337\302`Hh\214G\347Nc\251iI8\214\301w\33\371#rr0Xf0\325\273\306\17!}\7K\321|\306!\244g\31\335Vu\270\11\307s\227\321\342\255;<\265\317"
	.ascii "1"
	.ascii "\372Nu\14/\314\367p\262s\317\361\334"
	.ascii "7\217k19.\14\373\337G\357\207z\373\340\21\266\262\327H\264\352\21\372\205\226V\305\276|\245\310M\211\270\210 >\316q\234\12\361Q\216\217q\\\311\357\307s:\201\343D\216\3\270\274\343\234N\342"
	.ascii "8\231\343t\336\377\4\247Or\234\302q'\357\237\312\351"
	.ascii "4"
	.ascii "\251\37\307\31\34gr|\212\343,\216\263"
	.ascii "9\316\341"
	.ascii "8\227\343\323\34\347q\234\317\361en\317"
	.ascii "0\307\5\274\275P\262_\32\217\344'\336^\314q\11\307\245\0e\0\345\234\256\220\374\305q\25@5@\15\300\31\200Z\200:\200\263\0\365\0\347\0\32\0\32\1\232\0\232\1\316\3\264\0\\\0h\5h\3h\7\350\0\270H}\5\320\305\345ws\334\303q/\307\227"
	.ascii "8\356\343\330\217c_\12\302\32\242\3\334\17"
	.ascii "0\0"
	.ascii "0\10"
	.ascii "0D}A\375\2"
	.ascii "0\2"
	.ascii "0\12p\5`\14\340*\300"
	.ascii "5\200q\200\353\0\23\0\223\0"
	.ascii "7\0\246\0n\2\334\2\230\6\270\15"
	.ascii "0\3p\7`\26\340.\300\34\300=\200y\200\373\0z\0\321d\15q\2p\6p\1p\5p\3p\7\360\0\360\4\360\2\360\6\360\1\360\5\360\3\360\7\10\0\10\4\10\2\10"
	.ascii "6\301q\35\342"
	.ascii "8\204\343P\216\303"
	.ascii "8\16\347"
	.ascii "8\2p$\300a\200(\200#\0\321\0"
	.ascii "1\0\261\224\7 \16\340(\300"
	.ascii "1\200x\200\4\200D\200\343\0I\0\311\0'\0N\2\244\0\244\2\244\1\244\3d\0d\2\234\2\310\2\310\6\310\1\310\5"
	.ascii "8\15\220\7\220\17P\0P\10P\4P\14P\2P\12P\6P\16P\1P\11P\5P\15P\3p\6\240\26\240\16\340,@=\300"
	.ascii "9>\256\6\216\33"
	.ascii "9n\342\270\231\343\363\34\267p|\201\343V\216\333"
	.ascii "8n\347\270\203\343\213\34wr\334\305q7\307=\34\367r|\211\343>\216u\34\367s<\300\361 \307C\34\17s|\231\343\21\216G9\276\302\361\30\307W9\276\306\361"
	.ascii "8\307\327"
	.ascii "9\236\340x\222\343\33\34Oq|\223\343[\34Os|\233\343\31\216\357p<\313\361]\216\347"
	.ascii "8\276\307\361<\307\367"
	.ascii "9\326s,\232\"v\342\330\231c\27\216]9v\343\330\235c\17\216=9\366\342\330\233c\37\216}9\366\343\330\237\343\0\216\3"
	.ascii "9\16\342"
	.ascii "8\230\343C\34\207p\34\312q\30\307\341\34Gp\34\311\361a\216\243"
	.ascii "8>\302q4\307"
	.ascii "1\34\307r\254\345"
	.ascii "8\216\343\243\34\37\343"
	.ascii "8\236\343\4\216\23"
	.ascii "9>\316q\22\307\311\34\237\340\370$\307)\34\247r\234\306q:\307\31\34gr|\212\343,\216\263"
	.ascii "9\316\341"
	.ascii "8\227\343\323\34\347q\234\317q\1\307\205\34\27q\\\314q\11\307\245\34\227q\\\316q\5\307\225\34Wq\\\315q\15\307g8\256\345\270\216\343\263\34\327s|\216\343\6\216\33"
	.ascii "9n\222\346K\305"
	.ascii "0{\372I\360v6\347o\361\22\356\177pH\24\253\"DQ\367\262\376e\266?\210\341o\361\14/\253b\331[\274f\323-\12r\336\224\275\305\13\213~\306\350\377"
	.ascii "2X\366\230"
	.ascii "8i1\245\277t\360\253>s\301\370\177>X\366\350$\271\300\270\333/\305\214\312~z\370\32;va`n5E\346V\306\254\255\326\276'\347\35"
	.ascii "6\342m\343\274m\214\327\263v\320U)\324<\302_#'\334*I\260\22\232\361%[Mi\230\13;\210\267\314/\263\333M\27~`J:L\371[\337\213\246k\241\333\304|\340e\253\357\307\322\27\230\365\251\341?\24E\25\36\372C\236N\323\357\323G\235\326\266B\33\271\215\263F6vq\33\273\230\215\303e\35\1\246r\346kF\314\335\234\271\233"
	.ascii "1\27"
	.ascii "7\345\344\233\33\371u\331_\257\220\36\306\335\177\265\267\314\370\0+}ck\340\356\345\262{\31wNk\345\242\363\301\25F\347\316/q\356K\214{4#\356\230\361\317\15\215\317\272\365q\356>\306\335\340\357~\331\314\210[4\262[\307\271u\214;a\266\363\333F\203\\\236\271\237"
	.ascii "1\17\364\34\31\264"
	.ascii "4\22M_\335\33\270\7"
	.ascii "8\367\0\343\216r\277(Z-\34\262{\37\337\233\364\34\356\264Z\341\344\327\220)=\371"
	.ascii "5hj8c\247M\14\271\256\24t\30D9\335\272\31%;09\231"
	.ascii "4\334\244\244\207\275*\350\271\250\12%\355\311\316\324J'\353\206M\5\374\200\353\313,\224\302\335\302\32\254\231-0\"n\213OmX\245\355\12\266\214"
	.ascii "2[F\250-\"\332\222|k\270l\245\203\271K\271G:\273\316\253\4\337U\374\333\232\374R\264\\\227\322\350\242J*k\246\307\332\277O\256\230\342\261b\376{~2F\315\36C\263\257"
	.ascii "2\263\247B}\26\375P8\332(\252\256q\207_c\16O,\33\255W\12\331L\251\312%\346\276(\220\365k,\326\30N\0L\232Z\220qS\371\21\0zv\37Z\25\36\354\4\200S\340C\177[8\1p\335t=\273\245 \23\220\343n\230\256a\377m\17\262\323\17j\336\260\307\264q<4\31\205\361\24"
	.ascii "7o\212\231\327\35{\342\250\371\302Q@\234\203)\327\226h\365\12^\275\305\274z\323\324p\22"
	.ascii "0\263\177\326\317Z\310G\257\266\244{\224J\361\220\320a\24\17\267x<H\247\377\246\251c\247\321\261\267M\327*L\367\355\374\273\275\235\243\371/\337|o\355\253?\376\261\342\347\257\376\363\206\267\35\341\337\13\317\276\360\354s\33~\273g\317\256}\33>\333\271\373\223\317"
	.ascii "7\277\264\311\356\371M\33vnyq\313"
	.ascii "3\237o\331\374\14k\244\15\273w\354\332\377\221\375\6;\326\360\354\247\212\207\354\354>\334\276\317~\313f;\373\335;\366|d\357`\272c\347\336O\355\35\204}\216\177\375\36^\376\371\331\15\317\302\277\15\216;?\263\337\0\315v\364\2\272>\312o\323&\224\1\215j;\20\375\231\275\35\223ekgw\300\361\303]v{\35\35\354\34\277\334ko\365\257\37\356\337\271\313\361\231\235\273\377]\361\210\335\1h~V\316\276\336\356\375\337\376\356\315\347A\336\26\24\275q\223\374\366\257\336\332\361\356&\273\255[\37\261c\302\354v\356\376x\217\335\336}\366\373?\332\243\332\361\351v\207\325vv;vm\337\267o\311]*\367W_/\367I\246~\343s \346\213/\266\177\270\363\300\306\215?]\"r\353\303K\232,\15\35"
	.ascii "4K]\262c\357^\5"
	.ascii "5\340\335\257"
	.ascii "7\340\211\257g\1\267\201\262\355v{\367;\330\333\35\330\351\340\270\177\373.\363\235\216\373^\335\357\340\360\274\31\\<\377\206\375nK\300o\354\334m\377\326\236}O/q\351\226\305\23.\211\206\31\377\310baP\337\261\263\333\267s\5\177>\275\304\237+\12\375\321\22\237nzn9\311[\37]\256\365\351%~[Q\321\17\277\31\233\302t\33\4\240\275\303\213v\357\177\243\16[\220}+\\\343?\350\277{\347\276O7}\363\376\224\235\366"
	.ascii "7\254\264\217\354\31\213"
	.ascii "4o\233\351\274m\206y\243\15[w\177d\377\221\5\275ppxs\377g\17\232?.F\32\332\203fe\31\326\225\374\272\210u%\277.bS\254\354Pc\316%\16]\331\223K:J\236"
	.ascii "4\227X\314\366\357\334\355\370\242\235\343\377=\17B\314\203\10\310[&{\34@\227\32%\333\355p\334\343\260\366;\306\226\275(i}u\323\326\3\300\270c\317g{\277\206q#cd\22?z\20\343/@\",\200O\276\370\302n\257\275\303\276=\273\267\357\332\351\370\245\335\201\347$5\17\356\15j\254`\371"
	.ascii "8~\264c\373\256]vv\226\340(\307\235 \342\357\366?\\\241\313\306\347\14<[\17\274\262\331\24\243v\335\12\354[\360\366\326\35\257\274h\212\263\262\"'\336\246\234V[Y'\226\231^\372\206\313e\343FY\247\255\357@\223\25\315\354\233\220\371\311ER6\312\356m}k\307\316w7\332\275\262q\223\325/\354%\21\233W\326k\34\\\33"
	.ascii "7\312:\241^"
	.ascii "\344\333DU,\321+\273g\320k\2\316\337\263C\370\314\376\263"
	.ascii "5\362\272\11"
	.ascii "4+\232\200!\314\276\305E=\17\344\13\254\303\326\277\274\262Y\365\261\203\275\275\374\326f\332\260\365-\230\31\301a\217\203\374\316\363@\303\215\277\274\362\242"
	.ascii "9\4\356g\333\277\260s\24v|\12\265O\306\2\364\326\267^?\260\343/`\225\5D\20\214\25\302\302l\367\236\335\273\367\357\332e\272\317\321a\227\375n \35?u\330\363\271j\227\375\366\217U\264\236\374\377\254\"\7h\201\341\331\354X\210}\360\346\276\265\306\216{c\343f\343\373[\177\366\263\237\277\372\213\255\333~\371\332\257~\375\372\33\377\361\346o\336z\373\235w\177\373\336\357~\377\207?\276\277\375C\260\373\343O>\335\371\227\277\356\372l\367\236\275\177s\330\347\270\377\300\347_|\371\367\347"
	.ascii "6nz~\363\13[~\372\342K?\336\240\260\336\277{\337\316Ov\333\177\264\226\316\206\371\216_A\376\374b\313\346o/\322\374\242tc\253\5d\37\260\177\273\243\275\255\335\373\357:\276\264@\36\370\361"
	.ascii "7\14R\272\254\27-\254e\213"
	.ascii "5\315\23\252\17\301\213+\13"
	.ascii "6\216B*\370\377\1a\272\302:"
	.text
	.section	.gnu.lto_.symtab.f438b987,"dr0"
	.ascii "__ZN3stk6cipher16__base64_decoderIPcS2_E6FinishES2_\0_ZN3stk6cipher16__base64_decoderIPcS2_E6FinishES2_\0\0\0\0\0\0\0\0\0\0\0\211\1\0\0__ZN3stk6cipher8__base64C2Ev\0\0\0\0\0\0\0\0\0\0\0\0\235\1\0\0__ZN3stk6cipher8__base64C1Ev\0\0\0\0\0\0\0\0\0\0\0\0\240\1\0\0__ZN3stk6cipher8__base64D2Ev\0\0\0\0\0\0\0\0\0\0\0\0\253\1\0\0__ZN3stk6cipher8__base64D1Ev\0\0\0\0\0\0\0\0\0\0\0\0\256\1\0\0__ZN3stk6cipher8__base6410initializeEv@4\0\0\0\0\0\0\0\0\0\0\0\0\264\1\0\0__ZN3stk6cipher8__base646encodeEc@8\0\0\0\0\0\0\0\0\0\0\0\0\273\1\0\0__ZN3stk6cipher8__base646decodeEc@8\0\0\0\0\0\0\0\0\0\0\0\0\276\1\0\0__ZN3stk6cipher16__base64_encoderIPcS2_E11EncodeCurr3ERS2_\0_ZN3stk6cipher16__base64_encoderIPcS2_E11EncodeCurr3ERS2_\0\0\0\0\0\0\0\0\0\0\0\305\1\0\0__ZN3stk6cipher16__base64_encoderIPcS2_E6FilterES2_S2_S2_\0_ZN3stk6cipher16__base64_encoderIPcS2_E6FilterES2_S2_S2_\0\0\0\0\0\0\0\0\0\0\0N\1\0\0__ZN3stk6cipher16__base64_encoderIPcS2_E6FinishES2_\0_ZN3stk6cipher16__base64_encoderIPcS2_E6FinishES2_\0\0\0\0\0\0\0\0\0\0\0K\1\0\0__ZN3stk6cipher11char2base64EPciS1_@12\0\0\0\0\0\0\0\0\0\0\0\0\315\1\0\0__ZTVN3stk6cipher12__mime_coderIPcS2_EE\0_ZTVN3stk6cipher12__mime_coderIPcS2_EE\0\0\0\0\0\0\0\0\0\0\0\373\0\0\0__ZTVN3stk6cipher16__base64_encoderIPcS2_EE\0_"
	.ascii "ZTVN3stk6cipher16__base64_encoderIPcS2_EE\0\0\0\0\0\0\0\0\0\0\0B\1\0\0__ZN3stk6cipher16__base64_decoderIPcS2_E11DecodeCurr4ERS2_\0_ZN3stk6cipher16__base64_decoderIPcS2_E11DecodeCurr4ERS2_\0\0\0\0\0\0\0\0\0\0\0\322\1\0\0__ZN3stk6cipher16__base64_decoderIPcS2_E6FilterES2_S2_S2_\0_ZN3stk6cipher16__base64_decoderIPcS2_E6FilterES2_S2_S2_\0\0\0\0\0\0\0\0\0\0\0w\1\0\0__ZN3stk6cipher11base642charEPciS1_@12\0\0\0\0\0\0\0\0\0\0\0\0\332\1\0\0__ZTVN3stk6cipher16__base64_decoderIPcS2_EE\0_ZTVN3stk6cipher16__base64_decoderIPcS2_EE\0\0\0\0\0\0\0\0\0\0\0y\1\0\0__ZTIN3stk6cipher12__mime_coderIPcS2_EE\0_ZTIN3stk6cipher12__mime_coderIPcS2_EE\0\0\0\0\0\0\0\0\0\0\0\361\0\0\0__ZTSN3stk6cipher12__mime_coderIPcS2_EE\0_ZTSN3stk6cipher12__mime_coderIPcS2_EE\0\0\0\0\0\0\0\0\0\0\0\355\0\0\0__ZTIN3stk6cipher16__base64_encoderIPcS2_EE\0_ZTIN3stk6cipher16__base64_encoderIPcS2_EE\0\0\0\0\0\0\0\0\0\0\0"
	.ascii "4\1\0\0__ZTSN3stk6cipher16__base64_encoderIPcS2_EE\0_ZTSN3stk6cipher16__base64_encoderIPcS2_EE\0\0\0\0\0\0\0\0\0\0\0/\1\0\0__ZTIN3stk6cipher16__base64_decoderIPcS2_EE\0_ZTIN3stk6cipher16__base64_decoderIPcS2_EE\0\0\0\0\0\0\0\0\0\0\0l\1\0\0__ZTSN3stk6cipher16__base64_decoderIPcS2_EE\0_ZTSN3stk6cipher16__base64_decoderIPcS2_EE\0\0\0\0\0\0\0\0\0\0\0g\1\0\0___gxx_personality_v0\0\0\2\0\0\0\0\0\0\0\0\0\252\1\0\0__ZTVN10__cxxabiv117__class_type_infoE\0\0\2\0\0\0\0\0\0\0\0\0\341\0\0\0__ZTVN10__cxxabiv120__si_class_type_infoE\0\0\2\0\0\0\0\0\0\0\0\0#\1\0\0___cxa_pure_virtual\0\0\2\0\0\0\0\0\0\0\0\0\367\0\0\0__ZN3stk3mem5allocEj@4\0\0\2\0\0\0\0\0\0\0\0\0\342\1\0\0__ZN3stk3mem4freeEPv@4\0\0\2\0\0\0\0\0\0\0\0\0\350\1\0\0__ZN3stk3mem3rorEPvj@8\0\0\2\0\0\0\0\0\0\0\0\0\357\1\0\0__ZN3stk3mem3chrEPKvcj@12\0\0\2\0\0\0\0\0\0\0\0\0\374\1\0\0"
	.text
	.section	.gnu.lto_.opts,"dr0"
	.ascii "'-fno-trapv' '-dD' '-malign-double' '-momit-leaf-frame-pointer' '-m32' '-mfpmath=sse' '-mpreferred-stack-boundary=8' '-mmmx' '-msse' '-msse2' '-mthreads' '-mtune=generic' '-march=i686' '-g' '-g' '-O3' '-fno-use-linker-plugin' '-fverbose-asm' '-fstrict-aliasing' '-fwrapv' '-funroll-loops' '-flto' '-fexceptions'\0"
	.text
	.section	.text$_ZN3stk6cipher16__base64_decoderIPcS2_E6FinishES2_,"x"
	.linkonce discard
	.align 2
LCOLDB0:
LHOTB0:
	.align 2
	.p2align 4,,15
Ltext_cold0:
	.globl	__ZN3stk6cipher16__base64_decoderIPcS2_E6FinishES2_
	.def	__ZN3stk6cipher16__base64_decoderIPcS2_E6FinishES2_;	.scl	2;	.type	32;	.endef
__ZN3stk6cipher16__base64_decoderIPcS2_E6FinishES2_:
LFB733:
	.file 1 "cipher/stk_base64.h"
	.loc 1 167 0
	.cfi_startproc
LVL0:
	.loc 1 169 0
	movl	$0, 8(%ecx)	 #, this_3(D)->its4Len
	.loc 1 175 0
	movl	4(%esp), %eax	 # out,
	ret	$4	 #
	.cfi_endproc
LFE733:
LCOLDE0:
LHOTE0:
	.section	.text$_ZN3stk6cipher16__base64_decoderIPcS2_E6FilterES2_S2_S2_,"x"
	.linkonce discard
	.align 2
LCOLDB1:
LHOTB1:
	.align 2
	.p2align 4,,15
	.globl	__ZN3stk6cipher16__base64_decoderIPcS2_E6FilterES2_S2_S2_
	.def	__ZN3stk6cipher16__base64_decoderIPcS2_E6FilterES2_S2_S2_;	.scl	2;	.type	32;	.endef
__ZN3stk6cipher16__base64_decoderIPcS2_E6FilterES2_S2_S2_:
LFB732:
	.loc 1 141 0
	.cfi_startproc
LVL1:
	movl	8(%ecx), %edx	 # this_5(D)->its4Len, D.30318
	pushl	%ebp	 #
	.cfi_def_cfa_offset 8
	.cfi_offset 5, -8
LBB35:
	.loc 1 147 0
	movl	$0, 16(%ecx)	 #, this_5(D)->itsErrNum
LBE35:
	.loc 1 141 0
	pushl	%edi	 #
	.cfi_def_cfa_offset 12
	.cfi_offset 7, -12
	pushl	%esi	 #
	.cfi_def_cfa_offset 16
	.cfi_offset 6, -16
	pushl	%ebx	 #
	.cfi_def_cfa_offset 20
	.cfi_offset 3, -20
LBB43:
	.loc 1 150 0
	cmpl	$3, %edx	 #, D.30318
LBE43:
	.loc 1 141 0
	movl	20(%esp), %esi	 # out, out
	movl	24(%esp), %ebx	 # in_head, in_head
	movl	28(%esp), %edi	 # in_end, in_end
LBB44:
	.loc 1 150 0
	jg	L35	 #,
LVL2:
	.p2align 4,,10
L8:
	.loc 1 151 0
	cmpl	%edi, %ebx	 # in_end, in_head
	je	L30	 #,
LVL3:
L38:
	.loc 1 153 0
	movzbl	(%ebx), %ebp	 # *in_head_1,
	.loc 1 154 0
	cmpb	$127, __ZN3stk6cipherL8cIndex64E(%ebp)	 #, cIndex64
	.loc 1 153 0
	movl	%ebp, %eax	 #,
LVL4:
	.loc 1 154 0
	jne	L17	 #,
	cmpb	$61, %al	 #, c
	je	L17	 #,
	.loc 1 156 0
	cmpb	$10, %al	 #, c
	je	L7	 #,
	cmpb	$13, %al	 #, c
	je	L7	 #,
	.loc 1 156 0 is_stmt 0 discriminator 1
	addl	$1, 16(%ecx)	 #, this_5(D)->itsErrNum
LVL5:
	.p2align 4,,10
L7:
	.loc 1 157 0 is_stmt 1
	addl	$1, %ebx	 #, in_head
LVL6:
	.loc 1 150 0
	cmpl	$3, %edx	 #, D.30318
	jle	L8	 #,
LVL7:
L35:
LBB36:
LBB37:
	.loc 1 180 0
	movl	12(%ecx), %eax	 # this_5(D)->itsEnded,
	testl	%eax, %eax	 #
	je	L9	 #,
	.loc 1 181 0
	addl	$1, 16(%ecx)	 #, this_5(D)->itsErrNum
	.loc 1 182 0
	movl	$0, 12(%ecx)	 #, this_5(D)->itsEnded
L9:
LVL8:
LBB38:
	.loc 1 186 0
	movzbl	4(%ecx), %edx	 # this_5(D)->itsCurr4,
	cmpb	$61, %dl	 #, D.30319
	je	L10	 #,
	.loc 1 190 0
	movzbl	__ZN3stk6cipherL8cIndex64E(%edx), %eax	 # cIndex64, D.30319
	.loc 1 186 0
	movzbl	5(%ecx), %edx	 # this_5(D)->itsCurr4,
	cmpb	$61, %dl	 #, D.30319
	.loc 1 190 0
	movb	%al, 4(%ecx)	 # D.30319, this_5(D)->itsCurr4
LVL9:
	.loc 1 186 0
	je	L10	 #,
	.loc 1 190 0
	movzbl	__ZN3stk6cipherL8cIndex64E(%edx), %edx	 # cIndex64, D.30319
LBE38:
	.loc 1 192 0
	sall	$2, %eax	 #, D.30318
	leal	1(%esi), %ebp	 #, out
LBB39:
	.loc 1 190 0
	movb	%dl, 5(%ecx)	 # D.30319, this_5(D)->itsCurr4
LVL10:
LBE39:
	.loc 1 192 0
	andl	$48, %edx	 #, D.30318
	sarl	$4, %edx	 #, D.30318
	orl	%edx, %eax	 # D.30318, tmp173
	movb	%al, (%esi)	 # tmp173, *out_93
	.loc 1 193 0
	movzbl	6(%ecx), %eax	 # this_5(D)->itsCurr4,
	cmpb	$61, %al	 #, D.30319
	je	L36	 #,
	.loc 1 197 0
	movzbl	__ZN3stk6cipherL8cIndex64E(%eax), %eax	 # cIndex64, D.30319
	.loc 1 198 0
	movzbl	5(%ecx), %edx	 # this_5(D)->itsCurr4, D.30318
	.loc 1 197 0
	movb	%al, 6(%ecx)	 # D.30319, this_5(D)->itsCurr4
LVL11:
	.loc 1 198 0
	andl	$60, %eax	 #, D.30318
	sall	$4, %edx	 #, D.30318
	sarl	$2, %eax	 #, D.30318
	orl	%edx, %eax	 # D.30318, tmp181
	movb	%al, 1(%esi)	 # tmp181, MEM[(char *)out_93 + 1B]
	.loc 1 199 0
	movzbl	7(%ecx), %eax	 # this_5(D)->itsCurr4, D.30319
	cmpb	$61, %al	 #, D.30319
	je	L37	 #,
LVL12:
	.loc 1 200 0
	movzbl	6(%ecx), %edx	 # this_5(D)->itsCurr4, D.30318
	movzbl	%al, %ebp	 # D.30319, D.30318
	addl	$3, %esi	 #, out
LVL13:
	sall	$6, %edx	 #, D.30318
	orb	__ZN3stk6cipherL8cIndex64E(%ebp), %dl	 # cIndex64, D.30317
	movb	%dl, -1(%esi)	 # D.30317, MEM[(char *)out_93 + 2B]
LVL14:
L13:
LBE37:
LBE36:
	.loc 1 161 0
	xorl	%edx, %edx	 # D.30318
	.loc 1 151 0
	cmpl	%edi, %ebx	 # in_end, in_head
	.loc 1 160 0
	movl	$0, 8(%ecx)	 #, this_5(D)->its4Len
	.loc 1 151 0
	jne	L38	 #,
LVL15:
L30:
LBE44:
	.loc 1 164 0
	popl	%ebx	 #
	.cfi_remember_state
	.cfi_restore 3
	.cfi_def_cfa_offset 16
LVL16:
	movl	%esi, %eax	 # out,
	popl	%esi	 #
	.cfi_restore 6
	.cfi_def_cfa_offset 12
LVL17:
	popl	%edi	 #
	.cfi_restore 7
	.cfi_def_cfa_offset 8
LVL18:
	popl	%ebp	 #
	.cfi_restore 5
	.cfi_def_cfa_offset 4
	ret	$12	 #
LVL19:
	.p2align 4,,10
L17:
	.cfi_restore_state
LBB45:
	.loc 1 155 0
	leal	1(%edx), %ebp	 #, D.30318
LVL20:
	movl	%ebp, 8(%ecx)	 # D.30318, this_5(D)->its4Len
	movb	%al, 4(%ecx,%edx)	 # c, this_5(D)->itsCurr4
	movl	%ebp, %edx	 # D.30318, D.30318
	jmp	L7	 #
LVL21:
	.p2align 4,,10
L36:
LBB42:
LBB41:
	.loc 1 194 0
	cmpb	$61, 7(%ecx)	 #, this_5(D)->itsCurr4
	je	L39	 #,
	.loc 1 195 0
	addl	$1, 16(%ecx)	 #, this_5(D)->itsErrNum
	.loc 1 192 0
	movl	%ebp, %esi	 # out, out
	jmp	L13	 #
LVL22:
	.p2align 4,,10
L37:
	.loc 1 198 0
	addl	$2, %esi	 #, out
LVL23:
	.loc 1 199 0
	movl	$1, 12(%ecx)	 #, this_5(D)->itsEnded
	jmp	L13	 #
LVL24:
	.p2align 4,,10
L10:
LBB40:
	.loc 1 187 0
	addl	$1, 16(%ecx)	 #, this_5(D)->itsErrNum
	jmp	L13	 #
LVL25:
	.p2align 4,,10
L39:
LBE40:
	.loc 1 194 0
	movl	$1, 12(%ecx)	 #, this_5(D)->itsEnded
	.loc 1 192 0
	movl	%ebp, %esi	 # out, out
	jmp	L13	 #
LBE41:
LBE42:
LBE45:
	.cfi_endproc
LFE732:
LCOLDE1:
LHOTE1:
	.section	.text$_ZN3stk6cipher16__base64_encoderIPcS2_E6FinishES2_,"x"
	.linkonce discard
	.align 2
LCOLDB2:
LHOTB2:
	.align 2
	.p2align 4,,15
	.globl	__ZN3stk6cipher16__base64_encoderIPcS2_E6FinishES2_
	.def	__ZN3stk6cipher16__base64_encoderIPcS2_E6FinishES2_;	.scl	2;	.type	32;	.endef
__ZN3stk6cipher16__base64_encoderIPcS2_E6FinishES2_:
LFB728:
	.loc 1 89 0
	.cfi_startproc
LVL26:
	.loc 1 91 0
	movl	8(%ecx), %edx	 # this_3(D)->its3Len, D.30325
	.loc 1 89 0
	pushl	%edi	 #
	.cfi_def_cfa_offset 8
	.cfi_offset 7, -8
	pushl	%esi	 #
	.cfi_def_cfa_offset 12
	.cfi_offset 6, -12
	pushl	%ebx	 #
	.cfi_def_cfa_offset 16
	.cfi_offset 3, -16
	.loc 1 89 0
	movl	16(%esp), %eax	 # out, out
	.loc 1 91 0
	testl	%edx, %edx	 # D.30325
	jne	L50	 #,
LVL27:
L41:
	.loc 1 97 0
	popl	%ebx	 #
	.cfi_remember_state
	.cfi_restore 3
	.cfi_def_cfa_offset 12
	popl	%esi	 #
	.cfi_restore 6
	.cfi_def_cfa_offset 8
	.loc 1 93 0
	movl	$0, 8(%ecx)	 #, this_3(D)->its3Len
	.loc 1 94 0
	movl	$0, 12(%ecx)	 #, this_3(D)->itsLinePos
	.loc 1 97 0
	popl	%edi	 #
	.cfi_restore 7
	.cfi_def_cfa_offset 4
	ret	$4	 #
	.p2align 4,,10
L50:
	.cfi_restore_state
LVL28:
LBB48:
LBB49:
	.loc 1 102 0
	cmpl	$2, %edx	 #, D.30325
	jle	L51	 #,
L42:
LVL29:
	.loc 1 104 0
	movzbl	4(%ecx), %ebx	 # this_3(D)->itsCurr3, D.30325
	.loc 1 107 0
	leal	3(%eax), %edi	 #, out
	.loc 1 104 0
	sarl	$2, %ebx	 #, D.30325
	movzbl	__ZN3stk6cipherL14c__base64CodesE(%ebx), %edx	 # c__base64Codes, tmp124
	movb	%dl, (%eax)	 # tmp124, *out_58(D)
LVL30:
	.loc 1 105 0
	movzbl	4(%ecx), %edx	 # this_3(D)->itsCurr3, this_3(D)->itsCurr3
	movzbl	5(%ecx), %ebx	 # this_3(D)->itsCurr3, D.30327
	andl	$3, %edx	 #, D.30325
	shrb	$4, %bl	 #, D.30327
	sall	$4, %edx	 #, D.30325
	movzbl	%bl, %esi	 # D.30327, D.30325
	orl	%esi, %edx	 # D.30325, D.30325
	movzbl	__ZN3stk6cipherL14c__base64CodesE(%edx), %edx	 # c__base64Codes, tmp134
	movb	%dl, 1(%eax)	 # tmp134, MEM[(char *)out_58(D) + 1B]
	.loc 1 107 0
	cmpl	$1, 8(%ecx)	 #, this_3(D)->its3Len
	movl	$61, %edx	 #, D.30328
	je	L44	 #,
LVL31:
	.loc 1 109 0
	movzbl	5(%ecx), %ebx	 # this_3(D)->itsCurr3, this_3(D)->itsCurr3
	movzbl	6(%ecx), %edx	 # this_3(D)->itsCurr3, D.30327
	andl	$15, %ebx	 #, D.30325
	shrb	$6, %dl	 #, D.30327
	leal	0(,%ebx,4), %esi	 #, D.30325
	movzbl	%dl, %ebx	 # D.30327, D.30325
	orl	%esi, %ebx	 # D.30325, D.30325
	movzbl	__ZN3stk6cipherL14c__base64CodesE(%ebx), %edx	 # c__base64Codes, D.30328
LVL32:
L44:
	movb	%dl, 2(%eax)	 # D.30328, MEM[(char *)out_58(D) + 2B]
LVL33:
	.loc 1 111 0
	cmpl	$2, 8(%ecx)	 #, this_3(D)->its3Len
	leal	1(%edi), %eax	 #, out
	jle	L52	 #,
LVL34:
	.loc 1 113 0
	movzbl	6(%ecx), %ebx	 # this_3(D)->itsCurr3, this_3(D)->itsCurr3
	andl	$63, %ebx	 #, D.30325
	movzbl	__ZN3stk6cipherL14c__base64CodesE(%ebx), %edx	 # c__base64Codes, tmp148
	movb	%dl, (%edi)	 # tmp148, *out_60
	jmp	L41	 #
	.p2align 4,,10
L51:
	.loc 1 102 0
	movb	$0, 4(%ecx,%edx)	 #, this_3(D)->itsCurr3
	jmp	L42	 #
LVL35:
	.p2align 4,,10
L52:
	.loc 1 111 0
	movb	$61, (%edi)	 #, *out_60
	jmp	L41	 #
LBE49:
LBE48:
	.cfi_endproc
LFE728:
LCOLDE2:
LHOTE2:
	.section	.text.unlikely,"x"
LCOLDB3:
	.text
LHOTB3:
	.p2align 4,,15
	.globl	__ZN3stk6cipher11base642charEPciS1_@12
	.def	__ZN3stk6cipher11base642charEPciS1_@12;	.scl	2;	.type	32;	.endef
__ZN3stk6cipher11base642charEPciS1_@12:
LFB711:
	.file 2 "cipher/stk_base64.cpp"
	.loc 2 22 0
	.cfi_startproc
LVL36:
	pushl	%esi	 #
	.cfi_def_cfa_offset 8
	.cfi_offset 6, -8
	pushl	%ebx	 #
	.cfi_def_cfa_offset 12
	.cfi_offset 3, -12
	subl	$756, %esp	 #,
	.cfi_def_cfa_offset 768
	.loc 2 22 0
	movl	772(%esp), %eax	 # s, s
	movl	768(%esp), %esi	 # Z, Z
	movl	776(%esp), %ebx	 # out, out
LBB50:
	.loc 2 23 0
	cmpl	$-1, %eax	 #, s
	jne	L54	 #,
	.loc 2 24 0
	movl	%esi, (%esp)	 # Z,
	call	_strlen	 #
LVL37:
L54:
	.loc 2 28 0
	addl	%esi, %eax	 # Z, D.30333
LVL38:
	leal	492(%esp), %ecx	 #, tmp100
LVL39:
	movl	%esi, 4(%esp)	 # Z,
	movl	%ebx, (%esp)	 # out,
	movl	%eax, 8(%esp)	 # D.30333,
LBB51:
LBB52:
	.loc 1 45 0
	movl	$__ZTVN3stk6cipher16__base64_decoderIPcS2_EE+8, 492(%esp)	 #, e.D.29757._vptr.__mime_coder
	movl	$0, 500(%esp)	 #, e.its4Len
	movl	$0, 504(%esp)	 #, e.itsEnded
LBE52:
LBE51:
	.loc 2 28 0
	call	__ZN3stk6cipher16__base64_decoderIPcS2_E6FilterES2_S2_S2_	 #
	.cfi_def_cfa_offset 756
LVL40:
	subl	$12, %esp	 #,
	.cfi_def_cfa_offset 768
LVL41:
	.loc 2 30 0
	movb	$0, (%eax)	 #, *oo_11
	.loc 2 31 0
	subl	%ebx, %eax	 # out, D.30334
LVL42:
LBE50:
	.loc 2 32 0
	addl	$756, %esp	 #,
	.cfi_def_cfa_offset 12
	popl	%ebx	 #
	.cfi_restore 3
	.cfi_def_cfa_offset 8
	popl	%esi	 #
	.cfi_restore 6
	.cfi_def_cfa_offset 4
	ret	$12	 #
	.cfi_endproc
LFE711:
	.section	.text.unlikely,"x"
LCOLDE3:
	.text
LHOTE3:
	.section	.text.unlikely,"x"
	.align 2
LCOLDB4:
	.text
LHOTB4:
	.align 2
	.p2align 4,,15
	.globl	__ZN3stk6cipher8__base64C2Ev
	.def	__ZN3stk6cipher8__base64C2Ev;	.scl	2;	.type	32;	.endef
__ZN3stk6cipher8__base64C2Ev:
LFB713:
	.loc 2 35 0
	.cfi_startproc
LVL43:
	pushl	%esi	 #
	.cfi_def_cfa_offset 8
	.cfi_offset 6, -8
	pushl	%ebx	 #
	.cfi_def_cfa_offset 12
	.cfi_offset 3, -12
	movl	%ecx, %ebx	 # this, this
	subl	$500, %esp	 #,
	.cfi_def_cfa_offset 512
LBB53:
	.loc 2 40 0
	movl	$256, (%esp)	 #,
	call	__ZN3stk3mem5allocEj@4	 #
	.cfi_def_cfa_offset 508
LVL44:
	movl	%eax, (%ebx)	 # D.30344, this_4(D)->order
LVL45:
LBB54:
LBB55:
	.loc 2 60 0
	movb	$0, (%eax)	 #, MEM[(uint8_t *)_3]
LBE55:
LBE54:
	.loc 2 40 0
	subl	$4, %esp	 #,
	.cfi_def_cfa_offset 512
LBB57:
LBB56:
	.loc 2 60 0
	movl	(%ebx), %eax	 # this_4(D)->order, this_4(D)->order
	movb	$1, 1(%eax)	 #, *_10
	movl	(%ebx), %edx	 # this_4(D)->order, this_4(D)->order
	.loc 2 59 0
	movl	$3, %eax	 #, i
	.loc 2 60 0
	movb	$2, 2(%edx)	 #, *_10
	movl	(%ebx), %ecx	 # this_4(D)->order, this_4(D)->order
	movb	$3, 3(%ecx)	 #, *_10
	.p2align 4,,10
L57:
	movl	(%ebx), %esi	 # this_4(D)->order, tmp128
	.loc 2 59 0
	leal	1(%eax), %edx	 #, tmp94
	.loc 2 60 0
	movzbl	%dl, %ecx	 # tmp94, D.30346
	movb	%dl, (%esi,%ecx)	 # tmp94, *_10
	.loc 2 59 0
	leal	2(%eax), %edx	 #, i
	.loc 2 60 0
	movl	(%ebx), %esi	 # this_4(D)->order, tmp129
	movzbl	%dl, %ecx	 # i, D.30346
	movb	%dl, (%esi,%ecx)	 # i, *_10
	.loc 2 59 0
	leal	3(%eax), %edx	 #, i
	.loc 2 60 0
	movl	(%ebx), %esi	 # this_4(D)->order, tmp130
	movzbl	%dl, %ecx	 # i, D.30346
	movb	%dl, (%esi,%ecx)	 # i, *_10
	.loc 2 59 0
	leal	4(%eax), %edx	 #, i
	.loc 2 60 0
	movl	(%ebx), %esi	 # this_4(D)->order, tmp131
	movzbl	%dl, %ecx	 # i, D.30346
	movb	%dl, (%esi,%ecx)	 # i, *_10
	.loc 2 59 0
	leal	5(%eax), %edx	 #, i
	.loc 2 60 0
	movl	(%ebx), %esi	 # this_4(D)->order, tmp132
	movzbl	%dl, %ecx	 # i, D.30346
	movb	%dl, (%esi,%ecx)	 # i, *_10
	.loc 2 59 0
	leal	6(%eax), %edx	 #, i
	.loc 2 60 0
	movl	(%ebx), %esi	 # this_4(D)->order, tmp133
	movzbl	%dl, %ecx	 # i, D.30346
	movb	%dl, (%esi,%ecx)	 # i, *_10
	.loc 2 59 0
	leal	7(%eax), %edx	 #, i
	.loc 2 60 0
	movl	(%ebx), %esi	 # this_4(D)->order, tmp134
	movzbl	%dl, %ecx	 # i, D.30346
	movb	%dl, (%esi,%ecx)	 # i, *_10
	.loc 2 59 0
	leal	8(%eax), %edx	 #, i
	.loc 2 60 0
	movl	(%ebx), %esi	 # this_4(D)->order, tmp135
	.loc 2 59 0
	addl	$9, %eax	 #, i
	.loc 2 60 0
	movzbl	%dl, %ecx	 # i, D.30346
	.loc 2 61 0
	cmpb	$-1, %al	 #, i
	.loc 2 60 0
	movb	%dl, (%esi,%ecx)	 # i, *_10
	movl	(%ebx), %ecx	 # this_4(D)->order, this_4(D)->order
	movzbl	%al, %edx	 # i, D.30346
	movb	%al, (%ecx,%edx)	 # i, *_10
	.loc 2 61 0
	jne	L57	 #,
LBE56:
LBE57:
LBE53:
	.loc 2 42 0
	addl	$500, %esp	 #,
	.cfi_def_cfa_offset 12
	popl	%ebx	 #
	.cfi_restore 3
	.cfi_def_cfa_offset 8
LVL46:
	popl	%esi	 #
	.cfi_restore 6
	.cfi_def_cfa_offset 4
	ret
	.cfi_endproc
LFE713:
	.section	.text.unlikely,"x"
LCOLDE4:
	.text
LHOTE4:
	.globl	__ZN3stk6cipher8__base64C1Ev
	.def	__ZN3stk6cipher8__base64C1Ev;	.scl	2;	.type	32;	.endef
	.set	__ZN3stk6cipher8__base64C1Ev,__ZN3stk6cipher8__base64C2Ev
	.section	.text.unlikely,"x"
	.align 2
LCOLDB5:
	.text
LHOTB5:
	.align 2
	.p2align 4,,15
	.globl	__ZN3stk6cipher8__base64D2Ev
	.def	__ZN3stk6cipher8__base64D2Ev;	.scl	2;	.type	32;	.endef
__ZN3stk6cipher8__base64D2Ev:
LFB716:
	.loc 2 45 0
	.cfi_startproc
	.cfi_personality 0,___gxx_personality_v0
	.cfi_lsda 0,LLSDA716
LVL47:
	subl	$508, %esp	 #,
	.cfi_def_cfa_offset 512
LBB58:
	.loc 2 50 0
	movl	(%ecx), %eax	 # this_2(D)->order, this_2(D)->order
	movl	%eax, (%esp)	 # this_2(D)->order,
	call	__ZN3stk3mem4freeEPv@4	 #
	.cfi_def_cfa_offset 508
LVL48:
	subl	$4, %esp	 #,
	.cfi_def_cfa_offset 512
LBE58:
	.loc 2 51 0
	addl	$508, %esp	 #,
	.cfi_def_cfa_offset 4
	ret
	.cfi_endproc
LFE716:
	.def	___gxx_personality_v0;	.scl	2;	.type	32;	.endef
	.section	.gcc_except_table,"w"
LLSDA716:
	.byte	0xff
	.byte	0xff
	.byte	0x1
	.uleb128 LLSDACSE716-LLSDACSB716
LLSDACSB716:
LLSDACSE716:
	.text
	.section	.text.unlikely,"x"
LCOLDE5:
	.text
LHOTE5:
	.globl	__ZN3stk6cipher8__base64D1Ev
	.def	__ZN3stk6cipher8__base64D1Ev;	.scl	2;	.type	32;	.endef
	.set	__ZN3stk6cipher8__base64D1Ev,__ZN3stk6cipher8__base64D2Ev
	.section	.text.unlikely,"x"
	.align 2
LCOLDB6:
	.text
LHOTB6:
	.align 2
	.p2align 4,,15
	.globl	__ZN3stk6cipher8__base6410initializeEv@4
	.def	__ZN3stk6cipher8__base6410initializeEv@4;	.scl	2;	.type	32;	.endef
__ZN3stk6cipher8__base6410initializeEv@4:
LFB718:
	.loc 2 55 0
	.cfi_startproc
LVL49:
	pushl	%esi	 #
	.cfi_def_cfa_offset 8
	.cfi_offset 6, -8
	pushl	%ebx	 #
	.cfi_def_cfa_offset 12
	.cfi_offset 3, -12
	.loc 2 55 0
	movl	12(%esp), %edx	 # this, this
LBB59:
	.loc 2 60 0
	movl	(%edx), %eax	 # this_4(D)->order, D.30358
	movb	$0, (%eax)	 #, *_12
	movl	(%edx), %ecx	 # this_4(D)->order, this_4(D)->order
	.loc 2 59 0
	movl	$3, %eax	 #, i
	.loc 2 60 0
	movb	$1, 1(%ecx)	 #, *_7
	movl	(%edx), %ebx	 # this_4(D)->order, this_4(D)->order
	movb	$2, 2(%ebx)	 #, *_7
	movl	(%edx), %esi	 # this_4(D)->order, this_4(D)->order
	movb	$3, 3(%esi)	 #, *_7
	.p2align 4,,10
L74:
	movl	(%edx), %esi	 # this_4(D)->order, tmp128
	.loc 2 59 0
	leal	1(%eax), %ecx	 #, tmp94
	.loc 2 60 0
	movzbl	%cl, %ebx	 # tmp94, D.30359
	movb	%cl, (%esi,%ebx)	 # tmp94, *_7
	.loc 2 59 0
	leal	2(%eax), %ecx	 #, i
	.loc 2 60 0
	movl	(%edx), %esi	 # this_4(D)->order, tmp129
	movzbl	%cl, %ebx	 # i, D.30359
	movb	%cl, (%esi,%ebx)	 # i, *_7
	.loc 2 59 0
	leal	3(%eax), %ecx	 #, i
	.loc 2 60 0
	movl	(%edx), %esi	 # this_4(D)->order, tmp130
	movzbl	%cl, %ebx	 # i, D.30359
	movb	%cl, (%esi,%ebx)	 # i, *_7
	.loc 2 59 0
	leal	4(%eax), %ecx	 #, i
	.loc 2 60 0
	movl	(%edx), %esi	 # this_4(D)->order, tmp131
	movzbl	%cl, %ebx	 # i, D.30359
	movb	%cl, (%esi,%ebx)	 # i, *_7
	.loc 2 59 0
	leal	5(%eax), %ecx	 #, i
	.loc 2 60 0
	movl	(%edx), %esi	 # this_4(D)->order, tmp132
	movzbl	%cl, %ebx	 # i, D.30359
	movb	%cl, (%esi,%ebx)	 # i, *_7
	.loc 2 59 0
	leal	6(%eax), %ecx	 #, i
	.loc 2 60 0
	movl	(%edx), %esi	 # this_4(D)->order, tmp133
	movzbl	%cl, %ebx	 # i, D.30359
	movb	%cl, (%esi,%ebx)	 # i, *_7
	.loc 2 59 0
	leal	7(%eax), %ecx	 #, i
	.loc 2 60 0
	movl	(%edx), %esi	 # this_4(D)->order, tmp134
	movzbl	%cl, %ebx	 # i, D.30359
	movb	%cl, (%esi,%ebx)	 # i, *_7
	.loc 2 59 0
	leal	8(%eax), %ecx	 #, i
	.loc 2 60 0
	movl	(%edx), %esi	 # this_4(D)->order, tmp135
	.loc 2 59 0
	addl	$9, %eax	 #, i
	.loc 2 60 0
	movzbl	%cl, %ebx	 # i, D.30359
	.loc 2 61 0
	cmpb	$-1, %al	 #, i
	.loc 2 60 0
	movb	%cl, (%esi,%ebx)	 # i, *_7
	movl	(%edx), %ebx	 # this_4(D)->order, tmp136
	movzbl	%al, %ecx	 # i, D.30359
	movb	%al, (%ebx,%ecx)	 # i, *_7
	.loc 2 61 0
	jne	L74	 #,
LBE59:
	.loc 2 64 0
	popl	%ebx	 #
	.cfi_restore 3
	.cfi_def_cfa_offset 8
	popl	%esi	 #
	.cfi_restore 6
	.cfi_def_cfa_offset 4
	ret	$4	 #
	.cfi_endproc
LFE718:
	.section	.text.unlikely,"x"
LCOLDE6:
	.text
LHOTE6:
	.section	.text.unlikely,"x"
	.align 2
LCOLDB7:
	.text
LHOTB7:
	.align 2
	.p2align 4,,15
	.globl	__ZN3stk6cipher8__base646encodeEc@8
	.def	__ZN3stk6cipher8__base646encodeEc@8;	.scl	2;	.type	32;	.endef
__ZN3stk6cipher8__base646encodeEc@8:
LFB719:
	.loc 2 68 0
	.cfi_startproc
LVL50:
	pushl	%esi	 #
	.cfi_def_cfa_offset 8
	.cfi_offset 6, -8
	pushl	%ebx	 #
	.cfi_def_cfa_offset 12
	.cfi_offset 3, -12
	subl	$500, %esp	 #,
	.cfi_def_cfa_offset 512
LVL51:
LBB60:
	.loc 2 72 0
	movsbl	516(%esp), %eax	 # a_ch, a_ch
LBE60:
	.loc 2 68 0
	movl	512(%esp), %esi	 # this, this
LBB61:
	.loc 2 72 0
	movl	$256, 8(%esp)	 #,
	movl	%eax, 4(%esp)	 # a_ch,
	movl	(%esi), %edx	 # this_4(D)->order, this_4(D)->order
	movl	%edx, (%esp)	 # this_4(D)->order,
	call	__ZN3stk3mem3chrEPKvcj@12	 #
	.cfi_def_cfa_offset 500
LVL52:
	subl	$12, %esp	 #,
	.cfi_def_cfa_offset 512
	.loc 2 73 0
	movzbl	%al, %ecx	 # D.30364, D.30364
	.loc 2 72 0
	movl	%eax, %ebx	 #, D.30364
LVL53:
	.loc 2 73 0
	movl	%ecx, 4(%esp)	 # D.30364,
	movl	(%esi), %esi	 # this_4(D)->order, this_4(D)->order
	movl	%esi, (%esp)	 # this_4(D)->order,
	call	__ZN3stk3mem3rorEPvj@8	 #
	.cfi_def_cfa_offset 504
LVL54:
	subl	$8, %esp	 #,
	.cfi_def_cfa_offset 512
LBE61:
	.loc 2 76 0
	movl	%ebx, %eax	 # D.30364,
	addl	$500, %esp	 #,
	.cfi_def_cfa_offset 12
	popl	%ebx	 #
	.cfi_restore 3
	.cfi_def_cfa_offset 8
	popl	%esi	 #
	.cfi_restore 6
	.cfi_def_cfa_offset 4
	ret	$8	 #
	.cfi_endproc
LFE719:
	.section	.text.unlikely,"x"
LCOLDE7:
	.text
LHOTE7:
	.section	.text.unlikely,"x"
	.align 2
LCOLDB8:
	.text
LHOTB8:
	.align 2
	.p2align 4,,15
	.globl	__ZN3stk6cipher8__base646decodeEc@8
	.def	__ZN3stk6cipher8__base646decodeEc@8;	.scl	2;	.type	32;	.endef
__ZN3stk6cipher8__base646decodeEc@8:
LFB720:
	.loc 2 80 0
	.cfi_startproc
LVL55:
	pushl	%ebx	 #
	.cfi_def_cfa_offset 8
	.cfi_offset 3, -8
	subl	$504, %esp	 #,
	.cfi_def_cfa_offset 512
LBB62:
	.loc 2 84 0
	movl	512(%esp), %eax	 # this, this
	movzbl	516(%esp), %edx	 # a_ch, D.30372
	movl	(%eax), %ecx	 # this_2(D)->order, D.30370
	movzbl	(%ecx,%edx), %eax	 # *_7,
	.loc 2 85 0
	movl	%ecx, (%esp)	 # D.30370,
	movl	%eax, 4(%esp)	 # r,
	.loc 2 84 0
	movl	%eax, %ebx	 #,
LVL56:
	.loc 2 85 0
	call	__ZN3stk3mem3rorEPvj@8	 #
	.cfi_def_cfa_offset 504
LVL57:
	subl	$8, %esp	 #,
	.cfi_def_cfa_offset 512
LBE62:
	.loc 2 88 0
	movl	%ebx, %eax	 # r,
	addl	$504, %esp	 #,
	.cfi_def_cfa_offset 8
	popl	%ebx	 #
	.cfi_restore 3
	.cfi_def_cfa_offset 4
LVL58:
	ret	$8	 #
	.cfi_endproc
LFE720:
	.section	.text.unlikely,"x"
LCOLDE8:
	.text
LHOTE8:
	.section	.text$_ZN3stk6cipher16__base64_encoderIPcS2_E11EncodeCurr3ERS2_,"x"
	.linkonce discard
	.align 2
LCOLDB9:
LHOTB9:
	.align 2
	.p2align 4,,15
	.globl	__ZN3stk6cipher16__base64_encoderIPcS2_E11EncodeCurr3ERS2_
	.def	__ZN3stk6cipher16__base64_encoderIPcS2_E11EncodeCurr3ERS2_;	.scl	2;	.type	32;	.endef
__ZN3stk6cipher16__base64_encoderIPcS2_E11EncodeCurr3ERS2_:
LFB734:
	.loc 1 100 0
	.cfi_startproc
LVL59:
	pushl	%edi	 #
	.cfi_def_cfa_offset 8
	.cfi_offset 7, -8
	pushl	%esi	 #
	.cfi_def_cfa_offset 12
	.cfi_offset 6, -12
	pushl	%ebx	 #
	.cfi_def_cfa_offset 16
	.cfi_offset 3, -16
	.loc 1 102 0
	movl	8(%ecx), %edx	 # this_5(D)->its3Len, D.30378
	.loc 1 100 0
	movl	16(%esp), %eax	 # out, out
	.loc 1 102 0
	cmpl	$2, %edx	 #, D.30378
	jg	L93	 #,
	.loc 1 102 0 is_stmt 0 discriminator 1
	movb	$0, 4(%ecx,%edx)	 #, this_5(D)->itsCurr3
L93:
	.loc 1 104 0 is_stmt 1
	movl	(%eax), %ebx	 # *out_8(D), D.30379
	leal	1(%ebx), %esi	 #, tmp131
	movl	%esi, (%eax)	 # tmp131, *out_8(D)
	movzbl	4(%ecx), %edi	 # this_5(D)->itsCurr3, D.30378
	sarl	$2, %edi	 #, D.30378
	movzbl	__ZN3stk6cipherL14c__base64CodesE(%edi), %edx	 # c__base64Codes, tmp135
	movb	%dl, (%ebx)	 # tmp135, *_9
	.loc 1 105 0
	movl	(%eax), %esi	 # *out_8(D), D.30379
	leal	1(%esi), %ebx	 #, tmp136
	movl	%ebx, (%eax)	 # tmp136, *out_8(D)
	movzbl	4(%ecx), %edx	 # this_5(D)->itsCurr3, this_5(D)->itsCurr3
	movzbl	5(%ecx), %ebx	 # this_5(D)->itsCurr3, D.30380
	andl	$3, %edx	 #, D.30378
	shrb	$4, %bl	 #, D.30380
	sall	$4, %edx	 #, D.30378
	movzbl	%bl, %edi	 # D.30380, D.30378
	orl	%edi, %edx	 # D.30378, D.30378
	movzbl	__ZN3stk6cipherL14c__base64CodesE(%edx), %edx	 # c__base64Codes, tmp146
	movb	%dl, (%esi)	 # tmp146, *_17
	.loc 1 107 0
	cmpl	$1, 8(%ecx)	 #, this_5(D)->its3Len
	je	L99	 #,
	.loc 1 109 0
	movl	(%eax), %edi	 # *out_8(D), D.30379
	leal	1(%edi), %esi	 #, tmp148
	movl	%esi, (%eax)	 # tmp148, *out_8(D)
	movzbl	5(%ecx), %ebx	 # this_5(D)->itsCurr3, this_5(D)->itsCurr3
	movzbl	6(%ecx), %edx	 # this_5(D)->itsCurr3, D.30380
	andl	$15, %ebx	 #, D.30378
	leal	0(,%ebx,4), %esi	 #, D.30378
	shrb	$6, %dl	 #, D.30380
	movzbl	%dl, %ebx	 # D.30380, D.30378
	orl	%esi, %ebx	 # D.30378, D.30378
	movzbl	__ZN3stk6cipherL14c__base64CodesE(%ebx), %edx	 # c__base64Codes, tmp158
	movb	%dl, (%edi)	 # tmp158, *_34
L95:
	.loc 1 111 0
	cmpl	$2, 8(%ecx)	 #, this_5(D)->its3Len
	movl	(%eax), %edx	 # *out_8(D), D.30379
	jle	L100	 #,
	.loc 1 113 0
	leal	1(%edx), %ebx	 #, tmp160
	movl	%ebx, (%eax)	 # tmp160, *out_8(D)
	movzbl	6(%ecx), %ecx	 # this_5(D)->itsCurr3, this_5(D)->itsCurr3
LVL60:
	andl	$63, %ecx	 #, D.30378
	movzbl	__ZN3stk6cipherL14c__base64CodesE(%ecx), %eax	 # c__base64Codes, tmp165
	movb	%al, (%edx)	 # tmp165, *_51
	.loc 1 114 0
	popl	%ebx	 #
	.cfi_remember_state
	.cfi_restore 3
	.cfi_def_cfa_offset 12
	popl	%esi	 #
	.cfi_restore 6
	.cfi_def_cfa_offset 8
	popl	%edi	 #
	.cfi_restore 7
	.cfi_def_cfa_offset 4
	ret	$4	 #
LVL61:
	.p2align 4,,10
L100:
	.cfi_restore_state
	.loc 1 111 0 discriminator 1
	leal	1(%edx), %edi	 #, tmp159
	movl	%edi, (%eax)	 # tmp159, *out_8(D)
	movb	$61, (%edx)	 #, *_47
	.loc 1 114 0 discriminator 1
	popl	%ebx	 #
	.cfi_remember_state
	.cfi_restore 3
	.cfi_def_cfa_offset 12
	popl	%esi	 #
	.cfi_restore 6
	.cfi_def_cfa_offset 8
	popl	%edi	 #
	.cfi_restore 7
	.cfi_def_cfa_offset 4
	ret	$4	 #
	.p2align 4,,10
L99:
	.cfi_restore_state
	.loc 1 107 0 discriminator 1
	movl	(%eax), %edi	 # *out_8(D), D.30379
	leal	1(%edi), %esi	 #, tmp147
	movl	%esi, (%eax)	 # tmp147, *out_8(D)
	movb	$61, (%edi)	 #, *_30
	jmp	L95	 #
	.cfi_endproc
LFE734:
LCOLDE9:
LHOTE9:
	.section	.text$_ZN3stk6cipher16__base64_encoderIPcS2_E6FilterES2_S2_S2_,"x"
	.linkonce discard
	.align 2
LCOLDB10:
LHOTB10:
	.align 2
	.p2align 4,,15
	.globl	__ZN3stk6cipher16__base64_encoderIPcS2_E6FilterES2_S2_S2_
	.def	__ZN3stk6cipher16__base64_encoderIPcS2_E6FilterES2_S2_S2_;	.scl	2;	.type	32;	.endef
__ZN3stk6cipher16__base64_encoderIPcS2_E6FilterES2_S2_S2_:
LFB727:
	.loc 1 65 0
	.cfi_startproc
LVL62:
	pushl	%edi	 #
	.cfi_def_cfa_offset 8
	.cfi_offset 7, -8
	pushl	%esi	 #
	.cfi_def_cfa_offset 12
	.cfi_offset 6, -12
	pushl	%ebx	 #
	.cfi_def_cfa_offset 16
	.cfi_offset 3, -16
	movl	%ecx, %ebx	 # this, this
	subl	$4, %esp	 #,
	.cfi_def_cfa_offset 20
	.loc 1 71 0
	cmpl	$71, 12(%ecx)	 #, this_9(D)->itsLinePos
	.loc 1 65 0
	movl	24(%esp), %esi	 # in_head, in_head
LVL63:
	movl	28(%esp), %edi	 # in_end, in_end
	.loc 1 71 0
	jg	L102	 #,
LVL64:
L114:
	movl	8(%ebx), %edx	 # this_9(D)->its3Len, D.30392
	.loc 1 72 0
	cmpl	$2, %edx	 #, D.30392
	jg	L105	 #,
L111:
	.loc 1 73 0
	cmpl	%esi, %edi	 # in_head, in_end
	je	L104	 #,
	.loc 1 75 0
	movzbl	(%esi), %eax	 # *in_head_36, *in_head_36
	.loc 1 72 0
	leal	1(%edx), %ecx	 #, D.30392
	cmpl	$3, %ecx	 #, D.30392
	.loc 1 75 0
	movb	%al, 4(%ebx,%edx)	 # *in_head_36, this_9(D)->itsCurr3
	.loc 1 76 0
	leal	1(%esi), %eax	 #, in_head
LVL65:
	.loc 1 72 0
	movl	%ecx, 8(%ebx)	 # D.30392, this_9(D)->its3Len
	je	L110	 #,
	.loc 1 73 0
	cmpl	%eax, %edi	 # in_head, in_end
	je	L104	 #,
	.loc 1 75 0
	movzbl	1(%esi), %eax	 # MEM[(char *)in_head_36 + 1B], MEM[(char *)in_head_36 + 1B]
LVL66:
	.loc 1 72 0
	leal	2(%edx), %ecx	 #, D.30392
	cmpl	$3, %ecx	 #, D.30392
	.loc 1 75 0
	movb	%al, 5(%ebx,%edx)	 # MEM[(char *)in_head_36 + 1B], this_9(D)->itsCurr3
	.loc 1 76 0
	leal	2(%esi), %eax	 #, in_head
LVL67:
	.loc 1 72 0
	movl	%ecx, 8(%ebx)	 # D.30392, this_9(D)->its3Len
	je	L110	 #,
	.loc 1 73 0
	cmpl	%eax, %edi	 # in_head, in_end
	je	L104	 #,
	.loc 1 75 0
	movzbl	2(%esi), %eax	 # MEM[(char *)in_head_36 + 2B], MEM[(char *)in_head_36 + 2B]
LVL68:
	.loc 1 72 0
	addl	$3, %edx	 #, D.30392
	.loc 1 76 0
	addl	$3, %esi	 #, in_head
LVL69:
	.loc 1 72 0
	cmpl	$3, %edx	 #, D.30392
	.loc 1 75 0
	movb	%al, 4(%ebx,%ecx)	 # MEM[(char *)in_head_36 + 2B], this_9(D)->itsCurr3
	.loc 1 72 0
	movl	%edx, 8(%ebx)	 # D.30392, this_9(D)->its3Len
	je	L105	 #,
LVL70:
L104:
	.loc 1 74 0
	movl	20(%esp), %eax	 # out, out
	.loc 1 86 0
	addl	$4, %esp	 #,
	.cfi_remember_state
	.cfi_def_cfa_offset 16
	popl	%ebx	 #
	.cfi_restore 3
	.cfi_def_cfa_offset 12
LVL71:
	popl	%esi	 #
	.cfi_restore 6
	.cfi_def_cfa_offset 8
	popl	%edi	 #
	.cfi_restore 7
	.cfi_def_cfa_offset 4
	ret	$12	 #
LVL72:
	.p2align 4,,10
L110:
	.cfi_restore_state
	.loc 1 76 0
	movl	%eax, %esi	 # in_head, in_head
L105:
	.loc 1 78 0
	leal	20(%esp), %edx	 #, tmp115
LVL73:
	movl	%ebx, %ecx	 # this,
	movl	%edx, (%esp)	 # tmp115,
	call	__ZN3stk6cipher16__base64_encoderIPcS2_E11EncodeCurr3ERS2_	 #
	.cfi_def_cfa_offset 16
LVL74:
	.loc 1 71 0
	movl	12(%ebx), %ecx	 # this_9(D)->itsLinePos, tmp116
	.loc 1 78 0
	subl	$4, %esp	 #,
	.cfi_def_cfa_offset 20
	xorl	%edx, %edx	 # D.30392
	.loc 1 79 0
	movl	$0, 8(%ebx)	 #, this_9(D)->its3Len
	.loc 1 71 0
	addl	$4, %ecx	 #, D.30392
	cmpl	$71, %ecx	 #, D.30392
	movl	%ecx, 12(%ebx)	 # D.30392, this_9(D)->itsLinePos
LVL75:
	jle	L111	 #,
L102:
	.loc 1 81 0
	movl	20(%esp), %eax	 # out, D.30394
	leal	1(%eax), %ecx	 #, tmp113
	movl	%ecx, 20(%esp)	 # tmp113, out
	movb	$13, (%eax)	 #, *_11
	.loc 1 82 0
	movl	20(%esp), %eax	 # out, D.30394
	leal	1(%eax), %edx	 #, tmp114
	movl	%edx, 20(%esp)	 # tmp114, out
	movb	$10, (%eax)	 #, *_16
	.loc 1 83 0
	movl	$0, 12(%ebx)	 #, this_9(D)->itsLinePos
	.loc 1 65 0
	jmp	L114	 #
	.cfi_endproc
LFE727:
LCOLDE10:
LHOTE10:
	.section	.text.unlikely,"x"
LCOLDB11:
	.text
LHOTB11:
	.p2align 4,,15
	.globl	__ZN3stk6cipher11char2base64EPciS1_@12
	.def	__ZN3stk6cipher11char2base64EPciS1_@12;	.scl	2;	.type	32;	.endef
__ZN3stk6cipher11char2base64EPciS1_@12:
LFB710:
	.loc 2 11 0
	.cfi_startproc
LVL76:
	pushl	%ebp	 #
	.cfi_def_cfa_offset 8
	.cfi_offset 5, -8
	pushl	%edi	 #
	.cfi_def_cfa_offset 12
	.cfi_offset 7, -12
	pushl	%esi	 #
	.cfi_def_cfa_offset 16
	.cfi_offset 6, -16
	pushl	%ebx	 #
	.cfi_def_cfa_offset 20
	.cfi_offset 3, -20
	subl	$748, %esp	 #,
	.cfi_def_cfa_offset 768
LVL77:
	.loc 2 11 0
	movl	768(%esp), %ebx	 # Z, Z
	movl	776(%esp), %edi	 # out, out
LBB72:
LBB73:
LBB74:
	.loc 1 78 0
	leal	492(%esp), %ebp	 #, tmp125
LBE74:
LBE73:
	.loc 2 15 0
	movl	772(%esp), %esi	 # s, D.30405
LBB77:
LBB78:
	.loc 1 31 0
	movl	$__ZTVN3stk6cipher16__base64_encoderIPcS2_EE+8, 496(%esp)	 #, e.D.29665._vptr.__mime_coder
	movl	$0, 504(%esp)	 #, e.its3Len
	movl	$0, 508(%esp)	 #, e.itsLinePos
	movl	%edi, 492(%esp)	 # out, out
LBE78:
LBE77:
	.loc 2 15 0
	addl	%ebx, %esi	 # Z, D.30405
LVL78:
L126:
	movl	504(%esp), %edx	 # e.its3Len, D.30409
LBB79:
LBB75:
	.loc 1 72 0
	cmpl	$2, %edx	 #, D.30409
	jg	L122	 #,
L131:
	.loc 1 73 0
	cmpl	%ebx, %esi	 # Z, D.30405
	je	L123	 #,
	.loc 1 75 0
	movzbl	(%ebx), %eax	 # *Z_53, *Z_53
	.loc 1 72 0
	leal	1(%edx), %ecx	 #, D.30409
	cmpl	$3, %ecx	 #, D.30409
	.loc 1 75 0
	movb	%al, 500(%esp,%edx)	 # *Z_53, e.itsCurr3
	.loc 1 76 0
	leal	1(%ebx), %eax	 #, Z
LVL79:
	.loc 1 72 0
	je	L129	 #,
	.loc 1 73 0
	cmpl	%eax, %esi	 # Z, D.30405
	je	L130	 #,
	.loc 1 75 0
	movzbl	1(%ebx), %eax	 # MEM[(char *)Z_53 + 1B], MEM[(char *)Z_53 + 1B]
LVL80:
	movb	%al, 500(%esp,%ecx)	 # MEM[(char *)Z_53 + 1B], e.itsCurr3
	.loc 1 72 0
	leal	2(%edx), %ecx	 #, D.30409
	.loc 1 76 0
	leal	2(%ebx), %eax	 #, Z
LVL81:
	.loc 1 72 0
	cmpl	$3, %ecx	 #, D.30409
	je	L129	 #,
	.loc 1 73 0
	cmpl	%eax, %esi	 # Z, D.30405
	je	L130	 #,
	.loc 1 75 0
	movzbl	2(%ebx), %eax	 # MEM[(char *)Z_53 + 2B], MEM[(char *)Z_53 + 2B]
LVL82:
	.loc 1 72 0
	addl	$3, %edx	 #, D.30409
	.loc 1 76 0
	addl	$3, %ebx	 #, Z
LVL83:
	.loc 1 72 0
	cmpl	$3, %edx	 #, D.30409
	.loc 1 75 0
	movb	%al, 500(%esp,%ecx)	 # MEM[(char *)Z_53 + 2B], e.itsCurr3
	.loc 1 72 0
	je	L124	 #,
LVL84:
L120:
	movl	%edx, 504(%esp)	 # D.30409, e.its3Len
L123:
	.loc 1 74 0
	movl	492(%esp), %ebp	 # out, D.30405
LVL85:
LBE75:
LBE79:
LBB80:
LBB81:
	.loc 1 91 0
	testl	%edx, %edx	 # D.30409
	movl	%ebp, 488(%esp)	 # D.30405, out
LVL86:
	je	L119	 #,
	.loc 1 92 0
	leal	488(%esp), %esi	 #, tmp117
LVL87:
	leal	496(%esp), %ecx	 #, tmp129
LVL88:
	movl	%esi, (%esp)	 # tmp117,
	call	__ZN3stk6cipher16__base64_encoderIPcS2_E11EncodeCurr3ERS2_	 #
	.cfi_def_cfa_offset 764
LVL89:
	subl	$4, %esp	 #,
	.cfi_def_cfa_offset 768
	movl	488(%esp), %ebp	 # out, D.30405
LVL90:
L119:
	.loc 1 93 0
	movl	$0, 504(%esp)	 #, e.its3Len
	.loc 1 94 0
	movl	$0, 508(%esp)	 #, e.itsLinePos
LVL91:
LBE81:
LBE80:
	.loc 2 17 0
	movb	$0, 0(%ebp)	 #, *_40
	.loc 2 18 0
	movl	%edi, (%esp)	 # out,
	call	_strlen	 #
LVL92:
LBE72:
	.loc 2 19 0
	addl	$748, %esp	 #,
	.cfi_remember_state
	.cfi_def_cfa_offset 20
	popl	%ebx	 #
	.cfi_restore 3
	.cfi_def_cfa_offset 16
	popl	%esi	 #
	.cfi_restore 6
	.cfi_def_cfa_offset 12
	popl	%edi	 #
	.cfi_restore 7
	.cfi_def_cfa_offset 8
	popl	%ebp	 #
	.cfi_restore 5
	.cfi_def_cfa_offset 4
LVL93:
	ret	$12	 #
LVL94:
	.p2align 4,,10
L129:
	.cfi_restore_state
LBB83:
LBB82:
LBB76:
	.loc 1 76 0
	movl	%eax, %ebx	 # Z, Z
L124:
	movl	$3, 504(%esp)	 #, e.its3Len
L122:
	.loc 1 78 0
	leal	496(%esp), %ecx	 #, tmp127
LVL95:
	movl	%ebp, (%esp)	 # tmp125,
	call	__ZN3stk6cipher16__base64_encoderIPcS2_E11EncodeCurr3ERS2_	 #
	.cfi_def_cfa_offset 764
LVL96:
	subl	$4, %esp	 #,
	.cfi_def_cfa_offset 768
	xorl	%edx, %edx	 # D.30409
	.loc 1 71 0
	movl	508(%esp), %ecx	 # e.itsLinePos, tmp128
	.loc 1 79 0
	movl	$0, 504(%esp)	 #, e.its3Len
	.loc 1 71 0
	addl	$4, %ecx	 #, D.30409
	cmpl	$71, %ecx	 #, D.30409
	movl	%ecx, 508(%esp)	 # D.30409, e.itsLinePos
LVL97:
	jle	L131	 #,
	.loc 1 81 0
	movl	492(%esp), %eax	 # out, D.30405
	leal	1(%eax), %ecx	 #, tmp114
	movl	%ecx, 492(%esp)	 # tmp114, out
	movb	$13, (%eax)	 #, *_33
	.loc 1 82 0
	movl	492(%esp), %eax	 # out, D.30405
	leal	1(%eax), %edx	 #, tmp115
	movl	%edx, 492(%esp)	 # tmp115, out
	movb	$10, (%eax)	 #, *_35
	.loc 1 83 0
	movl	$0, 508(%esp)	 #, e.itsLinePos
	jmp	L126	 #
LVL98:
	.p2align 4,,10
L130:
	.loc 1 73 0
	movl	%ecx, %edx	 # D.30409, D.30409
	jmp	L120	 #
LBE76:
LBE82:
LBE83:
	.cfi_endproc
LFE710:
	.section	.text.unlikely,"x"
LCOLDE11:
	.text
LHOTE11:
	.section .rdata,"dr"
	.align 64
__ZN3stk6cipherL8cIndex64E:
	.byte	127
	.byte	127
	.byte	127
	.byte	127
	.byte	127
	.byte	127
	.byte	127
	.byte	127
	.byte	127
	.byte	127
	.byte	127
	.byte	127
	.byte	127
	.byte	127
	.byte	127
	.byte	127
	.byte	127
	.byte	127
	.byte	127
	.byte	127
	.byte	127
	.byte	127
	.byte	127
	.byte	127
	.byte	127
	.byte	127
	.byte	127
	.byte	127
	.byte	127
	.byte	127
	.byte	127
	.byte	127
	.byte	127
	.byte	127
	.byte	127
	.byte	127
	.byte	127
	.byte	127
	.byte	127
	.byte	127
	.byte	127
	.byte	127
	.byte	127
	.byte	62
	.byte	127
	.byte	127
	.byte	127
	.byte	63
	.byte	52
	.byte	53
	.byte	54
	.byte	55
	.byte	56
	.byte	57
	.byte	58
	.byte	59
	.byte	60
	.byte	61
	.byte	127
	.byte	127
	.byte	127
	.byte	127
	.byte	127
	.byte	127
	.byte	127
	.byte	0
	.byte	1
	.byte	2
	.byte	3
	.byte	4
	.byte	5
	.byte	6
	.byte	7
	.byte	8
	.byte	9
	.byte	10
	.byte	11
	.byte	12
	.byte	13
	.byte	14
	.byte	15
	.byte	16
	.byte	17
	.byte	18
	.byte	19
	.byte	20
	.byte	21
	.byte	22
	.byte	23
	.byte	24
	.byte	25
	.byte	127
	.byte	127
	.byte	127
	.byte	127
	.byte	127
	.byte	127
	.byte	26
	.byte	27
	.byte	28
	.byte	29
	.byte	30
	.byte	31
	.byte	32
	.byte	33
	.byte	34
	.byte	35
	.byte	36
	.byte	37
	.byte	38
	.byte	39
	.byte	40
	.byte	41
	.byte	42
	.byte	43
	.byte	44
	.byte	45
	.byte	46
	.byte	47
	.byte	48
	.byte	49
	.byte	50
	.byte	51
	.byte	127
	.byte	127
	.byte	127
	.byte	127
	.byte	127
	.byte	127
	.byte	127
	.byte	127
	.byte	127
	.byte	127
	.byte	127
	.byte	127
	.byte	127
	.byte	127
	.byte	127
	.byte	127
	.byte	127
	.byte	127
	.byte	127
	.byte	127
	.byte	127
	.byte	127
	.byte	127
	.byte	127
	.byte	127
	.byte	127
	.byte	127
	.byte	127
	.byte	127
	.byte	127
	.byte	127
	.byte	127
	.byte	127
	.byte	127
	.byte	127
	.byte	127
	.byte	127
	.byte	127
	.byte	127
	.byte	127
	.byte	127
	.byte	127
	.byte	127
	.byte	127
	.byte	127
	.byte	127
	.byte	127
	.byte	127
	.byte	127
	.byte	127
	.byte	127
	.byte	127
	.byte	127
	.byte	127
	.byte	127
	.byte	127
	.byte	127
	.byte	127
	.byte	127
	.byte	127
	.byte	127
	.byte	127
	.byte	127
	.byte	127
	.byte	127
	.byte	127
	.byte	127
	.byte	127
	.byte	127
	.byte	127
	.byte	127
	.byte	127
	.byte	127
	.byte	127
	.byte	127
	.byte	127
	.byte	127
	.byte	127
	.byte	127
	.byte	127
	.byte	127
	.byte	127
	.byte	127
	.byte	127
	.byte	127
	.byte	127
	.byte	127
	.byte	127
	.byte	127
	.byte	127
	.byte	127
	.byte	127
	.byte	127
	.byte	127
	.byte	127
	.byte	127
	.byte	127
	.byte	127
	.byte	127
	.byte	127
	.byte	127
	.byte	127
	.byte	127
	.byte	127
	.byte	127
	.byte	127
	.byte	127
	.byte	127
	.byte	127
	.byte	127
	.byte	127
	.byte	127
	.byte	127
	.byte	127
	.byte	127
	.byte	127
	.byte	127
	.byte	127
	.byte	127
	.byte	127
	.byte	127
	.byte	127
	.byte	127
	.byte	127
	.byte	127
	.byte	127
	.byte	127
	.byte	127
	.byte	127
	.byte	127
	.byte	127
	.byte	127
	.byte	127
	.align 64
__ZN3stk6cipherL14c__base64CodesE:
	.ascii "ABCDEFGHIJKLMNOPQRSTUVWXYZabcdefghijklmnopqrstuvwxyz0123456789+/\0"
	.globl	__ZTIN3stk6cipher12__mime_coderIPcS2_EE
	.section	.rdata$_ZTIN3stk6cipher12__mime_coderIPcS2_EE,"dr"
	.linkonce same_size
	.align 4
__ZTIN3stk6cipher12__mime_coderIPcS2_EE:
 # <anonymous>:
 # <anonymous>:
	.long	__ZTVN10__cxxabiv117__class_type_infoE+8
 # <anonymous>:
	.long	__ZTSN3stk6cipher12__mime_coderIPcS2_EE
	.globl	__ZTSN3stk6cipher12__mime_coderIPcS2_EE
	.section	.rdata$_ZTSN3stk6cipher12__mime_coderIPcS2_EE,"dr"
	.linkonce same_size
	.align 32
__ZTSN3stk6cipher12__mime_coderIPcS2_EE:
	.ascii "N3stk6cipher12__mime_coderIPcS2_EE\0"
	.globl	__ZTIN3stk6cipher16__base64_encoderIPcS2_EE
	.section	.rdata$_ZTIN3stk6cipher16__base64_encoderIPcS2_EE,"dr"
	.linkonce same_size
	.align 4
__ZTIN3stk6cipher16__base64_encoderIPcS2_EE:
 # <anonymous>:
 # <anonymous>:
	.long	__ZTVN10__cxxabiv120__si_class_type_infoE+8
 # <anonymous>:
	.long	__ZTSN3stk6cipher16__base64_encoderIPcS2_EE
 # <anonymous>:
	.long	__ZTIN3stk6cipher12__mime_coderIPcS2_EE
	.globl	__ZTSN3stk6cipher16__base64_encoderIPcS2_EE
	.section	.rdata$_ZTSN3stk6cipher16__base64_encoderIPcS2_EE,"dr"
	.linkonce same_size
	.align 32
__ZTSN3stk6cipher16__base64_encoderIPcS2_EE:
	.ascii "N3stk6cipher16__base64_encoderIPcS2_EE\0"
	.globl	__ZTIN3stk6cipher16__base64_decoderIPcS2_EE
	.section	.rdata$_ZTIN3stk6cipher16__base64_decoderIPcS2_EE,"dr"
	.linkonce same_size
	.align 4
__ZTIN3stk6cipher16__base64_decoderIPcS2_EE:
 # <anonymous>:
 # <anonymous>:
	.long	__ZTVN10__cxxabiv120__si_class_type_infoE+8
 # <anonymous>:
	.long	__ZTSN3stk6cipher16__base64_decoderIPcS2_EE
 # <anonymous>:
	.long	__ZTIN3stk6cipher12__mime_coderIPcS2_EE
	.globl	__ZTSN3stk6cipher16__base64_decoderIPcS2_EE
	.section	.rdata$_ZTSN3stk6cipher16__base64_decoderIPcS2_EE,"dr"
	.linkonce same_size
	.align 32
__ZTSN3stk6cipher16__base64_decoderIPcS2_EE:
	.ascii "N3stk6cipher16__base64_decoderIPcS2_EE\0"
	.globl	__ZTVN3stk6cipher16__base64_encoderIPcS2_EE
	.section	.rdata$_ZTVN3stk6cipher16__base64_encoderIPcS2_EE,"dr"
	.linkonce same_size
	.align 8
__ZTVN3stk6cipher16__base64_encoderIPcS2_EE:
	.long	0
	.long	__ZTIN3stk6cipher16__base64_encoderIPcS2_EE
	.long	__ZN3stk6cipher16__base64_encoderIPcS2_E6FilterES2_S2_S2_
	.long	__ZN3stk6cipher16__base64_encoderIPcS2_E6FinishES2_
	.globl	__ZTVN3stk6cipher16__base64_decoderIPcS2_EE
	.section	.rdata$_ZTVN3stk6cipher16__base64_decoderIPcS2_EE,"dr"
	.linkonce same_size
	.align 8
__ZTVN3stk6cipher16__base64_decoderIPcS2_EE:
	.long	0
	.long	__ZTIN3stk6cipher16__base64_decoderIPcS2_EE
	.long	__ZN3stk6cipher16__base64_decoderIPcS2_E6FilterES2_S2_S2_
	.long	__ZN3stk6cipher16__base64_decoderIPcS2_E6FinishES2_
	.text
Letext0:
	.section	.text$_ZN3stk6cipher16__base64_decoderIPcS2_E6FinishES2_,"x"
	.linkonce discard
Letext_cold0:
	.file 3 "C:/Qt/Qt5.5.0/Tools/mingw492_32/i686-w64-mingw32/include/_mingw.h"
	.file 4 "C:/Qt/Qt5.5.0/Tools/mingw492_32/i686-w64-mingw32/include/stdint.h"
	.file 5 "C:/Qt/Qt5.5.0/Tools/mingw492_32/i686-w64-mingw32/include/stdio.h"
	.file 6 "cipher/./.././time/stk_time.h"
	.file 7 "cipher/./../mem/stk_mem.h"
	.file 8 "<built-in>"
	.file 9 "C:/Qt/Qt5.5.0/Tools/mingw492_32/i686-w64-mingw32/include/c++/bits/exception_ptr.h"
	.file 10 "C:/Qt/Qt5.5.0/Tools/mingw492_32/i686-w64-mingw32/include/c++/i686-w64-mingw32/bits/c++config.h"
	.file 11 "C:/Qt/Qt5.5.0/Tools/mingw492_32/i686-w64-mingw32/include/string.h"