	.file	"stk_pharse_math.cpp"
 # GNU C++ (i686-posix-dwarf-rev1, Built by MinGW-W64 project) version 4.9.2 (i686-w64-mingw32)
 #	compiled by GNU C version 4.9.2, GMP version 6.0.0, MPFR version 3.1.2-p9, MPC version 1.0.2
 # warning: MPFR header version 3.1.2-p9 differs from library version 3.1.2-p10.
 # GGC heuristics: --param ggc-min-expand=100 --param ggc-min-heapsize=131072
 # options passed:  -fpreprocessed stk_pharse_math.ii -malign-double
 # -momit-leaf-frame-pointer -m32 -mfpmath=sse -mpreferred-stack-boundary=8
 # -mmmx -msse -msse2 -mthreads -mtune=generic -march=i686
 # -auxbase-strip debug\stk_pharse_math.o -g -g -O3 -Wno-write-strings
 # -Wno-multichar -Wno-unused-variable -Wno-unused-parameter
 # -Wno-unused-value -Wno-unused-label -Wno-unused-but-set-variable
 # -Wattributes -Winline -Wshadow -Wunknown-pragmas -Wall -Wextra
 # -std=gnu++11 -std=c++11 -fno-keep-inline-dllexport
 # -fno-use-linker-plugin -fverbose-asm -fstrict-aliasing -fwrapv
 # -funroll-loops -flto -fexceptions -frtti
 # options enabled:  -faggressive-loop-optimizations
 # -fasynchronous-unwind-tables -fauto-inc-dec -fbranch-count-reg
 # -fcaller-saves -fcombine-stack-adjustments -fcommon -fcompare-elim
 # -fcprop-registers -fcrossjumping -fcse-follow-jumps -fdefer-pop
 # -fdelete-null-pointer-checks -fdevirtualize -fdevirtualize-speculatively
 # -fdwarf2-cfi-asm -fearly-inlining -feliminate-unused-debug-types
 # -fexceptions -fexpensive-optimizations -fforward-propagate
 # -ffunction-cse -fgcse -fgcse-after-reload -fgcse-lm -fgnu-runtime
 # -fgnu-unique -fguess-branch-probability -fhoist-adjacent-loads -fident
 # -fif-conversion -fif-conversion2 -findirect-inlining -finline
 # -finline-atomics -finline-functions -finline-functions-called-once
 # -finline-small-functions -fipa-cp -fipa-cp-clone -fipa-profile
 # -fipa-pure-const -fipa-reference -fipa-sra -fira-hoist-pressure
 # -fira-share-save-slots -fira-share-spill-slots
 # -fisolate-erroneous-paths-dereference -fivopts -fkeep-static-consts
 # -fleading-underscore -fmath-errno -fmerge-constants
 # -fmerge-debug-strings -fmove-loop-invariants -fomit-frame-pointer
 # -foptimize-sibling-calls -foptimize-strlen -fpartial-inlining -fpeephole
 # -fpeephole2 -fpredictive-commoning -fprefetch-loop-arrays -free
 # -freg-struct-return -frename-registers -freorder-blocks
 # -freorder-blocks-and-partition -freorder-functions
 # -frerun-cse-after-loop -fsched-critical-path-heuristic
 # -fsched-dep-count-heuristic -fsched-group-heuristic -fsched-interblock
 # -fsched-last-insn-heuristic -fsched-rank-heuristic -fsched-spec
 # -fsched-spec-insn-heuristic -fsched-stalled-insns-dep -fschedule-insns2
 # -fset-stack-executable -fshow-column -fshrink-wrap -fsigned-zeros
 # -fsplit-ivs-in-unroller -fsplit-wide-types -fstrict-aliasing
 # -fstrict-overflow -fstrict-volatile-bitfields -fsync-libcalls
 # -fthread-jumps -ftoplevel-reorder -ftrapping-math -ftree-bit-ccp
 # -ftree-builtin-call-dce -ftree-ccp -ftree-ch -ftree-coalesce-vars
 # -ftree-copy-prop -ftree-copyrename -ftree-cselim -ftree-dce
 # -ftree-dominator-opts -ftree-dse -ftree-forwprop -ftree-fre
 # -ftree-loop-distribute-patterns -ftree-loop-if-convert -ftree-loop-im
 # -ftree-loop-ivcanon -ftree-loop-optimize -ftree-loop-vectorize
 # -ftree-parallelize-loops= -ftree-partial-pre -ftree-phiprop -ftree-pre
 # -ftree-pta -ftree-reassoc -ftree-scev-cprop -ftree-sink
 # -ftree-slp-vectorize -ftree-slsr -ftree-sra -ftree-switch-conversion
 # -ftree-tail-merge -ftree-ter -ftree-vrp -funit-at-a-time -funroll-loops
 # -funswitch-loops -funwind-tables -fvar-tracking
 # -fvar-tracking-assignments -fverbose-asm -fweb -fwrapv
 # -fzero-initialized-in-bss -m32 -m80387 -m96bit-long-double
 # -maccumulate-outgoing-args -malign-double -malign-stringops
 # -mavx256-split-unaligned-load -mavx256-split-unaligned-store
 # -mfancy-math-387 -mfp-ret-in-387 -mieee-fp -mlong-double-80 -mmmx
 # -mms-bitfields -mno-red-zone -mno-sse4 -mpush-args -msahf -msse -msse2
 # -mstack-arg-probe -mvzeroupper

	.text
Ltext0:
	.section	.gnu.lto_.profile.f43c2c36,"dr0"
	.ascii "x\234cf```e\200\0F\206uL\365\0\3\27\1"
	.ascii "9"
	.text
	.section	.gnu.lto_.jmpfuncs.f43c2c36,"dr0"
	.ascii "x\234cf\300\16l\231\31\30,\200"
	.ascii "4\13\3##c=#\323G&\306y\227\373\326"
	.ascii "1\325\376n\350h\340\370\311\304\360\227\11(\313\270\214\261\226\201\25$\371\273\277o!\207<\343\334\206\31\12?\231\30\31\200\"\263\27\177\236\315\11T>\3\244\234\211q9\243<P\375\12\240z\6\6\220\206\35\177\177\354\343\220"
	.ascii "7\207h`\6iX\376\240s??L\3\13\343J\260\206U@\15 \345\337[?tr\275`\372\311\304\312\303\300\270\232Q\12d9.G\255\1Y\202Sv-\310\311 O\21\347\356u`g\254'\336\335\33\300\32"
	.ascii "6B\335=\363\373\231c\374`wK00n\302\355nF\240\370f\234\356\6\311n\1\312r312\342"
	.ascii "2\1\350"
	.ascii "9\306\255DG\307"
	.ascii "6\260+\267\23\357\255\35`\15;\241\336\332\271\356\313Yn\260\267\24\30\30w\341\366\26\310Q\273qz\13$\273\7(\313\217\307[\300t\310\270\227ho\355\3\273r?\361\336:\0\326p\20\352\255O\373\257\337a\1{K\223\201\361\20no\201\34u\30\247\267@\262G@\262\246.\256N\241\356V\12\252\305V\12\256y%\251E\12i\245y\311%\231\371y 1\7\325\24\205\234\314\274T\35\205\264\374\"\5 \247$37\225\13\250\227\1\0K\272\"\250"
	.text
	.section	.gnu.lto_.inline.f43c2c36,"dr0"
	.ascii "x\234cf\300\16\256Bi\26\6\6e\5F\6&\331\31M\214\14\234"
	.ascii "7\314\230@\202L\334\14\14\214\14l\374\14\14\254\14\23\374\30\200\30\"\302\314\3\224\4\21\214@\11\31Y\240"
	.ascii "6\261\7Y\14l\13\344\301\272\360\252\347fP\0\251\227BRO\204-\374d\351b\0\0\323\233\23\2"
	.text
	.section	.gnu.lto_.pureconst.f43c2c36,"dr0"
	.ascii "x\234cf``\340e\200\0"
	.ascii "6\206(\26\11V).\11\356H\376H\0\11\341\1\232"
	.text
	.section	.gnu.lto__ZN3stk14__math_pharserC2Ev@4.f43c2c36,"dr0"
	.ascii "x\234\225VmLSg\24~\317{oooK\201\242\23\35\323\265\11\22\366c\356\307\22\263\305e\311\262\314l\373\267?\373\267\244!\256\4"
	.ascii "6A\6\354g\343-t\6\235\21\206h\330\20\" \37\23\5t\212|M\273\315):\225! \37C)\23\320}$\300Jd\225"
	.ascii "5\354\234\367\266\35b\331&\11\267\367\334{\316\363>\347y\237\236\267\22{\374/\13\377\33T\306r\361\23\314\14x\311\15\306\334*\347\322@\"\323\314J\367KL\263H\\^\26\311\334\304X\221j\320"
	.ascii "3\15\240\350"
	.ascii "7\12"
	.ascii "7\372\255\230\244V\276\212IFP\365\307*\0\335"
	.ascii "0\23\3\266\233K\262A1\252&\330\15\277\360"
	.ascii "9\16%\336\246\362\230\324:M\323fk\352\264w\274\20\340\214\371\271N\15\352!\25s\6O\377\336i\221l\300\360\276\243y\376z\314}\36\340`\247\260\263\264\247\\\241\220\313\24"
	.ascii "6\264u\325\233Sj\265\222\2\337\347U{T\317[\1.A\3H\10\10\215\220\4_B\22\303G\14\216C\12\345\317y\202C1\212\7W\267\352\213B\23(\300\230!\310Y\220\203~\305\274\226\373g\332\342\245\315\202\201wj\274WI\256\326\264\2\337\221\366OU\255G\363\370\226\226l\1.\303\211GW\12"
	.ascii "5q\22\222[\326x\265\245\245{\307\371:\20\261\214,\14\12^\24\25/F\23^\324X\12\343\350\222\0\202\337\257\34$\366\33\7\302`\234\315\340\35\314sb9\211\27\222t\12#\374\224F\241\340\301\276\351S[\221]\315\301\21\217*\275(\230\36\235\250;%\13\246\336\305By\31\317\346h<\37\225\3Z \231\230\12E\220@+(\13\\\306\234\252\376\3\315\334\265\250\25ij\200\233\202(&U\216O\366\366\251\264\17\262\10\33\335\236#P\11\25nM\363"
	.ascii "6I\330+\234\2\27\234\246\265\340+|\301\6\301"
	.ascii "3,\375\3\352\256\357\332o\244r3&\234\11Q\232B\354\201Di\14<\317\351\231\312\312\345c\374\244\16\234\5\27\373of&\21>\254=\24\253\23\303$\13\264!\255s\264\36\275\332\337y\311\204\365T\15\355\310\222Ve\320\1\256\0\217%\306#!\306\12$\207\31\312\354\212\202\14C/\324\225,\342\374\264_\320\211\4\3<~\232\330Nq\3\325\340\226\335T\364*\23\26"
	.ascii "2\214K\305\202\10q\371\354\203F%\14a\15r}s\"\32YEx\264{\354"
	.ascii "6D:Q\241\13;\351\26\2\177\215\217\21\225\205\205{L\233\4?i\3\347\377M\266\25:]XM'oD\247oH\247"
	.ascii "5B\25E\270\362\26\24h\225fzIf\302\302\376\262\303\35\26\33\257\324\312\355\1\276\226\240\352\213\257\26\1B\225\23\330S\360-\330\220\327w\310\213j\347\342D\355IQ\333\367E}a\274"
	.ascii "0\30~\13.\"\23\312\350_\273,c\372^U\235\30\5\206<\202\366\377\265g$\322\226\14\337\13i.\351\320V\26\252\211\232t\31\223\310\237\205\315\251\241\15\211F\23\37\37;t\370\204\201V\\\247R\330\324\352\13H\244Y\11\245\31\240\7"
	.ascii "5\273\22\322\354\\WM\233\22F\220\341*}\7\30\374\200\31\27#n72\277U\210"
	.ascii "6\264~Y[Q%\272\206\24\251D\15\13\255w\264\200\6##M\314\30uk\305\256tSb\220<\270\334M\211Q\334\244\300udvC\250\321KTG\241\260"
	.ascii "4\344\326"
	.ascii "8D\205\315Ib\235\352yc4\313F\26Y\211\372c\4\265Ox4\16=\272!\252E\327\373i\222\300M\335\242\213\305\7\252U\333+\272q6\320\223\212Z\177\205)\254\312\323\320\17"
	.ascii "6\335\204\3\340Z\20\23\273=\370\347y\325\366\221^\222$\316\6\337\336\13\361\341\222g`0\\r\13\\\370v\341\223\331\275f\322C\261"
	.ascii "0\30\202$$\27\340\33\251\313\331\326\342M\241.#\263d\223ho\237\373\330\214\221\332\263\6\370\263\13<\1\206C\273}p\240\354"
	.ascii "3\313\226&M\264m\203\21l\366\17q\244\301(l\241\341A\260\263\305/\207`\377\37\216\14?\11\34q\36\214!\16\215S\1T\366\366\23\1\331\340\266\0\22\347\335\35\235\320\35p{\7e}\326\263i\200\325M\277\322\345\343\253\273\334\247\273|\2\\\312j\200\360"
	.ascii "3\270\214\327\356>\344hf\34\320\322"
	.ascii "0\270\255\214\16"
	.ascii "9\34^\215\263\37\254"
	.ascii "6\276\14Xy\367\11\306\327\344j\343k*2\276\246\365\361"
	.ascii "5\11\370S\0\304\31\13\364\345B\221"
	.ascii "6\346d\244\345\346"
	.ascii "9s\337\313\313\377\320\241\337;\262\322\362"
	.ascii "3^\330\221\223\303\344\374\214\314\274X\207#=s\247\323\221\235\226\345t8\324P\344\330\372\306\366\327\337}s\233=%o\233}{v\276"
	.ascii "3\327\236\376q\366\216\374\314]\331\364\354\265\224\367\355;3\263\235\317\333\323w\345\332"
	.ascii "1\310\317\314r\322\371\307\376\6\357\330(p"
	.text
	.section	.gnu.lto__ZN3stk14__math_pharserD2Ev@8.f43c2c36,"dr0"
	.ascii "x\234\205U]L\34U\24\276\347\316\354\314,\354\226\225*E\254\335M(\301\7\343\203IkRcb\214\215>\372\342\223&\33R\227@,\24a}\334"
	.ascii "0\300\246\301JZ\202m\203\"\244@\371Q\312_K)\177\266\333*\224\326\266H\201\362#-4)P\215\261\222%]\267\270\301s\356\354\256\270]\224\204\273s\356=?\337\371\356"
	.ascii "7g$\366\364\337\7\370\177\\e\254\20\177Ac\300+o1V\242q.M\246"
	.ascii "0=\301"
	.ascii "4\364\32\323-\22\227"
	.ascii "7Y2\230\14'\23W\374"
	.ascii "6\334Vk\337\300m\5Tc[\5\240\7\6\254\230K\262IQ\241\30~\341\253\34*}m\325\211\231M\272\256\377\321\320\242\277\347\203 g\314\317\15 \320\14\231\350"
	.ascii "3u\366\267\1\213d\7\206\317\375\35k7\23\37\362 \7\7\231\3U\243\325\12\231\\&\263\245w\260"
	.ascii "9!\243Q\257,]l\257;\254y\337\15r\11Z@\302\204\320\12i\360\15\244"
	.ascii "1\334b\360-d\220\377\252"
	.ascii "74\235\250x\261\272\315(\12m\240\0c\246\20g!\16\306\212~\235\17{z\223\244\335\2\201oiaLI\257\327\365\322\305\276\276\317"
	.ascii "5}T\367.nl\330\203\\\206"
	.ascii "3\377\256\24n\242\35\322;\223}\372\306\306\312\0O\6a\313\210\302\244\340\242h\270\250f\\4\13\231VZl \360\375\312\201\263\337"
	.ascii "9\302Al0?\234\304\350\221=@\234\304\345\22\347\364+\315A\351\343##\347\366 \264\206/f\275\232\364\252\200y\352~S\267,`\372\326\313\344M ;\342\201\214\341\202h\210\335\204NH'\354\14\272\350\20\272A\11p\31}\352&\216vp\317\272^\256kAn\16!,\212\\x06\256\321\315\310\302l-\361~\15\265PS\242\353\276"
	.ascii "6\11\273\207\263\340\201s\4\0z\360\200M\201wF\372'iI\363`\205J\341\11\350p>\214s\11\257n2E\232\7\357K\206\247\22[>\321O\345\241\27<\354\377\221\231\205\371\244\361\204\325\0\206N\26\270\200\260\372\250\36\35U\14\214\230"
	.ascii "1\236\242\241\37QRU\6\3\340\11r+!\236\15#V =\202Pf\327\24D\30>\320bQl\363c\17\14\6\21`\220'-\363b\274\276\333\212\341lF\177\206v\225\250\203\221W\317?nU\"\221\266\20"
	.ascii "7.*J\215M\230\247\206\346\357B\264\1\15\206\260\201\357\4\257\27q\33\263\262\10_OQ\362\214\237n\7.\375\27[1\364\370\266\242\347r\224\236+DO\262 \303$\24z\7J\365\332\4:$\15a\340\304\361\223\375\26;\257\325\253\35A\276\235R5\37\273^\16\230\252\232\222=\13\337\203\35q\375\200\270(vu\233\210m\27\261\343_5\227%\11]\341\253"
	.ascii "4\214H\310cb\373&\217\345\225\272&1\23LE\224\332\377\327\341\331h[2\214\10j\256\32\251m,\34\23\327i\24\235H\226e\35\231\341\13\211\7\23\267O\237"
	.ascii "8y\306D\25\237\323\310l\353Z\14J\304Y%\271\231\340\32rv=\314\331\205\301\206^%\222A\206\37I\372\14n\240\307pT\344\12\363\333\4i\323;6\265\25\227\242\233\10\221B\324\10\321FG\1\234\32$\244\373\217TCZ\226X5\245\204h\260lVSJ\34"
	.ascii "5)p\13\221\215\11"
	.ascii "6~\"\250sPV\25V\253\25\263\302\356"
	.ascii "4Q\247~M\215'\331h\221\330\254\343\321\254\267\205F\255\250\321\324\270\22\335\341G\21"
	.ascii "1\230"
	.ascii "0$\272~\354h\275f\177\335\20N*\355\324"
	.ascii "4\372k\314\21V\236\207I\260\33\"\234\2O@\214\356\276\320\237\27"
	.ascii "5\373'FH\232\370H,~v))\22\362\2\334\211\204L\203\7O\277\14\334\30\21\372RR\31\314@\32\202\13\362\235\342E\275"
	.ascii "2\323\215\32\357\22}F\207\310\213\242\301#%\247\37\251\321+\337\25\340"
	.ascii "6\230\25\375\315a\177x\256_\236\15({{\364r\374\276\355b\360"
	.ascii "3\354\25\362\243"
	.ascii "9\273F\3\341\36\200"
	.ascii "1s\331"
	.ascii "2\300\326B\213U\326\374\326\312\272k(\353\36xL[%\204\5\360(\25+O8~S\200\4\204o\374\316\202\234\254\302\"W\341\207E\356\217\235\306\263"
	.ascii "3/\313\235\363\312\201\202\2&\273sr\213\254Ngv\356A\227"
	.ascii "3?+\317\345tja\313\271\347\355\375o\275\377\316>GF\321>\307\376|\267\253\320\221\375i\376\1w\356\241|\332{3\343#\307\301\334|\327\313\216\354C\205\16"
	.ascii "4\334\271y.\32\355\354o\0\27\315\323"
	.text
	.section	.gnu.lto__ZN3stk14__math_pharser22f_decode_subexpressionEj@8.f43c2c36,"dr0"
	.ascii "x\234\225U\373O\34U\24\276\347\316\354\314\354\302\362h\25*\326\354&\224\340\17\215\277"
	.ascii "5&$&Fm\364\37\360"
	.ascii "7\223\15i\227\200\226-\1"
	.ascii "4j\262\351\0\33\213JZB\13!\"X\212P\224\12}P\312\253\355\326\7\205j\213\274\312C(\220\0\266j\322\222\305\342\26W<\347\316\356\272\335.\32I\230\235s\357\371\316\375\356w\276;Wb\217\377\345\343\377_*c\357\343/X\30\360\312\233\214\225h\234K\343)L\267(\375\317"
	.ascii "3=^\342rD$s3c\345\232\311\310"
	.ascii "4\201b\274(\\\365%a\222V\377\2&\251\240\31\303\32\0\275"
	.ascii "03\3v\210K\262IQ53\34\202\273|\225CO\373\332\215\270;\334\317\231\235a\330[5X\253P\10"
	.ascii "2\205\307\32\326\273\325\314f]\327\357\217\36~\247\362\370\11\234\341\314\307\31\264@\32\234\202"
	.ascii "4\342\334\12\231\230:q\356\267\336x\311\6\4;\325\325\327b\311h\322+K\365\312J\302H\360\5H\221"
	.ascii "0\34b\360%d`\362PO{;H\273\4p\356\367\303-V\1\364\16\225\311\257\371\271\14m\321@\231\301i\310\240\354UO`2N\361 \273$\342\204T\276\2\5\30\223\2\234\5p\232C\307\235\316\256Di\267\250\355]\236\37V\322\33u\275ta\260\373cM\37\324=\13\233\233"
	.ascii "6?7A\373\243k\30\177\320\1\351\35\333\274\372\346\346\371\317\256\326@2\210\21\31\31(\12>T\15\37\232\31\37f+\205\11\364`\277p\220\330\257\34\10\317"
	.ascii "8\273\207o\260\306\211\333\22>\250\15\313\30\341\257"
	.ascii "4\3\245\17>\32\350\334\203\314N\36\233\366hR\226`yb\261\371\254,Xz7\312\344\10\216gbq|T\204\0\17\356\34\316B:\221\25\202 \223s\240\254s\31\223\33\306\216\264s\367\206^\256k~n\11\240\226Tb~ixD\243\246\233D\330Z\342\371\24\352\241\256D\327\275m\22n\27\316\203\33:iQ\270\200\23l\2<S\322?EKZ\372*T\202\307aBW\220\333"
	.ascii "26x<E\232\5\317\263F\246\22\275|\274\217d\202\213\340f\377\315\314\"\302\207M\325V\203\30&Y\241\33i\365\320z4U\321;`F<\241\241\27Y\322\252\14\372\300\355\347\11\304x:\310X\201\364\20C\231\15)\310"
	.ascii "08\241E\263H\364Q\343\240\37\11\372y\322\12\261]F\211\20\203\275\33U\14\224\31\201\14\343*\261 \226\270v\341A\253\22*\221\34\340F\227\302\32%\213\360D\377\354\34\204wb\206K\270\223\313B\340+8\214UYH\270\307\264\331\346Ce\31x\377M\266(\235\256n\245\323\327a\235\276!\235\266\13U\24a\317[P\252\327[h\222\314\204\300\261\343"
	.ascii "5=\361"
	.ascii "6^\257\327\332\375\374\11*\325r\364z9`\251Z*\366$|\13"
	.ascii "6\344\365\35\362\"\354j\202\300v\10\354\310'-e\211\302`x\34\6\220\11e\214m\217\310X\371\271\241Y|w\224\"*\355\373\363\203\351\360\266LpMH3h\224NbAL\314\244!L\"\177\226\265g\6\33\22\213&\16\177^]s\332D+\246h\24\266\235Y\360K\244Y%\245)p\35"
	.ascii "5\373>\250\331\305\276\223]J\250\202\11~\240"
	.ascii "3\300\340\6f\14\204\335\256"
	.ascii "2_\222\20m25b[1%\272\211\24\11\242\205\204"
	.ascii "6v\264\216\6##-\336S\15kY\243\335\224\32 \17F\272)5\206\233T\30Ff?\12"
	.ascii "5F\210\352\14\224U\5\335\232\200UaW\232X\247qM\215e\331\360\"\321UG\303U\307\204G\23\320\243;bZt\207\217|\10\343\206E7\216\36i\324l/\33\306y\212F\352\232|u\346\220*i0\1"
	.ascii "6\303\204\267\300\275.>\333\335\201?.k\266\367\14\310\323\342FY\370\360Jb\10\262\23&C\220)pG^b\252\235\301"
	.ascii "4\244!9?\177\206\335\206\22ou\266h\7\235\371\25\200\255\355\20\335\377\231\255\373\377\223\321\377Yp+[\25\204"
	.ascii "9p\253\25w\37rl3^\325\322\24\224$1\272\7\360X\267\336\177s\253\203\215\337_\270\375?\16\366\374V\7{!|\260\27\215\203\275\4xG\202\270\206\200l\207\237\245\235\5\271\331\205E\316\302"
	.ascii "7\212\212\337r\30\357\216\374\354\342\334\347\366\25\24"
	.ascii "0\271"
	.ascii "87\257H\315v\344\271\366;\337\265:\34"
	.ascii "9y\7\234\16Wv\276\323\341\320\202\221c\317+{_z\375\325,{FQ\226}\257\253\330Yh\317y\333\265\257"
	.ascii "8\357\240\213\306^\314\330o?\220\347r\356\266\347\34,\264cP\234\227\357\264\320\265\370"
	.ascii "7QG\363\275"
	.text
	.section	.gnu.lto__ZN3stk14__math_pharser6decodeEPKc@8.f43c2c36,"dr0"
	.ascii "x\234\225U\375O[U\30>\357\271\267\267\267\345\253l\12\23g\332\204\21"
	.ascii "41\32\177"
	.ascii "0&3Fc\\\334?\340o&\15\231%c\16FhM\374\245r\201fA]\266\206\261ID\10\14\371P6\30\270"
	.ascii "1\276\34\365c\14"
	.ascii "67\306\370F6\212\1\234\37\311\206%\303\212\25\337\367\334\266\262\256hl\322{\357{\316\373\274\347"
	.ascii "9\317y\316"
	.ascii "9\22{\370\227\217\177\256"
	.ascii "2V\214o03\340\336\353\214\225\250\234K\343iL3+\375/0-Q\342\362\246H\346&\306\312U\203\236i\0E\377P\270"
	.ascii "1`\301$\265\346%L2\202\252"
	.ascii "7\253\0\364\301L\14X1\227d\203bTMP\14?\361\25\16=m\253\327\22\356\360 g6\206ao\305P\225B!\310\24\36\257]\353"
	.ascii "6f7j\232v\357\207\341\2oe\35\366p\26\340\14\232 \3\232!\203"
	.ascii "8\267@6\246Nt\376\332\233(Y\201`\315]}M\346\254\6\315[\252y\275\204\221\340"
	.ascii "3\220"
	.ascii "6\303\260\211\301\347\220\205\311\225\35"
	.ascii "5C\11\322.\1l\375\353\360U\2j\245\276\332"
	.ascii "2yo\220\313\320\32\13\224\31\234\206,\312^\361\204\246\22\24\17\262\263\20'\244r\6\24`L\12q\26\302n\16\355w\316u\245H\317\211\332\276\245\371\21%\263\36k\373g\272?T\265!\315\343\337\330\260\6\271\1\332\36\34C\377A;d\266o\363i\33\33\201\346\205\305\27!\25D\223\214\24\24\5\37F\25\37\252\11\37\246$\12\223\351\301~\346 \261_8P\1\306\331]\374\202UN\344\26\361A\353\260\204\21\276\245Y(\275\377\301G3\223\12r;u|\306\243J/\13\236u\13\215\35\262\340\351[/\223"
	.ascii "7\261<\33\217\345\203"
	.ascii "2\204xx\356\320\1\231\304VH\202T:AY\343"
	.ascii "2&\327\216\35m\343\356u\255\\S\203\334\34B5\251\304\374\342\310\250J\313n\20aK\211\347\23\250\201\352\22M\363\265J8_\370\2\334p\216\6\205\363\330\301&\300"
	.ascii "3-\375S\264\244\251\357\210\221\340\11\230\320\25\346\266\204K<\236&\315\201\347I=S\211\35>1@:\301\5p\263\377ff\26\341\37\15'\222tb\230\224\4\335H\253\207\306\243\256#\275\203&\304\23\32z\221%\215\312\240\17\334A\236L\214g\302\214\25\310\214"
	.ascii "0\224\331\260\202\14\303\35j,\213\224\0\255\34\364#\301 \267,\23\333%\224\10"
	.ascii "1\270x7\25\35eB \303\270B\14\210%.\237\277\337\242DJ\244\206\270\276JQ\215REX\327?w\13\242"
	.ascii "31\301\227"
	.ascii "8\223\213B\340\1l\306\252,\"\334C\332l\13\240\262\14|\377&[\214N_m\245\323\327Q\235\276!\235\266\13U\24\341\317I(\325j\314\324IfB\340X\345\311\236D+\257\321\252lA\376\10\225j:v\245\34\260T\25\25{\24\276\5+\362\272\204\274\10\273\222,\260\355\2;\372qSY\212"
	.ascii "0\30\356\207AdB\31c\333"
	.ascii "7e,\377X\333(N\36\305I\245\3\177\36\236\211N\313\0\227\205"
	.ascii "4Czi\13\13c\342&\15c\22\371\263\254-;\274 \361hb\363\247'N\236"
	.ascii "6\320\210i\252"
	.ascii "8{\316\372\203\22i\346\245"
	.ascii "4\5\256\240fW\303\232]\350;\325\245D*\30\340;\332\3\14\256a\306`\324\355F\26\260\10\321\246\322"
	.ascii "7M+\256D\327\221\"A\324\210\320\372\214\326\320`d\244\205\273F\335ZI\261nJ\17\221\7"
	.ascii "7\273)=\216\233\214"
	.ascii "0\202\314n\10"
	.ascii "5F\211\352,\224U\204\335\232\214UaW\206\30\247~\325\30\317\262\321Ab\253\336\214V\35\23\36MF\217\356\210k\321\35\1\362!\214\353\26]?v\264^\265\356\325\215\363\30\265T7\4\252M\21U2`\2\254\272\11'\301\275&\16\356\356\320\357\27U\353{:\344qq\247\370\337\37H\211@v\302T\4"
	.ascii "2\15n\354\375m`jN&=\214O1\230\201\14$\27\344O\260\333P\342\277\264~CX\234f\315\226\1\266"
	.ascii "6D\254\3f\267v\300\367\272\3\346\300\255lU\20n\201\333\330\326y\346Y\\h\274\256\245i(\261"
	.ascii "0\272\12pc\267\334;\260\325\326\306\23\30n\377\217\255=\277\325\326\366G\267\366\202\276\265\27\1\357I\20"
	.ascii "7\21\220\361\360`\332Y\270?\247\310\351(z\323\351z\333\256\177\333\363s\\\373\237\331WX\310d\327\376<gb\216\335\361na\221\303\351\314;T\220d\267\347\346\35t\330\13r\362\35v\273\32\216\354\317\277\266\347\325"
	.ascii "7^\337m\313r\356\266\355)p9\212l\271\357\24\354s!\200\332^\311z\313v0\257\300\361\264-\367P\221\15\3W^\276\303L\327\343\337\253\5\370Y"
	.text
	.section	.gnu.lto_.symbol_nodes.f43c2c36,"dr0"
	.ascii "x\234U\216\313J\3A\20Eow\345&=i\264\3\361\261t\347o\326,B\20\4\361\17\22\337\361\211\21#J\262t\355\322/\310\322\217\220\251\236\201\231\336\34.u\352V\13\200\225C~\376\202\12\234\377\0\252"
	.ascii "8\233\7pF\314\275\12\237\331"
	.ascii "3\276\222\25\375%\325"
	.ascii "5\342\264,\340o\250\276\263yEg\33+\366\215\37\34Tt\357T\311\"\312\223\0\177K\355u\232\26Tv\232\356\350\255\341\223\301\370\305\302\376\360@\355w\304{\212\11k\16\215\33F;\371F\35"
	.ascii "4'\313\0\267\244\206v~\241\26\355\374D\35\266\363#5\266\262\340\20\333\305\261\340\0\327\313\35\301>&\323_'\330\303\344\364o6\22\214\361\275+\314\22\263\304Z\242IG\22\363"
	.ascii "4\346i\254\247\261\251\210cl\243\244,\245,\245ZJ\215\224*\11\377\215\262of"
	.text
	.section	.gnu.lto_.refs.f43c2c36,"dr0"
	.ascii "x\234%\311K\16\203"
	.ascii "0\14\5\300\367)\261i\3\304d\201\304\5{\377\33\264\22\263\35\3\370\342\21\0)\232\12"
	.ascii "1\341\242\247x\363\345\377-hT3#\324\22Y\314\251\25|{A|\320\251nn\241\236\330\213\373T\277\342\300\240\206Y\241\221"
	.ascii "8\213\347\324\270\360\3\233\210\3\21"
	.text
	.section	.gnu.lto_.decls.f43c2c36,"dr0"
	.ascii "x\234\305X\13TT\307\31\276sg\331\27\13"
	.ascii "41M\14M+!9D\33_QbM\37)M\264\311\261\255IO\333\264\265=g\203@\"-\202\205"
	.ascii "5\217\236\346\344\362\22PD\336\242\200\254\21DE\21\25\20DaEE\14(\32P\4\24\26\301\210F\5\3D\360\301\366\237\231{w\357\25\326&\355"
	.ascii "9\351\36~\356\235\271\377|\363\375\257\231\271\27s\34w\20s\234\15~\37=\301q3\324\34\347\2}o\200\300-\267\15\244\24\244\14\244\2\244\22d\21\307~\6\220n\220^\220\1\220~\220A\20\33\210\6q\234\33\310\343 O\202<\7"
	.ascii "2\35\261"
	.ascii "13\341:\33d\16\210/\310|\220\237\200\274\2\262\0\344\227 \257\203,\2\371"
	.ascii "5\342\24?2\237\227\310\317]\344\360\33\320"
	.ascii "9\14\327\235\"7o\220\227E\356\217\200,\206\347\217\301u\32\\\337\0\361\6\371\31\264\337\204\253\16\344-\220?\202,\206\276_\200\374\11\215\267\371\21\350\273\0\327s \215 \340"
	.ascii "2\256\15\244\5\244]\364\25\341"
	.ascii "6]\264\365I\321v\342\3\25\347\260\361\317\210\331/\377\21\337M\371?\333\304\211"
	.ascii "6\20.F4\336\16b\203\24\37\22\273\267\37\260\201\304\374\7"
	.ascii "2\376\215\242\15\376\337\222\35\22\177\233\223\30\220\234\226\362j)\310"
	.ascii "21\377\344?\222\263\23\331\200\276e\33"
	.ascii "4\23\370_\262A\252\211`\220\277\213\365#\377\335\342Qe\361\320I\327>\36\271\353\275H\363@j}\226\32\232\6\275\212"
	.ascii "4\243+\22\212\264\206\325\202\20E\376t\365\356\350"
	.ascii "1=\332\212<Q!\362\4S\267!b9\275\202r}Q\356\333\230G0N\325\177\346^\245\33\362\364\324\373d\11\361\302\310\24\264\23\351"
	.ascii "9rk\351\263\331>\266\261\337:\15\355\216\27\340gM\21\360d\16M\367D\323<9\264\13\371\320G\34*\202\271v\300\\\371\240\223\34'\274\302\221~\264\35a\245\25\331\353\213\373]\364\"R\374C\221@{\355\321\224v\17j\363"
	.ascii "6L\332I\367o\304h\251\321/\222\246\255\274\265\33\321\246/i\256\276\273s\14"
	.ascii "3l\321\7\6\271\17\366R\364\251\236h\17\3\277\224\220vS\377h2\321\206\177^\210\22\336\15\352%T}\37zT\32D\264w4\235\313\347\345\332\305N\265Q)z\24F\\_\223\232\242Q\204\4\372e|\312\304\230\224\321\230\330\266Vo\327:'_.\221\237J\271_O\312=$r\267FJ\334\231'9\264\237r)\227\230\367"
	.ascii "6\332\256\272\311u\213\235\350\242\12\312\273\327\234\336\352\242\340]\241\340])\362\256\244\274O\255M,\307x\22I&d\36\330"
	.ascii "3`P\361\34:@\303\16=\215\33\362\363\15"
	.ascii "4\200f\32\300\236\276\244,\17<\205j\247l\356\334\350\212g\2%\372\304\222\322\343:}\7\220\204\334;\255vd\214e\377\360n\315\264B\301,\14\334-\371\227 \250\320\33\217\243j\204Q\15\232.\317\254\373-\273?W\322&>q\320>\314h\203\346\361\212\226R-\376\13%q'\266y\25O\11Zx\322\336v\351T\252\33M\251\251\244y\276~\375\213\264\245#\255\266\310\216\257\334\235\307\250N\212\321"
	.ascii "1\226`\351m{\272\220#eL\204\2:\2\352G\251\372q\352\372:)L\203\327\255"
	.ascii "5\30/\243\254\252\256D\265i\360G\364\276\370\342\221\367\201\302\"=\301\31!\345\210>\206\356\23\315M\247]h?\351\322\200&?<|`\207\26\351}d\4"
	.ascii "9;=t\22\12l\21!\370)\364"
	.ascii "4\210\225:\260\366r\263;\361i#\370\352\204\335\251TQ\364\326\211\362\213\3Z\\\217\220|\21"
	.ascii "2\260E\250\244\246(AG\275\367"
	.ascii "6in\277"
	.ascii "0lq\307=L\265\353vW\255\206\252\316\206\246.)\366N\265+\362\361\236"
	.ascii "4\311\307\333\333{\3\202\351!\242\355\205u82\371mt\16MB\207`z\13\232\346X.\314\202Pk\315\336kQY\216b\352\273Z\320 \232v\233\246\22?\376\20\376q)\202\5\274l\21\374L\34:\210X\215\243V0\231\350\3*j\206\373\26\344\215\316\203\264\203\264\201\300sbl\7\2:\23\2"
	.ascii "4\177\3\0\342N\353\206\13\302\2-:+Z\3C\311cva\6Y\254"
	.ascii "9\311\261\324 \10?\252\27\15\222\222\202\31\264\225\244\7Q\26\254E\237"
	.ascii "1\353Ix\316<h\375g\310n>A6\347\232\243\374D\335S\17\352"
	.ascii "6Q\335\323\24y}\244\27\345Dg#\241\272"
	.ascii "2\32\325\350\241(\35\371X\16]\260\227\316\201\252\303\233UP\341\264\17-\241[\317\341\301\301-\206\311\231\342\372\362\35D\352\223./\250\12\251"
	.ascii "8\324\211&\203\372ErK&%\231\321U\350\213c\351\376\203\362\12s\257\362"
	.ascii "8\225"
	.ascii "5\326\306G\37\365\360\332$\230\315\3}\333WMI\22\314\221\226"
	.ascii "1\310w\12\202\272\354\36\345\220U\334WP7\362\"\25\275\277a\310\3\237d(\7O\337-s\307\355\254\321"
	.ascii "3\326\267\323\205B\12\0\207\314\260\251Q\260K2\260\36\11\254\227\202\215_\305\234[x\231\230\365\371"
	.ascii "8\13\33o6D\351\360\10\243\220\35U\31\351\202c1m\324"
	.ascii "6Ud\"\352\300\305\222\377v\246V\245i\245\256\253\210\366\245_\315"
	.ascii "8\253\246}\336zt\215\365e\366\246\330\14\264o\221\36}\301\372n\226\327\217\270<\221\341`\266\310\261\264\337@p\360G\327\221\212\31Q\220\326\223h\300[\30\215\342\246\201\333*\342\26\241/2\325"
	.ascii "0`\263y\20utS\362\204t\3\252\205\247\317M!\232%\346]9\202_\224\0\1\301\304dtE\346\302>\242\217\372\221\27\374\37\240^\274}\350F\272\32W\260\351\222\342\16\217\272\342c\254q\375xU5O\21iH,$$\4\357\226\14\357K\211\310\240\223\220\324T\217\324\351q\17C\214\334Z\225H\226\232\327\365\364YW\366h\276\216"
	.ascii "6\311\322\350A\226\306uuu\33\15\310G\317\326\274\330\314\357\222"
	.ascii "5o\24\12e\330\261\346\275.\256y\361\216:\220-\237#P\376D\3}\5=\267\331\2\237Q_\22\357A#B\240X4\217\27\336\316\323\330+\344\16\13\323\372\236\224\12\215<\201\32\245-\30\15\221\264\271G3\350\256,\203\232\317w\236\364\300\327\231}5\227\212\177\213\243U\364\376\332\272\352Uj\342=+\324\310\272\347H\215\10\254F\0\4\335\227\371pL\362\241\315\211\17\233\222w\334U\236\31\213\25;f$/\225\375\225/\273\217\350\250Q\320'\32Z3\234\226\301\333\15\215\342igLa\367\240\307\304\206\12\240\201bxbh4\357"
	.ascii "04\367v\347e\3\336\317\214K\274\\tT\205\253Y\243?oM\34\315\23\263\371\24\315\274{$\363\0\1\305\362\16+W\361\242\225\240KK\365R\232\33e\265\315\276@\345\11q\231jy\221H\345\13Z\11<)\222x^,\222\270\370\354\33j\334\303\10\324E\225^\320\343a\326\310\211\261\266\352\211\373\326\360\242\373z\373\13\206\334\201\237"
	.ascii "5\331\232sn\225&?K8j\263\375\234B\242\325T\11%\22CWK\14\327R\206g\317\225\227\273\343;\14uW^i\36q\"J\222P\317o\253\312WI\256f\33\360\301\375"
	.ascii "5\356\23\321G\353\10|\12\265 Y\262 :1\272C\207c\\\304cUV\177\311j\3^#57e\337\34T\261\303T^Y\376\207\321\202\37AK\343\225;/(\36\261\336\264\250p\261\13\253\330\353Yy\6b\251`"
	.ascii "\335]\362Rm$\215\4\235\31\245\302\320t\236\16E\31\222\241\231\324\320\334\273_\315\301u.N\274wh\315\256X\25\365\336@_\302\361?tG\246&\12\227l\266)\314\177\353\231\377\262\210\201\353%\330\15\24v\357\226\202rv\346\360#8\371\31\231;]\350"
	.ascii "1CK\27\316\201\212\363:\334\356\242X\27\274\331\272"
	.ascii "0\32\227\20\243\247M\233\364#j|\305\255\312j\304\316MQBr\224\360H\344\236\247"
	.ascii "8\264\221\367D\331<T\276\231\367\241\10(\27z6\361\322\301\351X\346\14\262\210\344\361z\224\303\333\27\21o\307\301i|\301\355\33\310\332\254\221G\222\14f\241\334L,\375\204\206r\211\30\311\315\345"
	.ascii "7z]q\217\24\272}\5wV#\374\5\263,\346\323\322x\17\351Pl\346\305Sq\376\370"
	.ascii "8\36\253k\272\251\305\3lTZ\323\231Qw\26\307\354\203\216"
	.ascii "8\302\264h\13\14-\20\343\270Urx\341\327/)\331\276\263\235Z\261MJ\310\241\344\303o\340\4\265\223"
	.ascii "40\217\305_\323M\230\6\0\203v\260"
	.ascii "4(\"\316\331!\261\332IYuV\334\312\320\340\\\206;V\265\256U\365\314f8\3Yn|\262\315/\13X\1\6y\5\336\5\243\354\241\344h\223`\24\363\317\300\260\366\366\364\213n\270\216al\330\320\333\241\246\30\346\12%\306n%\306n\21\243\204btm\352\270\246\303\375\14#\262\250\262U\304\250Wb\354Qb\354\21"
	.ascii "1\366R\214!k\317\200\13.\326P\214\266\224\346"
	.ascii "4\236a\264)1\366)1\366\211\30\245\24\243\272\373X\277\1w2\214\362\234\334\36"
	.ascii "7\272\275[7\334\253\360\252\215\22\356\323H\223\223\217\343`\352\310\222\15\7w\225\253\361\25"
	.ascii "6xxm\321\240;\20\200-&\247}3\262H\14^vEe\220%\345\274\227\214\304~\221D\5%\221~\244\376\244+N\322R\234\263\253s\33]p.k\214\355\350HA\24\324r\"ZU/BB\326T\212\220\216m\347\0\201D\317B\345UQ\320\361u\344"
	.ascii "8D-\222\266\335\242/\257\25\272\331w\243Cl7\372\274pW\207v\302s\333A\222Q5t3\252\226mF\335\203\243g\365\314o\273\230\337\306\250\337@sB\277U\246\15\356W\343\6fb\336\305M\235\256\314o\25\23\370\315\242\360\333a\321o\265\324\304\373\261WS\264\370K\206\23\335\331\372\264"
	.ascii "3OY\24\236:b\367\324Q\12\223\335\22\237\241\303f\35\205)ij\336\342\302\350\324"
	.ascii "3:1r:p(\220\321"
	.ascii "9&\322\251c\271"
	.ascii "4x\0^\220/2\234\270\336{\267"
	.ascii "52>1r>\4\305\301\347\270\235O=\305\211+\272\331\205\361f=K\253\322\261\14"
	.ascii "1\255\332&\340\23\247p\317\11\221\317\247\24'\241\266\244]\203\233\30N\374p\345Y7g|\342\24\376i\260\363i\244"
	.ascii "8\265"
	.ascii "5\225\223\245\363N\274\323\327\34t\222'\37"
	.ascii "6Z\206\256V)\277'\220\25\311\241}\212\235\216\310\25\264\33\312O\247\311\264_\247\213\252C\271ITnr\2\235\240\320>-j\237\246\332U#\345\205\356t\303\263R\7\354=\330"
	.ascii "7\354Aw\274\247H\363\323\321\236+l\3\374\36iZ\327\\+Q9\377F\321\302\213\337(\232yz\204mJ\267t\214\373\10v\6\342\360\31\215\303Y\376Qi\20\375\306\322\321\277\25=\370\21lbmt\216'\37\223\12\16\25o\345\225\257\226\274\374cR\253hj+55\266\266v\10)\264S\24\216"
	.ascii "9/j\237\247\332\203_$\235q\177:\217|2\262\324j\241\270\351\353 \333$\332\370\247A\343\306\311\322iN\16~\355\212\275"
	.ascii "6\276\276'\206\307"
	.ascii "1\256\342^[f\271<\214q\222\324\334\230\31U\246g\273-,\221\350\2/\373\250Il\34\252.p\305\251\256\354\320X\223\31M_8S\204\244d\377x\362r\3S\241\16H\316\213\342\376\332)\355d]t';\265%\275EO\315\200\23}\303k\221\202\37{\211b:VjHb\377H;\375:(\245\356\303\336LP7\257'\7\206\206\214\30W\245{l\22\352%\212jm1_\321\342O\30\361\241\276\374\1\354C\317"
	.ascii "6q\344<AJ\252Gn)Q\272U\272\361\236\253\224]\17\360\350\345\37\370\300D\316\360\15kFTx+\233\241\245+7Q\215\313Xc\337\345\352\335d\265\314\202w\375\204\324\357&\13\346\250d\1\316\317\10]\206C\321\347\343\326\226+\264\226\13\20\354\3}\264\230GsJj\261\322<\250~f\336Uj\336`\347\365\2"
	.ascii "5\36e\363\345\334\277\272FG\347"
	.ascii "3\267\231\5\277\30"
	.ascii "3}k\262O\246\\8\256"
	.ascii "9&\373\202\177\206S\5,\363\17w\375\351\322\225\301!\246\31\301\241/s\256Fc\204)0\300?$\304ht7\32\227\373\233\226\31W\200NDP8\216"
	.ascii "0\375]\373\332\342?x\275\372\374\363\334\24\261\363\257"
	.ascii "3g\315\204\277Y\246\340\345A\263@\301Hnf.\343\14\357\30\203>X\21\36\24\21\21\34\26\372\330;\306\210\25!\301\246\240@Y\247&8\324"
	.ascii "4w\216\321\364\312\253?\236\365[\23\374\275"
	.ascii "8\363\305\231\263g\375>,,$b\326\362\340\320w\337\367}i\216q\356\234Y\301\363\346\317\233\361\376<\337\31\264\223t\204\6\204\254\14$\323\5\2\6L\346"
	.ascii "9\21\276"
	.ascii "1 le\250I\15\255\225!&O\211.\241\310\356\251m\204\251\321\270\324\37\232\1\246\260p\257\357\33\227,\236\13:/\370*m\177u\316\302\367\374|\237r\206\22\260b\5\301\11\10[\276\342?\340\274@p\244)\3\37\246\272\200L9\377"
	.ascii "1\243\361\335\17>0\256\10\12\217\10\13\365\7\33?4\276"
	.ascii "7[\232\352\341\343\311T\363\265+E7?\376\216"
	.ascii "10( ,0\310\30\261r\251\303Ks\235\214\236"
	.ascii "3gb\375\205\177\363\233\257f\17\236u2t\36{\274\360\315_\5\370\315\177\4\250~\340o|w\245\177x\240\321\177iX\270I\25\22\344\377\216\16\272A\15\222L\275\"\34\30F\340\200\260\320\37(r*8\214\346\23\364G\204\205\220\224zB\234o.t\315c\243\310\34\377\234$\237\"<\10\340#\202\250\331\363|\215&\15\311G\343\362\10\25\271N\26\21|I\343G\342\23\360\322l\5\204\177\300?V\6\207\7M5.y\355-'Q\364]\370\336\302\371F\232\353\306\27\36\242\270@\241\370\262sE\347\356v\14\237\345|\270\314\345\16}\255t\343c\\\362u\354\200r\17\12"
	.ascii "5\5\205C\25\221\216\31\17\35E:\345\332N\347P\272\300)\350\202\211@\177\352L\373\353\270\353\325\377b\360\203\4\234\322\235\320\341\276_G\373\301)tp\13\13\233\277)\10\326\327@\17\343\222\337\231^\262w\275\207!\215eq\11\11\16\15\372_\355\"\30\337\230)\31\364oe\11\305\263"
	.text
	.section	.gnu.lto_.symtab.f43c2c36,"dr0"
	.ascii "__ZN3stk14__math_pharserC2Ev@4\0\0\0\0\0\0\0\0\0\0\0\0\341\0\0\0__ZN3stk14__math_pharserC1Ev@4\0\0\0\0\0\0\0\0\0\0\0\0\344\0\0\0__ZN3stk14__math_pharserD2Ev@8\0\0\0\0\0\0\0\0\0\0\0\0\360\0\0\0__ZN3stk14__math_pharserD1Ev@8\0\0\0\0\0\0\0\0\0\0\0\0\363\0\0\0__ZN3stk14__math_pharser22f_decode_subexpressionEj@8\0\0\0\0\0\0\0\0\0\0\0\0\377\0\0\0__ZN3stk14__math_pharser6decodeEPKc@8\0\0\0\0\0\0\0\0\0\0\0\0\7\1\0\0___gxx_personality_v0\0\0\2\0\0\0\0\0\0\0\0\0\357\0\0\0___cxa_guard_abort\0\0\2\0\0\0\0\0\0\0\0\0\15\1\0\0__ZN3stk3con6printsEPKcz\0\0\2\0\0\0\0\0\0\0\0\0\26\1\0\0___cxa_guard_release\0\0\2\0\0\0\0\0\0\0\0\0\31\1\0\0__ZN3stk4time7time_msEv@0\0\0\2\0\0\0\0\0\0\0\0\0'\1\0\0___cxa_guard_acquire\0\0\2\0\0\0\0\0\0\0\0\0,\1\0\0"
	.text
	.section	.gnu.lto_.opts,"dr0"
	.ascii "'-fno-trapv' '-dD' '-malign-double' '-momit-leaf-frame-pointer' '-m32' '-mfpmath=sse' '-mpreferred-stack-boundary=8' '-mmmx' '-msse' '-msse2' '-mthreads' '-mtune=generic' '-march=i686' '-g' '-g' '-O3' '-fno-use-linker-plugin' '-fverbose-asm' '-fstrict-aliasing' '-fwrapv' '-funroll-loops' '-flto' '-fexceptions'\0"
	.text
	.section .rdata,"dr"
LC0:
	.ascii "pharser\\stk_pharse_math.cpp\0"
LC2:
	.ascii "\0"
	.align 4
LC3:
	.ascii "DEBUG: %s: Enter function: %s@%d line, for %d time\12\0\0"
	.section	.text.unlikely,"x"
	.align 2
LCOLDB5:
	.text
LHOTB5:
	.align 2
	.p2align 4,,15
	.section	.text.unlikely,"x"
Ltext_cold0:
	.text
	.globl	__ZN3stk14__math_pharserC2Ev@4
	.def	__ZN3stk14__math_pharserC2Ev@4;	.scl	2;	.type	32;	.endef
__ZN3stk14__math_pharserC2Ev@4:
LFB703:
	.file 1 "pharser/stk_pharse_math.cpp"
	.loc 1 9 0
	.cfi_startproc
	.cfi_personality 0,___gxx_personality_v0
	.cfi_lsda 0,LLSDA703
LVL0:
	pushl	%ebx	 #
	.cfi_def_cfa_offset 8
	.cfi_offset 3, -8
	subl	$760, %esp	 #,
	.cfi_def_cfa_offset 768
LBB2:
	.loc 1 12 0
	cmpb	$0, __ZGVZN3stk14__math_pharserC4EvE8__time_1	 #, MEM[(char *)&_ZGVZN3stk14__math_pharserC4EvE8__time_1]
LBE2:
	.loc 1 9 0
	movl	768(%esp), %ebx	 # this, this
LBB3:
	.loc 1 12 0
	je	L16	 #,
L3:
LVL1:
	.loc 1 12 0 is_stmt 0 discriminator 2
	movl	__ZZN3stk14__math_pharserC4EvE14__entered_time, %ecx	 # __entered_time, tmp102
	movl	$LC0+8, %eax	 #, __file_name__
	movl	$LC0, %edx	 #, tmp101
	cmpl	$1, %eax	 #, __file_name__
	movl	$12, 12(%esp)	 #,
	movl	$LC2, 8(%esp)	 #,
	cmove	%edx, %eax	 # __file_name__,, tmp101, __file_name__
LVL2:
	movl	$LC3, (%esp)	 #,
	leal	1(%ecx), %edx	 #, D.29904
	movl	%eax, 4(%esp)	 # __file_name__,
	movl	%edx, 16(%esp)	 # D.29904,
	movl	%edx, __ZZN3stk14__math_pharserC4EvE14__entered_time	 # D.29904, __entered_time
LEHB0:
	call	__ZN3stk3con6printsEPKcz	 #
LEHE0:
LVL3:
	.loc 1 14 0 is_stmt 1 discriminator 2
	movl	$0, 48(%ebx)	 #, this_17(D)->result
	.loc 1 15 0 discriminator 2
	movl	$0, (%ebx)	 #, this_17(D)->f_expression
	.loc 1 17 0 discriminator 2
	movl	$0, 44(%ebx)	 #, this_17(D)->f_splited_expression_count
LBE3:
	.loc 1 18 0 discriminator 2
	addl	$760, %esp	 #,
	.cfi_remember_state
	.cfi_def_cfa_offset 8
	popl	%ebx	 #
	.cfi_restore 3
	.cfi_def_cfa_offset 4
	ret	$4	 #
LVL4:
	.p2align 4,,10
L16:
	.cfi_restore_state
LBB4:
	.loc 1 12 0 discriminator 1
	movl	$__ZGVZN3stk14__math_pharserC4EvE8__time_1, (%esp)	 #,
	call	___cxa_guard_acquire	 #
LVL5:
	testl	%eax, %eax	 # D.29904
	je	L3	 #,
LEHB1:
	.loc 1 12 0 is_stmt 0 discriminator 3
	call	__ZN3stk4time7time_msEv@0	 #
LEHE1:
LVL6:
	movl	%eax, 496(%esp)	 #, %sfp
	movl	%edx, 500(%esp)	 #, %sfp
	movl	500(%esp), %eax	 # %sfp,
	fildq	496(%esp)	 # %sfp
	testl	%eax, %eax	 #
	js	L17	 #,
L5:
	.loc 1 12 0 discriminator 5
	movl	$__ZGVZN3stk14__math_pharserC4EvE8__time_1, (%esp)	 #,
	fstpl	__ZZN3stk14__math_pharserC4EvE8__time_1	 # __time_1
	call	___cxa_guard_release	 #
LVL7:
	jmp	L3	 #
	.p2align 4,,10
L17:
	fadds	LC1	 #
	jmp	L5	 #
L9:
	movl	%eax, %ebx	 #, tmp98
	.loc 1 12 0
	movl	$__ZGVZN3stk14__math_pharserC4EvE8__time_1, (%esp)	 #,
	call	___cxa_guard_abort	 #
LVL8:
	movl	%ebx, (%esp)	 # tmp98,
LEHB2:
	call	__Unwind_Resume	 #
LEHE2:
LVL9:
LBE4:
	.cfi_endproc
LFE703:
	.def	___gxx_personality_v0;	.scl	2;	.type	32;	.endef
	.section	.gcc_except_table,"w"
LLSDA703:
	.byte	0xff
	.byte	0xff
	.byte	0x1
	.uleb128 LLSDACSE703-LLSDACSB703
LLSDACSB703:
	.uleb128 LEHB0-LFB703
	.uleb128 LEHE0-LEHB0
	.uleb128 0
	.uleb128 0
	.uleb128 LEHB1-LFB703
	.uleb128 LEHE1-LEHB1
	.uleb128 L9-LFB703
	.uleb128 0
	.uleb128 LEHB2-LFB703
	.uleb128 LEHE2-LEHB2
	.uleb128 0
	.uleb128 0
LLSDACSE703:
	.text
	.section	.text.unlikely,"x"
LCOLDE5:
	.text
LHOTE5:
	.globl	__ZN3stk14__math_pharserC1Ev@4
	.def	__ZN3stk14__math_pharserC1Ev@4;	.scl	2;	.type	32;	.endef
	.set	__ZN3stk14__math_pharserC1Ev@4,__ZN3stk14__math_pharserC2Ev@4
	.section	.text.unlikely,"x"
	.align 2
LCOLDB6:
	.text
LHOTB6:
	.align 2
	.p2align 4,,15
	.globl	__ZN3stk14__math_pharserD2Ev@8
	.def	__ZN3stk14__math_pharserD2Ev@8;	.scl	2;	.type	32;	.endef
__ZN3stk14__math_pharserD2Ev@8:
LFB706:
	.loc 1 21 0 is_stmt 1
	.cfi_startproc
	.cfi_personality 0,___gxx_personality_v0
	.cfi_lsda 0,LLSDA706
LVL10:
	subl	$764, %esp	 #,
	.cfi_def_cfa_offset 768
LBB5:
	.loc 1 24 0
	cmpb	$0, __ZGVZN3stk14__math_pharserD4EvE8__time_1	 #, MEM[(char *)&_ZGVZN3stk14__math_pharserD4EvE8__time_1]
	je	L29	 #,
L20:
LVL11:
	.loc 1 24 0 is_stmt 0 discriminator 2
	movl	__ZZN3stk14__math_pharserD4EvE14__entered_time, %ecx	 # __entered_time, tmp100
	movl	$LC0+8, %eax	 #, __file_name__
	movl	$LC0, %edx	 #, tmp99
	cmpl	$1, %eax	 #, __file_name__
	movl	$24, 12(%esp)	 #,
	movl	$LC2, 8(%esp)	 #,
	cmove	%edx, %eax	 # __file_name__,, tmp99, __file_name__
LVL12:
	movl	$LC3, (%esp)	 #,
	leal	1(%ecx), %edx	 #, D.29914
	movl	%eax, 4(%esp)	 # __file_name__,
	movl	%edx, 16(%esp)	 # D.29914,
	movl	%edx, __ZZN3stk14__math_pharserD4EvE14__entered_time	 # D.29914, __entered_time
	call	__ZN3stk3con6printsEPKcz	 #
LVL13:
LBE5:
	.loc 1 26 0 is_stmt 1 discriminator 2
	addl	$764, %esp	 #,
	.cfi_remember_state
	.cfi_def_cfa_offset 4
	ret	$4	 #
LVL14:
	.p2align 4,,10
L29:
	.cfi_restore_state
LBB6:
	.loc 1 24 0 discriminator 1
	movl	$__ZGVZN3stk14__math_pharserD4EvE8__time_1, (%esp)	 #,
	call	___cxa_guard_acquire	 #
LVL15:
	testl	%eax, %eax	 # D.29914
	je	L20	 #,
	.loc 1 24 0 is_stmt 0 discriminator 3
	call	__ZN3stk4time7time_msEv@0	 #
LVL16:
	movl	%eax, 496(%esp)	 #, %sfp
	movl	%edx, 500(%esp)	 #, %sfp
	movl	500(%esp), %eax	 # %sfp,
	fildq	496(%esp)	 # %sfp
	testl	%eax, %eax	 #
	js	L30	 #,
L22:
	movl	$__ZGVZN3stk14__math_pharserD4EvE8__time_1, (%esp)	 #,
	fstpl	__ZZN3stk14__math_pharserD4EvE8__time_1	 # __time_1
	call	___cxa_guard_release	 #
LVL17:
	jmp	L20	 #
	.p2align 4,,10
L30:
	fadds	LC1	 #
	jmp	L22	 #
LBE6:
	.cfi_endproc
LFE706:
	.section	.gcc_except_table,"w"
LLSDA706:
	.byte	0xff
	.byte	0xff
	.byte	0x1
	.uleb128 LLSDACSE706-LLSDACSB706
LLSDACSB706:
LLSDACSE706:
	.text
	.section	.text.unlikely,"x"
LCOLDE6:
	.text
LHOTE6:
	.globl	__ZN3stk14__math_pharserD1Ev@8
	.def	__ZN3stk14__math_pharserD1Ev@8;	.scl	2;	.type	32;	.endef
	.set	__ZN3stk14__math_pharserD1Ev@8,__ZN3stk14__math_pharserD2Ev@8
	.section	.text.unlikely,"x"
	.align 2
LCOLDB7:
	.text
LHOTB7:
	.align 2
	.p2align 4,,15
	.globl	__ZN3stk14__math_pharser22f_decode_subexpressionEj@8
	.def	__ZN3stk14__math_pharser22f_decode_subexpressionEj@8;	.scl	2;	.type	32;	.endef
__ZN3stk14__math_pharser22f_decode_subexpressionEj@8:
LFB708:
	.loc 1 30 0 is_stmt 1
	.cfi_startproc
	.cfi_personality 0,___gxx_personality_v0
	.cfi_lsda 0,LLSDA708
LVL18:
	pushl	%ebx	 #
	.cfi_def_cfa_offset 8
	.cfi_offset 3, -8
	subl	$760, %esp	 #,
	.cfi_def_cfa_offset 768
LBB7:
	.loc 1 32 0
	cmpb	$0, __ZGVZN3stk14__math_pharser22f_decode_subexpressionEjE8__time_1	 #, MEM[(char *)&_ZGVZN3stk14__math_pharser22f_decode_subexpressionEjE8__time_1]
	je	L45	 #,
L33:
LVL19:
	.loc 1 32 0 is_stmt 0 discriminator 2
	movl	__ZZN3stk14__math_pharser22f_decode_subexpressionEjE14__entered_time, %ecx	 # __entered_time, tmp105
	movl	$LC0+8, %ebx	 #, __file_name__
	movl	$LC0, %edx	 #, tmp104
	cmpl	$1, %ebx	 #, __file_name__
	movl	$32, 12(%esp)	 #,
	movl	$LC2, 8(%esp)	 #,
	cmove	%edx, %ebx	 # __file_name__,, tmp104, __file_name__
LVL20:
	movl	$LC3, (%esp)	 #,
	leal	1(%ecx), %eax	 #, D.29921
	movl	%ebx, 4(%esp)	 # __file_name__,
	movl	%eax, 16(%esp)	 # D.29921,
	movl	%eax, __ZZN3stk14__math_pharser22f_decode_subexpressionEjE14__entered_time	 # D.29921, __entered_time
LEHB3:
	call	__ZN3stk3con6printsEPKcz	 #
LEHE3:
LVL21:
LBE7:
	.loc 1 35 0 is_stmt 1 discriminator 2
	addl	$760, %esp	 #,
	.cfi_remember_state
	.cfi_def_cfa_offset 8
	xorl	%eax, %eax	 #
	popl	%ebx	 #
	.cfi_restore 3
	.cfi_def_cfa_offset 4
LVL22:
	ret	$8	 #
LVL23:
	.p2align 4,,10
L45:
	.cfi_restore_state
LBB8:
	.loc 1 32 0 discriminator 1
	movl	$__ZGVZN3stk14__math_pharser22f_decode_subexpressionEjE8__time_1, (%esp)	 #,
	call	___cxa_guard_acquire	 #
LVL24:
	testl	%eax, %eax	 # D.29921
	je	L33	 #,
LEHB4:
	.loc 1 32 0 is_stmt 0 discriminator 3
	call	__ZN3stk4time7time_msEv@0	 #
LEHE4:
LVL25:
	movl	%eax, 496(%esp)	 #, %sfp
	movl	%edx, 500(%esp)	 #, %sfp
	movl	500(%esp), %eax	 # %sfp,
	fildq	496(%esp)	 # %sfp
	testl	%eax, %eax	 #
	js	L46	 #,
L35:
	.loc 1 32 0 discriminator 5
	movl	$__ZGVZN3stk14__math_pharser22f_decode_subexpressionEjE8__time_1, (%esp)	 #,
	fstpl	__ZZN3stk14__math_pharser22f_decode_subexpressionEjE8__time_1	 # __time_1
	call	___cxa_guard_release	 #
LVL26:
	jmp	L33	 #
	.p2align 4,,10
L46:
	fadds	LC1	 #
	jmp	L35	 #
L39:
	movl	%eax, %ebx	 #, tmp101
	.loc 1 32 0
	movl	$__ZGVZN3stk14__math_pharser22f_decode_subexpressionEjE8__time_1, (%esp)	 #,
	call	___cxa_guard_abort	 #
LVL27:
	movl	%ebx, (%esp)	 # tmp101,
LEHB5:
	call	__Unwind_Resume	 #
LEHE5:
LVL28:
LBE8:
	.cfi_endproc
LFE708:
	.section	.gcc_except_table,"w"
LLSDA708:
	.byte	0xff
	.byte	0xff
	.byte	0x1
	.uleb128 LLSDACSE708-LLSDACSB708
LLSDACSB708:
	.uleb128 LEHB3-LFB708
	.uleb128 LEHE3-LEHB3
	.uleb128 0
	.uleb128 0
	.uleb128 LEHB4-LFB708
	.uleb128 LEHE4-LEHB4
	.uleb128 L39-LFB708
	.uleb128 0
	.uleb128 LEHB5-LFB708
	.uleb128 LEHE5-LEHB5
	.uleb128 0
	.uleb128 0
LLSDACSE708:
	.text
	.section	.text.unlikely,"x"
LCOLDE7:
	.text
LHOTE7:
	.section	.text.unlikely,"x"
	.align 2
LCOLDB8:
	.text
LHOTB8:
	.align 2
	.p2align 4,,15
	.globl	__ZN3stk14__math_pharser6decodeEPKc@8
	.def	__ZN3stk14__math_pharser6decodeEPKc@8;	.scl	2;	.type	32;	.endef
__ZN3stk14__math_pharser6decodeEPKc@8:
LFB709:
	.loc 1 39 0 is_stmt 1
	.cfi_startproc
	.cfi_personality 0,___gxx_personality_v0
	.cfi_lsda 0,LLSDA709
LVL29:
	pushl	%ebx	 #
	.cfi_def_cfa_offset 8
	.cfi_offset 3, -8
	subl	$760, %esp	 #,
	.cfi_def_cfa_offset 768
LBB9:
	.loc 1 41 0
	cmpb	$0, __ZGVZN3stk14__math_pharser6decodeEPKcE8__time_1	 #, MEM[(char *)&_ZGVZN3stk14__math_pharser6decodeEPKcE8__time_1]
	je	L61	 #,
L49:
LVL30:
	.loc 1 41 0 is_stmt 0 discriminator 2
	movl	__ZZN3stk14__math_pharser6decodeEPKcE14__entered_time, %ecx	 # __entered_time, tmp105
	movl	$LC0+8, %ebx	 #, __file_name__
	movl	$LC0, %edx	 #, tmp104
	cmpl	$1, %ebx	 #, __file_name__
	movl	$41, 12(%esp)	 #,
	movl	$LC2, 8(%esp)	 #,
	cmove	%edx, %ebx	 # __file_name__,, tmp104, __file_name__
LVL31:
	movl	$LC3, (%esp)	 #,
	leal	1(%ecx), %eax	 #, D.29928
	movl	%ebx, 4(%esp)	 # __file_name__,
	movl	%eax, 16(%esp)	 # D.29928,
	movl	%eax, __ZZN3stk14__math_pharser6decodeEPKcE14__entered_time	 # D.29928, __entered_time
LEHB6:
	call	__ZN3stk3con6printsEPKcz	 #
LEHE6:
LVL32:
LBE9:
	.loc 1 119 0 is_stmt 1 discriminator 2
	addl	$760, %esp	 #,
	.cfi_remember_state
	.cfi_def_cfa_offset 8
	movl	$1, %eax	 #,
	popl	%ebx	 #
	.cfi_restore 3
	.cfi_def_cfa_offset 4
LVL33:
	ret	$8	 #
LVL34:
	.p2align 4,,10
L61:
	.cfi_restore_state
LBB10:
	.loc 1 41 0 discriminator 1
	movl	$__ZGVZN3stk14__math_pharser6decodeEPKcE8__time_1, (%esp)	 #,
	call	___cxa_guard_acquire	 #
LVL35:
	testl	%eax, %eax	 # D.29928
	je	L49	 #,
LEHB7:
	.loc 1 41 0 is_stmt 0 discriminator 3
	call	__ZN3stk4time7time_msEv@0	 #
LEHE7:
LVL36:
	movl	%eax, 496(%esp)	 #, %sfp
	movl	%edx, 500(%esp)	 #, %sfp
	movl	500(%esp), %eax	 # %sfp,
	fildq	496(%esp)	 # %sfp
	testl	%eax, %eax	 #
	js	L62	 #,
L51:
	.loc 1 41 0 discriminator 5
	movl	$__ZGVZN3stk14__math_pharser6decodeEPKcE8__time_1, (%esp)	 #,
	fstpl	__ZZN3stk14__math_pharser6decodeEPKcE8__time_1	 # __time_1
	call	___cxa_guard_release	 #
LVL37:
	jmp	L49	 #
	.p2align 4,,10
L62:
	fadds	LC1	 #
	jmp	L51	 #
L55:
	movl	%eax, %ebx	 #, tmp101
	.loc 1 41 0
	movl	$__ZGVZN3stk14__math_pharser6decodeEPKcE8__time_1, (%esp)	 #,
	call	___cxa_guard_abort	 #
LVL38:
	movl	%ebx, (%esp)	 # tmp101,
LEHB8:
	call	__Unwind_Resume	 #
LEHE8:
LVL39:
LBE10:
	.cfi_endproc
LFE709:
	.section	.gcc_except_table,"w"
LLSDA709:
	.byte	0xff
	.byte	0xff
	.byte	0x1
	.uleb128 LLSDACSE709-LLSDACSB709
LLSDACSB709:
	.uleb128 LEHB6-LFB709
	.uleb128 LEHE6-LEHB6
	.uleb128 0
	.uleb128 0
	.uleb128 LEHB7-LFB709
	.uleb128 LEHE7-LEHB7
	.uleb128 L55-LFB709
	.uleb128 0
	.uleb128 LEHB8-LFB709
	.uleb128 LEHE8-LEHB8
	.uleb128 0
	.uleb128 0
LLSDACSE709:
	.text
	.section	.text.unlikely,"x"
LCOLDE8:
	.text
LHOTE8:
	.data
	.align 4
__ZZN3stk14__math_pharser6decodeEPKcE14__entered_time:
	.long	1
.lcomm __ZZN3stk14__math_pharser6decodeEPKcE8__time_1,8,8
	.align 4
__ZZN3stk14__math_pharser22f_decode_subexpressionEjE14__entered_time:
	.long	1
.lcomm __ZZN3stk14__math_pharser22f_decode_subexpressionEjE8__time_1,8,8
	.align 4
__ZZN3stk14__math_pharserD4EvE14__entered_time:
	.long	1
.lcomm __ZZN3stk14__math_pharserD4EvE8__time_1,8,8
	.align 4
__ZZN3stk14__math_pharserC4EvE14__entered_time:
	.long	1
.lcomm __ZZN3stk14__math_pharserC4EvE8__time_1,8,8
.lcomm __ZGVZN3stk14__math_pharser6decodeEPKcE8__time_1,8,8
.lcomm __ZGVZN3stk14__math_pharser22f_decode_subexpressionEjE8__time_1,8,8
.lcomm __ZGVZN3stk14__math_pharserD4EvE8__time_1,8,8
.lcomm __ZGVZN3stk14__math_pharserC4EvE8__time_1,8,8
	.section .rdata,"dr"
	.align 4
LC1:
	.long	1602224128
	.text
Letext0:
	.section	.text.unlikely,"x"
Letext_cold0:
	.file 2 "C:/Qt/Qt5.5.0/Tools/mingw492_32/i686-w64-mingw32/include/stdint.h"
	.file 3 "C:/Qt/Qt5.5.0/Tools/mingw492_32/i686-w64-mingw32/include/stdio.h"
	.file 4 "pharser/stk_pharse_math.h"
	.file 5 "pharser/./.././time/stk_time.h"
	.file 6 "pharser/./../io/stk_console.h"
	.file 7 "<built-in>"
	.file 8 "C:/Qt/Qt5.5.0/Tools/mingw492_32/i686-w64-mingw32/include/c++/bits/exception_ptr.h"
	.file 9 "C:/Qt/Qt5.5.0/Tools/mingw492_32/i686-w64-mingw32/include/c++/i686-w64-mingw32/bits/c++config.h"