	.file	"stk_kop32_socket_server.cpp"
 # GNU C++ (i686-posix-dwarf-rev1, Built by MinGW-W64 project) version 4.9.2 (i686-w64-mingw32)
 #	compiled by GNU C version 4.9.2, GMP version 6.0.0, MPFR version 3.1.2-p9, MPC version 1.0.2
 # warning: MPFR header version 3.1.2-p9 differs from library version 3.1.2-p10.
 # GGC heuristics: --param ggc-min-expand=100 --param ggc-min-heapsize=131072
 # options passed:  -fpreprocessed stk_kop32_socket_server.ii
 # -malign-double -momit-leaf-frame-pointer -m32 -mfpmath=sse
 # -mpreferred-stack-boundary=8 -mmmx -msse -msse2 -mthreads -mtune=generic
 # -march=i686 -auxbase-strip debug\stk_kop32_socket_server.o -g -g -O3
 # -Wno-write-strings -Wno-multichar -Wno-unused-variable
 # -Wno-unused-parameter -Wno-unused-value -Wno-unused-label
 # -Wno-unused-but-set-variable -Wattributes -Winline -Wshadow
 # -Wunknown-pragmas -Wall -Wextra -std=gnu++11 -std=c++11
 # -fno-keep-inline-dllexport -fno-use-linker-plugin -fverbose-asm
 # -fstrict-aliasing -fwrapv -funroll-loops -flto -fexceptions -frtti
 # options enabled:  -faggressive-loop-optimizations
 # -fasynchronous-unwind-tables -fauto-inc-dec -fbranch-count-reg
 # -fcaller-saves -fcombine-stack-adjustments -fcommon -fcompare-elim
 # -fcprop-registers -fcrossjumping -fcse-follow-jumps -fdefer-pop
 # -fdelete-null-pointer-checks -fdevirtualize -fdevirtualize-speculatively
 # -fdwarf2-cfi-asm -fearly-inlining -feliminate-unused-debug-types
 # -fexceptions -fexpensive-optimizations -fforward-propagate
 # -ffunction-cse -fgcse -fgcse-after-reload -fgcse-lm -fgnu-runtime
 # -fgnu-unique -fguess-branch-probability -fhoist-adjacent-loads -fident
 # -fif-conversion -fif-conversion2 -findirect-inlining -finline
 # -finline-atomics -finline-functions -finline-functions-called-once
 # -finline-small-functions -fipa-cp -fipa-cp-clone -fipa-profile
 # -fipa-pure-const -fipa-reference -fipa-sra -fira-hoist-pressure
 # -fira-share-save-slots -fira-share-spill-slots
 # -fisolate-erroneous-paths-dereference -fivopts -fkeep-static-consts
 # -fleading-underscore -fmath-errno -fmerge-constants
 # -fmerge-debug-strings -fmove-loop-invariants -fomit-frame-pointer
 # -foptimize-sibling-calls -foptimize-strlen -fpartial-inlining -fpeephole
 # -fpeephole2 -fpredictive-commoning -fprefetch-loop-arrays -free
 # -freg-struct-return -frename-registers -freorder-blocks
 # -freorder-blocks-and-partition -freorder-functions
 # -frerun-cse-after-loop -fsched-critical-path-heuristic
 # -fsched-dep-count-heuristic -fsched-group-heuristic -fsched-interblock
 # -fsched-last-insn-heuristic -fsched-rank-heuristic -fsched-spec
 # -fsched-spec-insn-heuristic -fsched-stalled-insns-dep -fschedule-insns2
 # -fset-stack-executable -fshow-column -fshrink-wrap -fsigned-zeros
 # -fsplit-ivs-in-unroller -fsplit-wide-types -fstrict-aliasing
 # -fstrict-overflow -fstrict-volatile-bitfields -fsync-libcalls
 # -fthread-jumps -ftoplevel-reorder -ftrapping-math -ftree-bit-ccp
 # -ftree-builtin-call-dce -ftree-ccp -ftree-ch -ftree-coalesce-vars
 # -ftree-copy-prop -ftree-copyrename -ftree-cselim -ftree-dce
 # -ftree-dominator-opts -ftree-dse -ftree-forwprop -ftree-fre
 # -ftree-loop-distribute-patterns -ftree-loop-if-convert -ftree-loop-im
 # -ftree-loop-ivcanon -ftree-loop-optimize -ftree-loop-vectorize
 # -ftree-parallelize-loops= -ftree-partial-pre -ftree-phiprop -ftree-pre
 # -ftree-pta -ftree-reassoc -ftree-scev-cprop -ftree-sink
 # -ftree-slp-vectorize -ftree-slsr -ftree-sra -ftree-switch-conversion
 # -ftree-tail-merge -ftree-ter -ftree-vrp -funit-at-a-time -funroll-loops
 # -funswitch-loops -funwind-tables -fvar-tracking
 # -fvar-tracking-assignments -fverbose-asm -fweb -fwrapv
 # -fzero-initialized-in-bss -m32 -m80387 -m96bit-long-double
 # -maccumulate-outgoing-args -malign-double -malign-stringops
 # -mavx256-split-unaligned-load -mavx256-split-unaligned-store
 # -mfancy-math-387 -mfp-ret-in-387 -mieee-fp -mlong-double-80 -mmmx
 # -mms-bitfields -mno-red-zone -mno-sse4 -mpush-args -msahf -msse -msse2
 # -mstack-arg-probe -mvzeroupper

	.text
Ltext0:
	.section	.gnu.lto_.profile.f43ba30d,"dr0"
	.ascii "x\234cf```c\200\0F\206]\314\33\31\1\4\366\1z"
	.text
	.section	.gnu.lto_.jmpfuncs.f43ba30d,"dr0"
	.ascii "x\234\225\222\317+DQ\24\307\317\271\367\316\30o\14\13\13"
	.ascii "5\251\247ll\224\310\306\332F#3;\177\12\33\274\205\225\210\214\314L\343G\221\31?\207\361\233HH\315F\242DY\210\204\305,(\311Dr\317\275\363\306(\26^\267w\356=\257\317\367{\317y\207\303\357O7\3\250\226Q\0\"v!\200\\\\n\31\362"
	.ascii "6\231\246"
	.ascii "7\3a\177c\317\14{\372n\246\234\217,\303\300\262\252\0c\350\5\7C$\10!\303P.\310\333\21\22\31\333\17"
	.ascii "9L\34\265\302\25\31\306@f\372\207\356\17\35\35\357V\330re\30\307"
	.ascii "8\232R}\32;\310^\350\233"
	.ascii "1\254\364\322Q^\220"
	.ascii "4\366z\243\343\302\24ZC\220\306\340\301q\247-\341\300\31%1\253%\262\314\345\331\300\33\232n\315"
	.ascii "8\211I\7\17c\205"
	.ascii "6T\200s\12\232\227\20\327\304\365\335\311\251\213\212s\311\374\202,\215\222\211\227\235+n\226j\231B\222\331\371\334N8m\31\3\23Jf\361\177\336K\12Jf\275sf\301\335T\24\315"
	.ascii "2\315\271\211\213\337\36\245\204\315\25\341\262\342V~\230\205>&\244Yy^s\206\257\322"
	.ascii "1\317wwV\25\264&\241\374\356\362l$\211\333\247\325\224P\225[\226%\247a\35\275\177\377\214\311\310\312k\221Y\251\375<\344\367"
	.ascii "0\22\336p\331~\305\270\241\374"
	.ascii "6\251"
	.ascii "85G\274\15"
	.ascii "5\231<\177\274"
	.ascii "0\310\246\244\35p\213<r\243\2\314\0g}M\255\307\200\202\326\246\346f\31y\243\37D\213?@\371:y6|\376@]mC\205\337\7_s,\270:"
	.text
	.section	.gnu.lto_.inline.f43ba30d,"dr0"
	.ascii "x\234cf\300\16\\\30!4\13\3\3\227"
	.ascii "4##\3#\3s\3\23\13\323\5~\6\216\17zL\14\214/\330Y $H\21\23"
	.ascii "7\3\3\343\4?(\305\314\300.\301\310\300\4\24g[ \317\204)\317\302 \254\2\224\347\232\340\307 \260!\27\254\200\231\7\242\23D1\260jLe\274i\7T\321\304xn\321|&TS0\311\11~l\374L\14,\234\23\374\200\6"
	.ascii "2\363"
	.ascii "0B\14\2Jbr\331\370\201\336\0\322\244\210\263\34a\4\233\314\302\13U\303\304\15\12\15\260\324Nf\250\245p\327\203t\261\362"
	.ascii "10@$ \256d\0\0\367\366(d"
	.text
	.section	.gnu.lto_.pureconst.f43ba30d,"dr0"
	.ascii "x\234cf``\340d\200\0\26\6)f\11\26)\326\12\0\3"
	.ascii "1\0\341"
	.text
	.section	.gnu.lto__ZN3stk6socket19SOCKET_BUFFER_CLASSD1Ev@8.f43ba30d,"dr0"
	.ascii "x\234\225\223_H\323Q\24\307\357\367\376\366\373"
	.ascii "9\335\36$\12Bz\10\304|\10\267"
	.ascii "7\37z\353\255\307\240\227\36\2\211\30\30C\24\267\207^\226?\307H)\252ieB\30E\246\226\377M\347\277\\S\10\202\310\210\254tH\355AKE\253"
	.ascii "5\313V\330:\347\272\212\31\366\347\7\333\275\347w\316=\347|\276\367\374"
	.ascii "4\361\373\223G\277\317\232\20\207i\205& \203\223BT[%\300\33\1Q%Q\205E\31\227\10F\332\33m\205"
	.ascii "7M\323|?\261b\36\214 )\205H\310\215<hA!\305<\353[\36\261k{ h?\334\265\372\310\266 \223\22\273\331\34\251\177\320h\260)-l\266\206F[r\12n\230A\177l\261\376\224"
	.ascii "5p )5\264B\243\204hC\36n!O\320+\201\333(\340\370x`\375\205\315\10P\365\334\215\242h\207\1Z\273\267E\314T\352\315\262\221MMS\260\205\216Yt\376\23KR\323\205x+9<!\21~\270\24\321\311$\\I\246\302\243g\216\334\14;Oq\264jQ\370?\325\\^l06U\345\202t\244\3\354x5\367\370\211\225i\250\0\231\247\253\233\337e5\341JunR\32kR\242\223\332g\307\205\251\213u\366\242vJ`M\312,t\241\11\37\224d\350F\21\371\33\316O\15i\276\257f#\373\255\353\354\242\267\315\227\32:t\316\236mes9z\246Mr\366 G\345\240\7>\364\246\13,\254Lo\247\363;9{\37e\247\314w\340\23\4\21\352\35\330\305\335\256I\313\337;\334Kz\241_u\247\204\31@\221x\16\231\246\255\253\231\234\261k\207\324\265~\374\22\12\347\344_7M\272\270\236\375\221\300"
	.ascii "5\363[*E\263\220\215P\346\355\245\7c\20\371\324\201\230E 6\330yv_\206\250\261\373\321\35\34\240TM\220\376\233%\37R\222\17\323?y\256>=\327%\211\265\226U\260%h^\330\215\21\302\245\12Ii\177-O2w\374\7\267\376\217\334\243\212[\15\325\335\14\356\377e\35cV}\13\326yb\35\373\3kX\261\336\333\212\225\335\210(V]\261\372\242\230\230\356\15i\351^\177\202\252!\371\205\212q\242#\277"
	.ascii "9>\263f\24\367\233\265\324?e\232@1\201\372sy\252W\371\316_\2\33\23\316_\4\370K A\362\335\345\25\256J\227\373\210\303\351p8=\345\307\334.\257\307\351\361\272K\322{G\251\260xK\217{\12"
	.ascii "3\2\275\256\23^\247\303\251\366e\256"
	.ascii "2u\200V\12\326\217\226Tx+\277\3\262<z_"
	.text
	.section	.gnu.lto__ZN3stk6socket19SOCKET_BUFFER_CLASSD0Ev@8.f43ba30d,"dr0"
	.ascii "x\234mP=H\34Q\20\236o\366nsx\26\222\362l\204\303\\\267\333\247K\227"
	.ascii "2`c\21\20\11\13\312!\212\267\205\215\334SV\223&rZYI\202\370\37\317"
	.ascii "3\205A\5YR\5\202"
	.ascii "6b\202?\204+\324\250\30QV\221S\342"
	.ascii "9o\325\342L\36<f\346\275of\276\357"
	.ascii "3\350\337\223\220\273\5\242F\211"
	.ascii "0\10\234[#\352\211"
	.ascii "1\240\23\2e\31Y\34\362\31#\347\317\14\307ScJ\251\323\257\177\324+\37%&\12\370n\16\306\221\22\314\306\347\343\245j\343\31H\362\305\374\371j\374\200K\214:].\15}\33"
	.ascii "6u\311\21]N,,\217W\325\217\252\\o\361p\250?\346\275,\261\201\11\30"
	.ascii "2\20\223H`\12\11\222'\302"
	.ascii "4\352"
	.ascii "5\376\314\373\373"
	.ascii "3nz\262\275\346n)f`\12q\232{\352\253r\371\367\261\31\25\322\32|\304`:a\375\27"
	.ascii "0V\276\37\371Q\322\5\355J\233V\265\307\254\243\261\3or\247P\253\7\351\15#\353\3y\356\276V\357T\254\304\221@@\204O\350\246K\26\322Q\372\201\336\32\15=\327\313\37\12i\33|\273\266Ym4\204\222/\256\26V\252\222\37\225\22Q\205\27\276\367A\335\224\313\342\223\211\331Je\367\246\345\221\224\351$D\212_f\337?\257\220Y\354\333\206\6\204B\3q\342\221\11\230\23\332\204\302\177\310?\11"
	.ascii "8\22~c\376\201\177l\237\263\277\200Pkh\5\264\5\"%\231n\357p:\235\364k\313\266,;\323\376&\355\270\31;\343\246\233\356s\253\205\"nKk&U\1t\235.\327\266\354"
	.ascii "0os\332\302\6\211\2\216"
	.ascii "67u\270\235\267\213\205\300\373"
	.text
	.section	.gnu.lto__ZN3stk6socket19SOCKET_BUFFER_CLASSC1Ev@4.f43ba30d,"dr0"
	.ascii "x\234\235\224\375K\223Q\24\307\357\271\317\366l\356\245\206\364C\354\247`\251Al\243\377\300~\214~\351\347\10$dd\14S\332\202~\21\237\215E\241\275,\337"
	.ascii "0\302H\362]\323\262"
	.ascii "2_\262\36+\315\312\227D\315\30a\6j\6J\232\221\214\322u\316\335\244fY\271\301\236{\357s\356\371\234s\276\317=Wb\277\377\254\370\357\323"
	.ascii "2v\30G\220\30\360\340\20c>=\7\240\11\3\226\317!\37>\362%\16A\265\261\334\230V\255(\312\242\177A9\244B\230"
	.ascii "3\266\314\243\34\250\201"
	.ascii "4\334"
	.ascii "3\336:\337i\222R\201\341\274\243\371\313\240q\216\207"
	.ascii "9\354\242egQ\177\271LK\256\241em[W\215!\345\206\22\364O\205\26{\322UM\230KP\13\22\2\241\16\254P\17V\206\257\30"
	.ascii "4@\12\355_\12\254N\30\345\0F\267D\203B#\310\200cK\262\252D\"\37\346\344dL\32"
	.ascii "7\33\320Mc\302\207\326\214\17\331BK\306\246\321\205*\232\341\234F)\4\376\257gg\307\367m \23\24\321M \243\341\335\364\360\210\236"
	.ascii "2\326"
	.ascii "1\312\240\300W\365IW\1W}\226"
	.ascii "0\327\257p\16"
	.ascii "71E2\24\217\225\\6\331\33\21\240\17\363$h\206\12\370,d\201\26\260\243\275\354\322X\273\224\367M)'\273a\225L\370\266\252\264\254IKt\215\236\226\363\241\302:N\364 \355"
	.ascii "2\302-\310\203\333\261\0s\13ov\240\377N\242\267\"\35\311w \217a\15\271\261T7\315\255\241\376LHZ\317M\13wEn$\33\334\3;\330\254\211@\332\4D|\203\373\377\17Y\233,\11h\21\"\352"
	.ascii "3A\273\200H\4\351\20*\25/4\254&\221\36ZEIg\320\11\11\345\326%\260\32\302>\300\334R\23\202t\13\210\226 \17\23.\360\221\200\310\4QE\201\5\27\336W\313\261\2\367"
	.ascii "0\350A\267\327\340W\273\253y\214|\245p\364\273V\332+\232\247T\231=f\253\24\335\21\334\257\6\256+k\221\10"
	.ascii "6\234\31\36\307\267H\254\373\236\200\355\327\10\262\210\360\24\355o!05\21>\177"
	.ascii "0\356\234O\365N\354&\27q\320\227"
	.ascii "9l\354/\350\25]\320\7\362\12\267\240\355\332\350\305f\216\7\360\34U\266m\31k\246\15\360\14\317 \5\11\363\355$PQe\312\277$\212\353\24\13\364\13\211tT\300s\260c,\302\264-\265\34 \316\12"
	.ascii "7mA\355\27?\217\323K\260\23gR\27\245\230\21\204B\257\213\274Ea\7\300\206\210Md\234A\31\7\376\"\343\240\220q\210\262"
	.ascii "0\374QF\332\0\303(#\306HX\305W\242t=e;B*\32\330$\370\324\21s\364.\243\253\17\350\312\303~\265\271sr]']\356#\16\247\303\341\364\344d\272]^\217\323\343ug\304\346\216,\246\361f\35\367\350\216fd\346\234:\341M\213s\360\272N{\235\16\247\230g\273\262\205#\216\350\364\3l\337\24\243"
	.text
	.section	.gnu.lto__Z18start_kop32_serverPcS_.f43ba30d,"dr0"
	.ascii "x\234\215X\13T\225U\26>\373\374\367\315\345% O\271\10\"\210<\362\305\322\\\266Ls\305\224K\32\265F\235Y\313)\207f\34"
	.ascii "5]jS3k5\375\12\206"
	.ascii "9f\210\357"
	.ascii "4\323\34_\223\241\214\17\322P\21\313\310\7j\246\342#$\25\265rR\272&\336"
	.ascii "4\231\275\317"
	.ascii "9?\334Kp\203\5\207\263\317\331\217\357\354\375\235\307\275\32\373\345\317\37"
	.ascii "9c\221\21\214Ub\37"
	.ascii "2\30\360\242j\306f\331"
	.ascii "8\357\301\330\\\233&%MJ&)\231\244d\226\222\31,\262c\221\303V)Y\271\255`\0\323\35\366\371\21Lw\332\300.\207\355<\275\372"
	.ascii "0\303qG\245\206\343\351\322\370q\7\244\321\177H\223>\2\244r\200\224\234Rr\362\220\2+Z\6\316\377\14\35"
	.ascii "8\3\225\30$\305 %\6K1\30B\244U\10\357^\5"
	.ascii "8\36Zu\224\306Cy\247\271)(FP\353\354$\3\204I\325"
	.ascii "0)\205K)\34\22e'B\16w\226Rg\36)\34\304\10\7\221r.J\316EI)ZJ\321\206\203\30"
	.ascii "9\34+\245X\36'\34\270\204\203"
	.ascii "89\327E\316u\221R\274\224\342\15\7.9\234 \245\4)u\225RWC)\21\222e'I\316w\223R79|\300\226\314\223d\346{\212\314\367\224\31\177\274\273\324N\221\332)RJ\225R*\0uX\17\6\354u\256\231\314\26\253\315\236\356H\13p\6\6\5\207\204v\12\13\217\350\34\31\25\35\23\33\327%\336\225\320"
	.ascii "51\251[r\317\356)\251=\340u\223E\262+M\376K\226\377\276\341\15\34v\227\334"
	.ascii "9\26p\203{8K`(\356)\256Zn!\21L$\316k,]\345LY\257\353\372\355\312\374e\266"
	.ascii "99\36\316\231\233"
	.ascii "3\330\0"
	.ascii "1\260\21b\210\245\233 \5"
	.ascii "5\213kVZ\265\24 \243UE\263v\331\222\327\351\372\354\212}k\364\301&\17\327`3h\336f8\304\340?\220\214\332_5\226\315\17\324\322\204\345G\373\356}j\227\226"
	.ascii "5\206\345\7mXn\201dRo(\370\371l\200\245\0\321\205\20(\304\362!X\200"
	.ascii "1\23\316y\334\245\237\4jY\302\355\265Y[\32\254Ik\365\12\275n\365\266\301\25\5k\364\207MM\340\341&(\361u.\177`+$\241\325]\375\320\274`\255\257\360\360\303\347\13\26\231\320\203\256\327\275"
	.ascii "7\317T\245\27\324"
	.ascii "55\271"
	.ascii "0\27\260\255M\7\245\302\301\225\375\333~\12\320\262\205\203C\307N^\5\221\346"
	.ascii "5\234\344\265W\16\37\21i\207n$\236\360\34+sJ\204\233\26\233[\20\232\341\277"
	.ascii "2\300v\14\260\243%\300N\21`\327\211/7Z\265A\"@c\371\205"
	.ascii "2;!\234]\267\331{\215\26\330\325&\304"
	.ascii "2H\332\332\251Bojr/8\360\20^\0L\254"
	.ascii "5\0\250&N\240\374\6\11\225`\312w(5a\330\330\302\261\341\221\324DQ\23M\215(I,6\20\207\215=^\254\336E3\11\324$R\223DM2)\246P/\225zi\324K\247\260\31\324dR\223E\23\275\250\351C\341\372\222J6\211\375\261q\14\240\336@j\6\321\354c4;\230\304!4;\224z\303\250y\222fsh\366)\22\207S3\202\306ril$5\243\250\31M\23\317\22\362\347\10\371\30\32\33K\315"
	.ascii "8j\330\267\234\233\31\373\216\23\261\360Oc\354\26\366\371\35\222\331Ul\355\254\36\7\354\332E(\250"
	.ascii "8\271\211"
	.ascii "6SQ\355\205\222`\355\11Q\220\322=s\336\341\222"
	.ascii "2\253\313}H\367Q[\5\361\245"
	.ascii "3Q\20v\343\37\346\222\212M\265\20\354\306\312\355\301\26\265W\237ZP\302_\273\257\317\325m\36\36\340\346\310{\370\30^\243\251\267\366\374\373'\7N\351\304&\14\351\24.\310\16\312\341"
	.ascii "5\17\17d\27\341\215\212S\367"
	.ascii "4\32k\344A\255\275\5\271i\321\260\27\275"
	.ascii "5\362\200F\356\244\345\234\276q\326A\204\345\257"
	.ascii "2\330\7"
	.ascii "1\36\36|\215\264\352q?\332\265"
	.ascii "3\300\311\27\301D\177\354<\314\336\325\260d\234t\37\214\326+6\356\277d\311\350I\373\31\241\374 R\10\373\361\202\273\10s\364"
	.ascii "2hsM!nt\315\240B\240 '\353Vl\277\353t\345\276\253/O\360\360P\322\277\276jy\231\15\365\227\223~'8\0.\271\312JZe\230\302gB|\4h\355%\220\200B\233\1}\200)\262\371\202:(@\231\244fXkL\341nt\307\340\23\201)\324\303#T\14\263\214Q[\370 VZ\206\243"
	.ascii "1\245\241X\304D7\373\316\356,\261\33\1\271\14\10\24\360S\310@u\322\275\275m\351@?\332\342\200;\4\31\220D\234\251\347\26v\24\304\302J\227\35Q\225\214\364\27\350"
	.ascii "3\\\31\251\253,D\371\13S%t\363\27[\244n4\272F\13o\363\30\177I\374\\\206\252\265J\335Xi\233\277\\\271\213Cs\34\305<\27\352+\224N|\353Twv\323\366\203\303\"\325A\302(\32\227\356\341\221*\347VZ\277A\274R\"^<;\15\5\307\363\367\333\225K\231)\322\265\261%2WkS\344\234\313\337\352\217\310\325\27+\270\11\350\12-~\265\234\302\366(\225"
	.ascii "3A\4\265"
	.ascii "7\27hU\216\364\224\350\317\362\230o}\222\374\325\262\32uq\255G\363\313\324Z\23\321\200\311\203)\235\35\4\250\347\16\244$\241Hc\310\216"
	.ascii "30;\204"
	.ascii "6Lu\371\302#6m\234"
	.ascii "8\240f\317\331\372\300!o\214U^wZ\24\34o\363\302"
	.ascii "8!\256\234[\357.\373F\223G\313\307\331\244\274\325"
	.ascii "8YNb\241\360$\254[X\370\343\301~>\247Y]\375\202 2\27G\227\233[Z_\335\360\205"
	.ascii "8\327N\265q\6D\273\271UL\303\227\362hk\211_\21\353\23\376"
	.ascii "4m\371\30\221\300\322\325\277\227IIn\207\243\32\255\347\214\330\350o\350\273\333>}b\335H\32\6g\5\375\222\221I\250p\371\366\216*\23\235\201q\350\316\304\240\206\216\301.\212\216\1\230gQ\355\206\325+\325v\244w\321\365KM\267\202"
	.ascii "1~\21"
	.ascii "9\215\227\361M\24\377\234o\271S\333"
	.ascii "8%\5\316\363\2\247\332%i\255a\272\334H3\6\27\214]\222\212Q\305.IP\260\234\12V\361\332j\177\334"
	.ascii "5S\250\213\304\335"
	.ascii "4\242\376\266\302\273\213\24\263\322q\210"
	.ascii "6\22\215*\24\31\22\310\234\273'\327\311+\341\320\10\6_\201\320\271\243"
	.ascii "6M\246\260\24,=\227\177-H\15\242\325\245\253\307O\332\310\312\212\21k\301\330\241\201\354}M\23\224\376\336\251\326\332\262}\203\330\3N\223"
	.ascii "5\315\236\322\240{\214\342{0;\317\265z\36B\13\25\321\24\2"
	.ascii "0\274_\3\300\270'\337\331\220\37,\342\2\203K\20\23\270| )\4\13\301)\332 \212\25\312*\205\237c\371\353\34F\254d\3H'\366\265\332\322\353\307\310\311\254\366n\267:u\273m\367{\273}-\12GN\226=x\377\36\270\326\202\274\336\272\222\301\322\13"
	.ascii "77\4\32\327[\"\\6\256\267+\336\327[\230\1\251a\375_%\244^\376\216\346\253\336\367[\237v\356\267z\201\252W\313\375\26\256\202\324\26^T\331\355\213\326\35\273\340\256\21\253\372\212\364E4\247o\243z\34d\373\333\242\327\5V\25\260\177k\254In<\343\30\334\20X\263\275\231\25\207\303\337\0\355\330E{\253V\202k\223J\252xjo\274\374i\225\11}Dyp[\177k\244\364;Jiw\265\332\316\4S\320\315+v\263\367\24\364~\263\231\267\221\354"
	.ascii "6\223K\332\242N\235\1\355"
	.ascii "1\342\177\212\21\355\234"
	.ascii "8\212\21\337\213\365\220"
	.ascii "\223\232/\212\220\21\37*\360\251dps\321\301\15v\203\21=\340\226\1\377\266"
	.ascii "7#\242\14H\15[&KH\3\375"
	.ascii "1\242\301\233\21\203\332a\304\17\2\325\300\26FD\253 \265\205"
	.ascii "7U\222\36C\353\216"
	.ascii "1\302M\214xL\244/\246"
	.ascii "9}%c\245\233\301\376\30q\307\233\21C\332a\304\217\2\353`E\201\222;\345\27"
	.ascii "4\327N\225\305"
	.ascii "4\312b\371\303=%\26I\201\236p\327\310a\243"
	.ascii "7\5b\11\227"
	.ascii "7\5\206x\325<\216\365\227\230\267\252\222\17m\257\344\367:Tr\217\0<\264C%\377\311\200{\337\273\344]\24\242\206\255\252\342\303\374U\374\201w\305\237l\247\342?\13P\303Z*\36/c\264\24<\7\215;V\360\207T\360\34\221;\227\201t\247:\1\236j/wM\35\372x\240s\202IN\366\317_\371\236\311\265\333\373\0-\256<\366\317\226\363s\26W\251\233\315\275R\227`\24s\227J\335p\177\251\313\347^\251\33\321N\352\12\4\246\341-\251\353\332:u\271h\334\261\324\315\241\333"
	.ascii "6W\244.\221n&\372\234p\273,\347\327\236\241o\360\346\317\11I\254\372\260\332c\345\347\325\313d\264\277"
	.ascii "5\26r\237\327\373\263\215\370\231\331\353\365\376\34\232\343\250x\275\227)\235"
	.ascii "1\355\274\336\347r\365.A\243Q>\257\367n\315\250\324\3h\254\277\345\274\311}^\344\343"
	.ascii "0\"Zt\354E>\217"
	.ascii "28N\244\"\231\25U\253\243\261\354\357\322\325H\177\246\377\342>o\264Q\376\12"
	.ascii "5\237\253'\271\302"
	.ascii "8\22\365\325\13\245'\26\16_\344\335\325w\5\236\315\274MF\247\273\361\21\311\340-\231"
	.ascii "3\17\317P\251JQv\367\367\266\275\23"
	.ascii "2\335\370\312c\260\200\213\27\362\212\325\7\226\231]\25j\33d\321\320\333\213\257\35"
	.ascii "4\33\373\340\21x\333\330\7E\264\17z\251(\251"
	.ascii "2\312\246\232K\316"
	.ascii "6\243\364v\343\33\215\301B\336\352+\6\233\317\367\13\305\344\222\36\6\225"
	.ascii "5f\361\301L~\227\246\37"
	.ascii "8\327h\311\336\241\317\245/@\30,\342\331^*;\177\241bf\260\30Uja\226\336K\250(*\367`L\253\201Y!\214\276\204!\260\333,\376\260.\361\217u\251\304z\25\360"
	.ascii "3\10\27\205\2f\307N\267IS\247\345M\317\233\364\207\31"
	.ascii "3'\215\307~\237\336\343gL\235"
	.ascii "0)o\346\370\31y\323\377\226"
	.ascii "7=s\302\264i\214O\234f\232"
	.ascii "6u\372L\323\204\177<?\3^\265\274\360\362\213/\346M\267H\15\7\15\216\237\376\374\224I\23\35O\347>\323\247\367\243\11\271O3\363\370\321\23\247\344\15\36\372h\326og\342o\277\314~\231\217d\215\236:u\362\214\254)\23_\372\363+}\7\364\36\337\247w\326\304\354\376\331\31\257d\367\315\20\203"
	.ascii "4\360\322\204\311/\377)/k&Zg\376\205Y\372=\322'\320\301L#r\237a\326\337\375f\370p\24\264'ri\274"
	.ascii "7v\361\12\374?\223\327\222\207"
	.text
	.section	.gnu.lto_.symbol_nodes.f43ba30d,"dr0"
	.ascii "x\234M\215KJ\3A\24Eow\345\275t\276\335~\26\340\32\234\271)\267\360\"4*\31Dq`P1Qi\301\201\370\377E3\10\322\23\5u\7\242"
	.ascii "1\20"
	.ascii "0\31\270\200(vu\31\251\232\274sn\275\272\245\0\314\272"
	.ascii "0\307\375$\1V\237\1\21\324\16<\320"
	.ascii "6c\327\25"
	.ascii "8\327,\216\271@e\331\203; q\355E\267O\242\376\203\235$Xg\311\214\203F\22\320>;\272\212Z\354\6\311\210X\245\315"
	.ascii "7,4n\256xpnY\330\366+\226\254\355\227,\236\355\247,9\333OX\362\266\37\263\24l\277`)\332~\316R\262\375\214\245l\373\35\213o\373\21K`\271B\16\341\373\217\243gOO\5\354\275\351\371\227g\362\210\26\207\315@C\274\244\201"
	.ascii "2zc\301Q4\215X\257\222\217H\257R\331TP\11Q\365\351\261\240h\12\275\332\250\335\232Q4\211he\324\236S4\201p-\5\37a}X+\351W\261\201\0\361f\12I\337\326k5\233\26\32\10\320k\244\340#n\276<(}\25v\277"
	.ascii "6L\317G\12I\217\201\344\373~\347\260^VTD8\350|'\333\5D\6\200\373"
	.ascii "1t\347\361\13\342K\247U"
	.text
	.section	.gnu.lto_.refs.f43ba30d,"dr0"
	.ascii "x\234%\210\301\21\0 \14\203\22\342\325\256\341\376KZO^@$\35}\20"
	.ascii "6(\246\306\343Lx\275YlZ\27\12\7\0n"
	.text
	.section	.gnu.lto_.decls.f43ba30d,"dr0"
	.ascii "x\234\245Z\13XTG\226\356\272\325\315\243i\300h\306\270\314\316J\320\260\343LF\343#\256\331og\327\31G7\343\314&nL\346\333\317\331\375z\14\366LH\20\\\350\30"
	.ascii "3\273\231\271<E\5l\360\205\250\320*\370\344%\" \212"
	.ascii "4\310K\20\1\5\4\361\321\210\17T\304F\336\357=Uuo\367\275\320\304\235L\177\234\356[uO\235:\377yU\325\275`\205B\361\31V(\306\341\263d\236B\261\303Q\241PA\337\207@\323\200\336\7\232\205\24\212\37\3\275\15\264\10h1\320"
	.ascii "2\240\367\200~\12\364s\240\25@+\201V\1\375\32\350\337\200V+\330\347"
	.ascii "5\240"
	.ascii "7\240\255\6z\23\350#\240\377\0\372\35\320\357\201\2\200\376\4\264\15(\26(\36(\5(\3(\27\250\30\250\22H\11r\334\340w\24~\237\3\15*\344\37"
	.ascii "2\207\253\240\273\33\220\6\250\12\372J\341\367\7\210\341\310\206\353\253\360\373\1\374\236\5\252\206\353\337\2\201\11\24\36\360;\23\310[\230\213\310\273\1t[\320\225\23\346\277\203\344\363\22L\316v\346\365\2\232.\314%\316C>*a\14\221\375\206D>\271}w\202lb\253\327\354\310&2W\13\376\231\210\215\340*\0\272\7\327f \37\301\6\316\2\306\327\200\276\17"
	.ascii "4\7\350\357\200\336\2\362\224`\307\302\274O\5\377 \1\267\364C\374\267D\242\23\321\205\314\321!\350\262\5\250\13"
	.ascii "1\375n\2\275\16\324\215\230\256\37\2\365\0\225\3\365J\342e\17P\37P\24P?P\30\320\0\320 \220\11hH\210\267l\304\360\15\303\357iIL\216Hb\360\10\320AI\234\212"
	.ascii "1:\12\364?@c\222\230\376\\\342+\7\5\263\301\367\5;\315\24lC\354\344&\340\376H\210\307x!^I\334b\216\305i\256\20\267)BL\7\10>&\346Srr\33vq\250\254\272\356\1j\347\220\233\332\310\221\366\341\266\312*\27hk\324sI3\343D[\205"
	.ascii "3\346\20\271\356l9V\350\216g\322\353\330\303w\23\\\360\17\202yO\322j3\305\266\271\274}\212\347\371H\336T\241\264I7\345\366f8\316;\316\33y\313\255\314\377\345y%\372p&:\205"
	.ascii "0:\215\336\226j\21{\252*\307\225\361%\204n}K`<\11\214\251h\236\224\361emN\272\346\215=0\23o\16\346\247!\264Z\215\336\366@\363<\0`:z\303\312w>\275\247\332\205\302\242\12\346\307U\304;PTJ\322<T\324yN\205\375\11\22\356\344\341\354\27\256\310[\223\14\"-c8\14\241\263H\203\316 ,\261\323v\236\17!\177\316\25nd\26\224\201<P&\362P\240,\344M\330\205I\207C\243B4\32)3\21%2+P\266\225\263\265x\377"
	.ascii "0\306\333\21\265er\325\251pW\234\314\32\246\253WZ\234q6kd\35M\311q\246(\226\223\246\271\336\370\330\11\27\262{=\355\311\26\354M\264\346y\203\222\330\341\274Lg`I\277s\371+\30\275ZMx\6H\201E\177\206\356+7jjU\264\237t9\22\316\256\354\204\21\27u$\25\26\22\11\232+l\30\363\1\343j5\250\177\1z.B\17\360\327^\350\37p\302\227\231&\231\205\247\267"
	.ascii "1-\177G\232\25\247\17\375\16W\323[\312\27u#\347]\221\207\207\332;\36Bc`6\272\214\324\12rij\37\37\377\363"
	.ascii "8\373\354t\244\335tvs,\217g)\4\227\242\22\230\232\334R\240b\230\273\10\346\266\342\205nd\232\10x\264>\343\221J\346\0\302fs@\251\325\1\267S\357"
	.ascii "6;\342\353\14@\325\375\201n\15\215\216i\244y|\307\341P%\276\305\356=/\214\212p\302OY\243\344Q8\207{\331u}\315\315\\w<\316\32b\270iX\270\355\271x0\216Y\204\247\267c\322\223\273\335\351mL\232C\343\27\207T\242\265\251\232\32\251\226"
	.ascii "5\24\361\17=\320"
	.ascii "5f\354\314{5}h\272\201\2\347yO=\215\252j`/\247\354\265h\272"
	.ascii "8\210\352\330h\312v\300[Y\312\6\37\273\20\345\10\23\273\252\351\275]5/B\360\327\375`\177'*\344:\21@\"p\317\336T\25\325\317\211"
	.ascii "4\215\346\332X\16\247"
	.ascii "3\21\7\366\245\277\20\224"
	.ascii "5\307F~\253s\200\273\306pj\330I\346\201F\231\7n\212\36P\326V\\\330\352\202fxy{\305Rd!\374r\275\2\345\1g=\211\272[ \275\11\315`\27-\310\13"
	.ascii "5#/\352f#\21l\340\215\234#\25F\230l\261\372C2G\6\231\211EJ,\360"
	.ascii "1\226\6\210\25\253t\341#\21\265\312\256\244\37y0\233\246\246\364\304:\343\"j\20\234v\251\362\7\310k\206\267Q\234\300\221)z\27\206[\325\267\15\267\213\356\36\200\272K\6\221\213;\2\262d(\177\202\306D\326m;\32\23_\215\346\224\271\316\20\244\32\355JUXE\2\177\370\271\202zN\346\21\263\4\247\2\265Zs\342dut%\207oqBQ\277\335[\327\340 \16\214|E\351\313\34\254\215s\233\20\243\344\26z@\242S`\272u\313p\307E\312\324f\207\251\254\242\241\4\311\364}\210\246K\364}d\235s\257\241\376\211+\16\306"
	.ascii "4L\257\357\341\267k\360q\326(\33\31.T\341\363X@r\255(\272EIW\27^XY\236LZ\202\270\313\235"
	.ascii "5\6"
	.ascii "74\303\233Z\26>\313\351~\3u\0\314g`\260\247h\36\271\266:\312\22\365B\313\33\302xD\357\266\203\274\247\222\225\212\314z\367v\304\1\315\234\303\274\305\310\7\357=\254\341\15P\201\35)\230\307\300\375\214\370\11\344?f5\14\370\323n\267\337\346\276\31\346\343!9\1$z\216\346\320\376\261\376\263un\253Jh\377*\15\352D\337\260\210 e\370\336\225D\15\255"
	.ascii "3\361t\361\356:\321\360\26M\343"
	.ascii "9\244u\247,\277BI\233^\244"
	.ascii "9\370\240\365\244\303\324U\247[\254:/Y&?\274\331\345o\363\25\242\225\324\2\334]\224\273\207\26\235n\261\350t\26D\7;J\271\33\277\215{\367\340\323R7\231\213{e.\356\263\272x\264\274\251D\203\237\210\216L\310:\365\34\317"
	.ascii "6(\17\361\361\236d\14\351\343\233\315\367]\4"
	.ascii "3\357"
	.ascii "6\316\345C\250\231\211\300~\222@6%h\23\276\320\0\232M\6&=\214Ku\23\354\15"
	.ascii "3\242A\301\336\255%\317\22\325K\263\371H\343"
	.ascii "4Z\22H\361y\201V\221\2\204\206\320"
	.ascii "7\204\245c\260\351\20GY\234h6A\272\241a\264\224Z\"\256\250BM\325\261$\34\255\301\261\273\215!F~|\374_\20e\274/\313i\326\204/4\302\6\37\211\334\371\14\11*A^\242QA\245\302s}\25j\250\333\361B\335\36\3"
	.ascii "5h`GG\345`\234\255\244Ao\264\234\261h`\207\207x\16"
	.ascii "3\353\365\27<\337\355\200M\354vqD\322a\7\\-4j\362\366\"\262\33D\37h\320:\272'J\215\273\260\313I\354\12\343h\337\356'{\32\34h\237\227\32\205\263\276\275\17b\307"
	.ascii "5\264\17\266\34\21\254\257"
	.ascii "3\247b@5\305\256,\222\203]\31\332\312)\231N)\273\332\242"
	.ascii "4\270\237\251\221^c\351Wz&B:\265\7\307i,\343\343\356\204\35m\343\330\272n\275\0\326\322\223\226vW\34\245\242\343\16\226\266\355W\343C\264\341\321\27\323u\35\243\245s\276\371\306k\226r?Rx{y\316\230\341\345\265J\3K\213\247\306\353\33//p\24\304$Y'\321\15\364\265\2\215\223/\3\367\215\2\355\204/!C"
	.ascii "\215\32!t\200\17\325\201O\342\271\31\222U\266\216\270\212tGsK\25\303t\5=\302i\320a\316S!i\356#MRf\214\25\306\220\345%\230\30\"G\220eo\221\332k3\31T%j2\24\14\246Bq\334,`\332E.a,9\370\241C\34u\325>D{H\246\36\344V\261bd,\200\225\200\366\243\23"
	.ascii "0[\232\264\22\221E\316\334\224eR\232@\35\330\0\241\252\211\372\\E\326\305*\221"
	.ascii "7g\232\237d\236w2\205\204\215\215\217\207\362j\252\12\12\341\350\30\342\223"
	.ascii "9\36(\24\334B\276\320v\2"
	.ascii "7\226"
	.ascii "7A\326\233\350\2w\14d\36'2\367p\336t\22P\205^'p^(\26\350\0\320Q\240c@\211@)@F\240\275@I\234\267\202"
	.ascii "0*\320n\16\374hWn\322_/\227\32\244 \246DY\261\214\354\310\321"
	.ascii "9\273\376\371\221\7\3L\235y\305\352\314\\\273\314y\324\231\254D\23\221\311\234P\243\245"
	.ascii "5N:\214zS\360\16o\254\266\212\257\230(\236\5\237mGc.\350\343\177\341\204\366\13\236\26|\302~\250"
	.ascii "8\3o\256\311g\316.\200\32\\i_`!\372"
	.ascii "6o\357\260y{\256\7\212\"\336\216\22\275mE\364>e\265\1:\"\2\2\15*%\32\\\262k1\246\300\260\325b1\334\34f\14\363\265\230\271\340\30\260\305\25\373\252"
	.ascii "3[S'VI\242\272\314>7\215jrC\262\315wc\333\374\204\233\17{0]\36\351\332"
	.ascii "9~\354\322I\247\251\227\307\223\234\260<\316\243\253c\245\251f\31[\357,\301\342\352x\234\363@'8\302|\212\233.\16\241g\352G\251\303X\312\335"
	.ascii "8%7:\315M'\7\206\3\231\31\316\262\25\22\372%\332\244"
	.ascii "2c\223_\340\276\327\177\257\330\221\2{\207L\27\27\236\227\347F\201"
	.ascii "9\320\305\352\306\201|v\272Q\221\346\310\235K\273\320\324"
	.ascii "83E\234\31\34\3\232\272\343\200\323\304}@\32\350\236Nu?Cu\317\24\221\336\252\35ys\342"
	.ascii "6\300>3\312\242@/\324W\216\271\312\200f\311\200\236\25\200\236\245@\203Mi7\30\320et};j~\206(2z\210\15-\313ks\236\32Y\216\210,\235!{~\334\264\315m\"\262lP\366\34U6\227*\233#\"+\255\271|\25M\204f\237\33\345Qh\207N\356\32r\220A\313\223A;/@;O\241]<vF\205\313U\262S\333\373\354\324v\357\300`\262"
	.ascii "3m\222\323\262;\331\254&>,/pBj\357H\233t\311\211\375\22\24\306\367\351\211\35\364\273\310\261S\263%1\267cA:\17\371V\300\251Q>'n\200)'U\4\372a\266\375\375W\313\334\251\215g\221\311\237\224\237\35r\235\332\250&\321\250'\230QM\371\17v\253&\32\265\220cgY\5*\242f2\211F}\320"
	.ascii "0\330\312M4\252}nTL\215\32\337"
	.ascii "8\234\341\"3j\261\314\250\227\5\243^\246FM\317:\330$lK\201[\320\306\306\\\302\311N\316\321MWy,\345n\234\222\33\225Rm\256\366\32\232\335e\332\224\312\264)\23\264)\243\332<\276\324\301s\324\262k\350tC]\325,M\325\244\331T\261\357]\332r&\255\346\340\226>\267\251\315^)\232\375\12"
	.ascii "3{\275\341T\262\373D\263\227\203!+htVQ\325+E\263g\31\262\322]&\232\335>7\272J\201>\270\371\364\252<M\257\312\200V\13@\253)\320\311;\321\344\270Q\203j\226\275\335\316"
	.ascii "5\262\305\251\221\357v`@ynU\217;\216u\240\371"
	.ascii "0Tz\344!\207\23Y#\255&{\310\31\366\214f\330`_\336;7\206"
	.ascii "7\6\27\303\342\5aB\304\240Z\353\332\5\333"
	.ascii "5\262r\325Q\35\320u\316\23\6[\232\207\317\263M.Y3\330\306w\377\326\221\16l\355\273\301v\264;L\331M\352)v\264\15tG[/\356hs\353\356\367s\270\302A8\243\30"
	.ascii "3Z\363\225\270\205)\373(\246\372\236;\331\340\32-Q;\313\271\30\336\314\363DY*\4"
	.ascii "5Z\223P\201n\212{\336&\252\350d\23\332\331\262\33[F\306\34\245JZ\255\332LL\331B\365\274%\352y\276`W\261\22\367\211z^z\364"
	.ascii "2\336\35\17\213\315BS\203E\315\236\300\216_0o\11\205\363/H\273\303Mz\2\273\277\262\360\202\22\37w\244\370\216"
	.ascii "5&\357s!\316\340\315Iy\357\25\7\363#\343\343\230\316\214n\303\320\273\34\35\212\356\211\340\314S\200\353\32zv\232\243\340Hqb\350\322\212\315%H\212\16p3t\255\4]\33Ew_DW\233\272\357\200\33.p\24\340D\367\33\362\234\360e\246%\377"
	.ascii "8w\247;\323\362P\276MK\220\200\36H\264|(j\371\210j\331\320\230\223\343\206\233\231\210\264\244\354$\242 z,\252\334t\342B\262\222\252L\237iA\317\225\213\271\205nv\335\321N\24~J\25~\"*\34\32\25\332\342\214\333D\205\343_dn\327\340\247b3\361@g7{da\271[\230\374\265\340\216\216\311\356\270l\356"
	.ascii "4)\361~'\252eGG|\222\206\1\315\310\264\1\205\231\321"
	.ascii "3\30\372\\\0\332)\2}A\201^x\34\322\354\210\317P\21\\oo\376)ae\341'\257,/\271\11\317\202\351\312"
	.ascii "2Xw\361\363`\320\260\13|g\261-,\253\325V-'{|_t\304\230\13\36az7d\265\33\225"
	.ascii "8\324\231jp6\265\354,\236rm\353\267\273\266\35l\310^Al\324\7\32\364N^\332\310c~Ku\250fJ\251\203v\245\236\270\331\261&\4\244\16\200\324\36\233\324>\316\6,9\342n\215"
	.ascii "3\215\202\1k\340f'\335\311\307\322"
	.ascii "8 va\201\320M\2a\230\6\302\220\30\10\5W\366]W\341\243j\301\363\307\252\262\6\\p\246\232\32\246\374\\\1K/K\302\321\312\371"
	.ascii "1|\253X>@\6\32\341\254G=4*\272t\354\225\345c\265z\322\211\37\272xL\373N\365g<\345\304\250F\301\254\263\263&%\217\263\202\14a\235\343\271\17}\354\25H4N0\206a\202"
	.ascii "1\24\13\30\257U\207\5\342:\206\251\366\300\13\25nd\327\355\301%)*\242g\4\26\364l\356\33\257w\304fv;\246\361f\222#\303\337\324\222\375\247\256\232Pc|d\11\30`6\231\0\205c\301'h+L\204\"\261\370\330\0\333\267\301\343\227\255\227\235\255\340\230\21\302\343B\36qR\34\5Vgm'B\243(\220\35\"\220\203\305!\376"
	.ascii "8\315E\360\325\341C\15\5\256\370\214\330\254\350\312(\307,i;\357\230\227\207\261\244\215\301\223\222"
	.ascii "6'%\354\232\12\337v\241 -u=\255*\226\264CM\266\244\205\211Q4\14\335\211\231\207\15\"\272\330\277\0\235q\250e\320\325\272\266\355b\236\213>\233\20\254\224B&\367\30\344"
	.ascii "8\2y\17\205\274[\204\234\337"
	.ascii "3\320\341\200\273E\220y\365GNa\334\317t7Uo?\355\306tOk\264\351\16\22\320^\211\356\373D\335\343\251\356/\252\273\363\235\260A\303^\260\224^\33P\303\306\347u5/~\350[\252\224\304\226FW\332/\274&\32\377"
	.ascii "3\311\343\321l\343\23"
	.ascii "7\261>\31B\370\327\202\317\374\255\344\21\370!\354\15#`\246\4\354\201\16`k\201\312\324\\![\337\203X\215\366ck&\277\376m\25\312\236=\257Z\32\356\253\254\353T\22\263gs\235\301lc4\262\316\207)w\266\311"
	.ascii "6\20djf\344Db\344#\324\310\207E#\307\37N\333\345\212"
	.ascii "\367k\4#\367\325\264\354s\304\207\230\205Jr\16"
	.ascii "6(Y\26t\336I\16|\24l\210\342\315\343\343\263\251\20tTb\347d\321\316)S\304\310\253\252\300q\246\374\265\350\334\21\225"
	.ascii "5lN\10a\223\236\375=k\21"
	.ascii "8\311\372\212\302\343O:\332\255\2\307\10\310\323\24\344)\21d\375\325\353\373"
	.ascii "8|^3"
	.ascii "E\352\267\354\16Ov\301\227\330\355asi\272\223\230\372FY\352\203T\224jM\375"
	.ascii "42Q\272\10<c\12\340\366"
	.ascii "6\30q\205\346Q\266\361\233\251Fg\30\240\360mCE\356\342.+\213\365]\260\344x\332\335\207d\222\251\263)\306\263\"\306rK\370\10\306e\242#\307\214"
	.ascii "1u\10W2L\265%\215#B9\203=\226\357C\233#A\10:\207m[\221\34\21O.\305\23]\226\220\246\306\367\231\24\341\255\256\303\24ou\35\254ou\271\214\375\355\241.\310[-\34\377"
	.ascii "2\177\232Hr\340\"\4b\236-\7\34\204\34\260\277\340_\200|\"\34\350<\344S>\366\260\277\27*\312~\220/?\352\222Il\307\203KX|\240\337\320"
	.ascii "3P\304\236\36C\237\340\207C/\216\236\226\255\227\27\255\251R@,l\242\26.\24-|:\272"
	.ascii "5[\215\237"
	.ascii "3c\344X\202+\4\223>\357nwo>\310\263\"\204\20\31\206\212\260m\207]$\332\264x\212\30\271x\372z,\313\204.k\214\334;\321\331\344n\315\355\22\26\20\205E\35En\326\316R\326\31\37z\343\244\354\31\370\200u!\271LP\224S\24e\"\212\220\334\221z7\234\343*\304I\326\361"
	.ascii "3\335J\\\345\312\342\344A\373"
	.ascii "3!\341\23\332\266J\227}\20\202*\260m\331\277\"b\252\244\230r\216\231\"T\262Wvv\37:\242*L\216i\341yQ\255\362C]\255\354"
	.ascii "5\314U\346"
	.ascii "5\362K\354Uj\374D#y\372G\366\370\222\3\240\300[My\237Wg\317\263\267\21\6\206k\324\14\353\4+DV\264\205qxX\264\302"
	.ascii "9\323\303^\214\303\335\304\327={C\316\11g\222"
	.ascii "1\314\3\374Z,y\341O\326\210\236K).x\233\33{\351W\270"
	.ascii "7\224\254\243\306X>\306\260>\22\326\13"
	.ascii "2\31\252\1s\325\11\365\361\272h\256\33\324\\\17\12b\366@\321u\233b\207\237\21ch$o?P=\14C\15B\261\217\350\210p\267\273\311o$^\276\211eg\256\213\5\17n`\234\312f\310\312\331\325\252\301\27Y\343\310xR8Y4P\263X\376\32\16\215\265:\341\33\354vCgD\222\232\204@&\224\212\23\256M\7ySp2\211\353\340"
	.ascii "0D&AM\326\2x\213\314\333BT\204/\366\220\26\335\246\370\352\317\274\334\345\362f\22\311\376\204\243\267V\302\26\235\254\305\204\201\330\340\16~\23x\6:#.:P\36s\207\3\371"
	.ascii "7\241\303\342\375\273\364~\357\320\371nwu\244-\244\276\355"
	.ascii "9\23\272\207\311#\244\306\273\211\355.\322Xi\223\305\212Y\210\25"
	.ascii "3\215\225\33\251\306"
	.ascii "67|\213\301n\334\225\33\301J\362\\\366\206"
	.ascii "3!\331\370D-\372\200\366\14\334\17\177N\15\327\12h\357c%jc\216"
	.ascii "9X\333\342%\272\17=`}\335\21\361gUvK\367Cb\264GXv\204\334\21i>\206\361\303\251\374\223\326V\30\347\204{\331mCU\327o\330C\210\361\13=\232f\233{J\20\21\213\36[\335\323NfzB\334\363\204JBO\251o\14\273\373\267\251\360"
	.ascii "0\225\306\235\332}\246\321e\312C\327\363\211"
	.ascii "5X\250\347#?M%\365\274\3\252\345"
	.ascii "3[=\207\342\311\362\203\334 \347\11S{\25\207C\334\351\377\343\204&\216\361\30y{8{\330\376\335\251\13;\243Nib)\310Cy\350Ul%\272\230\203\15\323\376\333\372O\37/@\27rK\201,\240\314KP&\236\276\374\"}\344\13&\14\36\31\252s\222z\277F\366\236\240[\360~7\365~\357\376\270<\7)3\251p6\346\36\201\271\207"
	.ascii "2GF\217&9J\231\367\310\230{\5\346^\312<\324q\240\330U\312\34%c\356\23\230\373(\363\275\310\364\227*)s\230\214\271_`\356\247\314\203!\35\7\345\253]\207l\265\33\20\270\7(w\277%\276W)\343"
	.ascii "6\311d\17\12\334\203\224\273n\264\333(\203\230-c\36\22\230\207(s\361\356\235u2\210\247e\314\303\2\363"
	.ascii "0e>q\245u''e>\"c\36\21\230G(\363\315\321\210"
	.ascii "3J)\363\260,\203G\5\346Q\266\216\24\27\367\310\377c\343\251\214{L\340\36\243\334\223\353l\367\365m\327\330\32;`\335\23"
	.ascii "4\266\204\267\311\376\317\257\303\272'\30'\11\5\7\30\340\347\225B\352\236M\31\332\216\360V\32\344\350Jyp\203#\253\235\317\273O\314\276E\222"
	.ascii "3L\254\235"
	.ascii "0\20\205(m\273\2\270f_\344\270\252$\231\231_Z\321\344F+b\244\251x\32\324w\372L\216\245T\230\362M\305\214\265\37\256\370\325\312\217\265?\377d\325\252\225\37iW\374\372gk\327:\4\5\370|\241\323\343 \375\27N\377\372\301'\236+~\374c\305\354/\2"
	.ascii "6\351\2u_\374\347\374\5\363\341o\201\336w\243n\1"
	.ascii "0h\311\305\374\317\24sd\367\231\200 \312 \\\3\217\273V\273Y\377\251\237v\223>P\253\377z\223\316\345\237>\375\322\327O\377\23_\377\177V\374\215v3t\317\267\243\215{\220\316\177\203vC\200\277N\353\23\360\245\277^M\333\364\22\373\372\353\235i3\310\367\217:\245\317g\353\3\35i\323o\223{\240\316g\263t\24m\323KgzIF8\322+\277M\336\332u\37\377\346\203\305\240\355R\246\355\302\367\354(\262r\272\226\252\255\365\365\377}\200vS\220\356\313\15\1\263\264Z\37\277\365AA\223n\20\221\277|\265\310\267\350\314\13\337\1"
	.ascii "1[\266\254\377\324w\363\302\205\377"
	.ascii "0I\344\312\327&u\251m\3\346\212\226'\306\206\353\305\213\4\223k\203t\201\233u\201\363}6mR\20u\326\276Z\235"
	.ascii "9\257fQ\270h\265A\372\15>\353\375\374\264Z\15\250\21\260q\223v\203> \320s\236v\335+\207\377b\341\312\315\313\227\275\256\325\376a\313\26-\250\35\24\340\277\336\317W\377\265v\363;\323\264\332\15:?\235\336\327\377\17\177\201\274w\210<\7\342L\255\376\347+\376q\301\277\353\341\357\335\371\357\316\177g\301\307\1\1~A\13"
	.ascii "6\202\274\257\226\274\267H\273x\321\2\337\245\313\226\376\344\253\245K~B;I\207\277\217\337\227\33t\13\264\264\3BT\4\344\363\377U`\5\1\264dz\220~}\240^\264>5\273\207v\335\302e\223\273\327\370\254\325*\177\37\250\323\341\215\272\215\177/K\32\275n\213~\1\311-\270\206\233"
	.ascii "4y\340\27\264\372\236\240\310bh.!\203W\256\201IU\340\202\0\37\351\275wi\317\312\317\227/q\6\34\33t>\340\"\207M\201\220%A\330'\300\377Gv\247#3\372\6\320\331\200'(\300\217\244\363\33\242T\350Z\312$\254\\\363+\237?:\302\25`\371+L\15\261\3"
	.ascii "2`\12\7fM\247O~\371\301\307\332"
	.ascii "5\37\177\264\342;\213\374t}\20\24\230\15 \363\243\357,cS\320\206/ \263|\26\210\311CR\215\24-\215\217_@\220N\350\365\234\20\21\213\244"
	.ascii "7\211\335\225\244\374"
	.ascii "8o\360\363\363\335\270) PO\253\321\362\205K\177\361\235\365\372\312\327\237H_\4\232`?\235\277\322'H\37\370\226=?R\377\301M\355\227z_?\242\370LA\327%\244w1\214%\16\\\276\4o\14\330<Kv\13:V\256\361!7\227"
	.ascii "9\201k6\256\337\242\325\343M\1A\337\227qA\7\21\360\371\332E\332\345\13\27)I\345\244\345\23\320a0\377\33\222"
	.ascii "0\\\14m\210\320\317>\7F(Td\205 1\343(\\-\377\316\306\20\326\232\327}\2"
	.ascii "u\353\365:!\243\4\353/\220\273f\321;\366\230\10\2\0\340\13\212"
	.ascii "9\353u\201 \37X`\235\333\340\256]\267V\377\236\265k\363t0\252.\20j\223\37\224&\337 \337O\375t\356\304\350\353I]\240eJ7S\253\235\314\4\371\246]\267\301o\315f5ME\272\312\330\6\372\353\276\362\374\355\177\251\264\353\374\327\177\356@\300h\365\312O\1\276\222\\\377\37\357\4-i"
	.text
	.section	.gnu.lto_.symtab.f43ba30d,"dr0"
	.ascii "__ZN3stk6socket19SOCKET_BUFFER_CLASSD1Ev@8\0_ZN3stk6socket19SOCKET_BUFFER_CLASSD1Ev@8\0\0\0\0\0\0\0\0\0\0\0\27\1\0\0__ZTVN3stk6socket19SOCKET_BUFFER_CLASSE\0_ZTVN3stk6socket19SOCKET_BUFFER_CLASSE\0\0\0\0\0\0\0\0\0\0\0\16\1\0\0__ZN3stk6socket19SOCKET_BUFFER_CLASSD0Ev@8\0_ZN3stk6socket19SOCKET_BUFFER_CLASSD0Ev@8\0\0\0\0\0\0\0\0\0\0\0!\1\0\0__ZN3stk6socket19SOCKET_BUFFER_CLASSC1Ev@4\0_ZN3stk6socket19SOCKET_BUFFER_CLASSC1Ev@4\0\0\0\0\0\0\0\0\0\0\0R\1\0\0__Z18start_kop32_serverPcS_\0\0\0\0\0\0\0\0\0\0\0\0X\1\0\0__ZTIN3stk6socket19SOCKET_BUFFER_CLASSE\0_ZTIN3stk6socket19SOCKET_BUFFER_CLASSE\0\0\0\0\0\0\0\0\0\0\0\375\0\0\0__ZTSN3stk6socket19SOCKET_BUFFER_CLASSE\0_ZTSN3stk6socket19SOCKET_BUFFER_CLASSE\0\0\0\0\0\0\0\0\0\0\0\371\0\0\0___gxx_personality_v0\0\0\2\0\0\0\0\0\0\0\0\0\12\1\0\0__ZTVN10__cxxabiv117__class_type_infoE\0\0\2\0\0\0\0\0\0\0\0\0\355\0\0\0__ZN3stk3mem4freeEPv@4\0\0\2\0\0\0\0\0\0\0\0\0`\1\0\0__ZN3stk3mem5allocEj@4\0\0\2\0\0\0\0\0\0\0\0\0f\1\0\0__ZN3stk3con6printsEPKcz\0\0\2\0\0\0\0\0\0\0\0\0o\1\0\0__ZN3stk6socket12close_socketEj@4\0\0\2\0\0\0\0\0\0\0\0\0~\1\0\0_send@16\0\0\2\0\0\0\0\0\0\0\0\0\211\1\0\0__ZN3stk4cstr3lenEPKc@4\0\0\2\0\0\0\0\0\0\0\0\0\221\1\0\0__ZN3stk4cstr3movEPcPKc@8\0\0\2\0\0\0\0\0\0\0\0\0\230\1\0\0__ZN3stk4cstr3posEPKcjS2_@12\0\0\2\0\0\0\0\0\0\0\0\0\245"
	.ascii "\1\0\0_recv@16\0\0\2\0\0\0\0\0\0\0\0\0\257\1\0\0__ZN3stk3mem3setEPvhj@12\0\0\2\0\0\0\0\0\0\0\0\0\267\1\0\0__time32\0\0\2\0\0\0\0\0\0\0\0\0\302\1\0\0__ZN3stk6socket20create_server_socketEPKcS2_i@12\0\0\2\0\0\0\0\0\0\0\0\0\312\1\0\0"
	.text
	.section	.gnu.lto_.opts,"dr0"
	.ascii "'-fno-trapv' '-dD' '-malign-double' '-momit-leaf-frame-pointer' '-m32' '-mfpmath=sse' '-mpreferred-stack-boundary=8' '-mmmx' '-msse' '-msse2' '-mthreads' '-mtune=generic' '-march=i686' '-g' '-g' '-O3' '-fno-use-linker-plugin' '-fverbose-asm' '-fstrict-aliasing' '-fwrapv' '-funroll-loops' '-flto' '-fexceptions'\0"
	.text
	.section	.text$_ZN3stk6socket19SOCKET_BUFFER_CLASSD1Ev,"x"
	.linkonce discard
	.align 2
LCOLDB0:
LHOTB0:
	.align 2
	.p2align 4,,15
Ltext_cold0:
	.globl	__ZN3stk6socket19SOCKET_BUFFER_CLASSD1Ev@8
	.def	__ZN3stk6socket19SOCKET_BUFFER_CLASSD1Ev@8;	.scl	2;	.type	32;	.endef
__ZN3stk6socket19SOCKET_BUFFER_CLASSD1Ev@8:
LFB799:
	.file 1 "koperek/./../sockets/stk_sockets.h"
	.loc 1 49 0
	.cfi_startproc
	.cfi_personality 0,___gxx_personality_v0
	.cfi_lsda 0,LLSDA799
LVL0:
	pushl	%ebp	 #
	.cfi_def_cfa_offset 8
	.cfi_offset 5, -8
	movl	%esp, %ebp	 #,
	.cfi_def_cfa_register 5
	pushl	%ebx	 #
	subl	$500, %esp	 #,
	.cfi_offset 3, -12
	.loc 1 49 0
	movl	8(%ebp), %ebx	 # this, this
LBB24:
LBB25:
LBB26:
	.file 2 "koperek/./../text/././../mem/stk_mem.h"
	.loc 2 83 0
	movl	32(%ebx), %eax	 # this_2(D)->recv_lp, this_2(D)->recv_lp
LBE26:
LBE25:
	.loc 1 49 0
	movl	$__ZTVN3stk6socket19SOCKET_BUFFER_CLASSE+8, (%ebx)	 #, this_2(D)->_vptr.SOCKET_BUFFER_CLASS
LVL1:
LBB29:
LBB27:
	.loc 2 83 0
	movl	%eax, (%esp)	 # this_2(D)->recv_lp,
	call	__ZN3stk3mem4freeEPv@4	 #
LVL2:
LBE27:
LBE29:
LBB30:
LBB31:
	movl	16(%ebx), %edx	 # this_2(D)->send_lp, this_2(D)->send_lp
LBE31:
LBE30:
LBB34:
LBB28:
	subl	$4, %esp	 #,
LVL3:
LBE28:
LBE34:
LBE24:
	.loc 1 52 0
	movl	-4(%ebp), %ebx	 #,
LBB37:
LBB35:
LBB32:
	.loc 2 83 0
	movl	%edx, 8(%ebp)	 # this_2(D)->send_lp,
LBE32:
LBE35:
LBE37:
	.loc 1 52 0
	leave
	.cfi_restore 5
	.cfi_restore 3
	.cfi_def_cfa 4, 4
LBB38:
LBB36:
LBB33:
	.loc 2 83 0
	jmp	__ZN3stk3mem4freeEPv@4	 #
	.cfi_def_cfa_offset 0
LVL4:
LBE33:
LBE36:
LBE38:
	.cfi_endproc
LFE799:
	.def	___gxx_personality_v0;	.scl	2;	.type	32;	.endef
	.section	.gcc_except_table,"w"
LLSDA799:
	.byte	0xff
	.byte	0xff
	.byte	0x1
	.uleb128 LLSDACSE799-LLSDACSB799
LLSDACSB799:
LLSDACSE799:
	.section	.text$_ZN3stk6socket19SOCKET_BUFFER_CLASSD1Ev,"x"
	.linkonce discard
LCOLDE0:
LHOTE0:
	.section	.text$_ZN3stk6socket19SOCKET_BUFFER_CLASSD0Ev,"x"
	.linkonce discard
	.align 2
LCOLDB1:
LHOTB1:
	.align 2
	.p2align 4,,15
	.globl	__ZN3stk6socket19SOCKET_BUFFER_CLASSD0Ev@8
	.def	__ZN3stk6socket19SOCKET_BUFFER_CLASSD0Ev@8;	.scl	2;	.type	32;	.endef
__ZN3stk6socket19SOCKET_BUFFER_CLASSD0Ev@8:
LFB800:
	.loc 1 49 0
	.cfi_startproc
	.cfi_personality 0,___gxx_personality_v0
	.cfi_lsda 0,LLSDA800
LVL5:
	pushl	%ebp	 #
	.cfi_def_cfa_offset 8
	.cfi_offset 5, -8
	movl	%esp, %ebp	 #,
	.cfi_def_cfa_register 5
	pushl	%ebx	 #
	subl	$500, %esp	 #,
	.cfi_offset 3, -12
	.loc 1 49 0
	movl	8(%ebp), %ebx	 # this, this
LVL6:
LBB48:
LBB49:
LBB50:
LBB51:
	.loc 2 83 0
	movl	32(%ebx), %eax	 # this_2(D)->recv_lp, this_2(D)->recv_lp
LBE51:
LBE50:
	.loc 1 49 0
	movl	$__ZTVN3stk6socket19SOCKET_BUFFER_CLASSE+8, (%ebx)	 #, this_2(D)->_vptr.SOCKET_BUFFER_CLASS
LVL7:
LBB54:
LBB52:
	.loc 2 83 0
	movl	%eax, (%esp)	 # this_2(D)->recv_lp,
	call	__ZN3stk3mem4freeEPv@4	 #
LVL8:
LBE52:
LBE54:
LBB55:
LBB56:
	movl	16(%ebx), %edx	 # this_2(D)->send_lp, this_2(D)->send_lp
LBE56:
LBE55:
LBB59:
LBB53:
	subl	$4, %esp	 #,
LVL9:
LBE53:
LBE59:
LBB60:
LBB57:
	movl	%edx, (%esp)	 # this_2(D)->send_lp,
	call	__ZN3stk3mem4freeEPv@4	 #
LVL10:
LBE57:
LBE60:
LBE49:
LBE48:
LBB63:
LBB64:
	movl	%ebx, 8(%ebp)	 # this,
LBE64:
LBE63:
LBB66:
LBB62:
LBB61:
LBB58:
	subl	$4, %esp	 #,
LVL11:
LBE58:
LBE61:
LBE62:
LBE66:
	.loc 1 52 0
	movl	-4(%ebp), %ebx	 #,
LVL12:
	leave
	.cfi_restore 5
	.cfi_restore 3
	.cfi_def_cfa 4, 4
LVL13:
LBB67:
LBB65:
	.loc 2 83 0
	jmp	__ZN3stk3mem4freeEPv@4	 #
	.cfi_def_cfa_offset 0
LVL14:
LBE65:
LBE67:
	.cfi_endproc
LFE800:
	.section	.gcc_except_table,"w"
LLSDA800:
	.byte	0xff
	.byte	0xff
	.byte	0x1
	.uleb128 LLSDACSE800-LLSDACSB800
LLSDACSB800:
LLSDACSE800:
	.section	.text$_ZN3stk6socket19SOCKET_BUFFER_CLASSD0Ev,"x"
	.linkonce discard
LCOLDE1:
LHOTE1:
	.section .rdata,"dr"
LC2:
	.ascii "KOP32: OK\0"
LC3:
	.ascii "503\15\12\0"
LC4:
	.ascii "NOP\0"
LC5:
	.ascii "WILL\15\12\0"
LC6:
	.ascii "DO\0"
LC7:
	.ascii "502\15\12\0"
LC8:
	.ascii "\12\0"
	.section	.text.unlikely,"x"
LCOLDB9:
	.text
LHOTB9:
	.p2align 4,,15
	.globl	__Z18start_kop32_serverPcS_
	.def	__Z18start_kop32_serverPcS_;	.scl	2;	.type	32;	.endef
__Z18start_kop32_serverPcS_:
LFB843:
	.file 3 "koperek/stk_kop32_socket_server.cpp"
	.loc 3 13 0
	.cfi_startproc
	.cfi_personality 0,___gxx_personality_v0
	.cfi_lsda 0,LLSDA843
LVL15:
	pushl	%ebp	 #
	.cfi_def_cfa_offset 8
	.cfi_offset 5, -8
	movl	%esp, %ebp	 #,
	.cfi_def_cfa_register 5
LVL16:
	pushl	%edi	 #
	pushl	%esi	 #
	pushl	%ebx	 #
	subl	$748, %esp	 #,
	.cfi_offset 7, -12
	.cfi_offset 6, -16
	.cfi_offset 3, -20
LBB85:
LBB86:
LBB87:
	.loc 1 44 0
	movl	$__ZTVN3stk6socket19SOCKET_BUFFER_CLASSE+8, -284(%ebp)	 #, buffer._vptr.SOCKET_BUFFER_CLASS
	movl	$0, -280(%ebp)	 #, buffer.send_done_count
LBB88:
LBB89:
	.loc 2 78 0
	movl	$655360, (%esp)	 #,
LBE89:
LBE88:
	.loc 1 44 0
	movl	$0, -276(%ebp)	 #, buffer.send_count
	movl	$1048576, -272(%ebp)	 #, buffer.send_size
	movl	$-1, -264(%ebp)	 #, buffer.recv_done_count
	movl	$0, -260(%ebp)	 #, buffer.recv_count
	movl	$655360, -256(%ebp)	 #, buffer.recv_size
LVL17:
LEHB0:
LBB92:
LBB90:
	.loc 2 78 0
	call	__ZN3stk3mem5allocEj@4	 #
LVL18:
LBE90:
LBE92:
	.loc 1 46 0
	movl	%eax, -252(%ebp)	 # D.32158, buffer.recv_lp
LVL19:
LBB93:
LBB94:
	.loc 2 78 0
	movl	-272(%ebp), %eax	 # buffer.send_size, buffer.send_size
LBE94:
LBE93:
LBB97:
LBB91:
	subl	$4, %esp	 #,
LBE91:
LBE97:
LBB98:
LBB95:
	movl	%eax, (%esp)	 # buffer.send_size,
	call	__ZN3stk3mem5allocEj@4	 #
LEHE0:
LVL20:
LBE95:
LBE98:
LBE87:
LBE86:
	.loc 3 17 0
	movl	12(%ebp), %edx	 # port, port
	movl	8(%ebp), %ecx	 # ip, ip
LBB102:
LBB100:
LBB99:
LBB96:
	.loc 2 78 0
	subl	$4, %esp	 #,
LBE96:
LBE99:
LBE100:
LBE102:
	.loc 3 17 0
	movl	$120, 8(%esp)	 #,
LBB103:
LBB101:
	.loc 1 47 0
	movl	%eax, -268(%ebp)	 # D.32158, buffer.send_lp
LBE101:
LBE103:
	.loc 3 17 0
	movl	%edx, 4(%esp)	 # port,
	movl	%ecx, (%esp)	 # ip,
LEHB1:
	call	__ZN3stk6socket20create_server_socketEPKcS2_i@12	 #
LVL21:
	.loc 3 19 0
	movl	-268(%ebp), %esi	 # buffer.send_lp, buffer.send_lp
	.loc 3 17 0
	subl	$12, %esp	 #,
	movl	%eax, %ebx	 #, server
LVL22:
	.loc 3 19 0
	movl	$LC2, 4(%esp)	 #,
	movl	%esi, (%esp)	 # buffer.send_lp,
	call	__ZN3stk4cstr3movEPcPKc@8	 #
LVL23:
	.loc 3 19 0 is_stmt 0 discriminator 1
	movl	-268(%ebp), %edi	 # buffer.send_lp, buffer.send_lp
	subl	$8, %esp	 #,
	movl	%edi, (%esp)	 # buffer.send_lp,
	call	__ZN3stk4cstr3lenEPKc@4	 #
LVL24:
	movl	__imp__send@16, %esi	 #, tmp178
	subl	$4, %esp	 #,
	movl	%eax, -276(%ebp)	 # D.32154, buffer.send_count
	.loc 3 20 0 is_stmt 1 discriminator 1
	movl	$0, -280(%ebp)	 #, buffer.send_done_count
	xorl	%edx, %edx	 # D.32154
	.p2align 4,,10
L8:
	.loc 3 22 0
	subl	%edx, %eax	 # D.32154, D.32154
	addl	-268(%ebp), %edx	 # buffer.send_lp, D.32156
	movl	$0, 12(%esp)	 #,
	movl	%eax, 8(%esp)	 # D.32154,
	movl	%ebx, (%esp)	 # server,
	movl	%edx, 4(%esp)	 # D.32156,
	call	*%esi	 # tmp178
LEHE1:
LVL25:
	subl	$16, %esp	 #,
LVL26:
	.loc 3 23 0
	testl	%eax, %eax	 # x
	movl	-280(%ebp), %edx	 # buffer.send_done_count, D.32154
	js	L7	 #,
	.loc 3 23 0 is_stmt 0 discriminator 1
	addl	-280(%ebp), %eax	 # buffer.send_done_count, D.32154
LVL27:
	movl	%eax, %edx	 # D.32154, D.32154
	movl	%eax, -280(%ebp)	 # D.32154, buffer.send_done_count
L7:
	.loc 3 24 0 is_stmt 1
	movl	-276(%ebp), %eax	 # buffer.send_count, D.32154
	.loc 3 21 0
	cmpl	%edx, %eax	 # D.32154, D.32154
	jg	L8	 #,
	leal	-288(%ebp), %edi	 #, tmp177
	.p2align 4,,10
L15:
LVL28:
LBB104:
LBB105:
	.file 4 "C:/Qt/Qt5.5.0/Tools/mingw492_32/i686-w64-mingw32/include/time.h"
	.loc 4 242 0
	movl	%edi, (%esp)	 # tmp177,
LEHB2:
	call	__time32	 #
LEHE2:
LVL29:
LBE105:
LBE104:
	.loc 3 28 0
	movl	-252(%ebp), %eax	 # buffer.recv_lp, buffer.recv_lp
	movl	$8388608, 8(%esp)	 #,
	movl	$0, 4(%esp)	 #,
	movl	%eax, (%esp)	 # buffer.recv_lp,
LEHB3:
	call	__ZN3stk3mem3setEPvhj@12	 #
LVL30:
	.loc 3 29 0
	movl	-256(%ebp), %ecx	 # buffer.recv_size, buffer.recv_size
	movl	-252(%ebp), %edx	 # buffer.recv_lp, buffer.recv_lp
	.loc 3 28 0
	subl	$12, %esp	 #,
	.loc 3 29 0
	movl	$0, 12(%esp)	 #,
	movl	%ebx, (%esp)	 # server,
	movl	%ecx, 8(%esp)	 # buffer.recv_size,
	movl	%edx, 4(%esp)	 # buffer.recv_lp,
	call	*__imp__recv@16	 #
LVL31:
	subl	$16, %esp	 #,
	.loc 3 30 0
	cmpl	$10054, %eax	 #, D.32154
	.loc 3 29 0
	movl	%eax, -264(%ebp)	 # D.32154, buffer.recv_done_count
	.loc 3 30 0
	je	L9	 #,
	.loc 3 30 0 is_stmt 0 discriminator 1
	testl	%eax, %eax	 # D.32154
	jle	L9	 #,
	.loc 3 32 0 is_stmt 1
	cmpl	$3, %eax	 #, D.32154
	jg	L40	 #,
	.loc 3 34 0
	movl	-268(%ebp), %ecx	 # buffer.send_lp, buffer.send_lp
	movl	$LC3, 4(%esp)	 #,
	movl	%ecx, (%esp)	 # buffer.send_lp,
	call	__ZN3stk4cstr3movEPcPKc@8	 #
LVL32:
L33:
	.loc 3 52 0
	movl	-268(%ebp), %edx	 # buffer.send_lp, buffer.send_lp
	.loc 3 51 0
	subl	$8, %esp	 #,
	.loc 3 52 0
	movl	%edx, (%esp)	 # buffer.send_lp,
	call	__ZN3stk4cstr3lenEPKc@4	 #
LVL33:
	subl	$4, %esp	 #,
	.loc 3 55 0
	xorl	%ecx, %ecx	 # D.32154
	testl	%eax, %eax	 # D.32154
	.loc 3 52 0
	movl	%eax, -276(%ebp)	 # D.32154, buffer.send_count
	.loc 3 55 0
	movl	$0, -280(%ebp)	 #, buffer.send_done_count
	jle	L15	 #,
	.p2align 4,,10
L23:
	.loc 3 56 0
	addl	-268(%ebp), %ecx	 # buffer.send_lp, D.32156
	movl	$0, 12(%esp)	 #,
	movl	%eax, 8(%esp)	 # D.32154,
	movl	%ebx, (%esp)	 # server,
	movl	%ecx, 4(%esp)	 # D.32156,
	call	*%esi	 # tmp178
LVL34:
	addl	-280(%ebp), %eax	 # buffer.send_done_count, D.32154
	subl	$16, %esp	 #,
	movl	%eax, %ecx	 # D.32154, D.32154
	movl	%eax, -280(%ebp)	 # D.32154, buffer.send_done_count
	.loc 3 55 0
	movl	-276(%ebp), %eax	 # buffer.send_count, D.32154
	cmpl	%ecx, %eax	 # D.32154, D.32154
	jg	L23	 #,
	jmp	L15	 #
	.p2align 4,,10
L40:
	.loc 3 38 0
	movl	-252(%ebp), %eax	 # buffer.recv_lp, buffer.recv_lp
	movl	$LC4, 8(%esp)	 #,
	movl	$0, 4(%esp)	 #,
	movl	%eax, (%esp)	 # buffer.recv_lp,
	call	__ZN3stk4cstr3posEPKcjS2_@12	 #
LVL35:
	subl	$12, %esp	 #,
	orl	%eax, %edx	 # D.32157, tmp180
	je	L37	 #,
	.loc 3 44 0
	movl	-252(%ebp), %ecx	 # buffer.recv_lp, buffer.recv_lp
	movl	$LC6, 8(%esp)	 #,
	movl	$0, 4(%esp)	 #,
	movl	%ecx, (%esp)	 # buffer.recv_lp,
	call	__ZN3stk4cstr3posEPKcjS2_@12	 #
LVL36:
	subl	$12, %esp	 #,
	orl	%eax, %edx	 # D.32157, tmp181
	je	L37	 #,
	.loc 3 51 0
	movl	-268(%ebp), %edx	 # buffer.send_lp, buffer.send_lp
	movl	$LC7, 4(%esp)	 #,
	movl	%edx, (%esp)	 # buffer.send_lp,
	call	__ZN3stk4cstr3movEPcPKc@8	 #
LVL37:
	jmp	L33	 #
	.p2align 4,,10
L37:
	.loc 3 46 0
	movl	-268(%ebp), %eax	 # buffer.send_lp, buffer.send_lp
	movl	$LC5, 4(%esp)	 #,
	movl	%eax, (%esp)	 # buffer.send_lp,
	call	__ZN3stk4cstr3movEPcPKc@8	 #
LVL38:
	jmp	L33	 #
L9:
	.loc 3 60 0
	movl	%ebx, (%esp)	 # server,
	call	__ZN3stk6socket12close_socketEj@4	 #
LVL39:
	subl	$4, %esp	 #,
	.loc 3 61 0
	movl	$LC8, (%esp)	 #,
	call	__ZN3stk3con6printsEPKcz	 #
LEHE3:
LVL40:
LBB106:
LBB107:
LBB108:
LBB109:
	.loc 2 83 0
	movl	-252(%ebp), %ebx	 # buffer.recv_lp, buffer.recv_lp
LVL41:
LBE109:
LBE108:
	.loc 1 49 0
	movl	$__ZTVN3stk6socket19SOCKET_BUFFER_CLASSE+8, -284(%ebp)	 #, buffer._vptr.SOCKET_BUFFER_CLASS
LVL42:
LBB112:
LBB110:
	.loc 2 83 0
	movl	%ebx, (%esp)	 # buffer.recv_lp,
	call	__ZN3stk3mem4freeEPv@4	 #
LVL43:
LBE110:
LBE112:
LBB113:
LBB114:
	movl	-268(%ebp), %esi	 # buffer.send_lp, buffer.send_lp
LBE114:
LBE113:
LBB116:
LBB111:
	subl	$4, %esp	 #,
LVL44:
LBE111:
LBE116:
LBB117:
LBB115:
	movl	%esi, (%esp)	 # buffer.send_lp,
	call	__ZN3stk3mem4freeEPv@4	 #
LVL45:
	subl	$4, %esp	 #,
LBE115:
LBE117:
LBE107:
LBE106:
LBE85:
	.loc 3 63 0
	leal	-12(%ebp), %esp	 #,
	xorl	%eax, %eax	 #
	popl	%ebx	 #
	.cfi_remember_state
	.cfi_restore 3
LVL46:
	popl	%esi	 #
	.cfi_restore 6
LVL47:
	popl	%edi	 #
	.cfi_restore 7
	popl	%ebp	 #
	.cfi_restore 5
	.cfi_def_cfa 4, 4
LVL48:
	ret
LVL49:
L22:
	.cfi_restore_state
	movl	%eax, %edi	 #, tmp172
LBB118:
	.loc 3 62 0
	leal	-284(%ebp), %eax	 #, tmp171
	movl	%eax, (%esp)	 # tmp171,
	call	__ZN3stk6socket19SOCKET_BUFFER_CLASSD1Ev@8	 #
LVL50:
	subl	$4, %esp	 #,
	movl	%edi, (%esp)	 # tmp172,
LEHB4:
	call	__Unwind_Resume	 #
LEHE4:
LVL51:
LBE118:
	.cfi_endproc
LFE843:
	.section	.gcc_except_table,"w"
LLSDA843:
	.byte	0xff
	.byte	0xff
	.byte	0x1
	.uleb128 LLSDACSE843-LLSDACSB843
LLSDACSB843:
	.uleb128 LEHB0-LFB843
	.uleb128 LEHE0-LEHB0
	.uleb128 0
	.uleb128 0
	.uleb128 LEHB1-LFB843
	.uleb128 LEHE1-LEHB1
	.uleb128 L22-LFB843
	.uleb128 0
	.uleb128 LEHB2-LFB843
	.uleb128 LEHE2-LEHB2
	.uleb128 0
	.uleb128 0
	.uleb128 LEHB3-LFB843
	.uleb128 LEHE3-LEHB3
	.uleb128 L22-LFB843
	.uleb128 0
	.uleb128 LEHB4-LFB843
	.uleb128 LEHE4-LEHB4
	.uleb128 0
	.uleb128 0
LLSDACSE843:
	.text
	.section	.text.unlikely,"x"
LCOLDE9:
	.text
LHOTE9:
	.globl	__ZTIN3stk6socket19SOCKET_BUFFER_CLASSE
	.section	.rdata$_ZTIN3stk6socket19SOCKET_BUFFER_CLASSE,"dr"
	.linkonce same_size
	.align 4
__ZTIN3stk6socket19SOCKET_BUFFER_CLASSE:
 # <anonymous>:
 # <anonymous>:
	.long	__ZTVN10__cxxabiv117__class_type_infoE+8
 # <anonymous>:
	.long	__ZTSN3stk6socket19SOCKET_BUFFER_CLASSE
	.globl	__ZTSN3stk6socket19SOCKET_BUFFER_CLASSE
	.section	.rdata$_ZTSN3stk6socket19SOCKET_BUFFER_CLASSE,"dr"
	.linkonce same_size
	.align 32
__ZTSN3stk6socket19SOCKET_BUFFER_CLASSE:
	.ascii "N3stk6socket19SOCKET_BUFFER_CLASSE\0"
	.globl	__ZTVN3stk6socket19SOCKET_BUFFER_CLASSE
	.section	.rdata$_ZTVN3stk6socket19SOCKET_BUFFER_CLASSE,"dr"
	.linkonce same_size
	.align 8
__ZTVN3stk6socket19SOCKET_BUFFER_CLASSE:
	.long	0
	.long	__ZTIN3stk6socket19SOCKET_BUFFER_CLASSE
	.long	__ZN3stk6socket19SOCKET_BUFFER_CLASSD1Ev@8
	.long	__ZN3stk6socket19SOCKET_BUFFER_CLASSD0Ev@8
	.text
Letext0:
	.section	.text$_ZN3stk6socket19SOCKET_BUFFER_CLASSD1Ev,"x"
	.linkonce discard
Letext_cold0:
	.file 5 "C:/Qt/Qt5.5.0/Tools/mingw492_32/i686-w64-mingw32/include/_mingw.h"
	.file 6 "C:/Qt/Qt5.5.0/Tools/mingw492_32/i686-w64-mingw32/include/basetsd.h"
	.file 7 "C:/Qt/Qt5.5.0/Tools/mingw492_32/i686-w64-mingw32/include/psdk_inc/_socket_types.h"
	.file 8 "C:/Qt/Qt5.5.0/Tools/mingw492_32/i686-w64-mingw32/include/stdint.h"
	.file 9 "C:/Qt/Qt5.5.0/Tools/mingw492_32/i686-w64-mingw32/include/stdio.h"
	.file 10 "<built-in>"
	.file 11 "C:/Qt/Qt5.5.0/Tools/mingw492_32/i686-w64-mingw32/include/c++/bits/exception_ptr.h"
	.file 12 "C:/Qt/Qt5.5.0/Tools/mingw492_32/i686-w64-mingw32/include/c++/i686-w64-mingw32/bits/c++config.h"
	.file 13 "koperek/./.././time/stk_time.h"
	.file 14 "koperek/./../file/eno/stk_file_lzst_header.h"
	.file 15 "koperek/./../io/stk_file_io.h"
	.file 16 "koperek/./../text/./stk_cstr_utils.h"
	.file 17 "koperek/./../text/./.././io/stk_console.h"