	.file	"stk_pharse_command_line.cpp"
 # GNU C++ (i686-posix-dwarf-rev1, Built by MinGW-W64 project) version 4.9.2 (i686-w64-mingw32)
 #	compiled by GNU C version 4.9.2, GMP version 6.0.0, MPFR version 3.1.2-p9, MPC version 1.0.2
 # warning: MPFR header version 3.1.2-p9 differs from library version 3.1.2-p10.
 # GGC heuristics: --param ggc-min-expand=100 --param ggc-min-heapsize=131072
 # options passed:  -fpreprocessed stk_pharse_command_line.ii
 # -malign-double -momit-leaf-frame-pointer -m32 -mfpmath=sse
 # -mpreferred-stack-boundary=8 -mmmx -msse -msse2 -mthreads -mtune=generic
 # -march=i686 -auxbase-strip debug\stk_pharse_command_line.o -g -g -O3
 # -Wno-write-strings -Wno-multichar -Wno-unused-variable
 # -Wno-unused-parameter -Wno-unused-value -Wno-unused-label
 # -Wno-unused-but-set-variable -Wattributes -Winline -Wshadow
 # -Wunknown-pragmas -Wall -Wextra -std=gnu++11 -std=c++11
 # -fno-keep-inline-dllexport -fno-use-linker-plugin -fverbose-asm
 # -fstrict-aliasing -fwrapv -funroll-loops -flto -fexceptions -frtti
 # options enabled:  -faggressive-loop-optimizations
 # -fasynchronous-unwind-tables -fauto-inc-dec -fbranch-count-reg
 # -fcaller-saves -fcombine-stack-adjustments -fcommon -fcompare-elim
 # -fcprop-registers -fcrossjumping -fcse-follow-jumps -fdefer-pop
 # -fdelete-null-pointer-checks -fdevirtualize -fdevirtualize-speculatively
 # -fdwarf2-cfi-asm -fearly-inlining -feliminate-unused-debug-types
 # -fexceptions -fexpensive-optimizations -fforward-propagate
 # -ffunction-cse -fgcse -fgcse-after-reload -fgcse-lm -fgnu-runtime
 # -fgnu-unique -fguess-branch-probability -fhoist-adjacent-loads -fident
 # -fif-conversion -fif-conversion2 -findirect-inlining -finline
 # -finline-atomics -finline-functions -finline-functions-called-once
 # -finline-small-functions -fipa-cp -fipa-cp-clone -fipa-profile
 # -fipa-pure-const -fipa-reference -fipa-sra -fira-hoist-pressure
 # -fira-share-save-slots -fira-share-spill-slots
 # -fisolate-erroneous-paths-dereference -fivopts -fkeep-static-consts
 # -fleading-underscore -fmath-errno -fmerge-constants
 # -fmerge-debug-strings -fmove-loop-invariants -fomit-frame-pointer
 # -foptimize-sibling-calls -foptimize-strlen -fpartial-inlining -fpeephole
 # -fpeephole2 -fpredictive-commoning -fprefetch-loop-arrays -free
 # -freg-struct-return -frename-registers -freorder-blocks
 # -freorder-blocks-and-partition -freorder-functions
 # -frerun-cse-after-loop -fsched-critical-path-heuristic
 # -fsched-dep-count-heuristic -fsched-group-heuristic -fsched-interblock
 # -fsched-last-insn-heuristic -fsched-rank-heuristic -fsched-spec
 # -fsched-spec-insn-heuristic -fsched-stalled-insns-dep -fschedule-insns2
 # -fset-stack-executable -fshow-column -fshrink-wrap -fsigned-zeros
 # -fsplit-ivs-in-unroller -fsplit-wide-types -fstrict-aliasing
 # -fstrict-overflow -fstrict-volatile-bitfields -fsync-libcalls
 # -fthread-jumps -ftoplevel-reorder -ftrapping-math -ftree-bit-ccp
 # -ftree-builtin-call-dce -ftree-ccp -ftree-ch -ftree-coalesce-vars
 # -ftree-copy-prop -ftree-copyrename -ftree-cselim -ftree-dce
 # -ftree-dominator-opts -ftree-dse -ftree-forwprop -ftree-fre
 # -ftree-loop-distribute-patterns -ftree-loop-if-convert -ftree-loop-im
 # -ftree-loop-ivcanon -ftree-loop-optimize -ftree-loop-vectorize
 # -ftree-parallelize-loops= -ftree-partial-pre -ftree-phiprop -ftree-pre
 # -ftree-pta -ftree-reassoc -ftree-scev-cprop -ftree-sink
 # -ftree-slp-vectorize -ftree-slsr -ftree-sra -ftree-switch-conversion
 # -ftree-tail-merge -ftree-ter -ftree-vrp -funit-at-a-time -funroll-loops
 # -funswitch-loops -funwind-tables -fvar-tracking
 # -fvar-tracking-assignments -fverbose-asm -fweb -fwrapv
 # -fzero-initialized-in-bss -m32 -m80387 -m96bit-long-double
 # -maccumulate-outgoing-args -malign-double -malign-stringops
 # -mavx256-split-unaligned-load -mavx256-split-unaligned-store
 # -mfancy-math-387 -mfp-ret-in-387 -mieee-fp -mlong-double-80 -mmmx
 # -mms-bitfields -mno-red-zone -mno-sse4 -mpush-args -msahf -msse -msse2
 # -mstack-arg-probe -mvzeroupper

	.text
Ltext0:
	.section	.gnu.lto_.profile.f43c11b7,"dr0"
	.ascii "x\234cf```c\200\0F\206\327\254'\230\0\5\357\1\305"
	.text
	.section	.gnu.lto_.jmpfuncs.f43c11b7,"dr0"
	.ascii "x\234\215\224KL\23Q\24\206\357\275\323\201R\236\272\323\30gLl\"\11[7]\250Q\321\15a\307\322"
	.ascii "4\225N\343$\355\264\231\26\331\210\224\304D\211\6|\220\10\22"
	.ascii "0h\302[\304\27\" \17\221\227\210\10\370\14"
	.ascii "6\22\202\306\205!\21\242\322@\203\367\334\231\226J\332\244\263\230v\316\371\277{\376s\347\314\345P\354k\205G\350"
	.ascii "7\375\345\21\301\230+\345\10\371E\360H\357FM\212\200\353\374\325b\220 D#\313\241\256jC\311\272\277\332o\14Ra#\26\20\302M\270\4q\305\30#L\357\10\31\0\375\23\270\34\310\20\366j(\1\264\263m=\224\34F9\334\314\320\26\212j\27\6\252\246~\350&/\34\323(\3P\225U\337\207\371"
	.ascii "0\305\343VF\265AAVK#\301q)[\240~\256\242\203P\371%\220'\205\10\244\333\251\232p\305\364/Cx\320\255WV4\30\205\23Z\241d(T{w\265"
	.ascii "6%\\\310\210\357\261B\35\314\36\0\335\241\265~\243pN\3R\0hZ(\37\310\14\3&|\237\1\235P\213&\347\33'\312\322\177\220 I\275N\267\345\1\336\35\356"
	.ascii "0\226\301\207P%n\366\21,\211"
	.ascii "1\216\335 m\10?\246\212\304\272z\302Lv%\336\325S\6t\353]M.\256\255\246\261\256\262\20~\26\277)0\325\23\267)\310\366\322l24\225\230\357>f\343y\342\276\373\31"
	.ascii "0\240\373^j\271\266\311"
	.ascii "1\337\273\20\36\214\357\233\356"
	.ascii "7\36\212\353\33\262/h6=\11\263\353p)\273bj9\252\35\246Z\332+\35T^\37T\24\231Z`\2\376\371@\232p>j\330\353\346Z\33\214[\303\376\222"
	.ascii "51\22"
	.ascii "5\354\200\265\376]*\317\20\312p\24wk\243/\230\272\305\215"
	.ascii "2nl\33\27ZX\274\315\13\27\242\271\372\215\311\36\323\26"
	.ascii "7\316\270\11\315"
	.ascii "6\230\325\300\257K\323"
	.ascii "3F\330\275"
	.ascii "4\32}Ew\217+\206\255`w\220\350"
	.ascii "1\216\305\270\377b\6\26"
	.ascii "3 }A\355|H\354K\237df^\303\33\4}\355\346|\276pQ7\237\16\372/?+WpX\237\201\247\230\376\15;\212x\275H\373\346\370\224I\270\242S\231@]\375"
	.ascii "68\32\331\252,<\315\250\267\341\17\250\271qy\206\27n\350\300\16\0\356,.7DN\274\235x\206\1\263\332\211\207\264\255\320\272\206"
	.ascii "6\23\233\346"
	.ascii "9\266\306\273\304\247\371=\3>\350\323<\273Z\325\234\312\246y\37\302\37\343O3\274\220Oq\247\31\262\237!\273\307j\365\234\261\251^I\265X\354\222S\362IV\207\273H\261\37"
	.ascii "0{\263\321~Y\221}\262\315\347V-f{\216\350\223T\227\254D\36\235\222B\177\21"
	.ascii "1\241\203\307s\217\26\234\264\210f\257E\314U\250Lt\24)\205>\331\255@\354\210\331.:eE\312\21\35nU\244\17>\331%\231`$\310!DN!\222\215\14P-)\277 //\33\235\216r\344\220\251\23\233\325\253\26Z=>Z\325\233\343\364xl\252\315E}\252Vjf{Hq\253.\233s{\324\346\244wj\\>+A\12\375\3\235\316/\251"
	.text
	.section	.gnu.lto_.inline.f43c11b7,"dr0"
	.ascii "x\234}R;N\303@\20}3\273\266W\340\20$\"\220P\220\35\11A\311\11\210\250(]r\6\207S\270BH4\346\6\256@\242\242L\11\35\25\210\23\340\"EZJ\272\314~\242\30)\262W3\263\357\315\274\265vf\25\266\177%\373\30\1\343w\20"
	.ascii "8mn\260S]:Z\245\0\243.l\244\272\210\366\0-\320.\336\25\12z E\236 \234MD\236-\37\11\311\375\271\323\373\"w\212-\211\207\366?u\1\254\365"
	.ascii "6\345\234(qz!~\322.\30\311\333\264\243\357\225%\30\237\210\354\260\275E\334dN\325[?\300\7\275\22\245Q\371\313\364\263\370\372"
	.ascii "6K\376\343\3I=\321"
	.ascii "1\242\231\13\372_r$\311g\313\316\\P\245\17\36\261G\354QD\322!1%\306b\346\201\356\346\12G\315"
	.ascii "5c4\237V\6\272\311\252}\350\326T\271\363W\30~\246\6\352%6\235+;_\27\322^\263\356o\240\354\345\34\203m\273P\264\251\255\264\315\370\21\312>\220\324!)\220\371\206\313-\25f\36\216\352\"\333I\343\336\205@\335\31\220_\275\355\307\12b\346]\4"
	.text
	.section	.gnu.lto_.pureconst.f43c11b7,"dr0"
	.ascii "x\234cf``\340g\200\0v\6I\306H\246(6\11v)\36\11\336(\0\15\0\1\263"
	.text
	.section	.gnu.lto__ZN3stk9__pharser12delete_foundEPc@8.part.0.f43c11b7,"dr0"
	.ascii "x\234\225S\353O\223W\30?\317yo\345\216N\247"
	.ascii "1&%\301\6Mdf\373b\302\27\374\350\374\33L^\11\274\304f\245\220\266&~!\36J7\215FW/\211"
	.ascii "5\33\14\267\340\255\12\302\224\315\242[\275#\361\266\20\267\270pq\11"
	.ascii "8\357\16\313\6\215T|\236\363\266c80\241I\317"
	.ascii "9\317\355\367{\316\357<\257\302\376\377\333\200\377\255\32c\273q\7\203\201\36\276\215\7\35\270\334"
	.ascii "9\327&\362\231\310V\"\345L\344*\\\353[\216\226z\341c\264T\320(\247\301\241\1\320\201\1\333\246sE\325`\33<\346\243\34\302\361h$\247\244U\10\361\327\253\276g\271\342\300\246$g,\301mb8\2%\230t\257\363Y,W)\1\206\347smc\267r\36\361$\207\"2c\373z\":\231\\%\363hW\367\221l\327w\"\34\24\341p\13\272\25"
	.ascii "8\12\12\302\301"
	.ascii "1X\6\307a\31C\27\203\23\340\302\344\370\335\336\275\206\262Z\302\266\275\370"
	.ascii "5\306\261P\4\343{\32\325\365I\256B\364\335B\225\301IpQ\366h(\365[\216\36\302\256\13\355^\341\24\312\301\230\226\342,\305!\305\351j\355\217\316t\25(\237H\370\370\310\320\35\275\370"
	.ascii "0\302?8\321\332\15a\321\22\14\213\251\251r \242\266\231D\351\253\267C1\26~\273\377~\310\241\254\223 -\177\264v\250\22$>\331\250\366\210\320\203\251)'\1\234\236\25\240\3\212\333\27\12d\371\363\274k\1\0\365\316\361\26\232\2t\177\25\217\272F\213N\213A\213\203\302Y\264\260'\34"
	.ascii "8{\312\201\200"
	.ascii "8{\211\7\30C\345\30\33\306\353\322K\16s\235ve\204s\271\367\303\347\361\201\235kg\212C=\320E\244>\210\324\211+f4\367\355i\343\365\257\305\16\341Hr#A,\360=\324S\350j\367\344\241,\347\247M\"R\224\344\16\362\274HuETL\216Pr\26\234\1\247\204\201\263P?\316Q\277l\326\17\241\370P\357$\220\177\\J?\203 '\201-2\350B\2Y\220\313~\207`,\235\255b\366\320\360\235_\34"
	.ascii "4Cy\214\10\317N|\363<\257\11\276j\20T\235?\216"
	.ascii "3\364\3\251\212\241\257\307\366\337/(\215\12\31)\200\37\241\11^\311Q\245\316'\306\366\345\255)M\362B8\7\245\340\222\357\0"
	.ascii "1X\363_:m^\370\335s\340\237G\374b\33\377\2\342\367\303v\361\267\361>q\177\262\305\375g`\327@\276\263\332\26w\1yNG_\247\214\214\270\13\341\347\214\270q\22WCyP\317\214\304\243;\227\314\312\361A\202\6\3.\332\34\207\232/\36\324\234\273\300&YD\256/\17<\274\254eH\26\303\245\14\311e\250O\362\17\245<\35\3\235\206\255\220>/\205\256\314\241\320\325i\205\256\241B\367 t\263"
	.ascii "1?M\220\16\260\21l;R\256\20\375\341\265v\314\230\27\371\365"
	.ascii "9\310{\246\237\377F\206\374Mz\0\214iv\225\5W\22\373\340\366\301h\263n\207\35\230A\202\14\246\325\310\302~Q\374/D\207>\253\366K\22\10\303\240\327\236m\231\217\336\245\22_\223\337\345 4\24J\302a\234\4t`\277+\352"
	.ascii "6W\370\374\226o\243?\360\231i\237\315\312\332\232\232\12o\225\351q{\255\217*\353\352\230\32\330\354\366k\236:\277\257"
	.ascii "2\317"
	.ascii "4\253\335\36\313\364V\324X\246\351H[\346r3]\354++\253\262<V\300"
	.ascii "2\253k\267x\253V\272\374\253\330\12\267\327\35pW\4j}e\256\252\325E\1\313W\343\366\376kz,/\356\14\7\353-\11\260\15"
	.ascii "0"
	.text
	.section	.gnu.lto__ZN3stk9__pharser12delete_foundEPc@8.f43c11b7,"dr0"
	.ascii "x\234\225VkL\24W\24\276\347\316\354\354\354\203\247-Z\372\330M\220\320\37Z\223&M\23\377\324"
	.ascii "45m\177\364g\377"
	.ascii "5\331\22\204H\224\205\0\375\271a\26\266-\32cW\324\206\224\252X\5\251R(\17Q\301\307\326\266\10\266\212\310CP\20\260`mk\353cE\272\225\15=\347\316\354\26W\266M7af\316\235s\316\375\316w\276"
	.ascii "9\27\211=\371\373\30\377ZU\306"
	.ascii "4\274\203\235\1\367_d\314\253r.\15\246"
	.ascii "1\315\252\234|\225iv\211\313\213,\231\333\30\253TM\272\247\11\24\375A\341\346"
	.ascii "1\33:\251\355g1\235\335\14\252\276\256rkM7\256X-\263f\\\267\200\225\326\301\12@wfc\300\312\270$\233\24\263j\261\332\240\14~\341\367"
	.ascii "8\370\3G\252mYu\232\246\335\275?p\333\256\355z?\304\31\13r\35"
	.ascii "5\324C\26:\15\265\336\356\264KY\300\360\371D\323\203\13\266[<\304\301IfgUO\265B&\227\311<\324\321Uo\315<\240\371\313"
	.ascii "5\277\277\26\227%8\4\22\246\203\6H\207/!\235\341\22\203\303\220\211\316\201K\347w\230\245U\"m\323\37\303\235\34\3\265\362\300\366\12\371\255\20\227\341Hl\240\314\240\21"
	.ascii "2\311\373\236/|\305\246\370\20u\262\216\25\276\2\5\30\223\302\234\205\361"
	.ascii "5\207\346[\355\35I\322\313\"w`f\242O\311\330\217\271'\17\327u\201_\253-\367k\13\13\257\1\355\322\364\370.F\335\315\220\321\234\32@\247\266\301\252\312"
	.ascii "5<\15\304\222\214 L\12^\24\25/f\13^\324\4"
	.ascii "2\23\351\222\2TW*\1]\6\2\351\257\34$\366\33\7\312\310"
	.ascii "8\273\203O\360\200\23\336i\274P[f\320\302\273t\25\312\37n\35><\242 \334/v\216\372Ti\235\200^;U\327\"\13\350\201\371\12\271G\363M.,8\10\366\327K\301~\234\231"
	.ascii "07\350\200\26\310 \370\202%\204\322\12\312\34\227\321y\357\300\366&\356y\244Ujj\210[\302H0\245\230\230\356\353W\251\245\272\331\340\365}\16{\240\306\253i\201F\11\11\200"
	.ascii "6\360@;m\12G\361\5\33\2\337\210\364ORo}\327"
	.ascii "63\205[\321\241\303\300"
	.ascii "6\203]\37L\223\306\300\367\242\356\251\304no\13\22Op\14<\354\277\221Y\204\371\327\201\335\11:0t\262\303q\204u\202\366\243W\333:\273-\30O\321\320\211(iW\6]\340\11\361\4B<j V #\202Pf\275\12\"4^\250\261(\22\203\324"
	.ascii "98\211\0C<\351&\241\235\341&\212\301\346]V\364(\13\6"
	.ascii "2\264\253\304\206\230\342\334\321\207\15J$\5\266D\357R\224\243da\326\236\34\33\207h%*\234\302JN\13\202\317\340"
	.ascii "2fe\21\342\236\340&%\210\314"
	.ascii "2\10\374\33m1<}\23\217\247\263Q\236\276%\236R\5+\212\320\347"
	.ascii "0\224k\373\254\364\222\304\204\201\355\363-\357"
	.ascii "8\370\36\255\332\31\342\313(\323\303\23\3"
	.ascii "7T\314TM\271\236\202\357\300\201\260\276GX\24\272"
	.ascii "3I\204"
	.ascii "6\213\320\376\317\352+\222\204\276\360s\350F \344"
	.ascii "1\273l\221\307\315\237\367\326\211\241b*\241\324\301\371\217F\243U\311pN0\323\243\247NfF\314\222N\275\350D\362\254\270\237e\364c)\230\270|p\367\247\215&\332\361i\225\314\266K\373~W\211"
	.ascii "2?\271\231\340<R\366\203A\331\226\276\361c<\222A\206\37\351\23`p\1=\272\243b7\263"
	.ascii "1\233\340,\264|QYKRt\21!R\210\32\341Y\257h\16\365E:\332?o\326\225\225\20+\246\264"
	.ascii "0Ip\261\230\322\226\20\223\2}\210\354\222`\243\237\240^\205\212*C\254\211\230\25V\246\213}\246\364}\342n\22\233\365r4\353\200\220h\"Jt\305\222\12]\36$\31\302\240\256\320G\237l\337\257:\336\326\205\263\202Vj\16\4k,\21V\236\201!p\350\32\34\6\317\234\30\345\307\303\177\236V\35ezH\272"
	.ascii "8e&\267\234I\212\204<\13W\"!#\340\301\267\327\352{\275\11\304\207R\205\2\33\205tD\27\342\317Q\231\35-\303g\215\357;u\361<y^\324\270\325{\360\216\231jL\16\361\27\346x\12\\5Z\276sp\327\16\373\352#\232\246\267\374\32V|_\234\220"
	.ascii "0\6\253\305"
	.ascii "4\251H4\262\316\341\327\200\277\233\0\361\305\26\253\256\361\370\352\272\256\253k\2<J\274\204"
	.ascii "0\11\36s\343\320\335"
	.ascii "5(\"\13\233"
	.ascii "5\343\10\373"
	.ascii "0YL\372\330N8\202"
	.ascii "8\257\30La'\260:D\32\342N\241=\253\320\336u\360&\33\372\305\177<\244\21"
	.ascii "2\351\264\302\331\323\340\337\24o\372\320\201r\343\177L\237\237\342M\237\351\350\364\231\321\247\317"
	.ascii "4\340\351\16\342\260\4\2\210\214\257,\332\230]\\\222[\374^I\351&\227\376\354\312),(\310vopm\316w\347\276\224ST\304\344\322\215\371%\246\315E%\305"
	.ascii "9\11.W^\376\346\\\227;\273 \327\345R\15\313\365\312\33\353_\177\367\315\265\316\314\222\265\316\365\356\322\334bg\336\7\356\234\322\374B7\255\255\313\334\340\244d\253\234y\205\305N4J\363\13r\351"
	.ascii "0c\177\3\"Q9\5"
	.text
	.section	.gnu.lto__ZN3stk9__pharserC2Ev@4.f43c11b7,"dr0"
	.ascii "x\234\225VkLTG\24\236"
	.ascii "3\367\356\335\273\17\272\253\324G\267\217\335\4)\375\241\365\227mb\32c\232\232\376j\322?\375\327dC\24#Q\320\0M\232\264\33\357\302\306\250"
	.ascii "5\26\265"
	.ascii "6D\305"
	.ascii "7H\205\212\"\242\242\325\253\265h}\201\17\24,(Z@\373\260j\327\262\256\272\320sfv\267\353\272\264)\201\313\235\231s\276\363\235"
	.ascii "3\337\234\271\12{\376g\3\376\275ec\354s\374\17Y\14x\345y\306\202:\347\312\345\361\314\260k\207\337f\206S\341j\312H\345N\306\226\352\26ii\1M\276h\334\332\343@#\275\371"
	.ascii "8C++\350r^\7\273|\261\311\227c\272\235\333\314\31h\351\350p\241\241\3\200\246\231\223\1[\314\25\325\242Yu\233\335\341\204\305\334\316@\245_\374\371\205?\340Pi\326W9\362j\14\303\270\337Tc|hB\224"
	.ascii "3\26\346"
	.ascii "2\23\250\205<\264\351l\372\275\325\251\344\1\303\367\203\273\36\236s\334\341Q\16>\32\266\256>U\245\321\220\253"
	.ascii "4\334\321r\250\326\236\273\315\250,\357\253~|l\246\251F\271\2;@A@\250\3\17|\3\36\206S\14vB.\331?\10\305\256:\264\20Fw\313\240P\17\32"
	.ascii "0\246\305"
	.ascii "8\213q\220O\264k\274\323\334\342R&\13\6\346\300\215v-g\213a\224\367\325u}\241\33\247\214P\337\310\210"
	.ascii "7\312Uhx6R<\211o!\7\335\206\214\266\345.e\272\200\350\252\273\333k#\10\243o\347\360L3\264\325\30\36\31\301\314-\260+#B#\344"
	.ascii "4\216"
	.ascii "5\215\221\221\333\365|<\10D.f5\314F\323\361a\265\343Cw\340\303\346\242\241\233\36\331@y\216\23\226\354W\16\12\373\215\3\341"
	.ascii "1\316\356\341\33<\344\224s?>p\333\6p\320\341R\256A\371\320\362\266\246iHs\353\232\356\220\256\274#(o\276Y\263G\25Y\233O*\324\224\234wgb\374lia\17\344\20gQ]\14\337\4Z\204kh\263\361\322\312]<\360\304Xj\350Qn\217\341\306\220\347\215\376\366\13:\355\251*\206u\301\320\6\250\206\365A\303"
	.ascii "0\353\25\314\27\366B\0\232)\26\354\303\5\326\11\241.\345\37\320`\355\241\25Vrw\240AK\234\322\0b\237P\225\36\10\275!-\365\364\360\316"
	.ascii "0\325\6\366C\200\375"
	.ascii "73\273\30>\336\266"
	.ascii "6K\22C\243,8\200\264\16R<ZZ\321\332fC\177\362\206VdIQ\31\34\202@\224\277@\214\273\343\214u\310I0TY\35 \303\370\202=\235\205+L\273\5\207\221`\224\273\7\211\355\0\267\220\17n\331EMz9\320\221\341x\265\10\210\20'\367\15\325i\11\210"
	.ascii "11.7'Y\243"
	.ascii "1b\270\371pO/$3\261\301w\230\311\21Q\340\243"
	.ascii "8\215\250,Q\270\347j36L\265\1\363\337\312\226V\247c\243\325\351x\262N\337S\235\262EU4\22\345\25(7\252\355\264FZB\277\346\247{>\360\362j\243\312\27\345/\22\320\320\301K\267t\4\252\"\250qp\2\274\310\352\7dE\256\253\\\302U\36\304\13\353j+\\B^x\2\332\220\7Y\204\263S,\6oo\254\21ME+%\350\360\323%\335\311\244T8)\12sJB\273\23\307;\243\321\217hD\352\254\370#/\276\35\231h\342\364\366\265_7X(\342x\235\206{;6\335\325\251b\225d\246\301i\254\330\231x\305\226\265\367\356\347\11\4\25\316\322\11`p\16-\332\222Z\267\262\6.j\26\231\220\222V\306\22\235G\212\344\242\307\313,\23\212\240\272HE7#V\251+W\272\224&\304H\200\251R\232\220AJVhGb\35\242\30\27\210\351"
	.ascii "5\250X\35\227\252\33Qa\222G\304\331\362\324\232I\257\311 \351\250\27\223\250\227\204@\335(\320\211\31\365"
	.ascii "91Lm\4.K}>\371r\345\26\335;K\352\346%\232Y\277-\274\336\226(\212\7:\301+\25x\5\2\21\321\372\17\304\36\35\321\275\237I\227\227\305%\323\267\354\250+\341\362\12\\M\270tA\0W\317\334z\24vR=\260\7C7x\220\\\224\277JZ1;\33xZc\244\306,\234\31\\\303}\302\241h\7\203\0\243k%]\34?\215.\216\36)\216^\10h\243\1\302u\10XW\14\14s\324\200\215\231"
	.ascii "3\250\231\334\337\275v\235B\204R[\336k\"\300\362\340\366{V\31\334\\\211\315\330\33\341\331p#\36}\315\345\257V9\247\324\33b\223|\320\207\321\377\344\361\353 \324R\233?u\12]q7aJD\334;\14n\301Tx\335#D\261\344,P\304\10\37\207\213\251\247\324\202\247\364gqJy\242Fh$4kg\370\225\21\27\255\230\346t\332\316)\22\210P\32"
	.ascii "7\375"
	.ascii "5\14\2\5\357\374~y>\6\21(\307\243\37\260!\214\255JA\34\7i\377:\4\315\253\252\274\241\10\34?\210\224.\10\272\31]\222\330\376\352\252Nw\302h-\320\202\311\14\374\217\26"
	.ascii "88Z\13\274\235l\201wd\13\354\7\374"
	.ascii "4\1qK\3\322\304\272MZ4/\277\244\264\240\344\343\322\262\371~\371\356\237\275\260\250(\277x\216\177Aaq\301\233\263\27-bj\331\274\302\322,\277\177n\341\202\2\177q~Q\201\337\17\237\352\361\261\177\332{\263\336\375\350\375\351\276\334\322\351\276Y\305e\5%\276\271\237\24\317.+\\XLs3s\347\370\10h\262o\356\302\22\37\16\312\12\213\12\354\364\331\360"
	.ascii "7\30\332aO"
	.text
	.section	.gnu.lto__ZN3stk9__pharserD2Ev@8.f43c11b7,"dr0"
	.ascii "x\234\205UmLSW\30>\357\271\267\267\267@\327\16"
	.ascii "7T\266\331&H\330\17\263\177\272\204d\211\331f\366k\311\376\354\327\226"
	.ascii "4\4Kl&\205\0\373\261%\15\27h\26u\306!\306\205\14q2\344\303\241 \37\242|L\213\33\212\333\4\21P` \270\360\341\26\347Fj\350*t\354}\317m;V\313F\302\351}\317y?\236\367"
	.ascii "9\317}\257\304\236\376{\17\377\217\31\31\373\30\177Ae\300\313\7\31+Q9\227FS\230\226`\350}\225iI\22\227\327Y2\30t'\3W\374V\334"
	.ascii "6V\277\206\333\12\30\365m#\0=0`\305\\\222\15\212\21\212\341\27\276\304\241\334\327T\231\230Q\247i\332\37m\15\332;>\10r\306\374\\\7\2\365\220\201>cm\17\273\223\244\14`\370\334\325\374\370f\342\3\36\344`'\263\273b\240R!\223\313d6t\366\324'\244\327j\345\245\263\315O\372v\373\344 \227\240\1$L\10\215\220\12g \225\341\26\203\257!\235\374\227\274\241\273\211\212\27\253[\365\242\320\4\12"
	.ascii "0f\10q\26\342\240\257\350\327\362\240\243\323\"\355\20\10|\363"
	.ascii "3CJZ\215\246\225\316v\215\177\252j\3\232wvm\315\26\344"
	.ascii "2\234\375w\245p\23\347 \255%\331\247\255\255-\366\360d\20\266\214(\14\12.\212\212\213\321\204\213\232D\246\231\26+\10|\277r\340\354\21G8\210\15\36\366[\30=\262"
	.ascii "9\304I\\\316sN\277\322$\224.\37\32l\337\211\320\276:6\341U\245L\1\363\324\375\272VY\300\364\255\224\311\353@6\307\3\31\303\5\321\20\273\11-\220F\330\31\234\247Ch\5%\300e\364"
	.ascii "99r\244\231{V\264\3\232\32\344\246\20\302\242\310\231\271\241a\225nF\26fc\211\367\4TCU\211\246\371\232$\354\36\332\300\3\355\4\0:\360\200\215\201w\\\372'iI}\317a#\205'\240\303\205"
	.ascii "0\316y\274\272\321\24i\12\274/\353\236Jl\371D?\225\207N\360\260\377Gf\22\346\223\332\343f\35\30:%\301E\204u\211\352\321\321\341\356k&\214\247h\350B\224T\225A7x\202\334L\210'\302\210\25H\213 \224\331\15\5\21\206\17\324X\24\317\370\261\7\6=\10"
	.ascii "0\310-\13\274\30\257\357\266\242;\233\320\237\241]!\352`\344\365\13\313\215J$\322\32\342\372EE\251\261\12\363T\357\324"
	.ascii "4D\33P\241\27\33\370F\360z\31\267"
	.ascii "1+\213\360\365\24%\317\372\351v\340\312\177\261\25C\217o#z\372\242\364\\%z\222\5\31\6\241\320;P\252U'\320!i\10\3;V[\337\266\361j\255\322\36\344\233(\323r\327\310\317*f\252\244\\\317\301\267`CX\337!,\12=j\21\241\347D\350\360\27\365e\26!+|\223\372\21\10y\370"
	.ascii "7\255\363XX<Y'F\202\241\220R\373W?\231\210v%\303"
	.ascii "5\301\314u=\265\225\205c\342:\15\240\23\251\262\354QF\370>\342\301\304\355\323\307??k\240\212\317\253d\266\337\372\362"
	.ascii "7\225(+'7\3\334@\312\276\17Svph\372\"\217d\220\341\7R>\203\37\321\243?\252q\205\371\255\202\263\300\346um\305\245\350&B\244\20c\204g\275\243\0\16\15\322\321\375\200QWVR\254\230RB4W\326\213)%\216\230\24\30DdC\202\215[\4u\22\312*\302b5cV\330\236*\352\324\254\32\343)6Z$6\353p4\353m!Q3JtK\\\205n\366\243\206\30\214\350\12]\371\354H\215j{C\27\316\26\332\251\252\365W\231\"\254l\205Q\260\351\32\34\3O@L\356K\241?/\253\266\217\364\220T\361\215\230=x\305\22\11y\1\356DB\356\202\7O\347\316\34]\223\210\17e+\203qHEpA\376\242xO\257\216/\241\304\317\213>\243"
	.ascii "3\344%\321\340\241\222\323\277\33\243W\276-\300\255"
	.ascii "0!\372\233\304\376\360\\\353\233\10(\273:\264\3\370y\333\306\340'\330%\344Gc\366"
	.ascii "1\315\203{\0\372\310e\13\0\33\13-VYS\33+kZW\326=\360\30"
	.ascii "6J\10"
	.ascii "3\340QN,\376\305\361\223\2$ |\341\267\347\357\313*(t\26\274_X\364\201C\177vd\347\345\346f\271\367:\366\273\334\316W\262\363\363\231\\\264\317Uhv8r\\\373\235\16wV\256\323\341P\303\226c\347\233{^\177\367\255L{za\246}\217\273\310Y`\317\371\320\235]\344\312s\323\336\356\364\275vJ\263\303\236\223W`G\243\310\225\353\244\11\317\376\6Lb\327)"
	.text
	.section	.gnu.lto__ZN3stk9__pharser4findEPKcS2_S2_S2_Pc@24.f43c11b7,"dr0"
	.ascii "x\234\235YyTTW\322\277u_w\323t7\213\342\212K\203l\212 \231\311"
	.ascii "7&\362%\321\223L2\311\31\223\231s\346\344\214Y\31\334F2\212\34 \363\307"
	.ascii "7C\322\10\202&\250\270$:\256\270\6\215Q\21Q\21\27\334@\243\321\250\270\343\206\212&A\202"
	.ascii "6\21\211 _\325\275\357"
	.ascii "5\217\266\333L\340\217K\277\272U\365\253\372\335\272u\357\353V\330\343\177\357p\306B\303\30\373'0\6O1\340\371\307\30\313"
	.ascii "4s\256T\365`\16\213i\347"
	.ascii "3\314aS\270A\367d\340q\214M3\33\245\246\21L\362\203\211\373T[Q\311\274e\37C-\37"
	.ascii "0K\271\231\373\12\271E\312}\301*\345\26\355\203\225\373\35\356\211\12\266\312\241"
	.ascii "8o\3?)\366\343\376\15\335Q\34X\360,\212\375y\240P\12\20J\1\20(\225\2y\27\241\324C(u\341AB\251\253P\352\12AR)\210w\313\36FJy\250j\353\306\273\353L\272C\17\251\324\203\367\24\342`!\356\311{-\254\300p-\275\357\373\340c/\350-\265z\303\20\371!\230\367\237\26\205\363}h\264\365Q\237\372\212\247\276\274\237x\12\25O\375x\177ri\11%\367\266\376\334.\35\207\10\307v\10\221\376B4\307\241|\300E\13\316\207\225\354'\272\6@\230\224\207\361p!\217\220\362p\210\220\362\10\36)\344QR\36\11QR\36\305\7\36\262\241|\360\241\275$\37\310\7I\334h\201;\10\242\245Z\264\206;\230\307\20k\226Xb\320\26\3\261R\34\253\315\17\1\240\17,\216\1\373\230+\6\243\311\307\354k\261\332\374\374\3\2\273t\15\352\326\275G\317^\275\203\373\364\355\327\337\36\22: ,<\"2j\340\240\350\301"
	.ascii "1\261C\342\340c\370\216\337\345P\272\241\361\33\353m\336\314Y\10\303\307\35s\16-0\321#\30\350q\356\322\246\355>Q\253\35\16GC\315\255\32\310\237W\200S\234"
	.ascii "99\203"
	.ascii "5\20\14_@0\242C!D\241\356\351\315u;lJ\24\220\335\27[\313\326X\"V:\362\247"
	.ascii "8\362\363\311F\201\265\240\350\315P\304`\35D\240r\371\267_\317\366Qb\204\341\206\372"
	.ascii "3;8\32:\246\224\317\312"
	.ascii "2\274\332\314\15\360\245\273\241\201\301zax9{F\211Q\371\255"
	.ascii "0\314\334|\257U5\334\241\32~\345\301p\203"
	.ascii "0\334\267q\333\12\253\362\242"
	.ascii "0\274]\336\266\305,\15\177T\15"
	.ascii "7z0\334$\14\217\254/\330lS\336\24\206"
	.ascii "5\273s7\373I\303\215S\245a\221\7\303\315\302pk\305\335\251Ve\222"
	.ascii "0\314>s\260\314(\15\353\205\241\21\212\335\15\215\14\266@\4i\337\315n=k5e\343\22\4\22\357Hw\11\230\260"
	.ascii "1\370\266r\326\212\323\34"
	.ascii "6\336\336\262"
	.ascii "5@\371\227\360]~\363\312qS\330r\364}\365\360\271O\315\216C\216\354\253mmv\302\330\332\21C\376\301"
	.ascii "6\10C\263\205\17\32kl\312t\20>n\256;\260\310&}\\\254\32Q\236\275\302\361\250\255\15\310\305v\217.J\205\213G\316\31g\375\225\271\322Efn\341t \27\216\253W\32u.\260\300<\272(\23.\326\257\253"
	.ascii "9`R\226H\27;\233\356\234S\204\213\202\333\5\216\21:\27;=\272\330%\\|\227w\357>(\253\244\213\33\253\177\330\25 \\\224?\352\350b\267G\27{\204\213\275\15\15\333\3\224\"\351\242\252.\347\266\340\323\321\260\242\364"
	.ascii "6\344;\12\246\314v\264\265\15\27^\312=z\331+\274\344\267]\13S\266I's\346?\254\227l\24\34\311"
	.ascii "2\34*P\227\4\353\320\243\203\375\20\266\261k9\242\224"
	.ascii "5\317=\372\324\240\331\350\204\226\211\13\232\24"
	.ascii "1\32\304h\24\243I\4\356#F\263\30}\305h\21\236\254b\264\211\321\17\13\213\367\303\301d\307\301'\24\7\363\0\34|#\351"
	.ascii "1\212\206h\240\275"
	.ascii "5\30h\243\304\0U},P\11\307\1\325\343\323@[v\250X\362a\250n\211\27\274?G\37\237\27\240\303\361\243u\204\210\353E\222\276$\244/\223\364\25!}\225\244\257\11\351\37I:RH_\307\217\360\6\15\177\242\342\377"
	.ascii "3\305\370W\212g\224\340\363-\232y\233\206whS\275K\323\357\341`{\237\206\4\32\376F\332\211\364i4\15ch\30KX\343\11\345\357"
	.ascii "4;A\220\220D\306\37\320\314D\232\231D3\311bf2\315\244\320L*\315\244\321L\272\230\371\210>:\200\306L1N\241\321\222E\243a*\215\220#\306\\\32\215"
	.ascii "3\205\16\373\236\203\302~\340@k\312"
	.ascii "8\373\21?A#\247-|\3\7j\334"
	.ascii "7\361\11\377+\27`\312\375O\346\37>c\302bY1\367|\266Y)\223\225Spmu\221Al\305\362\207X9\355\233\371\200\247\312\351\330-Z\271\"[\4\34\204"
	.ascii "0* Z5\"\233\226\214\370'f);\321Q0\306\12"
	.ascii "05\361~\350d\351\251\231\33x\306C\307"
	.ascii "4\207\271\231\373\265b\27#\327Wn\34?a\246\243\301(\36\13"
	.ascii "3\263\27\303\22X\224\211\273\353K\5\231\203J\310\200C\24\14\34\306\11v\32\262\317)\355N3\327\224\345\371\220\271?*|\255\306|\23O\201\252\36J5d\17\224\232vw\370\0'\21\10G \203\375rd~\342\361\347\225\237\371\311\300P\311\12G1\254o\10\217\246\362vT\370\242=Y\303"
	.ascii "1\214\222P\31\34\207\214f\36H\21\237W#\266C\230\26\241\201\35"
	.ascii "6a\204\352D\250{\24]\234\264\244\360-\6\330\314\273\326R\264"
	.ascii "7\221\"\264\301U=i\222V\3\320\220\341\363\34\1\210.*K\356\27\232"
	.ascii "4\27A\255\\\256\236\213\243 \361X\260\263\372\22\270"
	.ascii "2\361\205\23\230\311IA\360)\24\243W\246\21\367\30"
	.ascii "7\335\234\310,\203\252'\321\346\306\323io<\235q\361t\226x\352.X1\211\302=\3S\34K,4IE\206\206[Z\212^\267\363%\216\5!\315\274\7y\272_z\252\306\214\236\26\220\257\236p\16\354\30\326y\14\213Lg\7\10Sy\6\235X\270&+@\324\27\356\223\13\30\10i8\203t\32\265\267\226\256\26\227\23S\32\271v\266\344\234wee\204\213\202\231j\351:P;\331<*]B%*\317\254\372(u=<\205\211\342U\237}\276\336H\210\275\314\364X\374\355\262;f\242,\237\324Lp\31)\273\242R6\375\370\245m\\\363`\204\253\264\5\30\\C\215\13\256b\367a\325V\301YSO]Z\36)\252\301\20\311\304\254\361,3j\302\372\242:\272\326\344#++\322\275\230z\267R\11\352\213\251\267\207b\362\201\353\30\331\15\301\306M\12\365\2d\315Q\213"
	.ascii "5\12\275Bx\260\300Y\336\342\343\251b] \356^k]^o\211\22\215\302\22\355\345\261B\203\235T\206p[V\350\303Y3\227\233\355\7@VN\37\22-Z\351\\\344\253\321\322\27\276\3\273,\302\357!\243I\334{\266\267>\330m\266\377\254\332\364\23\367\316\253\323\367\4h6\375\341\7\315\246\16"
	.ascii "2p\366\244s^\241\270\353\342\321\7w \30\303k\346v\214p\201c\301)\364\371\204"
	.ascii "0\353e\230\205k\352O\30\355-*\244\270"
	.ascii "1\257\250\251_n\320 C\341G\15\262\201\302\214n\342\203\233xL\23\217% Qr\333,\222\345"
	.ascii "8\331+\31\253\5\360^\200\356\25w\327{\305\335\223\25\347\204\14\223"
	.ascii "7\207\320\10\31>\213\277{\304\261\260|\251\26\261\177\224/*R<f>\300I\235\36~\222\231\257o;\364\215\305~E\335\332a"
	.ascii "$\312\277Y^a\325\20\302\341\276\226y\23u\211\10Q\275\26\206/\230\210"
	.ascii "2\265|\311\235'\362\373@\242,j\273\370\206\275V\5\211$Iu\335\254{\240\201DA\263\6\362"
	.ascii "3\321\33G\254\22\216U\354\22\312fY)<)\233\207\22\347?K\367\316"
	.ascii "7\332\177P\201\6\222h\326\274\332\375F\15h\20\264h@\255"
	.ascii "2\33\334\14\237\27}5\\\335\14\256\23'Z\254\304'\231\253~\364\241U\12l\246\365~\32\36\251K4\267j\336l[\354\227\16\207\\\242"
	.ascii "6\\\242{\\\\\362\34<\26\313\203\32x\371\266\265\352\331"
	.ascii "2\324=\350\30'\247\203"
	.ascii "9\223g0Tn\346\261\330\332\4\215t\224\243\276"
	.ascii "0/\275\353"
	.ascii "9\343!N\354"
	.ascii "7\14\246\10\343\241\315<\216\372b\371\236]\322\1\335\3\"\203\205\203\23wT\374a\356.\236rb\377a\220\245\271\370\15\321pY\355<\361h\340\212g\27\305\23/*|\377\247\273\325F\22\253g\212V9\233k\235\320\306*\207\212\365\232]\361\202T~\316\13\370T\1\36\253\201\347"
	.ascii "6\252\360\317\243\211\13~\17\301?\217\331\344\224\317\315\251\4\251"
	.ascii "1\334\335\343o\235X\365\14rd:\372\340\236Fq.\17\26"
	.ascii "8\377C8\347r[zI/#\320\221\13\247\214pF\210\14\374t\215Y\300\233\324sG\350p\271\331"
	.ascii "7\346\251\324r\"[lv\372d\335\260{\27GG\266\15s**\261g\232\360\266a\255>n\305\34lyE\17\24t\357\317\32\272+\302Gq\236Jg\214\216\277\0\266"
	.ascii "2@\360W\224\363\234\234}\321\13\177\323D\266"
	.ascii "1.\376\216\252\374\275\204&\35\371{I\360W\\q@\345\357e/\374M\227\374I\302b\\\204U\251\204\275\202\226\35\11{E\204\34\350N\230\217\236"
	.ascii "0E\22\346\324\10S\\\204)\310\236\37\36%\257\4,..\264\241\330\277\272h;\257\5\37\244\234\344/\5\344\25\337P\220A\222\3\2uqQ\327\244Q7XG]W\215\272S\25C\345\354\253^\250\373D$:\270\275\364To\257\241IG\352^\23\324\235\316\31.\25\376\350\205\271O\365\314\15n/5uIF\242eG\346F\212\210\203(!\35qf=q\6\"\356XV\361\14\243tbPo\256\265`@\26\273 A#\273\256/iQj\301\214"
	.ascii "3]\352\212\267\243\350\265\256\213K\266S\231uc-\1\212H\256~a\276\272\356\257\223S\335}\340\15\24\321fY\324\274\312W|5\324\206\177\1\14\362"
	.ascii "8\335\21\262\26\250j\177\302\314P\231\211\227\231\243\6)\374"
	.ascii "3\32\226<Xv\207.\232\370\316Lj\352;\302\14\256\276#d\365oW-\270~\353\264\270\3\372\307"
	.ascii "2\230\351Z\262\356l\247A\334\233.\202\276y\321T\17\367\252\362\325\223c\224\10\327g\250UetU\225\21\311\11\4|\354^]\262\5K\314\20\204\264\30\272\341f\364\305\312\14\304\7sw\32Hl\356Fe\325S-\253\363Y\267"
	.ascii "4\256]g8N\367bUA\304d\303\325\241\352!\241\345MoH\11\"wU\37fa\356\372\366CM>\237\313\204z\23\14\371\331t\351\204v\367r\235/\371\216\362aO:b~\7\263"
	.ascii "9\35"
	.ascii "1 \337'N\36\273T\352\33\27K_5\314\341\261ja\300\\\214#R\\\357\32\32:\205"
	.ascii "1\317\13\306g\210\21.1>o\307\330t\271"
	.ascii "3\30\363\365\30\13\317\336lT\304\305\215\323\343gw~:l\225\220\13\20\362?\262N`\241.\257Na.\362\222\327b\4\211\220\30K$\6\265\217\326\12\273\307sw\250\23\257=\14\226j\207\346"
	.ascii "3bY\203Y\301\263\12m\252\234"
	.ascii "3\213\267\253\33\355\257X\220T\260B\\\247"
	.ascii "6\201Q('\26\265>\260\227\352x\224"
	.ascii "8\273\347W\206\13\321~Y\376r\333.\36%\355\336\"-\335\256}\33E\356[\364\35q#}[lQ\365\32\372n\307\15\372,*\311^\11\313\270|-\330\224[\255\356\236\367\244\372\212\353\353*\305j<\213\233\264@\"lR\243\177_\252\\\233\361S1\10\225\20\6\313\245\212\326=\23\204\243\367\305\333v\226\277*\323\357\6\33\202\257p\355\375>,\277\257$\256J\305\370\33"
	.ascii "2D_{.\373\351\221\300\240o\222W\242\276\350\203\353\24\227R\274\352\241/\233\346O\36"
	.ascii "6\347V\367\225\223\211"
	.ascii "2\312]W.^\223\211\14d\260JF\271Y\5\31-U\312\33\312\177\226*\357"
	.ascii "0X-U\36\250\211\214\21\216FwHd\214.\362~,\333G6\214\357\3\332\311~\340xpH\244\351\377\34\203"
	.ascii "5.\345\376\254 N*\227\315\364\320]\354\254,Zv\227g~\261\273|\201\13\347j'!\344\227\336\344\356\336\332\353\373\353\267D\241\227-\261\266\275\235\254\343q\324h\305V\257\353\314\266\373\322\13\306\372\366v\362\225nkw\12c\203\36C\327?6\352\372\307&\15\204"
	.ascii "6\351\222"
	.ascii "9\352&\235\11\262\334\366\255\334\272\332&\312\255M\373\203\217\241\210\253\357\311\221\277>\246\315^\362.no7[\210\333\231 _\23*\237\330oJ:\366\233P\346\360\225\227\240\266\231J{\365\25\326\34\233\343'\252\17K~\253\253\372\6\260\245 \257\1\25K\267\252\211\217\305\274\21X-\366\361^\256"
	.ascii "4\333\344\273\11\252\243B\353\325\232eF{\275\376\265ji\313\221\35\26\264\351E/U\333\271\372RU\312"
	.ascii "3\\\267\237F\265\334\377\216 \372\6"
	.ascii "6\1E\202_\255\23\356\247N8A\304\33F\331\311s^H-\362\326qf\351\333\322"
	.ascii "6\311kW\333\341\272v\370\267\253\326\255=\323b\20\254\340./\343\352\25\301\202\325\20\272\263t\25\336\324'\14\310\333\365\200\336\232\303]D]v\21\365A\7\242&z!j\247F\324\7\250\260\256\351\306t\177\373]=Q\13[v6[5\242viD\355\366@\324$\4\321\23\225\214\242\307\211J\26DE\270\21e\225D\325kDM\366J\324\36w\242&k\335\252\26\360E\305\22\206\373\"9|\247\244%\322E\313}\27-)\35hI\365BK\271FK\12*\\r\\\274d\263"
	.ascii "7\352iYrj\335r\263F\313^\215\226}\36hIC\20=-\351(z\234\226tAK\224\33-6\365\236"
	.ascii "8K\335*6\327=\321\206\234E`\252\351\221u2\325\201\254\24\324k\340,\17\215z\20[\3\377m\243\336\257o\324\321\344W4\321\326\316"
	.ascii "4\270\3^\232\311\301\366F]\241k\242\235\302\250\364\202q\250\275Q\37\326\335\373\36u\6\343k/\215\372\210\256Q\37\325%\322)\220o\274$r\254\275\363\36\327]\364\236\334x\277\355\330x\7\263J\37q\340\26\35\\\341\351\300\215{rh'\274\204v\262}\35O\271\16\334"
	.ascii "9w\17\326xJ\377\27"
	.ascii "0\252\274`\234n_\307"
	.ascii "3\204"
	.ascii "1J`\24U\354\353\4\306Y/\353xN\267\216\347\11\304&\17\334\372\302\377\223\233\351#\332}\332\267\317\341\277\36\370\202\227\344.\266\257m5\341~$\357me\363\224\307"
	.ascii "7q\14[i\244\33\343\274\234G\205\273\325v\346\300&`\323\356\330"
	.ascii "9uj\223\311\4\232Q\343\275\234\333\242\212\247\0M\211\253w\316Q\265Kd\201\350so\321W\5\16/\337\331\15sb\207fpI\224T\234\264\231\202}9^\272\257X\373o\351k\252\200\325w\273\34 )\14\352p\337\317\5\341%G\374f\320P\20\345\241#\275 :R.\250-\351\262\276%\305R)"
	.ascii "\323\16(\371\272\377\223v\300\225\216;`\210x%\277\14\231\201(\365\243&\352\207\245\333\273e[\12\362\24r\340\177\361!\272q8UA\354\226\277\240~\34c\312"
	.ascii "9\322\246\37G\21\256\260z\325\205`\217x\335\234\342\345\340*\377\357\177\325\272\306\275\374\252U\303\265_\265\256s\361\253\326\15p\340q\300"
	.ascii "\350\327Y\240\14"
	.ascii "8c\341)\23\22S\323\306\245\276\233\226\376\217\4\371"
	.ascii "9a\314\344I\223\22\223\307&LLJ\36"
	.ascii "7dLJ\12"
	.ascii "3\244OHJ3NLIK\35\23"
	.ascii "01%%15q\322\270\364q\251\11\223\222\222\273\352\237\223'\247NJ\234\330S/J\234\210crbz\322?\307\371\245&\240\213\17GONIO\232\234\354\227\220"
	.ascii "0>i\342\270\204dTLH\360\25\316\23>LI\365MJNJOJL\237\234jB\311\304q\311"
	.ascii "6\227"
	.ascii "3|0\246\245'\246\246+\343\222\307\232U\373\204\337\375\376\345\27\337\374C|HDZ|\310\313\311\250\26"
	.ascii "2\376\303\344"
	.ascii "1\4A\262\21\21cC(\217\230\220\361\223SC\360!=i\322"
	.ascii "8ZQ6:A\315"
	.ascii "75>~|R\362\330\201\211\11\24BJzj|DZ\214[\232\356\"\231\251\273T\227,M1\323\33o\216\34"
	.ascii "9\210\31\"\322\6"
	.ascii "1,#<9\371{\214\277\300\376\37d\340\341\33"
	.text
	.section	.gnu.lto_.symbol_nodes.f43c11b7,"dr0"
	.ascii "x\234U\216\311N\24Q\24\206\377{/?\325\15\26\264\332 \216\270\362%|\270\323-\25"
	.ascii "4!\266F7\304! \224\212\342\204\3\301\31\265\\\221\230\270P\242\13ESq\243\17\340\20\207\252s\253\314\355\332\374\303\371\316\271\345\0\34v\360\237]k\10p\362\25 b\216/4`\257RLU\240"
	.ascii "7_\24\27(6,8G3o\305\361:\7To\221\245\332\5\212\253\301\351N\23\366\"e\240os\221V7\356qPu\225Q\251\346.\205\36D\347X\361\344%\312`\337\245%J\324w\351"
	.ascii "2\235^XcC\365>\233\252W\10\325\347\34R}\301a}a\205\322\250_\350"
	.ascii "4`\36S\232a~@\31\12sF\31\16\363m\312\266"
	.ascii "0\337\240\304a\276F\31\11\363"
	.ascii "2e4\314O)\255"
	.ascii "0\257S\266\207\371\11eG\230\37Qv\206\371!\245\35d\207]H\217f\263-\207qd\237\376t\215C\33\251"
	.ascii "7c\310\266\352F\215\331\213|\351\220"
	.ascii "3{\220\256\304\316\354F2\375\266h\333Hf\276\315\265\234\1>o|)\271\11d#\316z\332z\332V\264\255i[@\243.\362P\344\241\250\202\"\205&]\354\247\261\237\306\325"
	.ascii "4\256O\24&\365f\34\371\314\346\21?\352\275"
	.ascii "9\257M\332\323\321A\344\336L\"=\241f\14\371\177s\352\367\231\302\34@vZM\321l\276\234"
	.ascii "2\332\274WS4\37\352\346\243\232}\310\277\256o\264J\223\375\334:;e\313Y\372\353{\327C\177+\223/\376\350*\235,\277.\377l?\362\233\357fu-\271\363\354\\a&\220\254\32\374\3B\303\352m"
	.text
	.section	.gnu.lto_.refs.f43c11b7,"dr0"
	.ascii "x\234%\301\313\1\1Q\20\4\300\376X=\26\317\216\271"
	.ascii "9\210Oh\302tPe\0\37\374\205h\252\315g\324\205i\316\250_\21L\331<E.l\315m\344"
	.ascii "7\317\26\22\24U\346%\252\302\336\334GW\360\346 w,j\231\217h\25\216\346"
	.ascii "1Z_\342\7\305\200\3\334"
	.text
	.section	.gnu.lto_.decls.f43c11b7,"dr0"
	.ascii "x\234\305Z\13TTG\232\356\352j^M\3I4\223\214\223"
	.ascii "3\32\343\270\311&\321h\210\321\335\331\304\311c'\353\354\232df\263\347\214g\317\366\22 \11Y\4\3\255\311\314\316"
	.ascii "9\271"
	.ascii "4 /E^\"\12j\243\200(\12\212\10\10\2\15\242\362\20\1\25_\250\264\12\210\17\20\5\25\1a\377\372\353\336\356{\241;1\263\347\354\366\361\357\276U\367\257\277\276\357\177T\335\272HU*\325\12'\225j\34>\241\263T\252\177qQ\251\234\241\357c\220gA\366\203\24\201\224\201\224\203\230A\252Aj@\352@\352A\216\203"
	.ascii "4\201,\1"
	.ascii "9\11r\26\344\34\310e\220\16\220.\220n\220\353 =*\376a\266]\210J\245\5y\12d\12\310t\220_\202\314\4y\35d\1\310; \37\200\374"
	.ascii "3\310\357A>\3\361\5\371\12d9\310\267 \21 \261 \11 :\260\233\4\277) \251 i \31 [Ar@rAv\201\354\6\311\7\331KT\212\17\303\364s\221\277\247\212\333\333G8\366\217D\216\205\304\346\227y\354\32d\21\210\32d\24\372\206@\6d>+\"6\277\375\6\256\17\200\374\23\10N\15_N\342\274\23\371j\330x\31\316C\23\260"
	.ascii "2\337\275\350\0\353N\21\353L\220w\304x=\15R\1\367\247\302\257?\374V\202\374\7\310?@\273\12~\227\22\33\346\245\14\253\310ub\234\347\311\270\232\31~\221\313\10\343!\342\372J\214\323g\"/\27"
	.ascii "1~\214\253\304\247\232p~I\23x=\365\3\274\6\376\17\271\15\251l1r\26qM\344\365{1NR\216\325\210\271'\377\260\274\236\376\377\34'\366q\26\261\324\331\341\301"
	.ascii "8H\365\301\352\246~\2\7V\217\177/\303? r`\365l\217\7\253\25\206\277\211(9\375o\371Hk\11\253)i}a5%\255"
	.ascii "9f\25\257"
	.ascii "3\211w3\374\256\5i\1\211\222\325j+\341kU\30\341q>\11\277_\203\344\301\365)\370\15a\276S\361\234f\361\367\20}0\321o\254V\331\272\23+\326.[\213\244uI\312wi\275"
	.ascii "9\15r\206\360"
	.ascii "5I\376\271\253&uy\233\377\223\2\346\273j\315\235\326\321\203\36d\332"
	.ascii "4\355\354"
	.ascii "4!Z\30\232Nv\22\255\212]\232{\306\307\277\37\347\237u.\330\35-\300\307\222(\320\347U\344\265i\344\225i*\262\213\314\306[*\222K\246\221\35d\232*\13t\22\242\204\367T\254\237\344\20\252\234:}C\376\35'\255h)\372\7-\201v\371P\361\16\317\36"
	.ascii "5\361\324Z\30ZRx\250\347\276\27\264u\332\27X\363`\376`\223;\336\236\301\232eIui\316xW\303\232\15\217\256]w\302\346/X\323\22ws\257\206\317,\30\5\267:O\270A\362a\256\2\230KE\366\341\334/O#{\371\324\315)\346v\355"
	.ascii "3\11L\33\276f\20\244\263\33\324\367\240z!yF\32\304\264\37\267\337\311!r\355<\207\332d?y\6FdW\344\347\250u\261\14\213\10\7\372ex\212\210\16\223\1~A\373hSk'A\246&5\233/\363ZC\243;r\233\305\232ws\333~\205\255\227X+\271\311\274V\353\230i\251\304\264\204"
	.ascii "3\315\354M*\327Ldz\0\324\213Q\375 b/\225\230\256K\35"
	.ascii "9\347<\221\251}mR\206L\217'\366\24{*\230\226)\230\226\213L\313\221i\343\325\241\1\35"
	.ascii "2}\212M\267\351l\327 Ej\310{<\247r\247\253cj\225\22\265W\220Y\203\271y!\207\332\37&\21;\4\312\25\250\\\205P+%b\231\335\273G\250\\;\317\241"
	.ascii "61#\261\370\364\275\5n\12bf\5\261j\221X5\22\13/\215\311sUhO\225C\257\21\225kPymm\342\5/\364B.e\340\342\37\367F\270\242\33\336B7\24\237\275B\260\351\315\232\261#\273\307\250c\257\34\225\274r\204\7\374jLr\337\244\324>\14\352\265\250~\14\231\36\225\374\262\253\371L\226zb\300\355k\223:\364\313\355\270\244D\27\5\323:\205_\352E\252\365H\365GB\332 \201\177\31\261\337\216\337\\!b\267Xc\312\227\20\25iD,\15\22\362\316\343\343"
	.ascii "7<\344\272y\16t\311q\304\335iJ9\353\244\300}\\\201\273I\304\335\204\270\17\345\354s\242SpY\272fN\274\346\376\332.\230\7\326\315\26j[\355\302r\312\327\270@\234>\322b\263#\375Q\226\33"
	.ascii "6\331\252\352\5]\352-]\307*\\\211vv\264mV\225uJr\12\26E6\226\264@O\253\270\272\366"
	.ascii "7>\330\360\234 h\310I\240s\202P\322L^c\260\230\"\342\203~\226"
	.ascii "2\371Y\3|\255\304\14\32\36?4\354\344\330\315m\222\233O\363\34\311/\314"
	.ascii "8\347\302}\7\352\242\237m\352g\320{m\222\247\327\236;.P\271v\236Cmr\226/\12\367\23\316{)|}V\341\353s\242\257\317\241\257;\36v\324\270`9\274\301\246K\212,-\365Dj\316\230\23\247\322\313t\330tb\315\321K\225\311\304"
	.ascii "1\323\213\22\323v\316\264aw\\\272\353\304j8\17\352\27P\375\22b\277(1\275\320"
	.ascii "2\372\342\304b\260\257L.#\321\362\323\15c\36\12\242\227\25D;D\242\35H\364fe\341"
	.ascii "1'$\232\200\324,\226\312^\276\316\177\316\232\347+\37"
	.ascii "5\363e\300\207"
	.ascii "5{\366\\\316\366p\314\364\232\304\364*g\32\231\264e\324s\"S\13\250_A\365N\4\177MbZ\320\24v\300c\"U\373\332\244\13\251\356O\274"
	.ascii "9\242SP\355RP\355\26\251v#\325\307\247\13\272\225\325\246L\261\353\242\366u\324nN\330"
	.ascii "5\242\\=\225)\326#j\367\240\366\211\265k\212)\375\2\213\323\324\277\257_\247Q\253\310\15|\26\201\236\332\326\366<g\276\231\242\306\372\306\322KZ\364\352T\326\214\272Y\265\332\223\206\340\255\304\314\313\233\334\351_`\365`-s\311\375\2\227Wv\10&\241?:\362\250\27\253\301\217\177F\372\254%h\255\373\362\353\306\363.\324D\320F\376\245\303\337\202\365%Z\346\312!V\371\344{\350\256?\325\334\342\204\375\254\313\205-\6\367\357\227\355\22\27\3a\362b0\10\213\301\22\26\321\273\320sOZ\14\316u\235\362d@\6\300\35\375\266\305`\211\326\12f\375\241\214$7\244+ \36i\207\325\361\35v<\272\314({t1\300Pr\37fx\200~}\250,\364\276\264\7\33\324re6\255C\355\226\202\243}^\364\26wCk\357\375"
	.ascii "3\204\216a\303e\323Xf\252\7\231"
	.ascii "9e\312\354\331"
	.ascii "37\22\225I\20j\372"
	.ascii "3\352Ox%\204\231\256\22\26r2\14\\F\311\24\33}>\303\337\302\227*Q0\303\374fa\261AEn\301\375\333\354\376\30\270\207\15\270C^\301kA=\223\214\220\231d\234\314f\16\11S\303<v\7\216?\301\300,\210\271eK\276\240y\36U{\1\34\250\333\236lY(\314;\205m\256*\362X\274\17zl8\377\201\17p4[\16n\212\324\230k)\31\202\302x$2\224\334\307v8\221\340\206\260\31"
	.ascii "8\20\273\230\363\272zO\245(W\21\271oT\304\250\326\211\321\356??r\320\25\322\35\13\207,\303'\341\360\343\325\365\24\373@\217\204\253\261"
	.ascii "3\265x\373\21\257\347S\305\335\361)\302R\31"
	.ascii "7Gr\223hT$R\375<\350G\200.\"\201\1\31\371\306\233N\264\0\317\15\344\360\243\230"
	.ascii "1\367\31[\4\263\251\277\374\326\216?v\206\31S\4\313\370\370tX(`"
	.ascii "$Y\255\226\34\240b\327|_\212R\317\200\221iW\243\367\352\250@\321L\361\351\304\213^t-odD\305lt\2\233&\223\20/\230\210\0e!\250\321\\\264\314\\\214d.\26\315M.\357\365\205{\242uV\266\334\3[\33z\256z\332%\33\307\30\256E\262kdd;:vx\323B\216\253\325\334:\352N\253x#{\177T\231'\202\354/\317\213\232\16@\303\314cP\322h\204\304\313\200\256\223\200& \320c%\215\203^\364,\267riS[5\241\235\274"
	.ascii "1r/,Mm\343m\202\203\27\32K\224\31K\222\214%;`\355\230a\12\243\265~\22\303\343}\215F7:\312!\34\353\333p\321\231\306h\260Q\323\\\232J\320\201K%\377\355N*Ov\225\272\322x\2\245\334X\337\346\214}3\265d\243\230T\235\211\343\334\367\260\212l\342}}\305uCN\317\255\267![b{\12\313P?\7\337\351j\15'\221\235|m\215\216fr\30\371\315\375\17"
	.ascii "5\314-BOX\222\256\37\36\230\230:\331,yB\272`\345\21Y\326\304\262\321\264\327\224\237!,6\12\20\21\312"
	.ascii "8\223T\231\17"
	.ascii "7\260\1d\213z\6|oE7>\254\350Mq\246\305|\276\341Mkvz\322\303\274\261\372\332\216\323\24-bL\314,&\314\236If/SB\262\315AL\354\325\342\225\324\353\265j\354\203\255\212dq\27m,K\353!\326\316l\336\271z\267\251Fk\355\314\341\235-\353\212Zt\326\316\35\274"
	.ascii "3\352\376\346\355\304\232\361\271\274"
	.ascii "3B8\262W+O\210\1\351\351\227lgi\260\13"
	.ascii "3b\247,#\342\233\272.\273\321v\356\200\262\360\222l\27j\341\215\375'\267\204{`\206Z*3\26\231\215\302(\370\27M\220<\231CvK\16\331\203\16i;S\\\354Ic\234\320\304\236\255E[\31o\222\257\26\275s.\267<K#Q\301\236\372C%U\236\362L\261\346p\1\203\271\17\223e\257\224,\341k\302\333\335h\262\223\270"
	.ascii "9\247\335\331\33\253\243\233\244\346\226\364\276\1\15\337\253+\17d\375)\\X\314\254\355W+\27n\266\222Y\372\314\32Z\301Q\336\276\235\266U\7D-\202\245`\357\242\232"
	.ascii "0\221(\314L\12ah\221\32\207\222\3\22\321b\7\221\277~\357\312a7k\230x\344#\223\214\335j9\273\223\326\200\224"
	.ascii "0z\7\221^\251D/\243\306\30D\333$:\231\233\333*<\350y\251Yw\267\340\30\25\331\225X\26Gpv\345\223\331\25gG\234p\242Fgd\327\337:x\305\211\263\33>gc\7\23\223"
	.ascii "2\30zHdW!\261\253\374\11\354n\327\205\347\272\331\215]\25#W\215\344\314\22"
	.ascii "9cQm%\245\33\235E:\243[\36\335\323\320\255\34e\353\366{\303\316\210\22\"\267\367\323\256\260\204"
	.ascii "5\270\265\240\21R#\13\303a\11h\255\3\240w\207o\345\361bc\276\346@\273\23\316\14\23k\337Q^,\221\217\213\363t\326J=\306;\353\23\267"
	.ascii "4)\2\306\356qNG\30\247z\344T'q:\322\230\323\341EK$N\203\273\313w\21Z\305"
	.ascii "9\35o\357\276KDN%C\177\354\266q\2#\244A\346\374F\211\323q\344T=p5\331\3\201\325X]\275U\210Ju\266\347j\320:\201\230\232$LQ\321\351\275\316\364\"\7q\324XtQK\373x##\302r\226\255.\244E\252\307\316;\331\203lg\263$\364\227\307"
	.ascii "5|v%,i\215p\25"
	.ascii "1\202Q\322\214j\244\225\21o\226"
	.ascii "0\236D\214\233G\36\314\247\3\216\314V\304\355\211\324\240Y!>\301'\232-\244\314\336)n\357"
	.ascii "4\263wJ\262\327\206\366\12\267g\27\363\7\326\305\314@\326\372\324\335\374=\236+n;\375\245\347\334h\224\13\221\37\260g\362\3\366\243\250\230\10-6\307\245\17SS\227\336=XI\244Sv\202Qx:l\337\13p,UO#g\325\360\340uQ=\33-\220\363\320sA-=Y\37I}\235=Y\267\253\265\344\234\332\372d=\323\366d=9\341\366\367\247e\272\310C\303\6\363\224\271\304\230^\306\360,\23\243\223Y\334\333\351N\23\\\304\214\331\237=\34Kh\32g\26\321P\24\355%\235"
	.ascii "5V\317\22\317\32\226\311\25~\344hs\237+\335\314G%7\267>\362\344\25\236~\310V\341"
	.ascii "0-\351\200\241W\304$\273*9\374\332\223'\231l\327\356B\26\235R\222\15&T\177L\213]\34\304\337"
	.ascii "4\26}\323\315nZ\201\31\322\315\323\340:sN\267\204\252\307\321\223]\356\355}\304\356\32s\203\215\277\211\260\302%X\7+\222k4\264A\362n\344\205\35\3Z\332\314a\232n\355j\360B?\265T\226\344\322x\341\212 \360\247"
	.ascii "80Bn\311\352\361\266\4\252\367'\254"
	.ascii "1IU\226\307\374\201\373\37u\344\216\270\304\304\14W{I\217P\375\274\257\274\277x\206\234\317Ri}\351c|\356!\237\273\22\237\262\301\241\333\316\264[\342S\331}/\315\213\336\224\232U\346\266~-\317\227\313U\226\357\304\375npr\276\324^+\350\327\320\24W\376\346\252\260\364\277y\272\354\314\260\245\13LL\6`\344}\321\7\17$\37<D\37\334i\32(s\245\371\334B\357\221\23C\254\344\246\342\361\26?x\274\315\336\322~\306\3\373\245J\374\236U\342\343\"\323\15O\351\210;\271\22G\241\22\247\262J|\4=\303\326J\214\274\366\21\333\342F\240\230\206l\225"
	.ascii "8\365\207*\321\336\36u\274\277\355\252\223"
	.ascii "5Tc<\6\347[\23,6\305q\336\331\225})F+\217\314\210\265\216\37\263\320\204Q\26\32\201\212\241I\313\334\223\354AK\\\305X<hn\337\340B\313\271\203j\213"
	.ascii "3\332"
	.ascii "4\322\322\237\25\"[\372\301\10"
	.ascii "1R[\252\205S\321\315\21\364\311\237'/\16F\266z\330\337\244\"\1\36\211B\244\253%\244\347"
	.ascii "7F\34v\241g%\244a-'\36x\322v\216t\260"
	.ascii "21\325\203gC\307\31[6\200\5\22-\203\31#\301\214u\0\323\236\353\207\252\363"
	.ascii "7\273\332\207\31\307`\256E\230k$\230;+\273\343\275\350]\216+m\177\307N7z\237"
	.ascii "7r\216\346$p\220\246]\31\302{\34$\33N\342e\30\327I\30\23\20cmg\312\260\33]\343\206\26\342\22KW\274\224\211'\327\306]\337\244\326\30k\303\240\370\337\5+S\265$\21\6Z\323Q\205Mf&\211\276\304\36\276MW\4/z\210\233"
	.ascii "9\32u{\275\273h'\256aAb\212i\15\244\352\370\273\323\231\231d\245\231d\321L\12\232"
	.ascii "9\234\265\365\226\216vp3U\33\357<\364B3\246\203\333r\27\247\11\230\34\314\306z\245\215\365\242\215T\264"
	.ascii "14R\234M\250Q\313O.\5\205\15Zn\243^ic\203\322\306\6\321F\32\332\250\274r\344\216\216\36\340"
	.ascii "6*\266\325\324\342\201G\260l\36-\235Qc\24\36c\364\331A\324\366:\303\266\214\344\234(\37\247\264\222\17\336V\377\250\327\3\0\10&K\356\205Lb\226\20\274\343N6BT6\321\31"
	.ascii "2\20\351\"\210\14\4\221r\270\256\311\235vp;\361\306\253\261\236\264\217"
	.ascii "7:\22\367\367k\320\250\271>\\S'\232\204mh\263h\322\366\372c\13"
	.ascii "3If\301\2\262\25\215N\316I\333\231v\211\264H\257\35"
	.ascii "3F\333\336\212dR\354l?\20w\330\311\356"
	.ascii "1\332\304\322t;e\207\246m\324vh\332x6v\310\205\373-\237\373m\14\375\6\232v\375V\273"
	.ascii "5\27\216\270\251\356H1\275!.\306\223\373\355\240\35\277e)\374\226-\372-\7)\256\213\357\245\264\204\233I\316\331\271\321\303\221\247\262\24\236\332a\365T.\232\251\36;~SC;\270\235\304\253\367\252D8\365\34N\204\34\16\234\352dpv\212pv\241\235;':\257\20\232\240C;\207RG\303u"
	.ascii "2<\21r<\314\212\15O\236\25\317n\264"
	.ascii "3~2|\233\216\326q;\217\302\216m\367B;X\252\253#\205\332"
	.ascii "0\23/U\21R\254\2\322\36\21R>\232zXn^@\37pKm}\251\7\11G\324"
	.ascii "0\11Q\254\2Q\201\25\321^4\23S\221Yj\375+_\264\303Wod\37eo\236#kj\6\211\342E\35;;\332\264\13)\327.D\355\341\333\351"
	.ascii "5\262\327z\37\341Q\314\246\274_T\336\217\312\375\17\312c5r\345j\205r\221\250\\\204\312i\355\27"
	.ascii "3\235\344\312\365\12\345\3\242\362\1T\266\234"
	.ascii "6]w\245y\36|\27\350\311\352\247\263q\337\215bO\235\314K\305t\302\237\361\357\26m\32u\227\376\362\20\255|O]B'\274\247f\351\321\30"
	.ascii "7\244\241\5|\206u\305G\242\264\264\222"
	.ascii "7\242\343"
	.ascii "7\217S\210L\32\306\370S\243Q\310\22\214\270\214\226R-98)<e\30\236l\2\305]\216\361\31\254^\337\350\366\342V\366\307"
	.ascii "7s\215+\324+\276h\344\253\377!\372\"h\234\36\274Q\256\374KC\227\302\31\25\242"
	.ascii "3*\320\31\215\305-\311\12\317]V(W\212\312\225\250<\331\364\11\205v\225\250]\205\332\27\273c;\234\345\246\331\273M\233\262YT6\243r\\c\317f\242\344\25+\361\252F^\331\347\313\352'0O\220"
	.ascii "4jP\243\267\251\350\25\7\7\305\303T~\22\211\256\273\26\241\246\3\36\342c\301\1s\327}J\37K\315M\251\306\3\342\263%<>\223#\362l`8\6+\263\335i\230'\337\26\253R\303\361%n\242\365\270\7S\221Z\10\344Q\312"
	.ascii "7\347c\322\346\\\207\233\363\251\246\233\355\234\6d@\343;\220s\374\375\34\327\251G\"9\346\36"
	.ascii "8\30'\342\24\232\360-c\2%\263\247\271M\223ei\23u#\15\212"
	.ascii "4M\23\\Y\257*\212"
	.ascii "9\333\22\226\360\324"
	.ascii "7\326\377l\322\10)\312n\301)\233N#'\350"
	.ascii "4\374//\\\235}\261g\270\335'\177-\17\25{\302\260\205\252Y\14U3\206ju\354\311\365\212"
	.ascii "2\216R(\267\210\312-\250\234[\177e\235Z\256\34\246Pn\25\225[Q\271\347\364`\265B\371\246\"\275N\212\312'Q\271\365\361\200\311E\256|O\241|JT>\205\312Q\255\305\27=\224\311\263G\362\371i\364y\304\275\364\277\320T\36\325\201\316\234mnb\225\346%=\233 \230\214\11\302\370\370\273\304Z\245\312e\275\315V\245g\350K*\215\357W>!\356\277\376|e@\240\341\365\200\240wT\316\241\1\177\366\327\33\\\177\273\364\263\31\357\277\372\252\352\275\367\377n\356\247\6\370\367\326\234\267\346\274"
	.ascii "1\367_\203\203\3C\347.\17\10\372\362[\357E\363\365o\316\237\33\260`\341\202\327\277]\340\375:v\262\216 \337\300\225~\376s\365\330"
	.ascii "1\347+\225\273^\37j\360\363\365\11\14\324\353\335\364\372\25"
	.ascii "0c\250\177\10\15"
	.ascii "5\374\327t\361\372\337\347\314\235\3\377\346\32\2\226\373\317\205~=\273\200\221.\1A\206"
	.ascii "7\347\353\15\177=\10\230\30l\200\251g\276\320\207\370\207\256\14"
	.ascii "4\350W\4\207\6\30\2\202\203B=\254]\237\373\204\372\317\224\260\260\371\371\265\336"
	.ascii "7x\371r\237 ?}`@\20\203\363\252~\331\322"
	.ascii "7\341\366\"+\211y\363\375\374\3\375\15\376\372/\202W\6\371}\370\211\357\342\205sV\370\204\30\346\274"
	.ascii "1\353\307\314\371\256X\241\322\311G\317z\22\353:=\202\325\373\32\202Cf<7i\304\373\363?\\\265\330\33\224`\252\25\16\225\346\211Jh\311\317\276\322\7\314\322\302\251z\375\227\337}\247_\341\37\22\32\34\344\23\30`\370\223~\325\33\222yG#\231\371\205\232/\2\202\374^\236t\323\233u\177\370\311\357|\377"
	.ascii "0_\317\377\1\253\371\336\220\26\276~\376\276\220 \316+B `\241\324"
	.ascii "78\350\227\212\354\10\10\306\314\200\376\320\340@\26\15i\346"
	.ascii "7\241k\1\37\305\14\377\231\6\372\7i|C\15!/)\306\33\374\277"
	.ascii "3p\13pK\277\322\20\20\30\12F~&\32\361f\275o\302Hfb\261\267\23\332\223\317\360\26\366\360\273.\276+\15z\377 \277\27\344\203\337\26;!L_\177\275x\336\374\247\201\322w>\372/W\372\204\370\351}>\17\16"
	.ascii "1h\2\375}\276\230\"\357\16\201\360B\14\\W\202\351\5\336z\203\13\313{\375\362P\15\373}^\262\316\32o\213w\300\265o(L\370\370~\263"
	.ascii "2 \304_\363E\210\277\277\202\214"
	.ascii "7\353a9\343M\227\7\257\242\313\375\227\377j\262?\360\12n\241c\340\27<\362s\211"
	.ascii "44\337\204\221\37~\262\352\223\337\255b\214\\\1\345r\237\357\364\6\12%\364\13\205\343\240\203\271\346k\210'(\322\225+B\236U\334\207\16\16\305o\345\12\245\313\241\203;u\256~\331o\377\355G+\340\303\205z\\\34\364\363f\332\323\177\337\373\303U?\242\362\201Be\276=\25{Ij\33\342*]\314\320/\373\341\371=\365\220\20\6\377\20\177?\354\370\33\7\372\363\274\225zv\354*A\333"
	.ascii "1\364\201=CoL\326\373ajo?\341\200\211\23\275>y\334\17D\316\373I\264'NA!\371d\376dK\350O\266\303\6\271\301%l\22>\6\177\330\200\374\274\364\313\376`Xd\355Z\245\371\34\266\226\277\306\13\314\364\377\0\307\253R\210"
	.text
	.section	.gnu.lto_.symtab.f43c11b7,"dr0"
	.ascii "__ZN3stk9__pharser12delete_foundEPc@8\0\0\0\0\0\0\0\0\0\0\0\0\12\1\0\0__ZN3stk9__pharserC2Ev@4\0\0\0\0\0\0\0\0\0\0\0\0\20\1\0\0__ZN3stk9__pharserC1Ev@4\0\0\0\0\0\0\0\0\0\0\0\0\23\1\0\0__ZN3stk9__pharserD2Ev@8\0\0\0\0\0\0\0\0\0\0\0\0\37\1\0\0__ZN3stk9__pharserD1Ev@8\0\0\0\0\0\0\0\0\0\0\0\0\"\1\0\0__ZN3stk9__pharser4findEPKcS2_S2_S2_Pc@24\0\0\0\0\0\0\0\0\0\0\0\0-\1\0\0___gxx_personality_v0\0\0\2\0\0\0\0\0\0\0\0\0\36\1\0\0__ZN3stk3con6printsEPKcz\0\0\2\0\0\0\0\0\0\0\0\0"
	.ascii "6\1\0\0__ZN3stk4cstr3lenEPKc@4\0\0\2\0\0\0\0\0\0\0\0\0>\1\0\0__ZN3stk3con5printEPKc@4\0\0\2\0\0\0\0\0\0\0\0\0D\1\0\0__ZN3stk4cstr7cut_endEPcjj@12\0\0\2\0\0\0\0\0\0\0\0\0L\1\0\0___cxa_guard_abort\0\0\2\0\0\0\0\0\0\0\0\0R\1\0\0___cxa_guard_release\0\0\2\0\0\0\0\0\0\0\0\0U\1\0\0__ZN3stk4time7time_msEv@0\0\0\2\0\0\0\0\0\0\0\0\0c\1\0\0___cxa_guard_acquire\0\0\2\0\0\0\0\0\0\0\0\0h\1\0\0__ZN3stk4cstr4freeEPc@4\0\0\2\0\0\0\0\0\0\0\0\0m\1\0\0__ZN3stk3mem3movEPvPKvj@12\0\0\2\0\0\0\0\0\0\0\0\0w\1\0\0__ZN3stk4cstr3posEPKcjS2_@12\0\0\2\0\0\0\0\0\0\0\0\0\204\1\0\0__ZN3stk4cstr3uprEPc@4\0\0\2\0\0\0\0\0\0\0\0\0\212\1\0\0__ZN3stk4cstr3dupEPKc@4\0\0\2\0\0\0\0\0\0\0\0\0\220\1\0\0"
	.text
	.section	.gnu.lto_.opts,"dr0"
	.ascii "'-fno-trapv' '-dD' '-malign-double' '-momit-leaf-frame-pointer' '-m32' '-mfpmath=sse' '-mpreferred-stack-boundary=8' '-mmmx' '-msse' '-msse2' '-mthreads' '-mtune=generic' '-march=i686' '-g' '-g' '-O3' '-fno-use-linker-plugin' '-fverbose-asm' '-fstrict-aliasing' '-fwrapv' '-funroll-loops' '-flto' '-fexceptions'\0"
	.text
	.section .rdata,"dr"
LC1:
	.ascii "\0"
	.align 4
LC2:
	.ascii "pharser\\stk_pharse_command_line.cpp\0"
	.align 4
LC3:
	.ascii "DEBUG: %s: Enter function: %s@%d line, for %d time\12\0\0"
	.section	.text.unlikely,"x"
	.align 2
LCOLDB5:
	.text
LHOTB5:
	.align 2
	.p2align 4,,15
	.section	.text.unlikely,"x"
Ltext_cold0:
	.text
	.globl	__ZN3stk9__pharserC2Ev@4
	.def	__ZN3stk9__pharserC2Ev@4;	.scl	2;	.type	32;	.endef
__ZN3stk9__pharserC2Ev@4:
LFB703:
	.file 1 "pharser/stk_pharse_command_line.cpp"
	.loc 1 13 0
	.cfi_startproc
	.cfi_personality 0,___gxx_personality_v0
	.cfi_lsda 0,LLSDA703
LVL0:
	pushl	%ebx	 #
	.cfi_def_cfa_offset 8
	.cfi_offset 3, -8
	subl	$760, %esp	 #,
	.cfi_def_cfa_offset 768
LBB3:
	.loc 1 16 0
	cmpb	$0, __ZGVZN3stk9__pharserC4EvE8__time_1	 #, MEM[(char *)&_ZGVZN3stk9__pharserC4EvE8__time_1]
LBE3:
	.loc 1 13 0
	movl	768(%esp), %ebx	 # this, this
LBB5:
	.loc 1 16 0
	je	L14	 #,
L3:
LVL1:
	.loc 1 16 0 is_stmt 0 discriminator 2
	movl	__ZZN3stk9__pharserC4EvE14__entered_time, %edx	 # __entered_time, tmp97
	movl	$16, 12(%esp)	 #,
	movl	$LC1, 8(%esp)	 #,
	movl	$LC2+8, 4(%esp)	 #,
	movl	$LC3, (%esp)	 #,
	addl	$1, %edx	 #, D.30047
	movl	%edx, 16(%esp)	 # D.30047,
	movl	%edx, __ZZN3stk9__pharserC4EvE14__entered_time	 # D.30047, __entered_time
LEHB0:
	call	__ZN3stk3con6printsEPKcz	 #
LEHE0:
LVL2:
LBB4:
	.loc 1 18 0 is_stmt 1 discriminator 2
	movl	$-1, (%ebx)	 #, this_19(D)->f_result_positions
LVL3:
	movl	$-1, 4(%ebx)	 #, this_19(D)->f_result_positions
LVL4:
	movl	$-1, 8(%ebx)	 #, this_19(D)->f_result_positions
LVL5:
	movl	$-1, 12(%ebx)	 #, this_19(D)->f_result_positions
LVL6:
LBE4:
LBE5:
	.loc 1 19 0 discriminator 2
	addl	$760, %esp	 #,
	.cfi_remember_state
	.cfi_def_cfa_offset 8
	popl	%ebx	 #
	.cfi_restore 3
	.cfi_def_cfa_offset 4
	ret	$4	 #
LVL7:
	.p2align 4,,10
L14:
	.cfi_restore_state
LBB6:
	.loc 1 16 0 discriminator 1
	movl	$__ZGVZN3stk9__pharserC4EvE8__time_1, (%esp)	 #,
	call	___cxa_guard_acquire	 #
LVL8:
	testl	%eax, %eax	 # D.30047
	je	L3	 #,
LEHB1:
	.loc 1 16 0 is_stmt 0 discriminator 3
	call	__ZN3stk4time7time_msEv@0	 #
LEHE1:
LVL9:
	movl	%eax, 496(%esp)	 #, %sfp
	movl	%edx, 500(%esp)	 #, %sfp
	movl	500(%esp), %eax	 # %sfp,
	fildq	496(%esp)	 # %sfp
	testl	%eax, %eax	 #
	js	L15	 #,
L5:
	.loc 1 16 0 discriminator 5
	movl	$__ZGVZN3stk9__pharserC4EvE8__time_1, (%esp)	 #,
	fstpl	__ZZN3stk9__pharserC4EvE8__time_1	 # __time_1
	call	___cxa_guard_release	 #
LVL10:
	jmp	L3	 #
	.p2align 4,,10
L15:
	fadds	LC0	 #
	jmp	L5	 #
L7:
	movl	%eax, %ebx	 #, tmp96
	.loc 1 16 0
	movl	$__ZGVZN3stk9__pharserC4EvE8__time_1, (%esp)	 #,
	call	___cxa_guard_abort	 #
LVL11:
	movl	%ebx, (%esp)	 # tmp96,
LEHB2:
	call	__Unwind_Resume	 #
LEHE2:
LVL12:
LBE6:
	.cfi_endproc
LFE703:
	.def	___gxx_personality_v0;	.scl	2;	.type	32;	.endef
	.section	.gcc_except_table,"w"
LLSDA703:
	.byte	0xff
	.byte	0xff
	.byte	0x1
	.uleb128 LLSDACSE703-LLSDACSB703
LLSDACSB703:
	.uleb128 LEHB0-LFB703
	.uleb128 LEHE0-LEHB0
	.uleb128 0
	.uleb128 0
	.uleb128 LEHB1-LFB703
	.uleb128 LEHE1-LEHB1
	.uleb128 L7-LFB703
	.uleb128 0
	.uleb128 LEHB2-LFB703
	.uleb128 LEHE2-LEHB2
	.uleb128 0
	.uleb128 0
LLSDACSE703:
	.text
	.section	.text.unlikely,"x"
LCOLDE5:
	.text
LHOTE5:
	.globl	__ZN3stk9__pharserC1Ev@4
	.def	__ZN3stk9__pharserC1Ev@4;	.scl	2;	.type	32;	.endef
	.set	__ZN3stk9__pharserC1Ev@4,__ZN3stk9__pharserC2Ev@4
	.section	.text.unlikely,"x"
	.align 2
LCOLDB6:
	.text
LHOTB6:
	.align 2
	.p2align 4,,15
	.globl	__ZN3stk9__pharserD2Ev@8
	.def	__ZN3stk9__pharserD2Ev@8;	.scl	2;	.type	32;	.endef
__ZN3stk9__pharserD2Ev@8:
LFB706:
	.loc 1 22 0 is_stmt 1
	.cfi_startproc
	.cfi_personality 0,___gxx_personality_v0
	.cfi_lsda 0,LLSDA706
LVL13:
	subl	$764, %esp	 #,
	.cfi_def_cfa_offset 768
LBB7:
	.loc 1 25 0
	cmpb	$0, __ZGVZN3stk9__pharserD4EvE8__time_1	 #, MEM[(char *)&_ZGVZN3stk9__pharserD4EvE8__time_1]
	je	L25	 #,
L18:
LVL14:
	.loc 1 25 0 is_stmt 0 discriminator 2
	movl	__ZZN3stk9__pharserD4EvE14__entered_time, %edx	 # __entered_time, tmp95
	movl	$25, 12(%esp)	 #,
	movl	$LC1, 8(%esp)	 #,
	movl	$LC2+8, 4(%esp)	 #,
	movl	$LC3, (%esp)	 #,
	addl	$1, %edx	 #, D.30057
	movl	%edx, 16(%esp)	 # D.30057,
	movl	%edx, __ZZN3stk9__pharserD4EvE14__entered_time	 # D.30057, __entered_time
	call	__ZN3stk3con6printsEPKcz	 #
LVL15:
LBE7:
	.loc 1 27 0 is_stmt 1 discriminator 2
	addl	$764, %esp	 #,
	.cfi_remember_state
	.cfi_def_cfa_offset 4
	ret	$4	 #
LVL16:
	.p2align 4,,10
L25:
	.cfi_restore_state
LBB8:
	.loc 1 25 0 discriminator 1
	movl	$__ZGVZN3stk9__pharserD4EvE8__time_1, (%esp)	 #,
	call	___cxa_guard_acquire	 #
LVL17:
	testl	%eax, %eax	 # D.30057
	je	L18	 #,
	.loc 1 25 0 is_stmt 0 discriminator 3
	call	__ZN3stk4time7time_msEv@0	 #
LVL18:
	movl	%eax, 496(%esp)	 #, %sfp
	movl	%edx, 500(%esp)	 #, %sfp
	movl	500(%esp), %eax	 # %sfp,
	fildq	496(%esp)	 # %sfp
	testl	%eax, %eax	 #
	js	L26	 #,
L20:
	movl	$__ZGVZN3stk9__pharserD4EvE8__time_1, (%esp)	 #,
	fstpl	__ZZN3stk9__pharserD4EvE8__time_1	 # __time_1
	call	___cxa_guard_release	 #
LVL19:
	jmp	L18	 #
	.p2align 4,,10
L26:
	fadds	LC0	 #
	jmp	L20	 #
LBE8:
	.cfi_endproc
LFE706:
	.section	.gcc_except_table,"w"
LLSDA706:
	.byte	0xff
	.byte	0xff
	.byte	0x1
	.uleb128 LLSDACSE706-LLSDACSB706
LLSDACSB706:
LLSDACSE706:
	.text
	.section	.text.unlikely,"x"
LCOLDE6:
	.text
LHOTE6:
	.globl	__ZN3stk9__pharserD1Ev@8
	.def	__ZN3stk9__pharserD1Ev@8;	.scl	2;	.type	32;	.endef
	.set	__ZN3stk9__pharserD1Ev@8,__ZN3stk9__pharserD2Ev@8
	.section .rdata,"dr"
	.align 4
LC7:
	.ascii "__pharser::find(a_src_ptr:%s,lpparameter_min:%s,lpparameter_normal:%s,lpparameter_alternative:%s,\0"
LC8:
	.ascii "NULL)\0"
LC9:
	.ascii "%s)\0"
LC10:
	.ascii "\12\0"
LC11:
	.ascii ")\0"
LC12:
	.ascii "]\0"
LC13:
	.ascii ">\0"
	.section	.text.unlikely,"x"
	.align 2
LCOLDB14:
	.text
LHOTB14:
	.align 2
	.p2align 4,,15
	.globl	__ZN3stk9__pharser4findEPKcS2_S2_S2_Pc@24
	.def	__ZN3stk9__pharser4findEPKcS2_S2_S2_Pc@24;	.scl	2;	.type	32;	.endef
__ZN3stk9__pharser4findEPKcS2_S2_S2_Pc@24:
LFB708:
	.loc 1 31 0 is_stmt 1
	.cfi_startproc
	.cfi_personality 0,___gxx_personality_v0
	.cfi_lsda 0,LLSDA708
LVL20:
	pushl	%ebp	 #
	.cfi_def_cfa_offset 8
	.cfi_offset 5, -8
	pushl	%edi	 #
	.cfi_def_cfa_offset 12
	.cfi_offset 7, -12
	pushl	%esi	 #
	.cfi_def_cfa_offset 16
	.cfi_offset 6, -16
	pushl	%ebx	 #
	.cfi_def_cfa_offset 20
	.cfi_offset 3, -20
	subl	$748, %esp	 #,
	.cfi_def_cfa_offset 768
LBB9:
	.loc 1 33 0
	cmpb	$0, __ZGVZN3stk9__pharser4findEPKcS2_S2_S2_PcE8__time_1	 #, MEM[(char *)&_ZGVZN3stk9__pharser4findEPKcS2_S2_S2_PcE8__time_1]
LBE9:
	.loc 1 31 0
	movl	768(%esp), %edi	 # this, this
	movl	784(%esp), %ebp	 # lpparameter_alternative, lpparameter_alternative
LBB10:
	.loc 1 33 0
	je	L101	 #,
L29:
LVL21:
	.loc 1 33 0 is_stmt 0 discriminator 2
	movl	__ZZN3stk9__pharser4findEPKcS2_S2_S2_PcE14__entered_time, %edx	 # __entered_time, tmp192
	movl	$33, 12(%esp)	 #,
	movl	$LC1, 8(%esp)	 #,
	movl	$LC2+8, 4(%esp)	 #,
	movl	$LC3, (%esp)	 #,
	addl	$1, %edx	 #, D.30071
	movl	%edx, 16(%esp)	 # D.30071,
	movl	%edx, __ZZN3stk9__pharser4findEPKcS2_S2_S2_PcE14__entered_time	 # D.30071, __entered_time
LEHB3:
	call	__ZN3stk3con6printsEPKcz	 #
LVL22:
	.loc 1 36 0 is_stmt 1 discriminator 2
	movl	780(%esp), %ecx	 # lpparameter_normal, tmp193
	movl	776(%esp), %ebx	 # lpparameter_min, tmp194
	movl	772(%esp), %esi	 # lpsrc, tmp195
	movl	%ebp, 16(%esp)	 # lpparameter_alternative,
	movl	$LC7, (%esp)	 #,
	movl	%ecx, 12(%esp)	 # tmp193,
	movl	%ebx, 8(%esp)	 # tmp194,
	movl	%esi, 4(%esp)	 # tmp195,
	call	__ZN3stk3con6printsEPKcz	 #
LVL23:
	.loc 1 37 0 discriminator 2
	movl	788(%esp), %eax	 # r_lpsuboption,
	testl	%eax, %eax	 #
	je	L102	 #,
	.loc 1 38 0
	movl	788(%esp), %edx	 # r_lpsuboption, tmp196
	movl	$LC9, (%esp)	 #,
	movl	%edx, 4(%esp)	 # tmp196,
	call	__ZN3stk3con6printsEPKcz	 #
LVL24:
L33:
	.loc 1 39 0
	movl	$LC10, (%esp)	 #,
	call	__ZN3stk3con5printEPKc@4	 #
	.cfi_def_cfa_offset 764
LVL25:
	subl	$4, %esp	 #,
	.cfi_def_cfa_offset 768
	.loc 1 42 0
	movl	772(%esp), %ecx	 # lpsrc, tmp197
	movl	%ecx, 16(%edi)	 # tmp197, this_51(D)->f_result_base
	.loc 1 43 0
	movl	%ecx, (%esp)	 # tmp198,
	call	__ZN3stk4cstr3dupEPKc@4	 #
	.cfi_def_cfa_offset 764
LVL26:
	subl	$4, %esp	 #,
	.cfi_def_cfa_offset 768
	movl	%eax, %esi	 #, lpsrc_upr
LVL27:
	.loc 1 44 0
	movl	%eax, (%esp)	 # lpsrc_upr,
	call	__ZN3stk4cstr3uprEPc@4	 #
	.cfi_def_cfa_offset 764
LVL28:
	subl	$4, %esp	 #,
	.cfi_def_cfa_offset 768
LVL29:
	.loc 1 48 0
	movl	%esi, (%esp)	 # lpsrc_upr,
	call	__ZN3stk4cstr3lenEPKc@4	 #
	.cfi_def_cfa_offset 764
LVL30:
	subl	$4, %esp	 #,
	.cfi_def_cfa_offset 768
	.loc 1 60 0
	testl	%ebp, %ebp	 # lpparameter_alternative
	.loc 1 48 0
	movl	%eax, 488(%esp)	 #, %sfp
LVL31:
	.loc 1 60 0
	je	L37	 #,
	.loc 1 64 0
	movl	%ebp, (%esp)	 # lpparameter_alternative,
	call	__ZN3stk4cstr3lenEPKc@4	 #
	.cfi_def_cfa_offset 764
LVL32:
	subl	$4, %esp	 #,
	.cfi_def_cfa_offset 768
	movl	%eax, %ebx	 #, parameterlen
LVL33:
	.loc 1 65 0
	movl	%ebp, 8(%esp)	 # lpparameter_alternative,
	movl	$0, 4(%esp)	 #,
	movl	%esi, (%esp)	 # lpsrc_upr,
	call	__ZN3stk4cstr3posEPKcjS2_@12	 #
	.cfi_def_cfa_offset 756
LVL34:
	subl	$12, %esp	 #,
	.cfi_def_cfa_offset 768
	.loc 1 67 0
	cmpl	$-1, %eax	 #, initiator
	.loc 1 65 0
	movl	%eax, %ebp	 #, initiator
LVL35:
	.loc 1 67 0
	je	L37	 #,
LVL36:
L44:
	.loc 1 101 0
	movl	772(%esp), %ecx	 # lpsrc, D.30078
	.loc 1 98 0
	addl	%ebp, %ebx	 # initiator, D.30071
LVL37:
	leal	1(%ebx), %eax	 #, start
	.loc 1 101 0
	addl	%ebx, %ecx	 # D.30071, D.30078
	.loc 1 98 0
	movl	%eax, 500(%esp)	 # start, %sfp
LVL38:
	.loc 1 101 0
	movzbl	(%ecx), %eax	 # *_91, D.30070
LVL39:
	cmpb	$45, %al	 #, D.30070
	je	L46	 #,
	cmpb	$32, %al	 #, D.30070
	je	L46	 #,
	.loc 1 101 0 is_stmt 0 discriminator 1
	leal	3(%ebx), %edx	 #, D.30071
	cmpl	%edx, 488(%esp)	 # D.30071, %sfp
	jge	L103	 #,
L46:
	.loc 1 102 0 is_stmt 1
	movl	788(%esp), %edx	 # r_lpsuboption,
	testl	%edx, %edx	 #
	je	L49	 #,
	.loc 1 102 0 is_stmt 0 discriminator 1
	movl	788(%esp), %ecx	 # r_lpsuboption, tmp207
	movb	$0, (%ecx)	 #, *r_lpsuboption_47(D)
L49:
	.loc 1 106 0 is_stmt 1
	subl	$1, %ebx	 #, tmp164
	.loc 1 103 0
	movl	%ebp, (%edi)	 # initiator, this_51(D)->f_result_positions
	.loc 1 104 0
	movl	$-1, 4(%edi)	 #, this_51(D)->f_result_positions
	.loc 1 105 0
	movl	$-1, 8(%edi)	 #, this_51(D)->f_result_positions
	.loc 1 106 0
	movl	%ebx, 12(%edi)	 # tmp164, this_51(D)->f_result_positions
	.loc 1 107 0
	movl	%esi, (%esp)	 # lpsrc_upr,
	call	__ZN3stk4cstr4freeEPc@4	 #
	.cfi_def_cfa_offset 764
LVL40:
	.loc 1 108 0
	movl	$1, %eax	 #, D.30069
	.loc 1 107 0
	subl	$4, %esp	 #,
	.cfi_def_cfa_offset 768
LVL41:
L97:
LBE10:
	.loc 1 140 0
	addl	$748, %esp	 #,
	.cfi_remember_state
	.cfi_def_cfa_offset 20
	popl	%ebx	 #
	.cfi_restore 3
	.cfi_def_cfa_offset 16
	popl	%esi	 #
	.cfi_restore 6
	.cfi_def_cfa_offset 12
LVL42:
	popl	%edi	 #
	.cfi_restore 7
	.cfi_def_cfa_offset 8
	popl	%ebp	 #
	.cfi_restore 5
	.cfi_def_cfa_offset 4
	ret	$24	 #
LVL43:
	.p2align 4,,10
L37:
	.cfi_restore_state
LBB11:
	.loc 1 68 0
	movl	780(%esp), %ebp	 # lpparameter_normal,
	testl	%ebp, %ebp	 #
	je	L35	 #,
	.loc 1 72 0
	movl	780(%esp), %ebx	 # lpparameter_normal, tmp199
	movl	%ebx, (%esp)	 # tmp199,
	call	__ZN3stk4cstr3lenEPKc@4	 #
	.cfi_def_cfa_offset 764
LVL44:
	subl	$4, %esp	 #,
	.cfi_def_cfa_offset 768
	movl	%eax, %ebx	 #, D.30074
LVL45:
	.loc 1 73 0
	movl	780(%esp), %eax	 # lpparameter_normal, tmp200
LVL46:
	movl	$0, 4(%esp)	 #,
	movl	%esi, (%esp)	 # lpsrc_upr,
	movl	%eax, 8(%esp)	 # tmp200,
	call	__ZN3stk4cstr3posEPKcjS2_@12	 #
	.cfi_def_cfa_offset 756
LVL47:
	subl	$12, %esp	 #,
	.cfi_def_cfa_offset 768
	.loc 1 76 0
	cmpl	$-1, %eax	 #, initiator
	.loc 1 73 0
	movl	%eax, %ebp	 #, initiator
LVL48:
	.loc 1 76 0
	jne	L44	 #,
LVL49:
L35:
	.loc 1 77 0
	movl	776(%esp), %edx	 # lpparameter_min,
	testl	%edx, %edx	 #
	je	L100	 #,
	.loc 1 81 0
	movl	776(%esp), %ecx	 # lpparameter_min, tmp201
	movl	%ecx, (%esp)	 # tmp201,
	call	__ZN3stk4cstr3lenEPKc@4	 #
	.cfi_def_cfa_offset 764
LVL50:
	subl	$4, %esp	 #,
	.cfi_def_cfa_offset 768
	movl	%eax, %ebx	 #, parameterlen
LVL51:
	.loc 1 82 0
	movl	776(%esp), %ebp	 # lpparameter_min, tmp202
	movl	$0, 4(%esp)	 #,
	movl	%esi, (%esp)	 # lpsrc_upr,
	movl	%ebp, 8(%esp)	 # tmp202,
	call	__ZN3stk4cstr3posEPKcjS2_@12	 #
	.cfi_def_cfa_offset 756
LVL52:
	subl	$12, %esp	 #,
	.cfi_def_cfa_offset 768
	.loc 1 84 0
	testl	%eax, %eax	 # initiator
	.loc 1 82 0
	movl	%eax, %ebp	 #, initiator
LVL53:
	.loc 1 84 0
	jle	L43	 #,
	.loc 1 85 0
	cmpb	$45, -1(%esi,%eax)	 #, *_79
	jne	L44	 #,
LVL54:
L100:
	.loc 1 121 0
	movl	788(%esp), %ebx	 # r_lpsuboption,
	testl	%ebx, %ebx	 #
	je	L54	 #,
	.loc 1 121 0 is_stmt 0 discriminator 1
	movl	788(%esp), %ebp	 # r_lpsuboption, tmp211
	movb	$0, 0(%ebp)	 #, *r_lpsuboption_47(D)
L54:
	.loc 1 122 0 is_stmt 1
	pcmpeqd	%xmm0, %xmm0	 # tmp165
	movups	%xmm0, (%edi)	 # tmp165, MEM[(int *)this_51(D)]
	.loc 1 126 0
	movl	%esi, (%esp)	 # lpsrc_upr,
	call	__ZN3stk4cstr4freeEPc@4	 #
	.cfi_def_cfa_offset 764
LEHE3:
LVL55:
	subl	$4, %esp	 #,
	.cfi_def_cfa_offset 768
	.loc 1 127 0
	xorl	%eax, %eax	 # D.30069
LBE11:
	.loc 1 140 0
	addl	$748, %esp	 #,
	.cfi_remember_state
	.cfi_def_cfa_offset 20
	popl	%ebx	 #
	.cfi_restore 3
	.cfi_def_cfa_offset 16
	popl	%esi	 #
	.cfi_restore 6
	.cfi_def_cfa_offset 12
LVL56:
	popl	%edi	 #
	.cfi_restore 7
	.cfi_def_cfa_offset 8
	popl	%ebp	 #
	.cfi_restore 5
	.cfi_def_cfa_offset 4
	ret	$24	 #
LVL57:
	.p2align 4,,10
L101:
	.cfi_restore_state
LBB12:
	.loc 1 33 0 discriminator 1
	movl	$__ZGVZN3stk9__pharser4findEPKcS2_S2_S2_PcE8__time_1, (%esp)	 #,
	call	___cxa_guard_acquire	 #
LVL58:
	testl	%eax, %eax	 # D.30071
	je	L29	 #,
LEHB4:
	.loc 1 33 0 is_stmt 0 discriminator 3
	call	__ZN3stk4time7time_msEv@0	 #
LEHE4:
LVL59:
	movl	%eax, 488(%esp)	 #, %sfp
	movl	%edx, 492(%esp)	 #, %sfp
	movl	492(%esp), %eax	 # %sfp,
	fildq	488(%esp)	 # %sfp
	testl	%eax, %eax	 #
	js	L104	 #,
L31:
	.loc 1 33 0 discriminator 5
	movl	$__ZGVZN3stk9__pharser4findEPKcS2_S2_S2_PcE8__time_1, (%esp)	 #,
	fstpl	__ZZN3stk9__pharser4findEPKcS2_S2_S2_PcE8__time_1	 # __time_1
	call	___cxa_guard_release	 #
LVL60:
	jmp	L29	 #
LVL61:
	.p2align 4,,10
L103:
	.loc 1 101 0 is_stmt 1 discriminator 2
	cmpb	$91, %al	 #, D.30070
	je	L47	 #,
	cmpb	$40, %al	 #, D.30070
	je	L47	 #,
	.loc 1 101 0 is_stmt 0 discriminator 3
	cmpb	$60, %al	 #, D.30070
	jne	L46	 #,
LVL62:
L48:
	.loc 1 118 0 is_stmt 1
	movl	%ebx, 4(%esp)	 # D.30071,
	movl	772(%esp), %ebx	 # lpsrc, tmp210
	movl	$LC13, 8(%esp)	 #,
	movl	%ebx, (%esp)	 # tmp210,
LEHB5:
	call	__ZN3stk4cstr3posEPKcjS2_@12	 #
	.cfi_def_cfa_offset 756
LVL63:
	subl	$12, %esp	 #,
	.cfi_def_cfa_offset 768
	leal	-1(%eax), %edx	 #, end
LVL64:
	jmp	L52	 #
LVL65:
	.p2align 4,,10
L102:
	.loc 1 37 0 discriminator 1
	movl	$LC8, (%esp)	 #,
	call	__ZN3stk3con5printEPKc@4	 #
	.cfi_def_cfa_offset 764
LVL66:
	subl	$4, %esp	 #,
	.cfi_def_cfa_offset 768
	jmp	L33	 #
LVL67:
	.p2align 4,,10
L47:
	.loc 1 111 0
	cmpb	$40, %al	 #, D.30080
	.loc 1 99 0
	movl	$-1, %edx	 #, end
	.loc 1 111 0
	je	L105	 #,
LVL68:
L50:
	.loc 1 114 0
	cmpb	$91, %al	 #, D.30080
	je	L106	 #,
L51:
	.loc 1 117 0
	cmpb	$60, %al	 #, D.30080
	je	L48	 #,
L52:
	.loc 1 120 0
	cmpl	$-1, %edx	 #, end
	je	L100	 #,
	.loc 1 130 0
	movl	%ebp, (%edi)	 # initiator, this_51(D)->f_result_positions
	.loc 1 131 0
	movl	500(%esp), %ebp	 # %sfp, start
LVL69:
	.loc 1 133 0
	leal	1(%edx), %eax	 #, tmp166
	.loc 1 132 0
	movl	%edx, 8(%edi)	 # end, this_51(D)->f_result_positions
	.loc 1 133 0
	movl	%eax, 12(%edi)	 # tmp166, this_51(D)->f_result_positions
	.loc 1 131 0
	movl	%ebp, 4(%edi)	 # start, this_51(D)->f_result_positions
	.loc 1 134 0
	movl	788(%esp), %edi	 # r_lpsuboption,
LVL70:
	testl	%edi, %edi	 #
	je	L55	 #,
	.loc 1 135 0
	movl	772(%esp), %ecx	 # lpsrc, D.30078
	subl	%ebp, %edx	 # start, D.30071
LVL71:
	movl	%edx, %edi	 # D.30071, D.30071
	leal	1(%edx), %edx	 #, D.30071
	addl	%ebp, %ecx	 # start, D.30078
	movl	788(%esp), %ebp	 # r_lpsuboption, tmp216
	movl	%edx, 8(%esp)	 # D.30071,
LVL72:
	movl	%ecx, 4(%esp)	 # D.30078,
	movl	%ebp, (%esp)	 # tmp216,
	call	__ZN3stk3mem3movEPvPKvj@12	 #
	.cfi_def_cfa_offset 756
LVL73:
	subl	$12, %esp	 #,
	.cfi_def_cfa_offset 768
	.loc 1 136 0
	movl	788(%esp), %eax	 # r_lpsuboption, tmp217
	movb	$0, 1(%eax,%edi)	 #, *_135
L55:
	.loc 1 138 0
	movl	%esi, (%esp)	 # lpsrc_upr,
	call	__ZN3stk4cstr4freeEPc@4	 #
	.cfi_def_cfa_offset 764
LVL74:
	.loc 1 139 0
	movl	$2, %eax	 #, D.30069
	.loc 1 138 0
	subl	$4, %esp	 #,
	.cfi_def_cfa_offset 768
	.loc 1 139 0
	jmp	L97	 #
LVL75:
	.p2align 4,,10
L104:
	.loc 1 33 0 discriminator 5
	fadds	LC0	 #
	jmp	L31	 #
LVL76:
	.p2align 4,,10
L106:
	.loc 1 115 0
	movl	772(%esp), %eax	 # lpsrc, tmp209
	movl	$LC12, 8(%esp)	 #,
	movl	%ebx, 4(%esp)	 # D.30071,
	movl	%ecx, 488(%esp)	 # D.30078, %sfp
	movl	%eax, (%esp)	 # tmp209,
	call	__ZN3stk4cstr3posEPKcjS2_@12	 #
	.cfi_def_cfa_offset 756
LVL77:
	subl	$12, %esp	 #,
	.cfi_def_cfa_offset 768
	leal	-1(%eax), %edx	 #, end
LVL78:
	movl	488(%esp), %ecx	 # %sfp, D.30078
	movzbl	(%ecx), %eax	 # *_91, D.30080
	jmp	L51	 #
LVL79:
	.p2align 4,,10
L105:
	movl	%ecx, 488(%esp)	 # D.30078, %sfp
LVL80:
	.loc 1 112 0
	movl	772(%esp), %ecx	 # lpsrc, tmp208
	movl	$LC11, 8(%esp)	 #,
	movl	%ebx, 4(%esp)	 # D.30071,
	movl	%ecx, (%esp)	 # tmp208,
	call	__ZN3stk4cstr3posEPKcjS2_@12	 #
	.cfi_def_cfa_offset 756
LVL81:
	subl	$12, %esp	 #,
	.cfi_def_cfa_offset 768
	leal	-1(%eax), %edx	 #, end
LVL82:
	movl	488(%esp), %ecx	 # %sfp, D.30078
	movzbl	(%ecx), %eax	 # *_91, D.30080
	jmp	L50	 #
LVL83:
L43:
	.loc 1 88 0
	cmpl	$-1, %eax	 #, initiator
	je	L100	 #,
	jmp	L44	 #
LVL84:
L58:
	movl	%eax, %esi	 #, tmp170
	.loc 1 33 0
	movl	$__ZGVZN3stk9__pharser4findEPKcS2_S2_S2_PcE8__time_1, (%esp)	 #,
	call	___cxa_guard_abort	 #
LVL85:
	movl	%esi, (%esp)	 # tmp170,
	call	__Unwind_Resume	 #
LEHE5:
LVL86:
LBE12:
	.cfi_endproc
LFE708:
	.section	.gcc_except_table,"w"
LLSDA708:
	.byte	0xff
	.byte	0xff
	.byte	0x1
	.uleb128 LLSDACSE708-LLSDACSB708
LLSDACSB708:
	.uleb128 LEHB3-LFB708
	.uleb128 LEHE3-LEHB3
	.uleb128 0
	.uleb128 0
	.uleb128 LEHB4-LFB708
	.uleb128 LEHE4-LEHB4
	.uleb128 L58-LFB708
	.uleb128 0
	.uleb128 LEHB5-LFB708
	.uleb128 LEHE5-LEHB5
	.uleb128 0
	.uleb128 0
LLSDACSE708:
	.text
	.section	.text.unlikely,"x"
LCOLDE14:
	.text
LHOTE14:
	.section .rdata,"dr"
LC15:
	.ascii "__pharser::delete_found(%s)\0"
	.align 4
LC16:
	.ascii "initiator:%d, terminator:%d, len:%d\0"
	.section	.text.unlikely,"x"
	.align 2
LCOLDB17:
	.text
LHOTB17:
	.align 2
	.p2align 4,,15
	.globl	__ZN3stk9__pharser12delete_foundEPc@8
	.def	__ZN3stk9__pharser12delete_foundEPc@8;	.scl	2;	.type	32;	.endef
__ZN3stk9__pharser12delete_foundEPc@8:
LFB709:
	.loc 1 144 0
	.cfi_startproc
	.cfi_personality 0,___gxx_personality_v0
	.cfi_lsda 0,LLSDA709
LVL87:
	pushl	%esi	 #
	.cfi_def_cfa_offset 8
	.cfi_offset 6, -8
	pushl	%ebx	 #
	.cfi_def_cfa_offset 12
	.cfi_offset 3, -12
	subl	$756, %esp	 #,
	.cfi_def_cfa_offset 768
LBB17:
	.loc 1 146 0
	cmpb	$0, __ZGVZN3stk9__pharser12delete_foundEPcE8__time_1	 #, MEM[(char *)&_ZGVZN3stk9__pharser12delete_foundEPcE8__time_1]
LBE17:
	.loc 1 144 0
	movl	768(%esp), %ebx	 # this, this
	movl	772(%esp), %esi	 # lpsrc, lpsrc
LBB18:
	.loc 1 146 0
	je	L121	 #,
L109:
LVL88:
	.loc 1 146 0 is_stmt 0 discriminator 2
	movl	__ZZN3stk9__pharser12delete_foundEPcE14__entered_time, %edx	 # __entered_time, tmp108
	movl	$146, 12(%esp)	 #,
	movl	$LC1, 8(%esp)	 #,
	movl	$LC2+8, 4(%esp)	 #,
	movl	$LC3, (%esp)	 #,
	addl	$1, %edx	 #, D.30097
	movl	%edx, 16(%esp)	 # D.30097,
	movl	%edx, __ZZN3stk9__pharser12delete_foundEPcE14__entered_time	 # D.30097, __entered_time
LEHB6:
	call	__ZN3stk3con6printsEPKcz	 #
LEHE6:
LVL89:
	.loc 1 148 0 is_stmt 1 discriminator 2
	cmpl	%esi, 16(%ebx)	 # lpsrc, this_17(D)->f_result_base
	je	L122	 #,
L107:
LBE18:
	.loc 1 156 0
	addl	$756, %esp	 #,
	.cfi_remember_state
	.cfi_def_cfa_offset 12
	popl	%ebx	 #
	.cfi_restore 3
	.cfi_def_cfa_offset 8
	popl	%esi	 #
	.cfi_restore 6
	.cfi_def_cfa_offset 4
	ret	$8	 #
LVL90:
	.p2align 4,,10
L121:
	.cfi_restore_state
LBB19:
	.loc 1 146 0 discriminator 1
	movl	$__ZGVZN3stk9__pharser12delete_foundEPcE8__time_1, (%esp)	 #,
	call	___cxa_guard_acquire	 #
LVL91:
	testl	%eax, %eax	 # D.30097
	je	L109	 #,
LEHB7:
	.loc 1 146 0 is_stmt 0 discriminator 3
	call	__ZN3stk4time7time_msEv@0	 #
LEHE7:
LVL92:
	movl	%eax, 496(%esp)	 #, %sfp
	movl	%edx, 500(%esp)	 #, %sfp
	movl	500(%esp), %eax	 # %sfp,
	fildq	496(%esp)	 # %sfp
	testl	%eax, %eax	 #
	js	L123	 #,
L111:
	.loc 1 146 0 discriminator 5
	movl	$__ZGVZN3stk9__pharser12delete_foundEPcE8__time_1, (%esp)	 #,
	fstpl	__ZZN3stk9__pharser12delete_foundEPcE8__time_1	 # __time_1
	call	___cxa_guard_release	 #
LVL93:
	jmp	L109	 #
LVL94:
	.p2align 4,,10
L122:
LBE19:
LBB20:
LBB21:
	.loc 1 150 0 is_stmt 1
	movl	%esi, 4(%esp)	 # lpsrc,
	movl	$LC15, (%esp)	 #,
LEHB8:
	call	__ZN3stk3con6printsEPKcz	 #
LVL95:
	.loc 1 151 0
	movl	%esi, (%esp)	 # lpsrc,
	call	__ZN3stk4cstr3lenEPKc@4	 #
	.cfi_def_cfa_offset 764
LVL96:
	subl	$4, %esp	 #,
	.cfi_def_cfa_offset 768
	movl	%eax, 12(%esp)	 # D.30101,
	movl	12(%ebx), %ecx	 # this_17(D)->f_result_positions, this_17(D)->f_result_positions
	movl	%ecx, 8(%esp)	 # this_17(D)->f_result_positions,
	movl	(%ebx), %eax	 # this_17(D)->f_result_positions, this_17(D)->f_result_positions
	movl	$LC16, (%esp)	 #,
	movl	%eax, 4(%esp)	 # this_17(D)->f_result_positions,
	call	__ZN3stk3con6printsEPKcz	 #
LVL97:
	.loc 1 152 0
	movl	$LC10, (%esp)	 #,
	call	__ZN3stk3con5printEPKc@4	 #
	.cfi_def_cfa_offset 764
LVL98:
	.loc 1 154 0
	movl	(%ebx), %ecx	 # this_17(D)->f_result_positions, D.30097
	.loc 1 152 0
	subl	$4, %esp	 #,
	.cfi_def_cfa_offset 768
	.loc 1 154 0
	testl	%ecx, %ecx	 # D.30097
	js	L107	 #,
	movl	12(%ebx), %ebx	 # this_17(D)->f_result_positions, D.30097
LVL99:
	testl	%ebx, %ebx	 # D.30097
	js	L107	 #,
	.loc 1 155 0
	movl	%ebx, 8(%esp)	 # D.30097,
	movl	%ecx, 4(%esp)	 # D.30097,
	movl	%esi, (%esp)	 # lpsrc,
	call	__ZN3stk4cstr7cut_endEPcjj@12	 #
	.cfi_def_cfa_offset 756
LVL100:
	subl	$12, %esp	 #,
	.cfi_def_cfa_offset 768
	jmp	L107	 #
LVL101:
	.p2align 4,,10
L123:
LBE21:
LBE20:
LBB22:
	.loc 1 146 0 discriminator 5
	fadds	LC0	 #
	jmp	L111	 #
L116:
	movl	%eax, %esi	 #, tmp107
	.loc 1 146 0 is_stmt 0
	movl	$__ZGVZN3stk9__pharser12delete_foundEPcE8__time_1, (%esp)	 #,
	call	___cxa_guard_abort	 #
LVL102:
	movl	%esi, (%esp)	 # tmp107,
	call	__Unwind_Resume	 #
LEHE8:
LVL103:
LBE22:
	.cfi_endproc
LFE709:
	.section	.gcc_except_table,"w"
LLSDA709:
	.byte	0xff
	.byte	0xff
	.byte	0x1
	.uleb128 LLSDACSE709-LLSDACSB709
LLSDACSB709:
	.uleb128 LEHB6-LFB709
	.uleb128 LEHE6-LEHB6
	.uleb128 0
	.uleb128 0
	.uleb128 LEHB7-LFB709
	.uleb128 LEHE7-LEHB7
	.uleb128 L116-LFB709
	.uleb128 0
	.uleb128 LEHB8-LFB709
	.uleb128 LEHE8-LEHB8
	.uleb128 0
	.uleb128 0
LLSDACSE709:
	.text
	.section	.text.unlikely,"x"
LCOLDE17:
	.text
LHOTE17:
	.data
	.align 4
__ZZN3stk9__pharser12delete_foundEPcE14__entered_time:
	.long	1
.lcomm __ZZN3stk9__pharser12delete_foundEPcE8__time_1,8,8
	.align 4
__ZZN3stk9__pharser4findEPKcS2_S2_S2_PcE14__entered_time:
	.long	1
.lcomm __ZZN3stk9__pharser4findEPKcS2_S2_S2_PcE8__time_1,8,8
	.align 4
__ZZN3stk9__pharserD4EvE14__entered_time:
	.long	1
.lcomm __ZZN3stk9__pharserD4EvE8__time_1,8,8
	.align 4
__ZZN3stk9__pharserC4EvE14__entered_time:
	.long	1
.lcomm __ZZN3stk9__pharserC4EvE8__time_1,8,8
.lcomm __ZGVZN3stk9__pharser12delete_foundEPcE8__time_1,8,8
.lcomm __ZGVZN3stk9__pharser4findEPKcS2_S2_S2_PcE8__time_1,8,8
.lcomm __ZGVZN3stk9__pharserD4EvE8__time_1,8,8
.lcomm __ZGVZN3stk9__pharserC4EvE8__time_1,8,8
	.section .rdata,"dr"
	.align 4
LC0:
	.long	1602224128
	.text
Letext0:
	.section	.text.unlikely,"x"
Letext_cold0:
	.file 2 "C:/Qt/Qt5.5.0/Tools/mingw492_32/i686-w64-mingw32/include/_mingw.h"
	.file 3 "C:/Qt/Qt5.5.0/Tools/mingw492_32/i686-w64-mingw32/include/stdint.h"
	.file 4 "C:/Qt/Qt5.5.0/Tools/mingw492_32/i686-w64-mingw32/include/stdio.h"
	.file 5 "pharser/stk_pharse_command_line.h"
	.file 6 "pharser/./.././time/stk_time.h"
	.file 7 "pharser/./../io/stk_console.h"
	.file 8 "pharser/./../text/stk_cstr_utils.h"
	.file 9 "pharser/./../text/./../mem/stk_mem.h"
	.file 10 "<built-in>"
	.file 11 "C:/Qt/Qt5.5.0/Tools/mingw492_32/i686-w64-mingw32/include/c++/bits/exception_ptr.h"
	.file 12 "C:/Qt/Qt5.5.0/Tools/mingw492_32/i686-w64-mingw32/include/c++/i686-w64-mingw32/bits/c++config.h"