	.file	"stk_cipher_API.cpp"
 # GNU C++ (i686-posix-dwarf-rev1, Built by MinGW-W64 project) version 4.9.2 (i686-w64-mingw32)
 #	compiled by GNU C version 4.9.2, GMP version 6.0.0, MPFR version 3.1.2-p9, MPC version 1.0.2
 # warning: MPFR header version 3.1.2-p9 differs from library version 3.1.2-p10.
 # GGC heuristics: --param ggc-min-expand=100 --param ggc-min-heapsize=131072
 # options passed:  -fpreprocessed stk_cipher_API.ii -malign-double
 # -momit-leaf-frame-pointer -m32 -mfpmath=sse -mpreferred-stack-boundary=8
 # -mmmx -msse -msse2 -mthreads -mtune=generic -march=i686
 # -auxbase-strip debug\stk_cipher_API.o -g -g -O3 -Wno-write-strings
 # -Wno-multichar -Wno-unused-variable -Wno-unused-parameter
 # -Wno-unused-value -Wno-unused-label -Wno-unused-but-set-variable
 # -Wattributes -Winline -Wshadow -Wunknown-pragmas -Wall -Wextra
 # -std=gnu++11 -std=c++11 -fno-keep-inline-dllexport
 # -fno-use-linker-plugin -fverbose-asm -fstrict-aliasing -fwrapv
 # -funroll-loops -flto -fexceptions -frtti
 # options enabled:  -faggressive-loop-optimizations
 # -fasynchronous-unwind-tables -fauto-inc-dec -fbranch-count-reg
 # -fcaller-saves -fcombine-stack-adjustments -fcommon -fcompare-elim
 # -fcprop-registers -fcrossjumping -fcse-follow-jumps -fdefer-pop
 # -fdelete-null-pointer-checks -fdevirtualize -fdevirtualize-speculatively
 # -fdwarf2-cfi-asm -fearly-inlining -feliminate-unused-debug-types
 # -fexceptions -fexpensive-optimizations -fforward-propagate
 # -ffunction-cse -fgcse -fgcse-after-reload -fgcse-lm -fgnu-runtime
 # -fgnu-unique -fguess-branch-probability -fhoist-adjacent-loads -fident
 # -fif-conversion -fif-conversion2 -findirect-inlining -finline
 # -finline-atomics -finline-functions -finline-functions-called-once
 # -finline-small-functions -fipa-cp -fipa-cp-clone -fipa-profile
 # -fipa-pure-const -fipa-reference -fipa-sra -fira-hoist-pressure
 # -fira-share-save-slots -fira-share-spill-slots
 # -fisolate-erroneous-paths-dereference -fivopts -fkeep-static-consts
 # -fleading-underscore -fmath-errno -fmerge-constants
 # -fmerge-debug-strings -fmove-loop-invariants -fomit-frame-pointer
 # -foptimize-sibling-calls -foptimize-strlen -fpartial-inlining -fpeephole
 # -fpeephole2 -fpredictive-commoning -fprefetch-loop-arrays -free
 # -freg-struct-return -frename-registers -freorder-blocks
 # -freorder-blocks-and-partition -freorder-functions
 # -frerun-cse-after-loop -fsched-critical-path-heuristic
 # -fsched-dep-count-heuristic -fsched-group-heuristic -fsched-interblock
 # -fsched-last-insn-heuristic -fsched-rank-heuristic -fsched-spec
 # -fsched-spec-insn-heuristic -fsched-stalled-insns-dep -fschedule-insns2
 # -fset-stack-executable -fshow-column -fshrink-wrap -fsigned-zeros
 # -fsplit-ivs-in-unroller -fsplit-wide-types -fstrict-aliasing
 # -fstrict-overflow -fstrict-volatile-bitfields -fsync-libcalls
 # -fthread-jumps -ftoplevel-reorder -ftrapping-math -ftree-bit-ccp
 # -ftree-builtin-call-dce -ftree-ccp -ftree-ch -ftree-coalesce-vars
 # -ftree-copy-prop -ftree-copyrename -ftree-cselim -ftree-dce
 # -ftree-dominator-opts -ftree-dse -ftree-forwprop -ftree-fre
 # -ftree-loop-distribute-patterns -ftree-loop-if-convert -ftree-loop-im
 # -ftree-loop-ivcanon -ftree-loop-optimize -ftree-loop-vectorize
 # -ftree-parallelize-loops= -ftree-partial-pre -ftree-phiprop -ftree-pre
 # -ftree-pta -ftree-reassoc -ftree-scev-cprop -ftree-sink
 # -ftree-slp-vectorize -ftree-slsr -ftree-sra -ftree-switch-conversion
 # -ftree-tail-merge -ftree-ter -ftree-vrp -funit-at-a-time -funroll-loops
 # -funswitch-loops -funwind-tables -fvar-tracking
 # -fvar-tracking-assignments -fverbose-asm -fweb -fwrapv
 # -fzero-initialized-in-bss -m32 -m80387 -m96bit-long-double
 # -maccumulate-outgoing-args -malign-double -malign-stringops
 # -mavx256-split-unaligned-load -mavx256-split-unaligned-store
 # -mfancy-math-387 -mfp-ret-in-387 -mieee-fp -mlong-double-80 -mmmx
 # -mms-bitfields -mno-red-zone -mno-sse4 -mpush-args -msahf -msse -msse2
 # -mstack-arg-probe -mvzeroupper

	.text
Ltext0:
	.section	.gnu.lto_.profile.f438e2e2,"dr0"
	.ascii "x\234cf```c\200\0F\206m\254\35L\0\4\233\1P"
	.text
	.section	.gnu.lto_.jmpfuncs.f438e2e2,"dr0"
	.ascii "x\234\235\224\275OSa\24\306\317y\337[Z$\241\233\3K/C7G\215\206\311\30\33\377\2\6V\240M\232H\233@M'\322\216\272\340\342@\202\32\10\204\26\371\320\2\226\252\320\372\201\337\212\226\17\35\30\254\223.\16\246\203"
	.ascii "6\204\340"
	.ascii "9\247\267\213\271/\271\332"
	.ascii "4\267\275\347y\236\336\347\327{\337W\203\373\353\246\17\340\34}\372A#\242\5\220A\0~\363\251\37"
	.ascii "1\203\352\247\302\333;cKj\364 {5\33h(8T\24\300Y\34\5\255\323\364U\247\221\17"
	.ascii "4\365\261\371\340\372\330T \204\267\262\343vC!\320db\272>\321N\361q\216+\314a\210\362y\312\3p\240t\370\273\34\10\235m\6"
	.ascii "4\7r\265k\225`+`\341\234\4\356P\200\355\265Z\371G\307w\325P\276~\300y\354\342"
	.ascii "2\246\222\13|\21\243\272\310\277\250\20uF\250\335l<_\"[\363_\341\24\264\254"
	.ascii "3\325/U\315=\332,\300\273\324\303\33\375=\201)x\247_\226\300\212C_\230\332\377%W\365u\2\256\232\351\271\345}#=\253ER\375\307\323\23/\256\271\320\377\3nI\332?\360\216\373P\2\217\34\334\355\372\215|\363fw\3\256\233q\271\351\206\21\227\325"
	.ascii "2\251\35\26=\325(\17\276\253O\323\274B>oh\217\245\351\23\357hO%\360\314A;*~\376\212\202v\32p\323\214\306\245\236\33\321X}AjP\320\202|p\365\321\322\306\227\344\263\376Z\262:\255\275\256\333WR\377\265w\336"
	.ascii "7\22x\333\342\375"
	.ascii "6Y\351\24\336>\300wf^n\372\336\310\313\352\26\251'\235\15\312\235\226v5\374\360\337\33\324G\351]\365\16\272-\201\35\7t\263\272?\337&\240\223\10\270k&\345\226{FRV?\261z\346b\344B\357\245\36;<\322cG\22\251\350\260\35\273\222\30H\305\223\11\236\235\17\17\332\227\343\211\350);\226\34\266\351$\25\37\212\236\340\205\372\7<\344\314\205"
	.text
	.section	.gnu.lto_.inline.f438e2e2,"dr0"
	.ascii "x\234\275\221\275\15\302"
	.ascii "0\20\205\337\235\35\14JB\250(\"\241P\360#\1\22"
	.ascii "5Kx\13(\230\202\21R\321!\245b\0\26\240\244e\1$\312\264\224t\330"
	.ascii "1\211(\242@\205]\234\317\326\373\236\365N\240~-\331U\5tb\"&@\230\266\225%\14\276F\322\276\211\0\240T\263_\24\302dJ\202\327\17\246\313!?\311\234\237\254\10t\244\30\274q\305R\342\373\326ad\226\364,\246\320C\206hC\244\332\356V\4xH5\360\246\27V\316\17\214\325\216\211\315\11dy\213\375YU\377\12\20\224\304R\372\331\244Z\206\346\346\246\252\336"
	.ascii "1\33\15\325\277\15}\14\7FT\5Ue\324\250\212"
	.ascii "0\236\327\252\274. ]\260_\242\355c4\253E\230\341\374"
	.ascii "4\33\274\0\377"
	.ascii "1?\264"
	.text
	.section	.gnu.lto_.pureconst.f438e2e2,"dr0"
	.ascii "x\234cf``\340g\200\0v\6\11\306H\246(\366(\356H\376H\261H\0\20\374\2\204"
	.text
	.section	.gnu.lto__ZN3stk6cipher9cript_ROTEPvjj@12.part.0.f438e2e2,"dr0"
	.ascii "x\234\205\224\337O\333U\24\300\357\271\367\333o\277\245"
	.ascii "0\246\217$F\23F\340\301\350_`\314\"#\32_|\360q\311\327\312\17\267"
	.ascii "8\31\16x\330\3\331w\245\300\314\242"
	.ascii "4\335\314\300DS\327\260\37nR\231\3\4\346\254\260\261\12n$n\302@\4\346\206\31\233\311:[\327"
	.ascii "5\254\303s\316\267ee6\261I{\357"
	.ascii "9=\347s~\334s\257\22\377\375\274\210_\320\205h\241\325!@\363_\301\215\6\222W\11\212\326\375\206\2\240\215\0\261O\223\12\366\301\212\274/\301\37"
	.ascii "9\325\345.\357\261,+\366\367\340\303b\353\360;))D\\\332h8\6\345d\364\351\354\250R\317\201\300\375Po\342\262\373\266LIx\201\304\341@\264K'Qj$\36"
	.ascii "9w|\321U\26\262,o\344@\253\366z\12\3\35\7\205"
	.ascii "88\1%p\22J\4\252\4|\5eh\334}\360\352#\207*g\254"
	.ascii "7\226\354r\242\243\337\33\31bG\15N=\355\250\11"
	.ascii "8\315\216\355\177\6B.\365"
	.ascii "2;\376e\35\366\272l\307\225\214\343\327y\34{\241\214\254\357\373\322"
	.ascii "3n\335\207\345n\266\213\204"
	.ascii "0\350 DAZ\212\264\204\264\244\236\264\305\246&\212\324+\214\37\34\356\376\310(\375\22\13Z\372\355f\273aE-\337\322\332\332\363)\351\200o6\206\311t\254\17J\321\355\361\257\221\307\240\252\30\361\373\205\221n\7#\202s\255Z\16\340L^\300\267\14\270\226|pRSo2`q\345\237\273N;\207\331Pn\16:\234\315\213\350gD2\261zM\251\267\31"
	.ascii "1\371\307\303x!\237\332f\22?\233YN(>5I\342\301\217\333\347"
	.ascii "7Q\0+x\375\246:\221\305;a\300\306\17\"\376\273'\370!\306\37J\257$\12\325v\306\267\205'.\202\15\230\332\0\30\316\13\30a@\370\366\331\201b\365\36\3\"\313\213S\272]\342\304\330\0\370\255\240\327o\255\255\275\12T\344\271\274E~\317\220\243\207f}\206jfH\360FO\237\306\220\310jN\243u8\237\27\360\3\224\206\237\265"
	.ascii "0J\362\350\214V\0@3\"99\205"
	.ascii "3ch\364\343\300\37\227\316\35\25w$HqW\2\371Jq\17"
	.ascii "7\220\300a\26\342\26\16\22]\255[8h\270\252e\354*\255\323\340}\206\362\212yCw\34\25\307\250;\223m>\15R\354\305"
	.ascii "9D\240\202.\203\310\232\6\246\3\341b6\265\374~\215&7c\370#\32\236\316"
	.ascii "1|\302\264\15\327\211\243\31\342\34x\257w\34\231\32so\234z\252\232ZGe\322ARe4r4\267|\31\20"
	.ascii "1\6zR\312$\26"
	.ascii "8\215\317\7Jd\214\32\12\36\351\353\330\302*{\10\322\363\13\245\333^\303\223f\7"
	.ascii "6\26p\1\266Q\370\205\216+\237\237\7\233\246\310}\16Z\3\272-k\250\202-%\266\331\317\31\245\3\365b\36_.\226t\304\177q\365\223^\331\262j\35\260\214\224,\210S\357\341\"\264\10\264MI\367zz\375\224\236\316\351\365w\214sH\256\11{\301\312\301K\367X\271\241o\261"
	.ascii "389><\14\231m\335"
	.ascii "8T\320u\35\213\206\234{\223l1\362hS*\247\260K\260"
	.ascii "7\33\363\177PQF\215w\6\177qV\216\346\240\370\34"
	.ascii "1\216\315\373\11*\327k\260\337\215\7\235\355\235\305U\225\364:\320hD\263\226\23P\205\235\361-\365\364\336P\254y\272"
	.ascii "9\205q\12\16\223\334\34=%\213"
	.ascii "0\213e\234\12\232\303\5\330\277\324\23\267I<\256@j4/\251\336\331\260\243v\317\366\306\246\367M{kn}\353\215\227\252\33\32\204\313c\326"
	.ascii "46\231\15M{\234\36\263zws}S\221\307\334\341i\334\265\333\226\14\374\247\306\254\255\257\321hc\274\333\\W\307\306\274i\374\260\200W\333\317"
	.ascii "4\353v\356\252"
	.ascii "5\353=\37\324\232\246\221\221\314\177\1?\207"
	.ascii "2 "
	.text
	.section	.gnu.lto__ZN3stk6cipher9cript_ROTEPvjj@12.f438e2e2,"dr0"
	.ascii "x\234\225ViLTW\24\276\347\276\231\367\336\314\260\271\241\245Z\246\241\4\223"
	.ascii "65\376h\232\230"
	.ascii "4]R\323"
	.ascii "6\375\323\37\355\277&Sd\251\264\12\224\345'\365\261H\264ZKQ#J1X*b\265R\5Q\20a\334\25\27\252\240\16\10"
	.ascii "2\312\"\210\13:T\234\342H\317\271of:\"\323\246\223\274\345\334w\276s\277\373\335\357\235y\22{\376W\210G\224\231\261\375x\205\20\6\274\350\2c\271*\347R{$\323\314r\343\233L\13\221\270! 2p\13c\253T\243\236i\4Y\277\221\271\322e\301$\265\366(\303,\5T}\\\345\346\266\271"
	.ascii "8n:\274\20\207M`\246a0\3\320\225Y\30\260\25\\2\30eE5\231-\260\2\206\370\3\16E\366]%\226\270\355\232\246\215<<\360"
	.ascii "8\\\333\360\205\233"
	.ascii "3\346\342:i\250\204"
	.ascii "8J\332\330qT\222\346\1\303\373\372=\243\347-\203\334\315\301JaC\361\351\22\231Bn\240pS\343\216\36Sl\205\246\345\331W\345\33>ts\11v\200\204\345\240\12\242`'D1\34b\360+\304b\362\346"
	.ascii "5mO\214R\234(\233"
	.ascii "72V\242 \260(\317^/\200\6\330"
	.ascii "5\31h`\260[\0\13\7\212+L\322\2\1\274\243m\310"
	.ascii "3\351\300!/\360\267)\200{ \226\262\37\24x\256Z\344\2\\n\204\276H\250\6\31\30\223<\234y\360"
	.ascii "1\207\352\301\332\272p\351-Q\333\336\337\323*\307l\303\325"
	.ascii "8[\216\325A\221V\236W\244ML\274\15nn\204\337\237\235\305+\330^\210\251\236n\307\244\232\276\37\317\315\177"
	.ascii "5\22\304\220\1I\310"
	.ascii "2\236\24\25O\252\11O\246P\12\303\350"
	.ascii "4\15\210\336L Yf\1\255\221\335\346 \261a\16T\222qv\37\357`\224\23\341><\321\206\366c\204W\251\23\362\36}\267\251\245\367+\344\373\363\372\216\2U\372Xp/\277\261}\257Ap\267\217\347\33Nk\5\316\211\211h\342\275o*\336\10X\357\31\32\15\221>\25\340\263"
	.ascii "7\37\273B\304&GP\270\345j\377\250$6\231S\270\262\272\345\4Pi\315\331ZqR\321\252|\305\315P\253\27\337\217\305\353\2\213\217\215\216\267K\222M\24_\363}aW\230\200\227;z\245\0\360\301 \340\366\261G;\15\322\227\2\334"
	.ascii "3\364\347\260\"\226U\336\361\314\262\32\202,\353\351e\373S\220\322\5\270\373\370\241\315F}?;{\13U\315\17\267@c\20\370\312\221\326\226P)[\300\17"
	.ascii "4l^\255\352s_\13\230\333\2MA\300\1n\363p\257\305\240\6b\310\22p\0\217z<\16\341q\30\217f\210\21n\304\35\267\203<\306\15X`k\333\272=<g\\[\245\251n\36\342A#\13\15\372Z/\252\264\35F\21V\345\26\374\4eP\232\213\373\201>@\247\301\21\310\201\243\304\4\216\341\23v\31\12\34\322?Us+\17\255U\10\37\212\11\307\275\204\373\361\275l\217\224\272\240`\276\236)O\236?\314E~\204\23\220\303\376\233Z\210\10\377\252\330\30\252"
	.ascii "3\303\244p8\211\264N\321|\364hm\303I\23\342\11\15\247\221%\315\312\340\14\344\270y\4"
	.ascii "1\356\360"
	.ascii "2\226!\306\307\320\300\316\310\310\320\373@\235\314b\232\213\336\20hA\202n>}\200\330\366\243F\210\301\227\344\222\254\243L\10d\30\27\213\11\261\304\251\375\217\252d_\211\31\36\256o\235_\243\31\",o\354\352\6\377JLp\26WrN\10|\36\207\261*\363\11\367\234"
	.ascii "63]\250,\203\13\377&\333$\235Z\203\351\364\207_\247\213\244\323,\241\212,\372\300\25\310\323\312\314\364\220\34\206\300\353"
	.ascii "5\216|S4/\323J\254n\36I\245F\232"
	.ascii "75\1\226*\241b\263\341\22D#\257"
	.ascii "6\344E\330\356"
	.ascii "0\201\335+\260\27\267T\346\207\13\207a\337iG&\224\321<# c\340\326\326\355\242\357\313\231T\332\365\244\260\303\277,#\\\26\322\\\321KG0/f\312\244\253\230D\376\314\257\214\363n\310T4\251\205T8\207\201f\224\24\12\253\35\273k\303I\263\"J\223\301\201\232ux5[\237[w$\324W\301\10\235\364\16"
	.ascii "0\270\206\31\355~\267+\254\313\"Dk\233\35\260\254)%\352B\212\4Q}B\353+\32C\203\221\221n\334Stk\205Nv\323\34\17y0\320Ms\246p\223\2\335\310\354\272P\243\207\250vB~\261\327\255aX\25^\211\22\363l\273\257LeY\377$\223\253:\375Uo\10\217\206\241G\347Li\321\27\\\344C\270\251[t\374\207u\333\324\350ou\343D\321Hi\205\253\324\344S\345E\350\205h\335\204}\220"
	.ascii "3&\376"
	.ascii "4\17z\36"
	.ascii "7\251\321\265\240c\346\22f\207sus\270\17"
	.ascii "3\17\372}\230\1\310\301\247Ng\323]\361\25\241,ap\13\242\220\235\233\277DF8\237_\263\316\373\202O\243\245\226\15\356"
	.ascii "3Pb4:qP\337\275\1\200\340"
	.ascii "6\231\354\213\241\340\276\270\255\373b\30r\344`\5\341\16\344(\273\353\177Y\200\333ob\207\27b\367)\214\20]z\262\206V\27\265c\270\213\32\216\361\231c|\26\362w\363\227\205q\314\302"
	.ascii "8\327!\327^z\212\13\31\304"
	.ascii "0~\335I\16\310\215`\364\317\216\375\243\312\361\320\21\25\254\207\320\377\302\275\377\321C\356\7\353!#\376\36\362@\357!}\200\37C >-\200\210b\7\214JHI_\232\224\361yf\326\327"
	.ascii "6\375\326\366\356'\37\275\236\220\236\316L\361\266\304\314,[zV\206\22oKH\313N\315\12\215\267-\215\317\\\226\346\215l\266\344\224eI\266\324\370\345I6\233\352\215l\346%\331\311\311z\206\"n3\277Q\305\25\13\31\360HT\351dKJM|\343\375\305\357}\366\301\"kl\346\"\353\342\324\254\244\14krvjBVJZ*\215\275\23\233h]\226\222\232\364\232"
	.ascii "59-\303\212AV\312\362$3}%\375\15\21\244\322\234"
	.text
	.section	.gnu.lto__ZN3stk6cipher9cript_MTFEPvj@8.f438e2e2,"dr0"
	.ascii "x\234\235V}lTU\26\277\347\276\231\367\336|u\246\242P\272\330\16\226Z\277\322&&f\23\23\23\335\254Q\377\333\177"
	.ascii "6\331?LF\2\203"
	.ascii "6\332B\312h\214f\342\353t\370XA\254(K\327\2R\273@\375\2\221\202Z\21\246(\37b\371(\265\330\"\320A\351\10\242P\234\302"
	.ascii "0-\245\236s\357\233a:\314\260\331\235d\336{\367\336s\316\375\235\337\375\335{\256\302n\374\355\307\377\343.\306:\360\15\205\14x\343A\306\352u\316\225\357&3\303\256n\377"
	.ascii "33\234\12\267d\264,\334\315\330b\335*-\255\240\312\17\225k\307\35h\244\267\357bh\245\201.\373u\356!s\233l\331\300!?\354\362\243Swp\373\322\275\350aw\206"
	.ascii "5\364srW\363C\330*\270\344\301\226\13\12\244y\1\0}07\363"
	.ascii "0`\257p\305bU5\335fw8]\5n\17\274\302\35\14\306\361\347\26Y\235\345\27"
	.ascii "94F>hrT\254"
	.ascii "3\14c\350\223\326:\343\255\247\222\234\261"
	.ascii "8\227y\303z\250 \233\25\375\273\24\345v`\370\375\371\306\341\3\216"
	.ascii "3<\311\301K\315\216\345\373\232Tjr\13"
	.ascii "5Wn\337"
	.ascii "0`+o5\214Pdq\203\345\361$W`\3(\30\16\332\240\30\336\203b\206]\14\336\207r4\376\367\222\236\253V\245B\204\15\15%\232"
	.ascii "4tl\14E:\204\243\5>\310v\264"
	.ascii "0\370\20\312\311\372bx\354{\207\32F\320\36\211\25>\2\25\30\263\214q6\206\303\34"
	.ascii "6\235i\337\346V\252D\354\310\340\300!\265\254\5AE\327\264/\321\215}F8:>^\232\344V\330"
	.ascii "8q\16"
	.ascii "3\353MP\206n\13\206\16\355w)\17\211\20\207c_\36s\311\20\357\367=\34\11\277k\\\33\37\207$W\341\343\234\21"
	.ascii "6C\331\246[\"\306\370\370\226e\235/\224\201\10\311E\336\32&\242\331\360\241;\360as\342\303\356\241f!=&\3\331L\1J\264H\204\231\212\335\16\312^\237F\236%\"\310tA\343/\\\325\330"
	.ascii "9\16"
	.ascii "4!\276\25|qv\236[\31CHp~s\333k\377\300\246\312\230"
	.ascii "5NF\12\273\200/\30\346\374\2\347L\31&\7v\32\331CE\15bOXS\216A\350\362\253+\327\34U1\345w\337\354\17\353\312\263\"\375\265\247\326m\266\210\364#\243\15\226\14\376>\311\225=:|\263d\335\210M\11\10\347\315\27\33Vj\222\273\266#\310\335Z\223;'\264\347\361\276\326\33\271\6\312\213\302\373\243\376\341"
	.ascii "0H\357\367&2\277-\217w\206"
	.ascii "8\306\270\251\10\330\2e\264\6\260\25\377\237\342\37\231\25\242A\316>\3"
	.ascii "5\301"
	.ascii "5t\\\323\263l#\17\216\32\213\15=\311]cD$\366\16\234>\324\255\223\302e\263\255>\274\12VCs\275aD\221(\\\22\370\34\202\320A\10\340\13\34a\275\20\356S\256G\255_\377\305R\215\374\35h\260\335\4:\210\344/\340\312q\10\337%-m\331\363\27\304qI\30|\11A\366\337\241\271Ds\244u\205K\"C#7\354@X;i>\32Z\332\261\307\206\376\344\15\21DI\263"
	.ascii "2\350\204`\22\17\36D\334o\"\266AY\12\241\205u1Dh\16"
	.ascii "8\262Q\24\306\205\342v!\300$\277%F\12\33D\\\350\203*:\242J/':2l/\27\23b\210\275[/\267\251\251\20\223\306\270\\\262"
	.ascii "4G\223Ds\355\366\343' \235\211\35\276\302L\276\26\4\357\306n\214\312R\304\335\300\315\255q\304\315`\317\315h\313\342io>\236\366\245y\372\206x\272M\260\242\322>9\12!c\265\235\306HX\350wrK_\203\255\224\257"
	.ascii "6\232\274I>\231\"\15\355\\\211\13"
	.ascii "0j4Q\254)\260\37J\21\326\267\10\213|O\24\10_y\316t\277\275\276\301-\4\206\273\263\13\201\220\305\316I\31\26\261\237\327\254\23\207\254"
	.ascii "6\237B\307\257.\354Oge\205\3\202\231\203"
	.ascii "2\264'uz\345"
	.ascii "4:\204F$\317\206\365\25\346z\344\202\211\335\211\326\350"
	.ascii "9\240\31\25\215\232\233\372>lw\23e\215d\246\301a\244\254\333\244\354\315\372m\235\256T\4+\34\241-\300\240\7-\272\322b\327\330\"\20\244\365L\311H+'E\337!Dr\321M\236eB\11\224\27\311\350\324yM\12\313\223\255\245\242"
	.ascii "1R`\246\226\212rhI\207^\4vT\220\361=!=\6\15\313M\255\26bT\230Q,\346i\271\240\345\22lz\222\354\250}\351\250\375B\241\205\250\320\242\234\2\235\32'\25\302"
	.ascii "1)\320\321\327\227\265\350\245A\251\233b\352in\215"
	.ascii "7\333R\244\374\11~\200R)\301\343\20L\210\312\366\331\330\225\35z\351\26\220>\323\310gC\364\237;\335)\237\333\341D\312\347$\4\351\374m\371!\241\20!z\1\203\1(FtI^\202b\341f\212+\214\330\323x\302"
	.ascii "6\206\242\315\377z\344\372\371\\\232]\201\315\332\26\25\213\367\237\356\201n\21\325\213e\371\24\216\342\226\214\256Zx\0&\234\300\321\5\257\336G\16\342\224\215s5\273x\303\217\342\10\376\211\370\237\236M\325\364"
	.ascii "8J\215\14\340"
	.ascii "4\262E\223$\371\35"
	.ascii "4\217''\263eq\24\15\203A\264\305`I>#\206'h\14 \277\312\263e\35\313/\353\237\245\254\317@P\315\27\20\316BP\373\265u\204\243zm\246z#\335Q\301"
	.ascii "2\325\35\4E;4\322sF\34\251T\206\22xV\240\2\233\26\36\15= EX\204]\11>%\265:T\247\22\244d\214igx\3\224%\372r\310&\315\247fV\1U\0\337z\345\235\337\350x\303\25,Op\16\277\10Y\236\223b\17\235\\\324e\221\256\250\203\251H\246U\266\246e\263yg\34\223`\360\253d\23\315\223\274Bn\215rS6\251\211p\17D\212'L\366\233\330\3\323dj\261\373\345\14%4~wq:3\221~\211\310\314\301\360\326jnv\321\315\351\224\352"
	.ascii "2+\17\227\4\340R\342\327d\333\252\335\30\251\304\336\345GG'\321L\325\253\341\334Y\220\326\323"
	.ascii "3\31q\"\230\363\351S\310\305:\255Tr\333\16\253"
	.ascii "9\5tW\34"
	.ascii "9fp!%\240\273"
	.ascii "3\366\310\33\213\16\366;\225\255 \356$\227F\266\355\260\313;\311\204\35\243\300P\316\35sQ.>\355\220\325{z[\264\211[d\367"
	.ascii "2\27Y\230[\304q\303\26\371]l\221x\16\300\367\304\361\22E\303"
	.ascii "0\234\302|o\214\277L\271\26\20"
	.ascii "3'\241>\222\260\310k\16u\342\265_\351\203z\17\303; \241i\353\333\333\13\371\312(\336)\340\322\377PF/\347+\243\211t\31\275\"\313\350i\240\264\4\"\317uD\212,_\377\7\275\311\233\322K'P\362&\364\216\10zG\363\321K\303p5\203\336\227\4|yw\6d\31\257"
	.ascii "0\305\263\252\347=\343\257{r~\340Y\237\374\364=\362\267'*g\315\233\307l3}\263\347\7|\363\2u\332L\337\254\271\317\327\6\\>\337\234\352\347\374\276\332\231"
	.ascii "5~\237O\307\221\331>\177\355\354\31f\214\312\252\312\312\252\200\377\305@\225\370\252\361\327TQX|W>\303t\323\327\247\324\4\346X\310\365\201\277>\372\227\277?\366\240\267|\376\203\336Gk\3\376:\357\234\347kg\5\252\347\326R\337\303\345\263\275\317U\327\372\357\363\316\231[\347\305F\240\272\306O\32g\326\231\204\351\17L\234\346\275"
	.text
	.section	.gnu.lto__ZN3stk6cipher11uncript_MTFEPvj@8.f438e2e2,"dr0"
	.ascii "x\234\235VkpTE\26\356\323w\346\336;\257\314D4\204,\222\211!\306W%\177\334\262\326*\253tk\255]\377\355\237\255\362\207U#\5\203\246"
	.ascii "4\201\12c\225\245"
	.ascii "5\345M2\200+\254\233E\331\304\5\24d\3\301\7\210\4D\14"
	.ascii "0A\345ex$\30L\20\310\240$ h\10\336\300"
	.ascii "0\11!{N\367\235a2\314\260\265;Us\357\355\356sN\177\347\353\257\373\264\302n\375\35\304\377S\36\306v\340\33\362\31\360\306\303\214\325\351\234+\337\26"
	.ascii "0\303\251\266?\302\14\267\302mi-\33\367"
	.ascii "2\366\272n\227\226vP\345\207\312\265\223.4\322\333\366"
	.ascii "0\264\322@\227\375:\367\221\271C\266\34\340\222\37N\371\321\241\273\270s\351>\364p\272#\32\372\271\271g\305c\330\312\273\342\303\226\7\362\244y\36\0}0/\363"
	.ascii "1`\257q\305fW5\335\341t\271=y^\37\274\306]\14&\360\347\25Y\375\304/sh\214~\330\354*o1\14c\370\207s\265\306\333\317&8c&\227y\303:('\233\345}{\24\345n`\370\375\371\306\221C\256\363<\301\301O\315\35\313\366"
	.ascii "7\253\324\344"
	.ascii "6j6\265\257\357w\224\255"
	.ascii "5\214\372\350\33\15\266?%\270\2\353A\301p\320\12E\260\1\212\30v1\370\0\312\320\370\235%\307\256\333\225r\21\266~8\336\254\241cc}\264]8\332\340\303LG\33\203\217\240\214\254/G\306\277s\251\21\4\355\223X\341cP\201"
	.ascii "1\333"
	.ascii "8g\343"
	.ascii "8\314a\323\371\266m^\245R\304\216\16\364\37QK\327 \250\330\201\266%\272\261\337\210\304&&\212\23\334\16\33'\317ae\275\11J\321m\341\360\221\203\36\345"
	.ascii "1\21\342\350\340\316\23\36\31\342P\357\343\321\310\373\306\215\211\11Hp\25>\311\32a3\224n\272#jLL\230\357u\264C)\210\230\\$\256a&\232\3\37\272\13\37\16"
	.ascii "7>\234>j\346\323\243\0\310f*P\246\205\"\316"
	.ascii "4\354vQ\372\372t\362\234!\202\224\10\36/pUc\27"
	.ascii "9\320\214\370V\360\305\331\20\267"
	.ascii "3\206\230`hs\353\337\236\306\246\312\230\335$#\205]\302\27\214p~\211s\246\214\220\3;\213\364\241\244\6\260'\242)'\240\376\352\33M\7\216\253\230\363\373o\365Et\345\5\221\377\352"
	.ascii "3-\233m\"\377\350X\203-\215\300O\263\245\217\16\7\226\264\214:\224\220p\336|\271\241I\223\344}\323\215\344\255\266\310sC[\16\357\33=\321\33\240\274,\274?\356\33\211\200\364\356\234L\375\266\34\336i\352\30\347\226$`\13\256\2\256\1l\305\377g\370Gf\205j\220\263\355\240\306\271\206\216\357\36{s#\17\217\31\257\33z\202{\306\211H\354\355?{\244K'\211\313fk]d%\254\202\25u\206\21C\242pI\340s\10\303\16B\0_\340\10\353\201H\257r3j\335\272/\226j\344\357B\203v\13\350\0\222\277\220+'!r\237\264td\316\237g\342\222"
	.ascii "0\330\11a\366\337\241yDst\355r\217D\206F^\330\205\260v\323|4\264t\307^\7\372\223"
	.ascii "7D\21%\315\312\240\3\302\11<y\20q\237\205\330\1\245I\204"
	.ascii "6\326\311\20\241"
	.ascii "5\340\312D\221o\12\305\355A\200\11~\307 )l\0q\241\17\252\250[\225^ntd\330^&&\304\20\373\266^mU\223!\246\214s\271d)\216\246\210\346\352\366\223\247 \225\211\23\276\304L\276\22\4\177\215\335\30\225%\211\273\205\233;M\304\315`\357\355h\313\340i_.\236\366\247x:@<\335%XQi\237\34\207zc\225\223\306HX\350wzKo\203\243\230\257"
	.ascii "2\232\375\11^@\221\206w7\341\2\214\31\315\24k*\34\204b\204\365\15\302\"\337Sy\302W\36"
	.ascii "4]\377Z\327\340\25\2\303\335\331\211@\310b\367\224"
	.ascii "4\213\301s\357\266\210SV[@\241\315\353\213\372RY\331\341\220`\346\260\14\355K\36_Y\215\216\240\21\311\263a]\271\265\36\331`bw|m\354\"\320\214\212F\315M\275\37\265y\211\262F2\323\340(R\326eQ\366V\335\266\16O2\202\35\272i\13"
	.ascii "08\206\26\235)\261kl1\10\322\216MMK++E\337\"Dr\321-\236eBq\224\27\311\350\314\220&\205\345\313\324R\341"
	.ascii "8)0]K\205Y\264\244C\17\2;.\310\370\216\220\236\200\206e\226V\363"
	.ascii "1*\314,\22\363\254\271\244e\23lj\222\314\250\275\251\250}B\241\371\250\320\302\254\2\235f\222\12\341\204\24\350\330\337\337\\\243\27\207\245n\212\250g\305Zs\205#I\312o\340{(\226\22<\11\341\270(m\333\307\257\355\322\213\267\200\364\231N>\353c\177\335\355M\372\334\15\247\222>\247!\214\243\335\346\333\255\242d\353%\14\372\241\10\321%\370\14\24\13\267R\\n\14>\207'lc}l\327?\237\270y>\27g\226`\253\270\305\304\342\375\273\253\277K\241\250~\254\313gp\24\267dl\345\242C0\351\4\216\15,{\210\34\304)kr5\263z\303\17\342\10\376\221\370/\311\244\252\304D\251\221\1\234E\266h\222\4\277\207\346\361ee\266\324D\321"
	.ascii "0\30@[\14\226\340"
	.ascii "3\7\361\4\35\4\310\255\362LY\17\346\226\365"
	.ascii "9)\353\363\20Vs\5\204\237 \254\255\334"
	.ascii "0\312Q\275\16K\275\321\246"
	.ascii "3\202e\252;\10\212vh\364\235+n\321\365\31u\25\220\2\233\27\15\265\375N\212\260\20\273\342|jru\250N\305I\311\30\323\311\360\12(K\364\341\205\16i>-\275\12\250\2\370\326k\357\375B\307\33\256`Y\234s\270 dyQ\212\275\376\364\342N\233tE\35LC2\355\262"
	.ascii "5=\223\315{ML\202\301\317\222M4O\360r\271"
	.ascii "5\312,\331$'\302=\20-\232"
	.ascii "4\331/b\17L\227\251\335xX\316"
	.ascii "0\203\306\357/Je&\322\237!2s1\274\266Z\233]ts:\245:\255\312\303%\1\270\224\370U\340\350\334\360\34\372"
	.ascii "9\257W\241\243\233h\246\352\325\20\277\0\322\272$\235\21"
	.ascii "7\202\31J\235B\36\326a\247\222\333zT\315*\240\373L\344\230\301\245\244\200\356O\333#\377X|\270\317\255l\5q'\271"
	.ascii "2\272m\227S\336I&\355\30\5\206\263\356\230\313r\361i\207\254\332\333\263F\233\274EZ\232<dam\21\327-[\344W\261E\314,\200\37"
	.ascii "0\361\22E\303"
	.ascii "0\222\304\374\340 \177\225r\315#fNC]t\247]^s\250\23\357\375J/\324\371\30\336\1\11M\353\366\356\36\310UF\361N\1W\376\207"
	.ascii "2z5W\31\215\247\312\350"
	.ascii "5YF\317\2\245%\20\371n\"Rd\371\372?\350M\334\226^:\201\22\267\241wT\320;\226\213^\32\206\353i\364\276\"\340\313\273"
	.ascii "3 \313x\205)\232]5\377\371`\355"
	.ascii "3\13B/\4\344g\340\211??U1{\376|\346\230\25\230\263 \24\230\37\252\325f\5f\317{\251&\344\11\4\346V\275\30\14\324\314\252\16\6\2:\216\314\11\4k\346\314\264bTTVTT\206\202/\207*\305Wu\260\272\222\302\342\273\342y\246[\276\1\245:4\327F\256\277\375\303\223\277\377\313\37\37\365\227-x\324\377dM(X\353\237\373R\315\354P\325\274\32\352{\274l\216\377\305\252\232\340C\376\271\363j\375\330\10UU\7I\343\314>\213"
	.ascii "0\375\7\27\333\351\276"
	.text
	.section	.gnu.lto__ZN3stk6cipher9cript_XOREPvjPKcj@16.f438e2e2,"dr0"
	.ascii "x\234\225V[L\\U\24=\373\334\231\373\200\16P\252P\321\206I\220`\214\261?\32M\23\215\32\253\365\317\17\375\323\214\23\12)\226W`\372"
	.ascii "9\351\35\30\33\264M%<\2Ji\212\4\212\322\202-\17[\212"
	.ascii "0\255\332\322jK)\224\227<\25\260\266\304\322LS\34\351\4\367>wf\244\323A#\11\367\336}\316^{\257\263\316:\367\216\304\36\376\313\301\377\335*c\25x\207(\6\274\364\12c.\225si(\201\351Qr\367\13L\337 q\323\232\310\304"
	.ascii "5\306JT\263\221i\6\331x\220\271\342\215\303$\265\366%LR@5\206U\0z`\32\3\266\227K&\263\254\250\32\354\205\337\371\35\16\245\236\346\352\350\264\6]\327\227\312\216"
	.ascii "7\203^\361\201\217"
	.ascii "3\346\345\6"
	.ascii "7h\204"
	.ascii "4J\252\34;'I[\200\341\363\351\226\273\227\243op\37\7+\205]e}\325"
	.ascii "2\205\334DaU\367\321i-\265^\327\213<%\305\246\35>.\301Q\220\260\34"
	.ascii "4A\22|\11I\14\207\30|\5\251\230\374\331\376\301\373f)M\224-ZZ\256V\20XZ\344\351\22@\23"
	.ascii "4\207\3M\14\216\11`e\317UW\264\264U\0\7\33\17\275l4\234\26"
	.ascii "83\34\17\307\231\31\264\10\334\276\205\262zMzQ\340\26\365\212\"\315hX\375\221\321\260"
	.ascii "5B\303\257!\225\262\357\270\375#\321\262\33e\212"
	.ascii "3\304\201\23 \3c\222\237"
	.ascii "3?Nsh\275\321\336\31+\275!j{\346\247\373\345\224:$5\263\330\276_\325\373t\367\314\352j\262\217\313p\362\301\36\1\231\333 \245"
	.ascii "5\336\243\257\256\266u\314\316=\15\33A\14\231\220\202\"\343EU\361\242ix\211\262P\30C\27v\223\203\304nq\240\2\214\263\333\370\4w9\221\233\303\13m\371<Fx\227\306\241\350\336'U\213\303"
	.ascii "2r\373\242|\314\255J\357\10\236Gf\33N\230\4O\317J\261i\15\313\366H,\37\224\301\317\3k\207\16H!\266B\22\244\322\11\362"
	.ascii "27a\362\341\301\203-\334\271\242\227\350\252\217G\373QM*1=\327?\240\222ad\21"
	.ascii "6\271\334\207\240\26j\\\272\356i\226p\275\360\15"
	.ascii "8\341\24"
	.ascii "5\205\323"
	.ascii "8\301\256\203{T\372\247\250\253\361\314\1\205\340\33"
	.ascii "0\241+\300m\36=5\224 M\200\373)#S\16oo\361\222Np\6\234\354\277\231E\213\360\257\372J\213A\14\223b\240\33i}K\375h\352@\327y\15\361\204\206\36dI]\31\364\202\323\307c\211\361X\200\261\14)A\206&vQF\206\201\11"
	.ascii "5\234E\234\227v\16<H\320\307"
	.ascii "7.\20\333y4.bp\363\256\311\6JC \303\270L4\304\22\27:\356"
	.ascii "5\311\301\22\361~n\354RH\243x\21\36\351\236\230\204\320J\242\340,\256\344\234\20\370;\34\306\252,(\334C\332l\362\242\262\14\276\377"
	.ascii "7\331\302t\372a=\235\316\207t\272@:=\"T\221\205?\207\241H\257\215\242I2\23\2\247\332F\213\265d^\253W[}\374Q*\265\324[\325\3X\252\232\212%@\37$#\257\213\310\213\260\223"
	.ascii "1\2\333&\260\3\237"
	.ascii "7\26\307\12\203\341y\270\204L(\243w\323\232\214\205\337\16"
	.ascii "7\210w\226RH\245\275\367\367\215\205\226%\303\217B\232\237\214\322q,\200\211\230t\31\223\310\237\305\215i\201\15\211D\23\207\227\353gn\1u\224\24\12[G\217\265\307\222f\245\224\246\300\25\324\254?\240Y\271\253\363\254%XA\206\253t\6\30\14`\306\245\220\333\25\346\215\23\242\15&\256YVD\211\256!E\202\250A\241\215\25-\243\301\310H\263\177(\206\265,\341nJ\364\223\7\327\272)1\202\233T\30DfCB\215\353Du\34\212\313\2n\215\301\252\360d\222\350Sw[\211d\331P\223\360\252\303\241\252#\302\243"
	.ascii "1\350\321\315\21-\272\331K>\204Q\303\242+\237\36\254S\223\337"
	.ascii "7\214\363\30\215\324\324{k\264\240*I0\6\311\206\11\307\301\271,^\334\247\374\177\366\250\311\345``\36'\314\321\231\217{c\203\230'\340\347 f\2\234"
	.ascii "8\273\332"
	.ascii "92+6S}\216\301$$!;\37\337\302\246\300"
	.ascii "53\177S5\336\202l\1`};\204\357\377\324\372\373?m\354\377\14"
	.ascii "8\345\365\12\302,8\225\226\321\206\255\270\315\370\273@\32\5W\34\243\17\1\36\353\246\245\17\327;\330fD\376\362?\16\366\257\353\35\354\271\320\301\236"
	.ascii "7\16\366\34\340W\22\304w\10\310v\370ZJJ\317\312\337\225Q\360^\241c\267\315x\264\275\372\366[\317\246\347\347"
	.ascii "3\315n\333Y\350\260\345;\12\24\273-=oO\256C\265g\347\357\260\27f\347Y\354\266]t7\206-6[fVv\206-\327\236\223a\263\251\201\310\366\374\353\333_{\367\315m\326\324\302m\326\355\271\216\214\2k\346\236\334tGV^.\215\275\222\272\323\232\235\225\233\361\214"
	.ascii "53\257\300\212\201#+'#\212\276\230\177\3}=$\320"
	.text
	.section	.gnu.lto__ZN3stk6cipher11uncript_XOREPvjPKcj@16.f438e2e2,"dr0"
	.ascii "x\234\225V[L\\U\24=\373\334\341>\240\303\263\205\212\326\231\4\11~\30\371"
	.ascii "25M|\306\326\372\347\207~\230hFBi\212\362\12L?'\275"
	.ascii "3\214\210\265\251HK\212\5\32\20y(m\261\266\245/\204i\253}i\237P^R\36\25hk\215\245\231\246\343H'\270\367\271"
	.ascii "3#\235\16\32I\270\367\354s\366\332{\235u\327=w$\366\350_!\376\37S\31\333\216w\210e\300\253.0\346T9\227\372S\231\36+w\257d\372\22\211\233\26D&\256"
	.ascii "1V\251\306\30\231"
	.ascii "1 \33\3\231+\336DLR\33^\300$\5TcZ\5\240\1\323\30\260M\\2\305\310\212\252\301&\270\305\357r\250\362t\324\306e\265\350\272>{\375`\367"
	.ascii "2}\373\373~\316\230\227\33\334\240\25\262(\251f\370\204$\255\0\206\343#{\357\235\217\273\311\375\34\254\24\36\255>S+S\310M\24\356\350n\33\327"
	.ascii "2\233u\335\345\331\\nZ\353\347\22\264\201\204\345\240\35\322\341kHg8\305\340\33\310\304\344/>\355{\20#e\211\262\256Y_\255\202\300*\227\247[\0M\320\21\11"
	.ascii "41\330-\200"
	.ascii "5=\227\234qR\266\0\366\265\326\277h4\274%p1\260'\22\27\303`\257\300U\314T7k\322\363\2\367\273\276\335\245\31\15w~d4\354\214\322\360[\310\244\354\273\356\300`\234\354F\231\22\15q`\37\310\300\230\24\340,\200\313\34:o\36\350J\220\326\210\332\236\351\361\213rF\23\222\232"
	.ascii "8r\262\13\252\364FW\225>?\377\22\370\271\14\337=\334%(\364~\310\350L\366`\222w\360\363\312lH\5"
	.ascii "1eB\22\212\214\27U\305\213\246\341%\326La<]\222\200\204L\6R%\5h\217KA\20\376\215\203\304ns\240\302\214\263;8\202{\234hO\341\205\314"
	.ascii "0\215\21\336\245\21p\335\337|\241n@F\326_n\33v\253\322[b\7\215\223-\373Lb\7\236\271r\323\31\335=1?o!\366\7\242\261\177X\240\0\17\252\2\7!\203v!\304B*] \373\270\11\223w\365m\335\313\35sz\245\256\372y\\\0u\246\22\343S\27/\253d%Y\204\355Nw=4@\235S\327=\35\22\352\0\207\300\1\207\251)\34\301\5v\25\334C\322?E\235\255\307\266(\4_\202\11G\203\334\246\321m\375\251\322(\270\237"
	.ascii "62\345\310\366f/\351\4\307\300\301\376\233Y\234\10\377j\256"
	.ascii "1\33\304"
	.ascii "0)\36\272\221\326\367\324\217\226\266\34=\245!\236\320\320\203,\251+\203^p\370y\2"
	.ascii "1\36\16"
	.ascii "2\226!#\304\320\304\316\312\310"
	.ascii "0\270\240F\262H\364\322\223\3\17\22\364\363\244\31b;\215\226F\14>\274+\262\201\322\20\310"
	.ascii "0\256\26\15\261\304\351\203\367\333\345P\211\344\0"
	.ascii "7\236RX\243d\21"
	.ascii "6v\217^\203\360Nb\341"
	.ascii "8\356\344\204\20\370$NcU\26\22\356\21mR\274\250,\203\37\376M\266\10\235~\\L\247Sa\235N\223NK\205*\262\360\347\0\270\364\206XZ$3!pl\377P\271f\341\15z\255\325\317\227Q\251\331\336\35=\200\245j\251X*\234\1\13\362:\213\274\10{-^`\367\13\354\345\235\255\345\11\302`\370>\234C&\224\321\233\262 c\346\306\256\26q\232)eT\332\373\240b8\274-\31~\22\322\374l\224NdAL\324\244\363\230D\376,o\315\12>\220h4q\332\327<q\33\250\243\244P\330"
	.ascii "9\264\373@\2iVEi\12\\@\315.\6"
	.ascii "5\333\346\354:n\16U\220\341\22\275\3\14.c\306\271\260\333\25\346M\24\242\365\245-\330VT\211\256 E\202\250!\241\215\35\371\320`d\244\311?\24\303Z\346H7\245\5\310\203\13\335\224\26\305M*\364!\263~\241\306U\242:\2\345\325A\267\306cUx*]\364i\272\243D\263l\270Id\325\201p\325A\341\321x\364\350\362\250\26]\356%\37\302\220a\321\271\317\266"
	.ascii "6\251\226\367\14\343<F3u\315\336:-\244J:\14\203\305"
	.ascii "0\341\10"
	.ascii "8|\342H?\34\370\263G\265l\3\3\363"
	.ascii "8a\332&>\351M\10a\236\200_B\230Qp\340\352\374\215\306\336x\22D}\207\301"
	.ascii "5HGv~\276\2\11~\354\361U\254\214J\362I/\276\313\14\306\220\244\217'\371x\262\217\247\370\370R?\267\260"
	.ascii "1pz\374k\214\263\223\315\0,n\242H\327\214/\356\232\11\303"
	.ascii "5\223\340\220\27+\10\327\301\241\324\37\372*\33\315\201\277"
	.ascii "3\244!p&2\372|\340a\320>\373\301b\307\1\235\360\277\376\217\343`j\261\343`:|\34\314\30\307\301\24\340W\27\304\327\13\310\254x\230\245\347\346\227l\310+}\267\314\376\241\315\30\332^y\363\215gsKJ\230\226c[Wf\267\225\330K\225\34[n\361\306\"\273\232SP\262"
	.ascii "6\247\254\240\330\234c\333@wc\332l\263\255\317/\310\263\25\345\24\346\331lj0\262=\367\332\352W\337~}\225"
	.ascii "5\263l\225uu\221=\257\324\272~cQ\256=\277\270\210\346^\316\\g-\310/\312{\306\272\276\270\324\212\201=\277"
	.ascii "0/\226\276\263\177\3\331_<H"
	.text
	.section	.gnu.lto__ZN3stk6cipher11uncript_ROTEPvjj@12.f438e2e2,"dr0"
	.ascii "x\234\225VkL\223W\30>\357\371\332\357\2rWtl\216&\214\260\37\213&K\226%&f\227\314l\213\177\366c\373\267\244#\210\221\310-P\177-\215_Kc\34\22\327\240\4"
	.ascii "6\206\203"
	.ascii "1.\23&\363\306\274"
	.ascii "0\251\316!\316)CE\250\267\342\6\214M\23"
	.ascii "15v\35"
	.ascii "4\354}\317\327vX\333-#\341\353y\317y\237\367<\347"
	.ascii "9O\337\257\22{\362\257\14\377?T\31\333\205\237\220\304\200\273/1\346P9\227\256f3=I\36x\231\351\313$nZ\22\231\270\306\330N\325ld\232A6\6"
	.ascii "2W\374\351\230\244\266\254\307$\5TcZ\5\240\1\323\30\260\355\\2\231eE\325`;\374\316\37pp{z\232\222\13:t]\237\273<\376\345r}\357\7A\316\230\237\33\334\240\23\12(\251\301{F\222V\3\303\361\361\3\17/&\317\362 \7\13\205'\352\207\233d\12\271\211\302\306\201.\237\226\337\256\353NOm\215\351\255 \227\240\13$,\7\335\220\3_A\16\303)\6\373!\37\223?\331ue\301,\25\210\262\316\271@\223\202@\267\323"
	.ascii "3 \200&\350\211\5\232\30\364\12\340\216\231\372vMZ+\200\367\364\275N\315\0\336\13\3\277\216\3<\0\371\224\375\300\25\32O\226]x\334t\343\220\320\7"
	.ascii "20&\205"
	.ascii "8\13\341"
	.ascii "2\207\276\331#\375i\322zQ\333"
	.ascii "3\355\33\221\363\332\360"
	.ascii "4\223\303\323\375\340\326[\235n}q\361\25\10r3|\363\370.a\301\16B^_\246\7\223\16\373\352g_\344+@L\231\220\204,\343CQ\361\241j\370\320R(L\245G\6\220 \231@\247\313\2A\365\17\16\22\273\313\201J2\316\356\343\10\36r\"<\205\17\272\316i\214\360S\272\16\316G\265C\275\23"
	.ascii "2\362\375b\217\327\245J\33\5\367\326;\35\7M\202\273g\241\306"
	.ascii "4\254\273&\27\27s\211\367\241x\274\37\227&\304\303z\300a\310#\376B&\244r\4\344\0"
	.ascii "7a\362\276+\273\17p\373\274\276SW\203<)\204\12S\11\337\324\310\250Jf0\213\260\333\341\372\14Z\240\331\241\353\236^\11\25\200\243`\207~\332\24\276\305\5"
	.ascii "6\6\256\11\351\237\242\216\316\223u\12\301\223"
	.ascii "1\341X\230\333"
	.ascii "4\372\345j\266t\23\\\317\33\231r\354\366\313\374\244\23\34\7;\373ofI\"\374\253\275!\305 \206I)p\2i\235\244\375h\251\356\304\220\206xB\303\0\262\244]\31|\7\366 O%\306\336"
	.ascii "0c\31\362\"\14M\354\274\214\14\303\13j,\213"
	.ascii "4?\335\34\234B\202A\236>Cl\247Q\"\304\340\345]\226\15\224\206@\206q\275\330\20K\234;\372\250[\216\224\310\10q\343\226\242\32e\210\260u\340\346-\210\236D\203A<\211G\10|\32\247\261*\213\10\367\204"
	.ascii "6\231~T\226\301\231\177\223-F\247\357\23\351t6\252\323\17\244S\226PE\26\376\274\6N\375\363$Z$3!\360\366\341\211\32-\227\267\350M\226 _N\245\346\6\33Q\233y\275\211\212\255\200!\310E^\347\220\27a}\251\2{P`G?\355\254I\23\6\303\357\303"
	.ascii "02\241\214\321\254%\31"
	.ascii "3\277\355\353\20\375H\256\246\322\376\205\35\336\350\261\314p^H\363\243Q:\235\205"
	.ascii "1q\223.`\22\371\263f\177A\370B\342\321\304\351@\373\344]\240\35%\205\302\276\211\336#i\244\231\233\322d\370\11"
	.ascii "5\273\30\326l\217\243\377tJ\244\202\31.\321w\200\301\10f\14G\335\256"
	.ascii "0\177\272\20ml\345\222c\305\225\350g\244H\20"
	.ascii "5\"\264q\242\0\32\214\214\324v_1\254\225\22\353\246\354\20yp\251\233\262\343\270I\201QdvY\250q\205\250^\207\232\372\260[S\261*<\227#\366\271c\354\223p\223\330\252W\243U\307\204GS\321\243\253\342Zt\245\237|\10\327\14\213\316\177\274\273M\315}\327"
	.ascii "0\316*\232in\367"
	.ascii "7k\21U\236\202q\310"
	.ascii "5L8\1\366\200h\346\307B\177\236Rsk\301\300\344\20\246k\362\243\301\264\10\346i\360F0\327\301\216\253gGo\364\10\373(\255\350\260\33\220\203\364\202\374\31d\270\303\323paM\\\226\253\375\324\357\340&\262\14\360\214\0\317\14\360\254 \177\226\335\6\207\247q\243\321"
	.ascii "9\331\14@b\13\305z\346Vb\317\334"
	.ascii "6<\343\3\273\234\250 L\202]\251\363v\257Ek\340\357\4i\2\34\351\214^\36\330\12\272\335[\23"
	.ascii "5\3\352\357w\376G3\370%Q3\370"
	.ascii "5\332\14\246\214f0\5\370\266\5\361\356\2\262*\266\262\234\242\222\312-\305U\357W\333\266Z\215\241\365\265w\336^STY\311\264B\353\246j\233\265\322V\245\24Z\213*\266\225\333R\12\255[\12\253K+\302\221\325\272\271\244\264\330Z^XVl\265\252\341\310\372\322\33\33^\177\357\315u\226\374\352u\226\15\345\266\342*\313\346m\345E\266\222\212r\232{5\177\223\245\264\244\274\370\5\313\346\212*\13\6\266\222\262\342$z\271\376\15"
	.ascii "19#\317"
	.text
	.section	.gnu.lto_.symbol_nodes.f438e2e2,"dr0"
	.ascii "x\234U\217\335N\24A\20\205\253\273"
	.ascii "8\364@\263;\213\232"
	.ascii "1\321U\304\37\36\211\327).Fb$\30o\275b]W\5\4#\240\361\7\320\270\31"
	.ascii "0j\"\27$<\301^\362\10&\272S\335\223\364\316\315\251S\363\325\227"
	.ascii "4\23\321"
	.ascii "2S\370\354"
	.ascii "0\23\242\247\177\210D\314z?#\273\11"
	.ascii "1qAOz\343E\17b\323\5"
	.ascii "6`zV\30\273\230\326|\7W\247\371\10\341\0\322\312\243\361a\37"
	.ascii "25q\370\34V\17\276 \323<\304L\235v\0\301\4\370\2\254\300W\314j~\203W\360\25dz\2|\211)\5\276cNs\210\226\346k\220f\205\266\346\11r\25lC\334\204`\13P\340':\232\277"
	.ascii "0\257o9\205d\315[V22? 3i\377\0\231M\373\36\304\247\375-d.\355;\220V\332\337@\332i\377\14\311\323\376\36\322I\373\1d>\355\373\220+i\377\4\271\232\366#\310\265\244"
	.ascii "3\335\244\362\361\345F\207\351\6U\253\365`\356\320hs\211\315\2\15\366ZlnS\271za\330\334\242rM\177\23\15\177\377}6\36\272"
	.ascii "4h\263\15\264\15\264\215\264mh\373\200\252"
	.ascii "0\334\247\321\332\345\2\333{T\235\375;~h\331\336\245\352\374\254\313v\221\312\213:\273"
	.ascii "4*\352"
	.ascii "6\272\316.X]\260\272hu\215\325"
	.ascii "5V\27\255n\251\261\272hu\321\352\324\352\324\352\203\325\7\253\217V\337X\375\30\365\234\7(\17P\36\241\274\201rO\375"
	.ascii "0t\251ls\21\350\"\320E\244\213\206.L\244\213\232\246\377\214c\345\16"
	.text
	.section	.gnu.lto_.refs.f438e2e2,"dr0"
	.ascii "x\234%\311A\22\202@\14\4\300\231\211\230\210+l\210\270\360\6_\353\217-\313\276\266\1\370\340\317\211\242\312\370tU`O\356\245:C0\312\214\27\227\5\246\344T\262\267\256\10GPa\274\271\"0'\347R\374\306\357hT3>\\-\260$\227R\33\276\242S\335\230\256\36\330\222[\251\37\376\302\240\206\361p\215\300\231<K\343\300\27\241\260\5\220"
	.text
	.section	.gnu.lto_.decls.f438e2e2,"dr0"
	.ascii "x\234\325ZyTTW\232\257[\267(\240( jb\34OO\332h\306\304$j4\306"
	.ascii "1sz\22:\31\273\323\231\236hz\222\234\264'g*\6+\221\4\301\306\322\330\231?\362\330A\1Ad\21\24\12\5A\4\1E\26\25(\26\331\334P\21E\243\226\200\13\6\4\21#\210R\363\335\345U\275\7U\232\364\351"
	.ascii "9s\246\216\37\257\356}\337\375}\277o\271\313{%V(\24\307\324\12\205\5>\257\317P(:]\25\12\27\350[\242`\327\34\220b\220\3 e \345 \357\203T\202\274\247`\237g@N\200\234\2\271\2r\31\244\3\244\7\244\17d\0d\4\4!\205\302\31\344)\220I \317\203\314\4\231\15\362\16\310\37@\376\10\362!\310G \23a\314'p\375\24d\31\310g \377\5\362"
	.ascii "9\210"
	.ascii "7\310\227 +A\276\6\361\5\361\3Y\15\22\0b\0Y\7\262\36\344;\244\220}\10W\17\356#\271jA>\0\371o\320\13\4\271\253`\266\337\347>\6A\337Op\15\206\353(\307\300\34G\364K\5\327\215\22\273Qcl\222\330Lw`\223\330\313\343\366\210\316[\334>\341B\342?\1$\32\276?\15\327\31p\215\1\371\25\310\277B{\23\\1H\2H\"\310o\241/\11\215\317\231\33b\276$\303\265\221sr\346\274f\362\\L\342\271!~\221<9)l\376lE\314\277O\306\370E\362\375\352c\374\">\214\365\215\370\363\33\356\333\337\303\257\24\304\352"
	.ascii "1\25\256K@\266\201\274\5\"\200l\7\371\35H\32\310\333 \351 \263\270\17\36\234\177\26\32\37\203\"^\207\177\344uI\352\263\214\327*\211\15L\31k\15\226\203\34\4"
	.ascii "9\314kU\372\351\370\177\36\237\216\237\21\237\217\34\304G\234\233\25\304>\210\11\261y,\375\220"
	.ascii "5\342"
	.ascii "9\7\361\351R\330\237\33\177\317"
	.ascii "9A>j\316c\254\217\342\34\20\327\226j\220Z\304\326!\351\207\254q\323\376\17}\250\3\351\346\\\234"
	.ascii "9\237\261\276\20\377D\177\304"
	.ascii "5\362\10H\3bk\252\364C\326\353_?\246f\377"
	.ascii "7}\31\273>\15\330\361\345\224\304\27q}o\4iFlo\220~\356(Q\371\336\301\343n7\225\310C3\215"
	.ascii "4\17nnLVCS\253Q\221fpY\344\36\27\355\6A\10\"\377\\\33=\320\323\32\264\13ME\331h*,\355"
	.ascii "9\210xO\257\240\334\270g\373\347X\211`\234\252\357\324\303rw4u\252ff\262\20!\14\375\32\345!\215\202|5\335\264X\276\267\260\317&g\332\35!\300\307\34'\340)\12\364\352T4k\252\2\345\243\231\364\226\2\355\1[\271`+\23tb\303\205w\24\244\37\355FX\356Ej\322\336>'\15G\212x,\22hG\327\305]\360\244>\347`\322\216y\324\33\342B\235~\203"
	.ascii "4-%\347\256\"\332\\@\232\33F\362F1\303\346"
	.ascii "1\320Jc\260\217\242\277"
	.ascii "4\25\25"
	.ascii "1\360\216\310\370\333\232\211\261D\33\376LC\224p\1\250\27R\365\375h\242"
	.ascii "8\210h\347\236l\313TJ\265\367:\324F\305h\"\214\350\331\270"
	.ascii "9\316Y\226\22\350\227\360"
	.ascii "9\300sr\200\346\304\262\253r\267\213c\362%\"\371\227(\367\236\230\355\25\234\273"
	.ascii "9P\344\316\"\251@\245\224K\211\310\274\353\230\245\333]\252\273\327\201.*\243\274\273\214[\316"
	.ascii "9\311x\227\311x\227s\336\345\224\367\341]ENx\22\251%\324i\212\353t{5\27\354@\371\264`[\322\3w\35\212r\206<\275\247\241\315+\251\303\231\256\264I\212\313\23\272\224i\327\32*\\\220ff\204\315\252\302j\22UAm\220\261\350"
	.ascii "0\364T\360\"\353?\372S\322\263\202\240B\225\340\316A\204\321!Dv(\252H\371A?\30;\21\35U\202\361\227\224\240\261\277\250_\253R*\220\211\226%\364TU\16\325kp\0\271\253\334T_\237\242E35\24|$8\361\31\2^\7\340"
	.ascii "5\343\301\355\363\254\35\313\23,$4\26Fx\202M\5\205ZF'k\316\331\207yjk\337\21D;CL\367k5\264\363\3-\252g}BIo\255\373\263\11<uO!\264d2\313\34\252\6\5\324\210\236\5\365\6\244b\316\304<\34-\322\340JD}\275\320r\263F\211\257#\310"
	.ascii "8i\306e\\Nq\303\275b\323Tz\257\300yV\266`\24\372\273\303\353=\211\247\0}\324\352\250"
	.ascii "5u!\275]\5\32\246\230\323\24\366O\\\261\31\24\217\241YR\305\346\373\225\351\312ii\202\311\330\337\336\335\367iW`P\224`\266X~\15\5\7"
	.ascii "4Q\23\214"
	.ascii "8\316F\220\357,C'\320"
	.ascii "4\30\231\337R}\336\35\327)95\213\371\334\213\370\4]\235P\264iG\221\13\200\232\215B\214\360\271\0\325\"()\334I\11\\\213\10w\212\302\215O\262\275\24tV\304$\270\210\321>\303\242}}\307\301\213\32\273\321>M\242}\226F\273U\214\366\221\322=W=p\237H{\177\177\340e'<\314x\327\234,KD\":3\230\267\371P\274\325\340yfpKw\302YV\7\323"
	.ascii "5\250\235\365%v\305Y\264\264\357}\15\272\300\372n\227"
	.ascii "4\16"
	.ascii "9I\211\275o\233\300?PV\27EVY\361\235QZ\234\214)\215\275'\373\357\253 |F\341f\340fm?\314"
	.ascii "5\242\216.\211\1\23\277\200\252\271\350|7I\237\321X\330\336\35\346,$\13&\213\345m\352"
	.ascii "4j\223\4\373\34\31\202.\243i\360\367\12\215wt\372\231b\25\316\307<\16A\226\343Y\32\\\316\10\344\336\35\375\230\202\32+\267\11^\201\302C\213\5SH\263\4\362\252\4\262\303A\12O\306\346\216\310\267"
	.ascii "7\262\210\331\326\244.\266&9HvW]R\244"
	.ascii "3\355\3=t\215\5\265'\245\333\350nU\274\316:\363\177\30\25\324b\226n\260\276\315\325"
	.ascii "9\371Nv\313\242\223\224E7M\300M1\1\307\"\262#\234\360E1\34\5\315qA\36\370\32\13\307\215\222"
	.ascii "6AC\313\331\330m\213\7\0\240[\222x\374(\246\247\207\6#\374D~\10\302\221*\16x22\341\200;NPQ\300\302\352\266$\15\317Z\323"
	.ascii "71\202Y\20F-\26DI\241^\11\346m\21\263\217b\16\27\237\37\366\304\207E\314\304\304\355#\36\270\221a\232"
	.ascii "6\267\265\270r\314\335\5H\2J&^\277\4\364\216\10:@A\37\265\26\\\227\357\33y\262\34\335\265\346h|~\357<\370q\217\222\306\275\322\232\265\366\256\360\35H\32w\0\340\201\37$\201\377\211\6\376\236\30\370\226\274\244T\17\334#\372\224\261\375l\205;\36\20\233\215w\12\32"
	.ascii "0[\307\372\366\233\275B\4/\222\306\241\361\353X\357\211\350\4'\234\342Dc1r\242d\24\221\204\11\346\224\266"
	.ascii "7kX\302\250et\37\206\16\363@<\20\3"
	.ascii "1\342\240|\373\333G\312\331\344'>0\367\22rz\212\220\335\262zH\274\33\245\336=\22\275+\257\210\257Q\341\"'\356N\350\205\354\273\32\\\302X\32\177\314m\366d,sZm,\1\1Y$,\5%g\31\250$,\253\357v\304\263\372\317\261rJ\27\302\23\325\366"
	.ascii "8\201V\260\222\20\12RrB\341\21\251\275j|\234"
	.ascii "1\250\17*\376A\203\257\260\306\266\20\363"
	.ascii "9\262\221\241P%w\277\253/k\320\203\20\214\355ooj\370\370j\340\346(\241\3\366\6\12\212B\250\32\12\3d\376\35Z\341\224\343\331\266\222\22\17\334\305p\363\323\213\323I\215\240\10\21\367|\316\241L\225"
	.ascii "8\257iO\323\341\322*\17\273A\215"
	.ascii "$\360\33\251\17\33D\37\202\243\202/\272\342\333bP\223\373\12"
	.ascii "7h\361=\261\231\226z\373\256\212\225\314pi\346_\203Y\311D+\307\225L\255\371\266I\205\223\324\224eOOr\272\226%\243\240\320\226\14\260\214\242`h\214\222%c\223\350h,ut\373\310O\363q\201\332A\374*6\346\207\252\34\306/\216\305o3q0N\204\215\247\260\373vf\225\270\322\363\263\27\301\311LH\314s\242\347e\27\272\375\364\227\235w\305\265\314\252xF\233\316\316h\303\341\221!\32\332\264\210\37zH*\273S\16\7\14~P\213\15\22&\4\26\375J\201\266(\247\242\4%\234\200R\224"
	.ascii "3)\2J\202\236d%?\251\215\324&\316&'\207\255J\15JTZ\17S\323"
	.ascii "5\326\20\216\237"
	.ascii "2\373\373\223"
	.ascii "3\234\245\231$\203Y*S\211\247\333h*\227\361Lf\224\364v\271\341cjq3\316z\260\1\341V\346YHsq\204\247x\326\11{\201\37a\322\306\347\361H\375\311\333.\270\235\215\212?yj\330\203\345"
	.ascii "1\365\260-\217`\26m\207\241\351<\217F1\340\31?\177RIv\357\235\324\213\35bA\16\306V/\301\3\216\312\300"
	.ascii "8\32q\313\325n\31\0\14\312de\220E\202\223)\262\332\245\264\277 \331"
	.ascii "9\240\30/>\34u\266;u\262\11\344n\312"
	.ascii "4GdZy} \331\23\207"
	.ascii "9\363\200W\231\316\366\363cbJ\205y=\237+\271\343c\274\265\271\352\220\12\27"
	.ascii "8S\27w\265e&\271\261\30\247\227\331b\14\246\350\302\265\207\307"
	.ascii "8O\364&\237zS\327p\275\312\23\37a\20I\247\316\227\252\360igY\15Of5\34s4\245\32\323&\253\335\213\331f\310=\257]\371s\354~\250[2\12\25B\335\26Y\353"
	.ascii "6\370\14}\302\330\7\245W`\253\333\311\266\272\275:xf'\222\355yD\327\266\347\25+\305=\257>)\365,\306\27(Qu\236"
	.ascii "9\276\27\241\231[\221b\322\244\231\323\251\255\306\252\236\317\203b\337Ae\312Ih/\330*WN\"\266\330EA\336"
	.ascii "4\320\357\344\371O\241\210\23L\360\30j\22\274\14\222\247\217\22\360\1T\310\366\214\16\302\367C\312\351\244\217\240\224*\301\224\335A\7\237"
	.ascii "0(\23RjJ\22\202\264\224\12ev\\\222Q\205Q\20j\314i\255&\225\251\16\23o\321\1\306\335f\201\20F/O\345+\356\235{9\256\262xIu\341\301\311\32/\323\216+\341\354$\6}\274D\217\356N\270\341<%\321\356\366T\251\234\2\177+H\251\222"
	.ascii "8\201v\230\361\304^\355\317\326\276_\321\273E\215\207Y!5\30k\342\334q\230\13m\4\35(H\344\207\200=\205\213j\202\310i\10\252\264J9\5\231\254\211R\240j\261Jk\34\314\271\312\262\246\17\251Cy\326#NhH\316Eg\253\223uJ\332iI\12\16\363\220\362\266>\333\243ZB\270\236r?\"\341\276\273n\377\260\12g3\272e\347\316\334s\303{Y#\271(\262I\305w\243\222"
	.ascii "7\201;\233a\0\201\32$\334\33E\356M\224{C\351\321AO\334\306 \266%g\237\323\340N\326\310\315"
	.ascii "8|\217\257\212\271\373H,\36Q<\10'j\226\340\35\25\361\216"
	.ascii "9\210\205\275\363^~\215\271Nv \372@<\356\35'\276\236\244\13\320\11q\1\212\276\37[\346\202C\\)-\341F\351&v\2\202\345gp\345\265\300X\366\360IG\321\243\232\270\226\264\210\314N\261}\367\376\345kZ\234\302P\362\313* \241\31\254Q\326m\11e\236\302\324"
	.ascii "4\377\31 \267pH\22\274\323\22g\317\210\220\255\14"
	.ascii "2\261}\263"
	.ascii "3nb(\225"
	.ascii "7\357\25;\315\310\240O\305M\3+\23k\202\352\2\341"
	.ascii "8\375"
	.ascii "6\34\373\237\326\240\263"
	.ascii "0\322\272w*h\223\340\264)g\220\315\272\251\346\221'\36d8\221\25\273n3\34"
	.ascii "8\350"
	.ascii "7\270\204F\4\13\354\341\1P\316\311Q\316q\224\363\24\305\274\345A\30\302i\32\212\322\\\33\270\35S\24c\323\216\34\257d\201zD0\332\345\30\355\34\343\2\305\350\311\355\334\242\305G\31\306\217\33v\354C\14\243G\216qQ\216q\221c\374@1\32"
	.ascii "6\365~\206\207\31\304\320`I\262'wf\267_\334\26c\24\254\177\226\267)\310%9\310%\16r\231\202\364\226\305uz\342\\7\212\322_\32rP\305C\33\271\357/cB{E\216s\205\343\230)N\345\325#}Z|\236\341\214"
	.ascii "4\337m\323\340\253\254Q=\32}\204\200\12$_\15\13s\4\340\26D\271\275\345\206\256B\322\341\231W\2\333\301a;)\354\226\332\306\343n8RK\221\36"
	.ascii "4\4\237\300"
	.ascii "8\231"
	.ascii "5\262\217\356:\246\244\260\246\246`U\243\20Bc\6\347\200.\16i[\1\257\21H\364\2,\234\327)\350\241\314\372\14"
	.ascii "5n`8\233n\15\245"
	.ascii "1z\346\246\13\31\310\224\314\221"
	.ascii "8\271\16\31\271\33\234\334M\212\223s\326R\17\317C\14\247\352N\325agG|:d|\272\255|nQ\234\3g\257\225\270\340Lw\212sk\264\370\201\7\343\323c\207O\217\214\317\217\234O\17\305\311k\315"
	.ascii "9\257\305-\14\247\270\304\334\242q\304\247G\306\247\327\312\347"
	.ascii "6\305\311N\337\330\340\216\203=\330i\240\347N\30\342\351\333}{eX\250P\27hd5\301)\365\311(\365qJ\375\24*\255\262g+\306\373\30\324\226,c\26vD\251OF\351\216\225\322\0\305\351*\277\322\352\212o2\234;U\347/0\327\314\315;S\237\26\"\202Ml\346rB\247d\204\356rB\203\24(8\355\364\17\356"
	.ascii "8\316\223\2\245^:\230\347\342\210\320)\31\241{VB?Q\234\255\243wnhp5\303\271ti\323Q\17\36#\230"
	.ascii "7vb4 \243t\237S\32\242P\243"
	.ascii "5\201\11\236\270\227A\15\264\236kg\345hj\36Gi@Fi\330J\351\1\305\211\352\33\272@_w\223\203@\304\23^\243\242\21%y\225\233\36"
	.ascii "2bRc\343S\354\25\333\265\252\4\362S\300\4\215`}@\371\36\372\317\214\236\250E\264\377{r\346;\24v;Te}\251\333yz29\317\11X\203\36\332\316s\23l/u\307\376\276a\201#\21\271\215\36A<F\225\364\215ns\336]\263\374\275>\301\263\271\32\210\331\373q\270\222:\217:}U\362V\344=\372\362\300\246\34\304\225\203\250\362\315\326\301j\245TyT\246\34\314\225\203\251\262\271\325x\303\5g\263p\14\336\314\354\307"
	.ascii "3\251\227\341\304E\222\205\20<\346\307\227\275\227j\277\205\320\274\257!\216\16YC\326t\346d\213\23\355']\316\264j\213S\36\272\211\277F\214IO(\236\11\252\344\211\35OE\341\230\306\244\357\350\306!\25\336\303\270\264&\305g\270\340\203\254\261s\340\356&\262\364%\323\35piP\220\220\311W\324\10\210Z$\36[\273\33\10i\224\205\340\264\260\21\223Ji\275\271)\317\365\371t\362\253\202\251\306\5\16q\364\275"
	.ascii "1\333q\243\360\363Dc\260\373\220\374\305\23y\36\262AF\363\260E\323\260\35-i\211\227%d\233L9\206+\307P\345\361\320\301"
	.ascii "2\355M\\{\23\325\36\216o\334\243\245\217\333-\324\367\321\242\252\373Z\372\274M\203\324\265;\316\202i\363\37\350Y\270;\365\204\322\361/>\361\230\377\342\263\231\205\270?:\244\325s\354\317U\261\220\202"
	.ascii "8L\324\267\340\211\342 \372\276\353x\332f\365\330\237\253\354k\243\4L~\366"
	.ascii "1e\34\331\217e\256B\277\204O\"w5\221"
	.ascii "\272\32ZS3(\177\360\331(\13L\22\327N\242\332\265\35\373\312eu\335(\253\353d\256\234L\225\213[\202\216+\345\11?%&|+M\370\275\7\345w=\35,\36\343~+B)\230,\36m\227\323n\272I)\234\224\361M\345\24R)\5\241\363\312C\255\314;r\302\265io\343\332\333\250\366\205"
	.ascii "\246\33\225\316R\350z\231\362v\256\274\235*\207\207\7^\227\7\256J\246\235\306\265\323\250\266\361\210\361c)\362n\31\351t\256\233Nu{\217\27\317r\360\356\316\210\245/K\"\32;C\224\370\326S\374\331\375\200\351\332=\214\7\305fJb\320\1\376(\17\17Ch\207t\21\201\333Y\203\225Ynx\210M\356\372\252\304`'\362\256"
	.ascii "8N\210\211]\36a\261|OL\241\14\230\325;1;pg\362\361(\13\223\323\361\231<c\247\7\216\230@\207\267\305\227\206a\372\24\0\33\3\235!\25"
	.ascii "1\11\356"
	.ascii "8\236\335M\311"
	.ascii "4v\323\27 9\230?5\14u\204\366\272\222\236]` \33\253\320nL\237\34\266\265\\\234.\276\30D\271\254\357nX\362~'\273O\23{@\1\345a\331\323\304\321\373\375\247\\\361.fx_I\374U-\336\317\32;,\351\241\324\346^\221E\345\243\7\360|\323\314nw\236"
	.ascii "4\233\351\223\207\21\236<\272\264\355\333\4S`&\354\357(\260\16\21#(\37\363}\6\25\20\273\205\200B\377@G\21\215\310\370\327\232\5"
	.ascii "1\261mj\321q\264\217\371\323\36\326\23\346i\367\365\314~\202[\214e\257g\16Wt\235\301\270\305\221\13g\267\217^u\301fv\373\354\355\260t\372\253D\241"
	.ascii "978\321YH6\325Y,U\302\363\24\24\35\260\362/!vJ\11%\370\303\177\257)\243.\34+\214\335\256\221\317\330+\342\214-\247"
	.ascii "3v\303\301\314\16gQ\343)\271\306A\252\321v\270\247\34\341\33\214RKya\203\207\270i\204?\23+\30\203ba\233\177\33Y7\15\371\241\371\220m\323"
	.ascii "8L7\215\202\240"
	.ascii "3QnrF\35\242\275\12j\357\247\15\347\13\335\345\214\254\32\225T\303\262q\370\234\32'N\244\214"
	.ascii "6w\334hg\333\230\261\311(x\205\30\351o\"V:\362"
	.ascii "3s\225\215\216\211\322\11\215\330\326\353\"\247\323#\32\253\246\306\256\354<\367g\334\310lu\34\352\374\224\231\352\261cJ~\34\256\261\231\252\245\246\206\266>\272$[\347\272eKm\35_2\352\350\222q\252\250%\332I\316\253O\344u\204\362j\277\232r]\211G\30\261\314\214\303\303\256\224\31yp\263\223\25\371\271\270\336\306\255\201rK(\254OR\313\315\15\210\346\32\251\271\354C\15\247\235p\21\377\377\4Y\17\12]\270\271\310}\310\216=\371\31\263\311f\257\31\317P\250\274W.\17p\373\315\27k}|\15\263}\374\336R\250\327\370|\247\327\31\\~\377\301\307\323\336}\345\25\305;\357\376\313\334\17\15\360\357\215"
	.ascii "9o\314ym\356G\376\376\276k\346\256\362\361\373\352\333\5o\316\327\275>\177\256\317\302E\13g\177\273p\301l\332I:\374\274}\327\256\320\317\325\321\216"
	.ascii "9+\25n:\335\32\303\12\357\345\276\276:\235\313Z\37?\303\353\363u\206\277\35\27\260\0\3p_\324-\373\340\365"
	.ascii "5\206o\26z\373\254^\251\17x\323;\300g\265A\367\247%\37-^\272\356\353\257\275\346\315\237\263zy\200a\316kjv\37\203\352s\354\353gs\346\316\201\177s\15>\253\10\336"
	.ascii "7:\362\5\20\247\360\333\244\213}\325\375v\351\37\340\306T\373"
	.ascii "7\274W\257V\270Z\315N{\22\37\256\372\37\37\375\356"
	.ascii "9\273\252p\203\250z-zZ\247\373j\375z\335j}\300\32\177\277\345\276>\206\277\352\326\275\346\266\326\317\252\366\274|\374\274y\222{\14\202\333\372t\311\237f\330\265\5"
	.ascii "7\210\342\322\177\367\6f\13\255\330\320=\323\21\266\203!\340\340\14GC$\316;A\376\375\275U\336k\14\1\323\245Y0\350\327\33h\16\310\35\335Z\203\217\357\32\10\370d\216\270\200\364\276A\207.\376\332k\201\352\313\0\275^vo\1\351Y\274\324\333k\301\4\235\316{\375r\335Wk\227\7\254\320-\377\302?\300\240\362\325/\377\322\25\272W\350\275\241\366\324\253\3\240p\326`o\177\277\177\224"
	.ascii "2\360\361g\366\375\375\326\370\373\222"
	.ascii "2x\226\33x\35\272\26\262A\213\301\353\357&I-\4\350\1}\215\236\26\364\302\5:\203"
	.ascii "3\251!\335\252"
	.ascii "5*r\235\"R$\215\177\346w\26\257\363zM\6\261\334\373/k}\2\364x\225~\325\13\343BB\277\301\35\312\15\256\300\353\31\221\27"
	.ascii "4\271\337\353\274\26hu\272U\206/yY:\23:\213t\6'\377\200\25\372\0;\365\14\252\200\4c\274\375W\255\326\255"
	.ascii "0\370\7L\33S\267\363\346K\1\377m\336\342uj\275\237\267\377\12\375\213\217\323[\310t\26{{-\22\301\275\237\10\376.\200K\235\262%Z\15){\242I\246CL\276\254[\366\373O\36"
	.ascii "7\373\26/\322\321I\256\233"
	.ascii "7\313\221*\237:6\315W\307i\216\233g6\345\331\216`%\263\306\246\375\332c\240\355\16\30\17?~\222\331\264]\304/\20\277\237\345\252\207N\247\367"
	.ascii "3\350\3\364+\330R\370\370a\363\26\310\325_\36\243\376\230"
	.ascii "0\315{\242\352X\360W\354s\261\33\245\371O\326\35\13?\326\325'\344\341\215\237\245>\326\310K\366y\215O\334\334'(>)8\217+\212\261\301\261\243;\26^\315\26\23\14\27I\205\370\372\370\351\177\11Q\242\357\12_a#_n\320\303"
	.ascii "6\274\302S\267\354?\15oZ\273\326i\350\274\327\221\243\307DX\373\364\1\260\351\371\302\236\347\263\306\347\13_\275\326\37"
	.ascii "6\302\345d1\361\323\177;\31p\307i\350tN\272e~\337~\355i\325\\\1\253\263A\257\326-[\341\273t\335/(g\302\365\227\325(\31\361\13\353\216\14\371\345\205d\317\320\23rH\206\374\17Z\333\30\257"
	.text
	.section	.gnu.lto_.symtab.f438e2e2,"dr0"
	.ascii "__ZN3stk6cipher9cript_ROTEPvjj@12\0\0\0\0\0\0\0\0\0\0\0\0\321\0\0\0__ZN3stk6cipher9cript_MTFEPvj@8\0\0\0\0\0\0\0\0\0\0\0\0\337\0\0\0__ZN3stk6cipher11uncript_MTFEPvj@8\0\0\0\0\0\0\0\0\0\0\0\0\342\0\0\0__ZN3stk6cipher9cript_XOREPvjPKcj@16\0\0\0\0\0\0\0\0\0\0\0\0\354\0\0\0__ZN3stk6cipher11uncript_XOREPvjPKcj@16\0\0\0\0\0\0\0\0\0\0\0\0\357\0\0\0__ZN3stk6cipher11uncript_ROTEPvjj@12\0\0\0\0\0\0\0\0\0\0\0\0\362\0\0\0___gxx_personality_v0\0\0\2\0\0\0\0\0\0\0\0\0\336\0\0\0__ZN3stk4cstr5allocEj@4\0\0\2\0\0\0\0\0\0\0\0\0\373\0\0\0__ZN3stk4cstr4freeEPc@4\0\0\2\0\0\0\0\0\0\0\0\0\1\1\0\0___cxa_guard_abort\0\0\2\0\0\0\0\0\0\0\0\0\7\1\0\0__ZN3stk3con6printsEPKcz\0\0\2\0\0\0\0\0\0\0\0\0\20\1\0\0___cxa_guard_release\0\0\2\0\0\0\0\0\0\0\0\0\23\1\0\0__ZN3stk4time7time_msEv@0\0\0\2\0\0\0\0\0\0\0\0\0!\1\0\0___cxa_guard_acquire\0\0\2\0\0\0\0\0\0\0\0\0&\1\0\0__ZN3stk3mem4freeEPv@4\0\0\2\0\0\0\0\0\0\0\0\0-\1\0\0__ZN3stk6cipher12__mtf_cipherD1Ev\0\0\2\0\0\0\0\0\0\0\0\0B\1\0\0__ZN3stk6cipher12__mtf_cipher6encodeEc@8\0\0\2\0\0\0\0\0\0\0\0\0I\1\0\0__ZN3stk6cipher12__mtf_cipherC1Ev\0\0\2\0\0\0\0\0\0\0\0\0L\1\0\0__ZN3stk3mem5allocEj@4\0\0\2\0\0\0\0\0\0\0\0\0Q\1\0\0__ZN3stk6cipher12__mtf_cipher6decodeEc@8\0\0\2\0\0\0\0\0\0\0\0\0T\1\0\0"
	.text
	.section	.gnu.lto_.opts,"dr0"
	.ascii "'-fno-trapv' '-dD' '-malign-double' '-momit-leaf-frame-pointer' '-m32' '-mfpmath=sse' '-mpreferred-stack-boundary=8' '-mmmx' '-msse' '-msse2' '-mthreads' '-mtune=generic' '-march=i686' '-g' '-g' '-O3' '-fno-use-linker-plugin' '-fverbose-asm' '-fstrict-aliasing' '-fwrapv' '-funroll-loops' '-flto' '-fexceptions'\0"
	.text
	.section .rdata,"dr"
LC0:
	.ascii "cipher\\stk_cipher_API.cpp\0"
LC2:
	.ascii "\0"
	.align 4
LC3:
	.ascii "DEBUG: %s: Enter function: %s@%d line, for %d time\12\0\0"
	.section	.text.unlikely,"x"
LCOLDB5:
	.text
LHOTB5:
	.p2align 4,,15
	.section	.text.unlikely,"x"
Ltext_cold0:
	.text
	.globl	__ZN3stk6cipher9cript_MTFEPvj@8
	.def	__ZN3stk6cipher9cript_MTFEPvj@8;	.scl	2;	.type	32;	.endef
__ZN3stk6cipher9cript_MTFEPvj@8:
LFB702:
	.file 1 "cipher/stk_cipher_API.cpp"
	.loc 1 12 0
	.cfi_startproc
	.cfi_personality 0,___gxx_personality_v0
	.cfi_lsda 0,LLSDA702
LVL0:
	pushl	%ebp	 #
	.cfi_def_cfa_offset 8
	.cfi_offset 5, -8
	pushl	%edi	 #
	.cfi_def_cfa_offset 12
	.cfi_offset 7, -12
	pushl	%esi	 #
	.cfi_def_cfa_offset 16
	.cfi_offset 6, -16
	pushl	%ebx	 #
	.cfi_def_cfa_offset 20
	.cfi_offset 3, -20
	subl	$748, %esp	 #,
	.cfi_def_cfa_offset 768
LBB17:
	.loc 1 14 0
	cmpb	$0, __ZGVZN3stk6cipher9cript_MTFEPvjE8__time_1	 #, MEM[(char *)&_ZGVZN3stk6cipher9cript_MTFEPvjE8__time_1]
LBE17:
	.loc 1 12 0
	movl	768(%esp), %edi	 # a_dst_ptr, a_dst_ptr
LBB26:
	.loc 1 14 0
	je	L61	 #,
L3:
LVL1:
	.loc 1 14 0 is_stmt 0 discriminator 2
	movl	__ZZN3stk6cipher9cript_MTFEPvjE14__entered_time, %ecx	 # __entered_time, tmp153
	movl	$LC0+7, %ebx	 #, __file_name__
	movl	$LC0, %edx	 #, tmp110
	cmpl	$1, %ebx	 #, __file_name__
	movl	$14, 12(%esp)	 #,
	movl	$LC2, 8(%esp)	 #,
	cmove	%edx, %ebx	 # __file_name__,, tmp110, __file_name__
LVL2:
	movl	$LC3, (%esp)	 #,
	leal	1(%ecx), %esi	 #, D.30175
	movl	%ebx, 4(%esp)	 # __file_name__,
	movl	%esi, 16(%esp)	 # D.30175,
	movl	%esi, __ZZN3stk6cipher9cript_MTFEPvjE14__entered_time	 # D.30175, __entered_time
LEHB0:
	call	__ZN3stk3con6printsEPKcz	 #
LVL3:
LBB18:
LBB19:
	.file 2 "cipher/./../text/./../mem/stk_mem.h"
	.loc 2 74 0 is_stmt 1 discriminator 2
	movl	$4, (%esp)	 #,
	call	__ZN3stk3mem5allocEj@4	 #
	.cfi_def_cfa_offset 764
LEHE0:
LVL4:
	subl	$4, %esp	 #,
	.cfi_def_cfa_offset 768
LBE19:
LBE18:
	movl	%eax, %ecx	 # D.30179,
LBB21:
LBB20:
	movl	%eax, %esi	 #, D.30179
LEHB1:
LBE20:
LBE21:
	call	__ZN3stk6cipher12__mtf_cipherC1Ev	 #
LEHE1:
LVL5:
	.loc 1 18 0
	movl	772(%esp), %ebp	 # a_count, ptrd_end
	addl	%edi, %ebp	 # a_dst_ptr, ptrd_end
LVL6:
	.loc 1 20 0
	cmpl	%ebp, %edi	 # ptrd_end, a_dst_ptr
	jae	L11	 #,
	.loc 1 22 0
	movsbl	(%edi), %ebx	 # MEM[base: a_dst_ptr_36, offset: 0B], MEM[base: a_dst_ptr_36, offset: 0B]
LVL7:
	movl	%edi, %eax	 # a_dst_ptr, tmp112
	movl	%esi, (%esp)	 # D.30179,
	notl	%eax	 # tmp112
	addl	%ebp, %eax	 # ptrd_end, tmp111
	andl	$7, %eax	 #, tmp113
	movl	%ebx, 4(%esp)	 # MEM[base: a_dst_ptr_36, offset: 0B],
	.loc 1 20 0
	leal	1(%edi), %ebx	 #, a_dst_ptr
	movl	%eax, 496(%esp)	 # tmp113, %sfp
LEHB2:
	.loc 1 22 0
	call	__ZN3stk6cipher12__mtf_cipher6encodeEc@8	 #
	.cfi_def_cfa_offset 760
LVL8:
	subl	$8, %esp	 #,
	.cfi_def_cfa_offset 768
	.loc 1 20 0
	cmpl	%ebp, %ebx	 # ptrd_end, a_dst_ptr
	.loc 1 22 0
	movb	%al, (%edi)	 # D.30174, MEM[base: a_dst_ptr_36, offset: 0B]
	.loc 1 20 0
	movl	496(%esp), %edx	 # %sfp, tmp113
	je	L11	 #,
	testl	%edx, %edx	 # tmp113
	je	L19	 #,
	cmpl	$1, %edx	 #, tmp113
	je	L45	 #,
	cmpl	$2, %edx	 #, tmp113
	je	L46	 #,
	cmpl	$3, %edx	 #, tmp113
	je	L47	 #,
	cmpl	$4, %edx	 #, tmp113
	je	L48	 #,
	cmpl	$5, %edx	 #, tmp113
	je	L49	 #,
	cmpl	$6, %edx	 #, tmp113
	je	L50	 #,
	.loc 1 22 0
	movsbl	(%ebx), %ecx	 # MEM[base: a_dst_ptr_36, offset: 0B], MEM[base: a_dst_ptr_36, offset: 0B]
	movl	%esi, (%esp)	 # D.30179,
	movl	%ecx, 4(%esp)	 # MEM[base: a_dst_ptr_36, offset: 0B],
	call	__ZN3stk6cipher12__mtf_cipher6encodeEc@8	 #
	.cfi_def_cfa_offset 760
LVL9:
	movb	%al, (%ebx)	 # D.30174, MEM[base: a_dst_ptr_36, offset: 0B]
	.loc 1 20 0
	leal	2(%edi), %ebx	 #, a_dst_ptr
	.loc 1 22 0
	subl	$8, %esp	 #,
	.cfi_def_cfa_offset 768
L50:
	movsbl	(%ebx), %edi	 # MEM[base: a_dst_ptr_36, offset: 0B], MEM[base: a_dst_ptr_36, offset: 0B]
LVL10:
	movl	%esi, (%esp)	 # D.30179,
	.loc 1 20 0
	addl	$1, %ebx	 #, a_dst_ptr
	.loc 1 22 0
	movl	%edi, 4(%esp)	 # MEM[base: a_dst_ptr_36, offset: 0B],
	call	__ZN3stk6cipher12__mtf_cipher6encodeEc@8	 #
	.cfi_def_cfa_offset 760
LVL11:
	movb	%al, -1(%ebx)	 # D.30174, MEM[base: a_dst_ptr_36, offset: 0B]
	subl	$8, %esp	 #,
	.cfi_def_cfa_offset 768
L49:
	movsbl	(%ebx), %eax	 # MEM[base: a_dst_ptr_36, offset: 0B], MEM[base: a_dst_ptr_36, offset: 0B]
	movl	%esi, (%esp)	 # D.30179,
	.loc 1 20 0
	addl	$1, %ebx	 #, a_dst_ptr
	.loc 1 22 0
	movl	%eax, 4(%esp)	 # MEM[base: a_dst_ptr_36, offset: 0B],
	call	__ZN3stk6cipher12__mtf_cipher6encodeEc@8	 #
	.cfi_def_cfa_offset 760
LVL12:
	movb	%al, -1(%ebx)	 # D.30174, MEM[base: a_dst_ptr_36, offset: 0B]
	subl	$8, %esp	 #,
	.cfi_def_cfa_offset 768
L48:
	movsbl	(%ebx), %edx	 # MEM[base: a_dst_ptr_36, offset: 0B], MEM[base: a_dst_ptr_36, offset: 0B]
	movl	%esi, (%esp)	 # D.30179,
	.loc 1 20 0
	addl	$1, %ebx	 #, a_dst_ptr
	.loc 1 22 0
	movl	%edx, 4(%esp)	 # MEM[base: a_dst_ptr_36, offset: 0B],
	call	__ZN3stk6cipher12__mtf_cipher6encodeEc@8	 #
	.cfi_def_cfa_offset 760
LVL13:
	movb	%al, -1(%ebx)	 # D.30174, MEM[base: a_dst_ptr_36, offset: 0B]
	subl	$8, %esp	 #,
	.cfi_def_cfa_offset 768
L47:
	movsbl	(%ebx), %ecx	 # MEM[base: a_dst_ptr_36, offset: 0B], MEM[base: a_dst_ptr_36, offset: 0B]
	movl	%esi, (%esp)	 # D.30179,
	.loc 1 20 0
	addl	$1, %ebx	 #, a_dst_ptr
	.loc 1 22 0
	movl	%ecx, 4(%esp)	 # MEM[base: a_dst_ptr_36, offset: 0B],
	call	__ZN3stk6cipher12__mtf_cipher6encodeEc@8	 #
	.cfi_def_cfa_offset 760
LVL14:
	movb	%al, -1(%ebx)	 # D.30174, MEM[base: a_dst_ptr_36, offset: 0B]
	subl	$8, %esp	 #,
	.cfi_def_cfa_offset 768
L46:
	movsbl	(%ebx), %edi	 # MEM[base: a_dst_ptr_36, offset: 0B], MEM[base: a_dst_ptr_36, offset: 0B]
	movl	%esi, (%esp)	 # D.30179,
	.loc 1 20 0
	addl	$1, %ebx	 #, a_dst_ptr
	.loc 1 22 0
	movl	%edi, 4(%esp)	 # MEM[base: a_dst_ptr_36, offset: 0B],
	call	__ZN3stk6cipher12__mtf_cipher6encodeEc@8	 #
	.cfi_def_cfa_offset 760
LVL15:
	movb	%al, -1(%ebx)	 # D.30174, MEM[base: a_dst_ptr_36, offset: 0B]
	subl	$8, %esp	 #,
	.cfi_def_cfa_offset 768
L45:
	movsbl	(%ebx), %eax	 # MEM[base: a_dst_ptr_36, offset: 0B], MEM[base: a_dst_ptr_36, offset: 0B]
	movl	%esi, (%esp)	 # D.30179,
	.loc 1 20 0
	addl	$1, %ebx	 #, a_dst_ptr
	.loc 1 22 0
	movl	%eax, 4(%esp)	 # MEM[base: a_dst_ptr_36, offset: 0B],
	call	__ZN3stk6cipher12__mtf_cipher6encodeEc@8	 #
	.cfi_def_cfa_offset 760
LVL16:
	movb	%al, -1(%ebx)	 # D.30174, MEM[base: a_dst_ptr_36, offset: 0B]
	subl	$8, %esp	 #,
	.cfi_def_cfa_offset 768
	.loc 1 20 0
	cmpl	%ebp, %ebx	 # ptrd_end, a_dst_ptr
	je	L11	 #,
L19:
	.loc 1 22 0 discriminator 2
	movsbl	(%ebx), %edx	 # MEM[base: a_dst_ptr_36, offset: 0B], MEM[base: a_dst_ptr_36, offset: 0B]
	movl	%esi, (%esp)	 # D.30179,
	.loc 1 20 0 discriminator 2
	addl	$8, %ebx	 #, a_dst_ptr
	.loc 1 22 0 discriminator 2
	movl	%edx, 4(%esp)	 # MEM[base: a_dst_ptr_36, offset: 0B],
	call	__ZN3stk6cipher12__mtf_cipher6encodeEc@8	 #
	.cfi_def_cfa_offset 760
LVL17:
	movsbl	-7(%ebx), %ecx	 # MEM[base: a_dst_ptr_36, offset: 0B], MEM[base: a_dst_ptr_36, offset: 0B]
	subl	$8, %esp	 #,
	.cfi_def_cfa_offset 768
	movb	%al, -8(%ebx)	 # D.30174, MEM[base: a_dst_ptr_36, offset: 0B]
	movl	%esi, (%esp)	 # D.30179,
	movl	%ecx, 4(%esp)	 # MEM[base: a_dst_ptr_36, offset: 0B],
	call	__ZN3stk6cipher12__mtf_cipher6encodeEc@8	 #
	.cfi_def_cfa_offset 760
LVL18:
	movsbl	-6(%ebx), %edi	 # MEM[base: a_dst_ptr_36, offset: 0B], MEM[base: a_dst_ptr_36, offset: 0B]
	subl	$8, %esp	 #,
	.cfi_def_cfa_offset 768
	movb	%al, -7(%ebx)	 # D.30174, MEM[base: a_dst_ptr_36, offset: 0B]
	movl	%esi, (%esp)	 # D.30179,
	movl	%edi, 4(%esp)	 # MEM[base: a_dst_ptr_36, offset: 0B],
	call	__ZN3stk6cipher12__mtf_cipher6encodeEc@8	 #
	.cfi_def_cfa_offset 760
LVL19:
	movb	%al, -6(%ebx)	 # D.30174, MEM[base: a_dst_ptr_36, offset: 0B]
	movsbl	-5(%ebx), %eax	 # MEM[base: a_dst_ptr_36, offset: 0B], MEM[base: a_dst_ptr_36, offset: 0B]
	subl	$8, %esp	 #,
	.cfi_def_cfa_offset 768
	movl	%esi, (%esp)	 # D.30179,
	movl	%eax, 4(%esp)	 # MEM[base: a_dst_ptr_36, offset: 0B],
	call	__ZN3stk6cipher12__mtf_cipher6encodeEc@8	 #
	.cfi_def_cfa_offset 760
LVL20:
	movsbl	-4(%ebx), %edx	 # MEM[base: a_dst_ptr_36, offset: 0B], MEM[base: a_dst_ptr_36, offset: 0B]
	subl	$8, %esp	 #,
	.cfi_def_cfa_offset 768
	movb	%al, -5(%ebx)	 # D.30174, MEM[base: a_dst_ptr_36, offset: 0B]
	movl	%esi, (%esp)	 # D.30179,
	movl	%edx, 4(%esp)	 # MEM[base: a_dst_ptr_36, offset: 0B],
	call	__ZN3stk6cipher12__mtf_cipher6encodeEc@8	 #
	.cfi_def_cfa_offset 760
LVL21:
	movsbl	-3(%ebx), %ecx	 # MEM[base: a_dst_ptr_36, offset: 0B], MEM[base: a_dst_ptr_36, offset: 0B]
	subl	$8, %esp	 #,
	.cfi_def_cfa_offset 768
	movb	%al, -4(%ebx)	 # D.30174, MEM[base: a_dst_ptr_36, offset: 0B]
	movl	%esi, (%esp)	 # D.30179,
	movl	%ecx, 4(%esp)	 # MEM[base: a_dst_ptr_36, offset: 0B],
	call	__ZN3stk6cipher12__mtf_cipher6encodeEc@8	 #
	.cfi_def_cfa_offset 760
LVL22:
	movsbl	-2(%ebx), %edi	 # MEM[base: a_dst_ptr_36, offset: 0B], MEM[base: a_dst_ptr_36, offset: 0B]
	subl	$8, %esp	 #,
	.cfi_def_cfa_offset 768
	movb	%al, -3(%ebx)	 # D.30174, MEM[base: a_dst_ptr_36, offset: 0B]
	movl	%esi, (%esp)	 # D.30179,
	movl	%edi, 4(%esp)	 # MEM[base: a_dst_ptr_36, offset: 0B],
	call	__ZN3stk6cipher12__mtf_cipher6encodeEc@8	 #
	.cfi_def_cfa_offset 760
LVL23:
	movb	%al, -2(%ebx)	 # D.30174, MEM[base: a_dst_ptr_36, offset: 0B]
	movsbl	-1(%ebx), %eax	 # MEM[base: a_dst_ptr_36, offset: 0B], MEM[base: a_dst_ptr_36, offset: 0B]
	subl	$8, %esp	 #,
	.cfi_def_cfa_offset 768
	movl	%esi, (%esp)	 # D.30179,
	movl	%eax, 4(%esp)	 # MEM[base: a_dst_ptr_36, offset: 0B],
	call	__ZN3stk6cipher12__mtf_cipher6encodeEc@8	 #
	.cfi_def_cfa_offset 760
LEHE2:
LVL24:
	movb	%al, -1(%ebx)	 # D.30174, MEM[base: a_dst_ptr_36, offset: 0B]
	subl	$8, %esp	 #,
	.cfi_def_cfa_offset 768
	.loc 1 20 0 discriminator 2
	cmpl	%ebp, %ebx	 # ptrd_end, a_dst_ptr
	jne	L19	 #,
L11:
	.loc 1 26 0
	testl	%esi, %esi	 # D.30179
	je	L1	 #,
	.loc 1 26 0 is_stmt 0 discriminator 1
	movl	%esi, %ecx	 # D.30179,
	call	__ZN3stk6cipher12__mtf_cipherD1Ev	 #
LVL25:
LBB22:
LBB23:
	.loc 2 83 0 is_stmt 1 discriminator 1
	movl	%esi, (%esp)	 # D.30179,
	call	__ZN3stk3mem4freeEPv@4	 #
	.cfi_def_cfa_offset 764
LVL26:
	subl	$4, %esp	 #,
	.cfi_def_cfa_offset 768
LVL27:
L1:
LBE23:
LBE22:
LBE26:
	.loc 1 27 0
	addl	$748, %esp	 #,
	.cfi_remember_state
	.cfi_def_cfa_offset 20
	popl	%ebx	 #
	.cfi_restore 3
	.cfi_def_cfa_offset 16
	popl	%esi	 #
	.cfi_restore 6
	.cfi_def_cfa_offset 12
LVL28:
	popl	%edi	 #
	.cfi_restore 7
	.cfi_def_cfa_offset 8
	popl	%ebp	 #
	.cfi_restore 5
	.cfi_def_cfa_offset 4
LVL29:
	ret	$8	 #
LVL30:
	.p2align 4,,10
L61:
	.cfi_restore_state
LBB27:
	.loc 1 14 0 discriminator 1
	movl	$__ZGVZN3stk6cipher9cript_MTFEPvjE8__time_1, (%esp)	 #,
	call	___cxa_guard_acquire	 #
LVL31:
	testl	%eax, %eax	 # D.30175
	je	L3	 #,
LEHB3:
	.loc 1 14 0 is_stmt 0 discriminator 3
	call	__ZN3stk4time7time_msEv@0	 #
LEHE3:
LVL32:
	movl	%eax, 496(%esp)	 #, %sfp
	movl	%edx, 500(%esp)	 #, %sfp
	movl	500(%esp), %eax	 # %sfp,
	fildq	496(%esp)	 # %sfp
	testl	%eax, %eax	 #
	js	L62	 #,
L5:
	.loc 1 14 0 discriminator 5
	movl	$__ZGVZN3stk6cipher9cript_MTFEPvjE8__time_1, (%esp)	 #,
	fstpl	__ZZN3stk6cipher9cript_MTFEPvjE8__time_1	 # __time_1
	call	___cxa_guard_release	 #
LVL33:
	jmp	L3	 #
	.p2align 4,,10
L62:
	fadds	LC1	 #
	jmp	L5	 #
L15:
	movl	%eax, %esi	 #, tmp106
	.loc 1 14 0
	movl	$__ZGVZN3stk6cipher9cript_MTFEPvjE8__time_1, (%esp)	 #,
	call	___cxa_guard_abort	 #
LVL34:
	movl	%esi, (%esp)	 # tmp106,
LEHB4:
	call	__Unwind_Resume	 #
LEHE4:
LVL35:
L16:
LBB24:
LBB25:
	.loc 2 83 0 is_stmt 1
	movl	%esi, (%esp)	 # D.30179,
	movl	%eax, %ebp	 #, tmp107
LVL36:
	call	__ZN3stk3mem4freeEPv@4	 #
	.cfi_def_cfa_offset 764
LVL37:
	subl	$4, %esp	 #,
	.cfi_def_cfa_offset 768
	movl	%ebp, (%esp)	 # tmp107,
LEHB5:
	call	__Unwind_Resume	 #
LEHE5:
LVL38:
LBE25:
LBE24:
LBE27:
	.cfi_endproc
LFE702:
	.def	___gxx_personality_v0;	.scl	2;	.type	32;	.endef
	.section	.gcc_except_table,"w"
LLSDA702:
	.byte	0xff
	.byte	0xff
	.byte	0x1
	.uleb128 LLSDACSE702-LLSDACSB702
LLSDACSB702:
	.uleb128 LEHB0-LFB702
	.uleb128 LEHE0-LEHB0
	.uleb128 0
	.uleb128 0
	.uleb128 LEHB1-LFB702
	.uleb128 LEHE1-LEHB1
	.uleb128 L16-LFB702
	.uleb128 0
	.uleb128 LEHB2-LFB702
	.uleb128 LEHE2-LEHB2
	.uleb128 0
	.uleb128 0
	.uleb128 LEHB3-LFB702
	.uleb128 LEHE3-LEHB3
	.uleb128 L15-LFB702
	.uleb128 0
	.uleb128 LEHB4-LFB702
	.uleb128 LEHE4-LEHB4
	.uleb128 0
	.uleb128 0
	.uleb128 LEHB5-LFB702
	.uleb128 LEHE5-LEHB5
	.uleb128 0
	.uleb128 0
LLSDACSE702:
	.text
	.section	.text.unlikely,"x"
LCOLDE5:
	.text
LHOTE5:
	.section	.text.unlikely,"x"
LCOLDB6:
	.text
LHOTB6:
	.p2align 4,,15
	.globl	__ZN3stk6cipher11uncript_MTFEPvj@8
	.def	__ZN3stk6cipher11uncript_MTFEPvj@8;	.scl	2;	.type	32;	.endef
__ZN3stk6cipher11uncript_MTFEPvj@8:
LFB703:
	.loc 1 31 0
	.cfi_startproc
	.cfi_personality 0,___gxx_personality_v0
	.cfi_lsda 0,LLSDA703
LVL39:
	pushl	%ebp	 #
	.cfi_def_cfa_offset 8
	.cfi_offset 5, -8
	pushl	%edi	 #
	.cfi_def_cfa_offset 12
	.cfi_offset 7, -12
	pushl	%esi	 #
	.cfi_def_cfa_offset 16
	.cfi_offset 6, -16
	pushl	%ebx	 #
	.cfi_def_cfa_offset 20
	.cfi_offset 3, -20
	subl	$748, %esp	 #,
	.cfi_def_cfa_offset 768
LBB28:
	.loc 1 33 0
	cmpb	$0, __ZGVZN3stk6cipher11uncript_MTFEPvjE8__time_1	 #, MEM[(char *)&_ZGVZN3stk6cipher11uncript_MTFEPvjE8__time_1]
LBE28:
	.loc 1 31 0
	movl	768(%esp), %edi	 # a_dst_ptr, a_dst_ptr
LBB37:
	.loc 1 33 0
	je	L122	 #,
L65:
LVL40:
	.loc 1 33 0 is_stmt 0 discriminator 2
	movl	__ZZN3stk6cipher11uncript_MTFEPvjE14__entered_time, %ecx	 # __entered_time, tmp153
	movl	$LC0+7, %ebx	 #, __file_name__
	movl	$LC0, %edx	 #, tmp110
	cmpl	$1, %ebx	 #, __file_name__
	movl	$33, 12(%esp)	 #,
	movl	$LC2, 8(%esp)	 #,
	cmove	%edx, %ebx	 # __file_name__,, tmp110, __file_name__
LVL41:
	movl	$LC3, (%esp)	 #,
	leal	1(%ecx), %esi	 #, D.30192
	movl	%ebx, 4(%esp)	 # __file_name__,
	movl	%esi, 16(%esp)	 # D.30192,
	movl	%esi, __ZZN3stk6cipher11uncript_MTFEPvjE14__entered_time	 # D.30192, __entered_time
LEHB6:
	call	__ZN3stk3con6printsEPKcz	 #
LVL42:
LBB29:
LBB30:
	.loc 2 74 0 is_stmt 1 discriminator 2
	movl	$4, (%esp)	 #,
	call	__ZN3stk3mem5allocEj@4	 #
	.cfi_def_cfa_offset 764
LEHE6:
LVL43:
	subl	$4, %esp	 #,
	.cfi_def_cfa_offset 768
LBE30:
LBE29:
	movl	%eax, %ecx	 # D.30196,
LBB32:
LBB31:
	movl	%eax, %esi	 #, D.30196
LEHB7:
LBE31:
LBE32:
	call	__ZN3stk6cipher12__mtf_cipherC1Ev	 #
LEHE7:
LVL44:
	.loc 1 37 0
	movl	772(%esp), %ebp	 # a_count, ptrd_end
	addl	%edi, %ebp	 # a_dst_ptr, ptrd_end
LVL45:
	.loc 1 39 0
	cmpl	%ebp, %edi	 # ptrd_end, a_dst_ptr
	jae	L73	 #,
	.loc 1 41 0
	movsbl	(%edi), %ebx	 # MEM[base: a_dst_ptr_36, offset: 0B], MEM[base: a_dst_ptr_36, offset: 0B]
LVL46:
	movl	%edi, %eax	 # a_dst_ptr, tmp112
	movl	%esi, (%esp)	 # D.30196,
	notl	%eax	 # tmp112
	addl	%ebp, %eax	 # ptrd_end, tmp111
	andl	$7, %eax	 #, tmp113
	movl	%ebx, 4(%esp)	 # MEM[base: a_dst_ptr_36, offset: 0B],
	.loc 1 39 0
	leal	1(%edi), %ebx	 #, a_dst_ptr
	movl	%eax, 496(%esp)	 # tmp113, %sfp
LEHB8:
	.loc 1 41 0
	call	__ZN3stk6cipher12__mtf_cipher6decodeEc@8	 #
	.cfi_def_cfa_offset 760
LVL47:
	subl	$8, %esp	 #,
	.cfi_def_cfa_offset 768
	.loc 1 39 0
	cmpl	%ebp, %ebx	 # ptrd_end, a_dst_ptr
	.loc 1 41 0
	movb	%al, (%edi)	 # D.30191, MEM[base: a_dst_ptr_36, offset: 0B]
	.loc 1 39 0
	movl	496(%esp), %edx	 # %sfp, tmp113
	je	L73	 #,
	testl	%edx, %edx	 # tmp113
	je	L81	 #,
	cmpl	$1, %edx	 #, tmp113
	je	L107	 #,
	cmpl	$2, %edx	 #, tmp113
	je	L108	 #,
	cmpl	$3, %edx	 #, tmp113
	je	L109	 #,
	cmpl	$4, %edx	 #, tmp113
	je	L110	 #,
	cmpl	$5, %edx	 #, tmp113
	je	L111	 #,
	cmpl	$6, %edx	 #, tmp113
	je	L112	 #,
	.loc 1 41 0
	movsbl	(%ebx), %ecx	 # MEM[base: a_dst_ptr_36, offset: 0B], MEM[base: a_dst_ptr_36, offset: 0B]
	movl	%esi, (%esp)	 # D.30196,
	movl	%ecx, 4(%esp)	 # MEM[base: a_dst_ptr_36, offset: 0B],
	call	__ZN3stk6cipher12__mtf_cipher6decodeEc@8	 #
	.cfi_def_cfa_offset 760
LVL48:
	movb	%al, (%ebx)	 # D.30191, MEM[base: a_dst_ptr_36, offset: 0B]
	.loc 1 39 0
	leal	2(%edi), %ebx	 #, a_dst_ptr
	.loc 1 41 0
	subl	$8, %esp	 #,
	.cfi_def_cfa_offset 768
L112:
	movsbl	(%ebx), %edi	 # MEM[base: a_dst_ptr_36, offset: 0B], MEM[base: a_dst_ptr_36, offset: 0B]
LVL49:
	movl	%esi, (%esp)	 # D.30196,
	.loc 1 39 0
	addl	$1, %ebx	 #, a_dst_ptr
	.loc 1 41 0
	movl	%edi, 4(%esp)	 # MEM[base: a_dst_ptr_36, offset: 0B],
	call	__ZN3stk6cipher12__mtf_cipher6decodeEc@8	 #
	.cfi_def_cfa_offset 760
LVL50:
	movb	%al, -1(%ebx)	 # D.30191, MEM[base: a_dst_ptr_36, offset: 0B]
	subl	$8, %esp	 #,
	.cfi_def_cfa_offset 768
L111:
	movsbl	(%ebx), %eax	 # MEM[base: a_dst_ptr_36, offset: 0B], MEM[base: a_dst_ptr_36, offset: 0B]
	movl	%esi, (%esp)	 # D.30196,
	.loc 1 39 0
	addl	$1, %ebx	 #, a_dst_ptr
	.loc 1 41 0
	movl	%eax, 4(%esp)	 # MEM[base: a_dst_ptr_36, offset: 0B],
	call	__ZN3stk6cipher12__mtf_cipher6decodeEc@8	 #
	.cfi_def_cfa_offset 760
LVL51:
	movb	%al, -1(%ebx)	 # D.30191, MEM[base: a_dst_ptr_36, offset: 0B]
	subl	$8, %esp	 #,
	.cfi_def_cfa_offset 768
L110:
	movsbl	(%ebx), %edx	 # MEM[base: a_dst_ptr_36, offset: 0B], MEM[base: a_dst_ptr_36, offset: 0B]
	movl	%esi, (%esp)	 # D.30196,
	.loc 1 39 0
	addl	$1, %ebx	 #, a_dst_ptr
	.loc 1 41 0
	movl	%edx, 4(%esp)	 # MEM[base: a_dst_ptr_36, offset: 0B],
	call	__ZN3stk6cipher12__mtf_cipher6decodeEc@8	 #
	.cfi_def_cfa_offset 760
LVL52:
	movb	%al, -1(%ebx)	 # D.30191, MEM[base: a_dst_ptr_36, offset: 0B]
	subl	$8, %esp	 #,
	.cfi_def_cfa_offset 768
L109:
	movsbl	(%ebx), %ecx	 # MEM[base: a_dst_ptr_36, offset: 0B], MEM[base: a_dst_ptr_36, offset: 0B]
	movl	%esi, (%esp)	 # D.30196,
	.loc 1 39 0
	addl	$1, %ebx	 #, a_dst_ptr
	.loc 1 41 0
	movl	%ecx, 4(%esp)	 # MEM[base: a_dst_ptr_36, offset: 0B],
	call	__ZN3stk6cipher12__mtf_cipher6decodeEc@8	 #
	.cfi_def_cfa_offset 760
LVL53:
	movb	%al, -1(%ebx)	 # D.30191, MEM[base: a_dst_ptr_36, offset: 0B]
	subl	$8, %esp	 #,
	.cfi_def_cfa_offset 768
L108:
	movsbl	(%ebx), %edi	 # MEM[base: a_dst_ptr_36, offset: 0B], MEM[base: a_dst_ptr_36, offset: 0B]
	movl	%esi, (%esp)	 # D.30196,
	.loc 1 39 0
	addl	$1, %ebx	 #, a_dst_ptr
	.loc 1 41 0
	movl	%edi, 4(%esp)	 # MEM[base: a_dst_ptr_36, offset: 0B],
	call	__ZN3stk6cipher12__mtf_cipher6decodeEc@8	 #
	.cfi_def_cfa_offset 760
LVL54:
	movb	%al, -1(%ebx)	 # D.30191, MEM[base: a_dst_ptr_36, offset: 0B]
	subl	$8, %esp	 #,
	.cfi_def_cfa_offset 768
L107:
	movsbl	(%ebx), %eax	 # MEM[base: a_dst_ptr_36, offset: 0B], MEM[base: a_dst_ptr_36, offset: 0B]
	movl	%esi, (%esp)	 # D.30196,
	.loc 1 39 0
	addl	$1, %ebx	 #, a_dst_ptr
	.loc 1 41 0
	movl	%eax, 4(%esp)	 # MEM[base: a_dst_ptr_36, offset: 0B],
	call	__ZN3stk6cipher12__mtf_cipher6decodeEc@8	 #
	.cfi_def_cfa_offset 760
LVL55:
	movb	%al, -1(%ebx)	 # D.30191, MEM[base: a_dst_ptr_36, offset: 0B]
	subl	$8, %esp	 #,
	.cfi_def_cfa_offset 768
	.loc 1 39 0
	cmpl	%ebp, %ebx	 # ptrd_end, a_dst_ptr
	je	L73	 #,
L81:
	.loc 1 41 0 discriminator 2
	movsbl	(%ebx), %edx	 # MEM[base: a_dst_ptr_36, offset: 0B], MEM[base: a_dst_ptr_36, offset: 0B]
	movl	%esi, (%esp)	 # D.30196,
	.loc 1 39 0 discriminator 2
	addl	$8, %ebx	 #, a_dst_ptr
	.loc 1 41 0 discriminator 2
	movl	%edx, 4(%esp)	 # MEM[base: a_dst_ptr_36, offset: 0B],
	call	__ZN3stk6cipher12__mtf_cipher6decodeEc@8	 #
	.cfi_def_cfa_offset 760
LVL56:
	movsbl	-7(%ebx), %ecx	 # MEM[base: a_dst_ptr_36, offset: 0B], MEM[base: a_dst_ptr_36, offset: 0B]
	subl	$8, %esp	 #,
	.cfi_def_cfa_offset 768
	movb	%al, -8(%ebx)	 # D.30191, MEM[base: a_dst_ptr_36, offset: 0B]
	movl	%esi, (%esp)	 # D.30196,
	movl	%ecx, 4(%esp)	 # MEM[base: a_dst_ptr_36, offset: 0B],
	call	__ZN3stk6cipher12__mtf_cipher6decodeEc@8	 #
	.cfi_def_cfa_offset 760
LVL57:
	movsbl	-6(%ebx), %edi	 # MEM[base: a_dst_ptr_36, offset: 0B], MEM[base: a_dst_ptr_36, offset: 0B]
	subl	$8, %esp	 #,
	.cfi_def_cfa_offset 768
	movb	%al, -7(%ebx)	 # D.30191, MEM[base: a_dst_ptr_36, offset: 0B]
	movl	%esi, (%esp)	 # D.30196,
	movl	%edi, 4(%esp)	 # MEM[base: a_dst_ptr_36, offset: 0B],
	call	__ZN3stk6cipher12__mtf_cipher6decodeEc@8	 #
	.cfi_def_cfa_offset 760
LVL58:
	movb	%al, -6(%ebx)	 # D.30191, MEM[base: a_dst_ptr_36, offset: 0B]
	movsbl	-5(%ebx), %eax	 # MEM[base: a_dst_ptr_36, offset: 0B], MEM[base: a_dst_ptr_36, offset: 0B]
	subl	$8, %esp	 #,
	.cfi_def_cfa_offset 768
	movl	%esi, (%esp)	 # D.30196,
	movl	%eax, 4(%esp)	 # MEM[base: a_dst_ptr_36, offset: 0B],
	call	__ZN3stk6cipher12__mtf_cipher6decodeEc@8	 #
	.cfi_def_cfa_offset 760
LVL59:
	movsbl	-4(%ebx), %edx	 # MEM[base: a_dst_ptr_36, offset: 0B], MEM[base: a_dst_ptr_36, offset: 0B]
	subl	$8, %esp	 #,
	.cfi_def_cfa_offset 768
	movb	%al, -5(%ebx)	 # D.30191, MEM[base: a_dst_ptr_36, offset: 0B]
	movl	%esi, (%esp)	 # D.30196,
	movl	%edx, 4(%esp)	 # MEM[base: a_dst_ptr_36, offset: 0B],
	call	__ZN3stk6cipher12__mtf_cipher6decodeEc@8	 #
	.cfi_def_cfa_offset 760
LVL60:
	movsbl	-3(%ebx), %ecx	 # MEM[base: a_dst_ptr_36, offset: 0B], MEM[base: a_dst_ptr_36, offset: 0B]
	subl	$8, %esp	 #,
	.cfi_def_cfa_offset 768
	movb	%al, -4(%ebx)	 # D.30191, MEM[base: a_dst_ptr_36, offset: 0B]
	movl	%esi, (%esp)	 # D.30196,
	movl	%ecx, 4(%esp)	 # MEM[base: a_dst_ptr_36, offset: 0B],
	call	__ZN3stk6cipher12__mtf_cipher6decodeEc@8	 #
	.cfi_def_cfa_offset 760
LVL61:
	movsbl	-2(%ebx), %edi	 # MEM[base: a_dst_ptr_36, offset: 0B], MEM[base: a_dst_ptr_36, offset: 0B]
	subl	$8, %esp	 #,
	.cfi_def_cfa_offset 768
	movb	%al, -3(%ebx)	 # D.30191, MEM[base: a_dst_ptr_36, offset: 0B]
	movl	%esi, (%esp)	 # D.30196,
	movl	%edi, 4(%esp)	 # MEM[base: a_dst_ptr_36, offset: 0B],
	call	__ZN3stk6cipher12__mtf_cipher6decodeEc@8	 #
	.cfi_def_cfa_offset 760
LVL62:
	movb	%al, -2(%ebx)	 # D.30191, MEM[base: a_dst_ptr_36, offset: 0B]
	movsbl	-1(%ebx), %eax	 # MEM[base: a_dst_ptr_36, offset: 0B], MEM[base: a_dst_ptr_36, offset: 0B]
	subl	$8, %esp	 #,
	.cfi_def_cfa_offset 768
	movl	%esi, (%esp)	 # D.30196,
	movl	%eax, 4(%esp)	 # MEM[base: a_dst_ptr_36, offset: 0B],
	call	__ZN3stk6cipher12__mtf_cipher6decodeEc@8	 #
	.cfi_def_cfa_offset 760
LEHE8:
LVL63:
	movb	%al, -1(%ebx)	 # D.30191, MEM[base: a_dst_ptr_36, offset: 0B]
	subl	$8, %esp	 #,
	.cfi_def_cfa_offset 768
	.loc 1 39 0 discriminator 2
	cmpl	%ebp, %ebx	 # ptrd_end, a_dst_ptr
	jne	L81	 #,
L73:
	.loc 1 45 0
	testl	%esi, %esi	 # D.30196
	je	L63	 #,
	.loc 1 45 0 is_stmt 0 discriminator 1
	movl	%esi, %ecx	 # D.30196,
	call	__ZN3stk6cipher12__mtf_cipherD1Ev	 #
LVL64:
LBB33:
LBB34:
	.loc 2 83 0 is_stmt 1 discriminator 1
	movl	%esi, (%esp)	 # D.30196,
	call	__ZN3stk3mem4freeEPv@4	 #
	.cfi_def_cfa_offset 764
LVL65:
	subl	$4, %esp	 #,
	.cfi_def_cfa_offset 768
LVL66:
L63:
LBE34:
LBE33:
LBE37:
	.loc 1 46 0
	addl	$748, %esp	 #,
	.cfi_remember_state
	.cfi_def_cfa_offset 20
	popl	%ebx	 #
	.cfi_restore 3
	.cfi_def_cfa_offset 16
	popl	%esi	 #
	.cfi_restore 6
	.cfi_def_cfa_offset 12
LVL67:
	popl	%edi	 #
	.cfi_restore 7
	.cfi_def_cfa_offset 8
	popl	%ebp	 #
	.cfi_restore 5
	.cfi_def_cfa_offset 4
LVL68:
	ret	$8	 #
LVL69:
	.p2align 4,,10
L122:
	.cfi_restore_state
LBB38:
	.loc 1 33 0 discriminator 1
	movl	$__ZGVZN3stk6cipher11uncript_MTFEPvjE8__time_1, (%esp)	 #,
	call	___cxa_guard_acquire	 #
LVL70:
	testl	%eax, %eax	 # D.30192
	je	L65	 #,
LEHB9:
	.loc 1 33 0 is_stmt 0 discriminator 3
	call	__ZN3stk4time7time_msEv@0	 #
LEHE9:
LVL71:
	movl	%eax, 496(%esp)	 #, %sfp
	movl	%edx, 500(%esp)	 #, %sfp
	movl	500(%esp), %eax	 # %sfp,
	fildq	496(%esp)	 # %sfp
	testl	%eax, %eax	 #
	js	L123	 #,
L67:
	.loc 1 33 0 discriminator 5
	movl	$__ZGVZN3stk6cipher11uncript_MTFEPvjE8__time_1, (%esp)	 #,
	fstpl	__ZZN3stk6cipher11uncript_MTFEPvjE8__time_1	 # __time_1
	call	___cxa_guard_release	 #
LVL72:
	jmp	L65	 #
	.p2align 4,,10
L123:
	fadds	LC1	 #
	jmp	L67	 #
L77:
	movl	%eax, %esi	 #, tmp106
	.loc 1 33 0
	movl	$__ZGVZN3stk6cipher11uncript_MTFEPvjE8__time_1, (%esp)	 #,
	call	___cxa_guard_abort	 #
LVL73:
	movl	%esi, (%esp)	 # tmp106,
LEHB10:
	call	__Unwind_Resume	 #
LEHE10:
LVL74:
L78:
LBB35:
LBB36:
	.loc 2 83 0 is_stmt 1
	movl	%esi, (%esp)	 # D.30196,
	movl	%eax, %ebp	 #, tmp107
LVL75:
	call	__ZN3stk3mem4freeEPv@4	 #
	.cfi_def_cfa_offset 764
LVL76:
	subl	$4, %esp	 #,
	.cfi_def_cfa_offset 768
	movl	%ebp, (%esp)	 # tmp107,
LEHB11:
	call	__Unwind_Resume	 #
LEHE11:
LVL77:
LBE36:
LBE35:
LBE38:
	.cfi_endproc
LFE703:
	.section	.gcc_except_table,"w"
LLSDA703:
	.byte	0xff
	.byte	0xff
	.byte	0x1
	.uleb128 LLSDACSE703-LLSDACSB703
LLSDACSB703:
	.uleb128 LEHB6-LFB703
	.uleb128 LEHE6-LEHB6
	.uleb128 0
	.uleb128 0
	.uleb128 LEHB7-LFB703
	.uleb128 LEHE7-LEHB7
	.uleb128 L78-LFB703
	.uleb128 0
	.uleb128 LEHB8-LFB703
	.uleb128 LEHE8-LEHB8
	.uleb128 0
	.uleb128 0
	.uleb128 LEHB9-LFB703
	.uleb128 LEHE9-LEHB9
	.uleb128 L77-LFB703
	.uleb128 0
	.uleb128 LEHB10-LFB703
	.uleb128 LEHE10-LEHB10
	.uleb128 0
	.uleb128 0
	.uleb128 LEHB11-LFB703
	.uleb128 LEHE11-LEHB11
	.uleb128 0
	.uleb128 0
LLSDACSE703:
	.text
	.section	.text.unlikely,"x"
LCOLDE6:
	.text
LHOTE6:
	.section	.text.unlikely,"x"
LCOLDB7:
	.text
LHOTB7:
	.p2align 4,,15
	.globl	__ZN3stk6cipher9cript_XOREPvjPKcj@16
	.def	__ZN3stk6cipher9cript_XOREPvjPKcj@16;	.scl	2;	.type	32;	.endef
__ZN3stk6cipher9cript_XOREPvjPKcj@16:
LFB704:
	.loc 1 50 0
	.cfi_startproc
	.cfi_personality 0,___gxx_personality_v0
	.cfi_lsda 0,LLSDA704
LVL78:
	pushl	%ebx	 #
	.cfi_def_cfa_offset 8
	.cfi_offset 3, -8
	subl	$760, %esp	 #,
	.cfi_def_cfa_offset 768
LBB40:
	.loc 1 52 0
	cmpb	$0, __ZGVZN3stk6cipher9cript_XOREPvjPKcjE8__time_1	 #, MEM[(char *)&_ZGVZN3stk6cipher9cript_XOREPvjPKcjE8__time_1]
	je	L138	 #,
L126:
LVL79:
	.loc 1 52 0 is_stmt 0 discriminator 2
	movl	__ZZN3stk6cipher9cript_XOREPvjPKcjE14__entered_time, %ecx	 # __entered_time, tmp105
	movl	$LC0+7, %ebx	 #, __file_name__
	movl	$LC0, %edx	 #, tmp104
	cmpl	$1, %ebx	 #, __file_name__
	movl	$52, 12(%esp)	 #,
	movl	$LC2, 8(%esp)	 #,
	cmove	%edx, %ebx	 # __file_name__,, tmp104, __file_name__
LVL80:
	movl	$LC3, (%esp)	 #,
	leal	1(%ecx), %eax	 #, D.30211
	movl	%ebx, 4(%esp)	 # __file_name__,
	movl	%eax, 16(%esp)	 # D.30211,
	movl	%eax, __ZZN3stk6cipher9cript_XOREPvjPKcjE14__entered_time	 # D.30211, __entered_time
LEHB12:
	call	__ZN3stk3con6printsEPKcz	 #
LEHE12:
LVL81:
LBE40:
	.loc 1 83 0 is_stmt 1 discriminator 2
	addl	$760, %esp	 #,
	.cfi_remember_state
	.cfi_def_cfa_offset 8
	popl	%ebx	 #
	.cfi_restore 3
	.cfi_def_cfa_offset 4
LVL82:
	ret	$16	 #
LVL83:
	.p2align 4,,10
L138:
	.cfi_restore_state
LBB41:
	.loc 1 52 0 discriminator 1
	movl	$__ZGVZN3stk6cipher9cript_XOREPvjPKcjE8__time_1, (%esp)	 #,
	call	___cxa_guard_acquire	 #
LVL84:
	testl	%eax, %eax	 # D.30211
	je	L126	 #,
LEHB13:
	.loc 1 52 0 is_stmt 0 discriminator 3
	call	__ZN3stk4time7time_msEv@0	 #
LEHE13:
LVL85:
	movl	%eax, 496(%esp)	 #, %sfp
	movl	%edx, 500(%esp)	 #, %sfp
	movl	500(%esp), %eax	 # %sfp,
	fildq	496(%esp)	 # %sfp
	testl	%eax, %eax	 #
	js	L139	 #,
L128:
	.loc 1 52 0 discriminator 5
	movl	$__ZGVZN3stk6cipher9cript_XOREPvjPKcjE8__time_1, (%esp)	 #,
	fstpl	__ZZN3stk6cipher9cript_XOREPvjPKcjE8__time_1	 # __time_1
	call	___cxa_guard_release	 #
LVL86:
	jmp	L126	 #
	.p2align 4,,10
L139:
	fadds	LC1	 #
	jmp	L128	 #
L132:
	movl	%eax, %ebx	 #, tmp101
	.loc 1 52 0
	movl	$__ZGVZN3stk6cipher9cript_XOREPvjPKcjE8__time_1, (%esp)	 #,
	call	___cxa_guard_abort	 #
LVL87:
	movl	%ebx, (%esp)	 # tmp101,
LEHB14:
	call	__Unwind_Resume	 #
LEHE14:
LVL88:
LBE41:
	.cfi_endproc
LFE704:
	.section	.gcc_except_table,"w"
LLSDA704:
	.byte	0xff
	.byte	0xff
	.byte	0x1
	.uleb128 LLSDACSE704-LLSDACSB704
LLSDACSB704:
	.uleb128 LEHB12-LFB704
	.uleb128 LEHE12-LEHB12
	.uleb128 0
	.uleb128 0
	.uleb128 LEHB13-LFB704
	.uleb128 LEHE13-LEHB13
	.uleb128 L132-LFB704
	.uleb128 0
	.uleb128 LEHB14-LFB704
	.uleb128 LEHE14-LEHB14
	.uleb128 0
	.uleb128 0
LLSDACSE704:
	.text
	.section	.text.unlikely,"x"
LCOLDE7:
	.text
LHOTE7:
	.section	.text.unlikely,"x"
LCOLDB8:
	.text
LHOTB8:
	.p2align 4,,15
	.globl	__ZN3stk6cipher11uncript_XOREPvjPKcj@16
	.def	__ZN3stk6cipher11uncript_XOREPvjPKcj@16;	.scl	2;	.type	32;	.endef
__ZN3stk6cipher11uncript_XOREPvjPKcj@16:
LFB705:
	.loc 1 87 0 is_stmt 1
	.cfi_startproc
	.cfi_personality 0,___gxx_personality_v0
	.cfi_lsda 0,LLSDA705
LVL89:
	pushl	%ebx	 #
	.cfi_def_cfa_offset 8
	.cfi_offset 3, -8
	subl	$760, %esp	 #,
	.cfi_def_cfa_offset 768
LBB46:
	.loc 1 89 0
	cmpb	$0, __ZGVZN3stk6cipher11uncript_XOREPvjPKcjE8__time_1	 #, MEM[(char *)&_ZGVZN3stk6cipher11uncript_XOREPvjPKcjE8__time_1]
	je	L168	 #,
L142:
LVL90:
	.loc 1 89 0 is_stmt 0 discriminator 2
	movl	$LC0+7, %ebx	 #, __file_name__
	cmpl	$1, %ebx	 #, __file_name__
	je	L169	 #,
	.loc 1 89 0
	movl	__ZZN3stk6cipher11uncript_XOREPvjPKcjE14__entered_time, %eax	 # __entered_time, tmp124
	movl	$89, 12(%esp)	 #,
	movl	$LC2, 8(%esp)	 #,
	movl	$LC0+7, 4(%esp)	 #,
	movl	$LC3, (%esp)	 #,
	addl	$1, %eax	 #, D.30225
	movl	%eax, 16(%esp)	 # D.30225,
	movl	%eax, __ZZN3stk6cipher11uncript_XOREPvjPKcjE14__entered_time	 # D.30225, __entered_time
LEHB15:
	call	__ZN3stk3con6printsEPKcz	 #
LVL91:
LBB47:
LBB48:
	.loc 1 52 0 is_stmt 1
	cmpb	$0, __ZGVZN3stk6cipher9cript_XOREPvjPKcjE8__time_1	 #, MEM[(char *)&_ZGVZN3stk6cipher9cript_XOREPvjPKcjE8__time_1]
	je	L170	 #,
L152:
LBE48:
LBE47:
LBE46:
	.loc 1 87 0
	movl	$LC0+7, %edx	 #, __file_name__
L148:
LVL92:
LBB59:
LBB54:
LBB49:
	.loc 1 52 0
	movl	__ZZN3stk6cipher9cript_XOREPvjPKcjE14__entered_time, %ebx	 # __entered_time, tmp123
	movl	$52, 12(%esp)	 #,
	movl	$LC2, 8(%esp)	 #,
	movl	%edx, 4(%esp)	 # __file_name__,
	movl	$LC3, (%esp)	 #,
	addl	$1, %ebx	 #, D.30225
	movl	%ebx, 16(%esp)	 # D.30225,
	movl	%ebx, __ZZN3stk6cipher9cript_XOREPvjPKcjE14__entered_time	 # D.30225, __entered_time
	call	__ZN3stk3con6printsEPKcz	 #
LEHE15:
LVL93:
LBE49:
LBE54:
LBE59:
	.loc 1 92 0
	addl	$760, %esp	 #,
	.cfi_remember_state
	.cfi_def_cfa_offset 8
	popl	%ebx	 #
	.cfi_restore 3
	.cfi_def_cfa_offset 4
	ret	$16	 #
LVL94:
	.p2align 4,,10
L168:
	.cfi_restore_state
LBB60:
	.loc 1 89 0 discriminator 1
	movl	$__ZGVZN3stk6cipher11uncript_XOREPvjPKcjE8__time_1, (%esp)	 #,
	call	___cxa_guard_acquire	 #
LVL95:
	testl	%eax, %eax	 # D.30225
	je	L142	 #,
LEHB16:
	.loc 1 89 0 is_stmt 0 discriminator 3
	call	__ZN3stk4time7time_msEv@0	 #
LEHE16:
LVL96:
	movl	%edx, 500(%esp)	 #, %sfp
	movl	500(%esp), %edx	 # %sfp,
	movl	%eax, 496(%esp)	 #, %sfp
	fildq	496(%esp)	 # %sfp
	testl	%edx, %edx	 #
	js	L171	 #,
L144:
	.loc 1 89 0 discriminator 5
	movl	$__ZGVZN3stk6cipher11uncript_XOREPvjPKcjE8__time_1, (%esp)	 #,
	fstpl	__ZZN3stk6cipher11uncript_XOREPvjPKcjE8__time_1	 # __time_1
	call	___cxa_guard_release	 #
LVL97:
	jmp	L142	 #
LVL98:
	.p2align 4,,10
L170:
LBB55:
LBB50:
	.loc 1 52 0 is_stmt 1
	movl	$__ZGVZN3stk6cipher9cript_XOREPvjPKcjE8__time_1, (%esp)	 #,
	call	___cxa_guard_acquire	 #
LVL99:
	testl	%eax, %eax	 # D.30225
	je	L152	 #,
L154:
LEHB17:
	call	__ZN3stk4time7time_msEv@0	 #
LEHE17:
LVL100:
	movl	%eax, 496(%esp)	 #, %sfp
	movl	%edx, 500(%esp)	 #, %sfp
	movl	500(%esp), %eax	 # %sfp,
	fildq	496(%esp)	 # %sfp
	testl	%eax, %eax	 #
	js	L172	 #,
L147:
	movl	$__ZGVZN3stk6cipher9cript_XOREPvjPKcjE8__time_1, (%esp)	 #,
	fstpl	__ZZN3stk6cipher9cript_XOREPvjPKcjE8__time_1	 # __time_1
	call	___cxa_guard_release	 #
LVL101:
	cmpl	$1, %ebx	 #, __file_name__
	movl	$LC0, %edx	 #, __file_name__
	jne	L152	 #,
	jmp	L148	 #
LVL102:
	.p2align 4,,10
L169:
LBE50:
LBE55:
	.loc 1 89 0
	movl	__ZZN3stk6cipher11uncript_XOREPvjPKcjE14__entered_time, %ecx	 # __entered_time, tmp125
	movl	$89, 12(%esp)	 #,
	movl	$LC2, 8(%esp)	 #,
	movl	$LC0, 4(%esp)	 #,
	movl	$LC3, (%esp)	 #,
	addl	$1, %ecx	 #, D.30225
	movl	%ecx, 16(%esp)	 # D.30225,
	movl	%ecx, __ZZN3stk6cipher11uncript_XOREPvjPKcjE14__entered_time	 # D.30225, __entered_time
LEHB18:
	call	__ZN3stk3con6printsEPKcz	 #
LVL103:
LBB56:
LBB51:
	.loc 1 52 0
	cmpb	$0, __ZGVZN3stk6cipher9cript_XOREPvjPKcjE8__time_1	 #, MEM[(char *)&_ZGVZN3stk6cipher9cript_XOREPvjPKcjE8__time_1]
	je	L173	 #,
L165:
	movl	$LC0, %edx	 #, __file_name__
	jmp	L148	 #
	.p2align 4,,10
L173:
	movl	$__ZGVZN3stk6cipher9cript_XOREPvjPKcjE8__time_1, (%esp)	 #,
	call	___cxa_guard_acquire	 #
LVL104:
	testl	%eax, %eax	 # D.30225
	je	L165	 #,
	jmp	L154	 #
LVL105:
	.p2align 4,,10
L171:
LBE51:
LBE56:
	.loc 1 89 0 discriminator 5
	fadds	LC1	 #
	jmp	L144	 #
LVL106:
	.p2align 4,,10
L172:
LBB57:
LBB52:
	.loc 1 52 0
	fadds	LC1	 #
	jmp	L147	 #
LVL107:
L156:
	movl	%eax, %ebx	 #, tmp117
LBE52:
LBE57:
	.loc 1 89 0
	movl	$__ZGVZN3stk6cipher11uncript_XOREPvjPKcjE8__time_1, (%esp)	 #,
	call	___cxa_guard_abort	 #
LVL108:
	movl	%ebx, (%esp)	 # tmp117,
	call	__Unwind_Resume	 #
LVL109:
L157:
	movl	%eax, %ebx	 #, tmp116
LBB58:
LBB53:
	.loc 1 52 0
	movl	$__ZGVZN3stk6cipher9cript_XOREPvjPKcjE8__time_1, (%esp)	 #,
	call	___cxa_guard_abort	 #
LVL110:
	movl	%ebx, (%esp)	 # tmp116,
	call	__Unwind_Resume	 #
LEHE18:
LVL111:
LBE53:
LBE58:
LBE60:
	.cfi_endproc
LFE705:
	.section	.gcc_except_table,"w"
LLSDA705:
	.byte	0xff
	.byte	0xff
	.byte	0x1
	.uleb128 LLSDACSE705-LLSDACSB705
LLSDACSB705:
	.uleb128 LEHB15-LFB705
	.uleb128 LEHE15-LEHB15
	.uleb128 0
	.uleb128 0
	.uleb128 LEHB16-LFB705
	.uleb128 LEHE16-LEHB16
	.uleb128 L156-LFB705
	.uleb128 0
	.uleb128 LEHB17-LFB705
	.uleb128 LEHE17-LEHB17
	.uleb128 L157-LFB705
	.uleb128 0
	.uleb128 LEHB18-LFB705
	.uleb128 LEHE18-LEHB18
	.uleb128 0
	.uleb128 0
LLSDACSE705:
	.text
	.section	.text.unlikely,"x"
LCOLDE8:
	.text
LHOTE8:
	.section	.text.unlikely,"x"
LCOLDB9:
	.text
LHOTB9:
	.p2align 4,,15
	.globl	__ZN3stk6cipher9cript_ROTEPvjj@12
	.def	__ZN3stk6cipher9cript_ROTEPvjj@12;	.scl	2;	.type	32;	.endef
__ZN3stk6cipher9cript_ROTEPvjj@12:
LFB706:
	.loc 1 96 0
	.cfi_startproc
	.cfi_personality 0,___gxx_personality_v0
	.cfi_lsda 0,LLSDA706
LVL112:
	pushl	%ebx	 #
	.cfi_def_cfa_offset 8
	.cfi_offset 3, -8
	subl	$760, %esp	 #,
	.cfi_def_cfa_offset 768
LBB66:
	.loc 1 98 0
	cmpb	$0, __ZGVZN3stk6cipher9cript_ROTEPvjjE8__time_1	 #, MEM[(char *)&_ZGVZN3stk6cipher9cript_ROTEPvjjE8__time_1]
LBE66:
	.loc 1 96 0
	movl	776(%esp), %ebx	 # a_haslo_count, a_haslo_count
LBB67:
	.loc 1 98 0
	je	L188	 #,
L176:
LVL113:
	.loc 1 98 0 is_stmt 0 discriminator 2
	movl	__ZZN3stk6cipher9cript_ROTEPvjjE14__entered_time, %ecx	 # __entered_time, tmp111
	movl	$LC0+7, %eax	 #, __file_name__
	movl	$LC0, %edx	 #, tmp110
	cmpl	$1, %eax	 #, __file_name__
	movl	$98, 12(%esp)	 #,
	movl	$LC2, 8(%esp)	 #,
	cmove	%edx, %eax	 # __file_name__,, tmp110, __file_name__
LVL114:
	movl	$LC3, (%esp)	 #,
	leal	1(%ecx), %edx	 #, D.30258
	movl	%eax, 4(%esp)	 # __file_name__,
	movl	%edx, 16(%esp)	 # D.30258,
	movl	%edx, __ZZN3stk6cipher9cript_ROTEPvjjE14__entered_time	 # D.30258, __entered_time
LEHB19:
	call	__ZN3stk3con6printsEPKcz	 #
LVL115:
	.loc 1 100 0 is_stmt 1 discriminator 2
	cmpl	$1, %ebx	 #, a_haslo_count
	jbe	L174	 #,
LVL116:
LBE67:
LBB68:
LBB69:
	.loc 1 105 0
	movswl	%bx, %ebx	 # a_haslo_count, D.30258
LVL117:
	addl	$1, %ebx	 #, D.30258
LVL118:
	movl	%ebx, (%esp)	 # D.30258,
	call	__ZN3stk4cstr5allocEj@4	 #
	.cfi_def_cfa_offset 764
LVL119:
	subl	$4, %esp	 #,
	.cfi_def_cfa_offset 768
LVL120:
	.loc 1 153 0
	movl	%eax, (%esp)	 # buff_ptr,
	call	__ZN3stk4cstr4freeEPc@4	 #
	.cfi_def_cfa_offset 764
LEHE19:
LVL121:
	subl	$4, %esp	 #,
	.cfi_def_cfa_offset 768
LVL122:
L174:
LBE69:
LBE68:
	.loc 1 154 0
	addl	$760, %esp	 #,
	.cfi_remember_state
	.cfi_def_cfa_offset 8
	popl	%ebx	 #
	.cfi_restore 3
	.cfi_def_cfa_offset 4
	ret	$12	 #
LVL123:
	.p2align 4,,10
L188:
	.cfi_restore_state
LBB70:
	.loc 1 98 0 discriminator 1
	movl	$__ZGVZN3stk6cipher9cript_ROTEPvjjE8__time_1, (%esp)	 #,
	call	___cxa_guard_acquire	 #
LVL124:
	testl	%eax, %eax	 # D.30258
	je	L176	 #,
LEHB20:
	.loc 1 98 0 is_stmt 0 discriminator 3
	call	__ZN3stk4time7time_msEv@0	 #
LEHE20:
LVL125:
	movl	%eax, 496(%esp)	 #, %sfp
	movl	%edx, 500(%esp)	 #, %sfp
	movl	500(%esp), %eax	 # %sfp,
	fildq	496(%esp)	 # %sfp
	testl	%eax, %eax	 #
	js	L189	 #,
L178:
	.loc 1 98 0 discriminator 5
	movl	$__ZGVZN3stk6cipher9cript_ROTEPvjjE8__time_1, (%esp)	 #,
	fstpl	__ZZN3stk6cipher9cript_ROTEPvjjE8__time_1	 # __time_1
	call	___cxa_guard_release	 #
LVL126:
	jmp	L176	 #
	.p2align 4,,10
L189:
	fadds	LC1	 #
	jmp	L178	 #
L183:
	movl	%eax, %ebx	 #, tmp107
	.loc 1 98 0
	movl	$__ZGVZN3stk6cipher9cript_ROTEPvjjE8__time_1, (%esp)	 #,
	call	___cxa_guard_abort	 #
LVL127:
	movl	%ebx, (%esp)	 # tmp107,
LEHB21:
	call	__Unwind_Resume	 #
LEHE21:
LVL128:
LBE70:
	.cfi_endproc
LFE706:
	.section	.gcc_except_table,"w"
LLSDA706:
	.byte	0xff
	.byte	0xff
	.byte	0x1
	.uleb128 LLSDACSE706-LLSDACSB706
LLSDACSB706:
	.uleb128 LEHB19-LFB706
	.uleb128 LEHE19-LEHB19
	.uleb128 0
	.uleb128 0
	.uleb128 LEHB20-LFB706
	.uleb128 LEHE20-LEHB20
	.uleb128 L183-LFB706
	.uleb128 0
	.uleb128 LEHB21-LFB706
	.uleb128 LEHE21-LEHB21
	.uleb128 0
	.uleb128 0
LLSDACSE706:
	.text
	.section	.text.unlikely,"x"
LCOLDE9:
	.text
LHOTE9:
	.section	.text.unlikely,"x"
LCOLDB10:
	.text
LHOTB10:
	.p2align 4,,15
	.globl	__ZN3stk6cipher11uncript_ROTEPvjj@12
	.def	__ZN3stk6cipher11uncript_ROTEPvjj@12;	.scl	2;	.type	32;	.endef
__ZN3stk6cipher11uncript_ROTEPvjj@12:
LFB707:
	.loc 1 158 0 is_stmt 1
	.cfi_startproc
	.cfi_personality 0,___gxx_personality_v0
	.cfi_lsda 0,LLSDA707
LVL129:
	pushl	%esi	 #
	.cfi_def_cfa_offset 8
	.cfi_offset 6, -8
	pushl	%ebx	 #
	.cfi_def_cfa_offset 12
	.cfi_offset 3, -12
	subl	$756, %esp	 #,
	.cfi_def_cfa_offset 768
LBB78:
	.loc 1 160 0
	cmpb	$0, __ZGVZN3stk6cipher11uncript_ROTEPvjjE8__time_1	 #, MEM[(char *)&_ZGVZN3stk6cipher11uncript_ROTEPvjjE8__time_1]
LBE78:
	.loc 1 158 0
	movl	776(%esp), %ebx	 # a_haslo_count, a_haslo_count
LBB93:
	.loc 1 160 0
	je	L216	 #,
L192:
LVL130:
	.loc 1 160 0 is_stmt 0 discriminator 2
	movl	$LC0+7, %esi	 #, __file_name__
	cmpl	$1, %esi	 #, __file_name__
	je	L217	 #,
	.loc 1 160 0
	movl	__ZZN3stk6cipher11uncript_ROTEPvjjE14__entered_time, %eax	 # __entered_time, tmp130
	movl	$160, 12(%esp)	 #,
	movl	$LC2, 8(%esp)	 #,
	movl	$LC0+7, 4(%esp)	 #,
	movl	$LC3, (%esp)	 #,
	addl	$1, %eax	 #, D.30288
	movl	%eax, 16(%esp)	 # D.30288,
	movl	%eax, __ZZN3stk6cipher11uncript_ROTEPvjjE14__entered_time	 # D.30288, __entered_time
LEHB22:
	call	__ZN3stk3con6printsEPKcz	 #
LVL131:
LBB79:
LBB80:
	.loc 1 98 0 is_stmt 1
	cmpb	$0, __ZGVZN3stk6cipher9cript_ROTEPvjjE8__time_1	 #, MEM[(char *)&_ZGVZN3stk6cipher9cript_ROTEPvjjE8__time_1]
	je	L218	 #,
L203:
LBE80:
LBE79:
LBE93:
	.loc 1 158 0
	movl	$LC0+7, %esi	 #, __file_name__
L198:
LVL132:
LBB94:
LBB88:
LBB81:
	.loc 1 98 0
	movl	__ZZN3stk6cipher9cript_ROTEPvjjE14__entered_time, %eax	 # __entered_time, tmp129
	movl	$98, 12(%esp)	 #,
	movl	$LC2, 8(%esp)	 #,
	movl	%esi, 4(%esp)	 # __file_name__,
	movl	$LC3, (%esp)	 #,
	addl	$1, %eax	 #, D.30288
	movl	%eax, 16(%esp)	 # D.30288,
	movl	%eax, __ZZN3stk6cipher9cript_ROTEPvjjE14__entered_time	 # D.30288, __entered_time
	call	__ZN3stk3con6printsEPKcz	 #
LVL133:
	.loc 1 100 0
	cmpl	$1, %ebx	 #, a_haslo_count
	jbe	L190	 #,
LVL134:
LBE81:
LBB82:
LBB83:
	.loc 1 105 0
	movswl	%bx, %ebx	 # a_haslo_count, D.30288
LVL135:
	addl	$1, %ebx	 #, D.30288
LVL136:
	movl	%ebx, (%esp)	 # D.30288,
	call	__ZN3stk4cstr5allocEj@4	 #
	.cfi_def_cfa_offset 764
LVL137:
	subl	$4, %esp	 #,
	.cfi_def_cfa_offset 768
LVL138:
	.loc 1 153 0
	movl	%eax, (%esp)	 # buff_ptr,
	call	__ZN3stk4cstr4freeEPc@4	 #
	.cfi_def_cfa_offset 764
LEHE22:
LVL139:
	subl	$4, %esp	 #,
	.cfi_def_cfa_offset 768
LVL140:
L190:
LBE83:
LBE82:
LBE88:
LBE94:
	.loc 1 163 0
	addl	$756, %esp	 #,
	.cfi_remember_state
	.cfi_def_cfa_offset 12
	popl	%ebx	 #
	.cfi_restore 3
	.cfi_def_cfa_offset 8
	popl	%esi	 #
	.cfi_restore 6
	.cfi_def_cfa_offset 4
LVL141:
	ret	$12	 #
LVL142:
	.p2align 4,,10
L216:
	.cfi_restore_state
LBB95:
	.loc 1 160 0 discriminator 1
	movl	$__ZGVZN3stk6cipher11uncript_ROTEPvjjE8__time_1, (%esp)	 #,
	call	___cxa_guard_acquire	 #
LVL143:
	testl	%eax, %eax	 # D.30288
	je	L192	 #,
LEHB23:
	.loc 1 160 0 is_stmt 0 discriminator 3
	call	__ZN3stk4time7time_msEv@0	 #
LEHE23:
LVL144:
	movl	%edx, 500(%esp)	 #, %sfp
	movl	500(%esp), %edx	 # %sfp,
	movl	%eax, 496(%esp)	 #, %sfp
	fildq	496(%esp)	 # %sfp
	testl	%edx, %edx	 #
	js	L219	 #,
L194:
	.loc 1 160 0 discriminator 5
	movl	$__ZGVZN3stk6cipher11uncript_ROTEPvjjE8__time_1, (%esp)	 #,
	fstpl	__ZZN3stk6cipher11uncript_ROTEPvjjE8__time_1	 # __time_1
	call	___cxa_guard_release	 #
LVL145:
	jmp	L192	 #
LVL146:
	.p2align 4,,10
L218:
LBB89:
LBB84:
	.loc 1 98 0 is_stmt 1
	movl	$__ZGVZN3stk6cipher9cript_ROTEPvjjE8__time_1, (%esp)	 #,
	call	___cxa_guard_acquire	 #
LVL147:
	testl	%eax, %eax	 # D.30288
	je	L203	 #,
L205:
LEHB24:
	call	__ZN3stk4time7time_msEv@0	 #
LEHE24:
LVL148:
	movl	%edx, 500(%esp)	 #, %sfp
	movl	500(%esp), %edx	 # %sfp,
	movl	%eax, 496(%esp)	 #, %sfp
	fildq	496(%esp)	 # %sfp
	testl	%edx, %edx	 #
	js	L220	 #,
L197:
	movl	$__ZGVZN3stk6cipher9cript_ROTEPvjjE8__time_1, (%esp)	 #,
	fstpl	__ZZN3stk6cipher9cript_ROTEPvjjE8__time_1	 # __time_1
	call	___cxa_guard_release	 #
LVL149:
	cmpl	$1, %esi	 #, __file_name__
	jne	L203	 #,
LVL150:
	.p2align 4,,10
L206:
	movl	$LC0, %esi	 #, __file_name__
	jmp	L198	 #
LVL151:
	.p2align 4,,10
L217:
LBE84:
LBE89:
	.loc 1 160 0
	movl	__ZZN3stk6cipher11uncript_ROTEPvjjE14__entered_time, %ecx	 # __entered_time, tmp131
	movl	$160, 12(%esp)	 #,
	movl	$LC2, 8(%esp)	 #,
	movl	$LC0, 4(%esp)	 #,
	movl	$LC3, (%esp)	 #,
	addl	$1, %ecx	 #, D.30288
	movl	%ecx, 16(%esp)	 # D.30288,
	movl	%ecx, __ZZN3stk6cipher11uncript_ROTEPvjjE14__entered_time	 # D.30288, __entered_time
LEHB25:
	call	__ZN3stk3con6printsEPKcz	 #
LVL152:
LBB90:
LBB85:
	.loc 1 98 0
	cmpb	$0, __ZGVZN3stk6cipher9cript_ROTEPvjjE8__time_1	 #, MEM[(char *)&_ZGVZN3stk6cipher9cript_ROTEPvjjE8__time_1]
	jne	L206	 #,
	movl	$__ZGVZN3stk6cipher9cript_ROTEPvjjE8__time_1, (%esp)	 #,
	call	___cxa_guard_acquire	 #
LVL153:
	testl	%eax, %eax	 # D.30288
	je	L206	 #,
	jmp	L205	 #
LVL154:
	.p2align 4,,10
L219:
LBE85:
LBE90:
	.loc 1 160 0 discriminator 5
	fadds	LC1	 #
	jmp	L194	 #
LVL155:
	.p2align 4,,10
L220:
LBB91:
LBB86:
	.loc 1 98 0
	fadds	LC1	 #
	jmp	L197	 #
LVL156:
L207:
	movl	%eax, %ebx	 #, tmp123
LBE86:
LBE91:
	.loc 1 160 0
	movl	$__ZGVZN3stk6cipher11uncript_ROTEPvjjE8__time_1, (%esp)	 #,
	call	___cxa_guard_abort	 #
LVL157:
	movl	%ebx, (%esp)	 # tmp123,
	call	__Unwind_Resume	 #
LVL158:
L208:
	movl	%eax, %esi	 #, tmp122
LBB92:
LBB87:
	.loc 1 98 0
	movl	$__ZGVZN3stk6cipher9cript_ROTEPvjjE8__time_1, (%esp)	 #,
	call	___cxa_guard_abort	 #
LVL159:
	movl	%esi, (%esp)	 # tmp122,
	call	__Unwind_Resume	 #
LEHE25:
LVL160:
LBE87:
LBE92:
LBE95:
	.cfi_endproc
LFE707:
	.section	.gcc_except_table,"w"
LLSDA707:
	.byte	0xff
	.byte	0xff
	.byte	0x1
	.uleb128 LLSDACSE707-LLSDACSB707
LLSDACSB707:
	.uleb128 LEHB22-LFB707
	.uleb128 LEHE22-LEHB22
	.uleb128 0
	.uleb128 0
	.uleb128 LEHB23-LFB707
	.uleb128 LEHE23-LEHB23
	.uleb128 L207-LFB707
	.uleb128 0
	.uleb128 LEHB24-LFB707
	.uleb128 LEHE24-LEHB24
	.uleb128 L208-LFB707
	.uleb128 0
	.uleb128 LEHB25-LFB707
	.uleb128 LEHE25-LEHB25
	.uleb128 0
	.uleb128 0
LLSDACSE707:
	.text
	.section	.text.unlikely,"x"
LCOLDE10:
	.text
LHOTE10:
	.data
	.align 4
__ZZN3stk6cipher11uncript_ROTEPvjjE14__entered_time:
	.long	1
.lcomm __ZZN3stk6cipher11uncript_ROTEPvjjE8__time_1,8,8
	.align 4
__ZZN3stk6cipher9cript_ROTEPvjjE14__entered_time:
	.long	1
.lcomm __ZZN3stk6cipher9cript_ROTEPvjjE8__time_1,8,8
	.align 4
__ZZN3stk6cipher11uncript_XOREPvjPKcjE14__entered_time:
	.long	1
.lcomm __ZZN3stk6cipher11uncript_XOREPvjPKcjE8__time_1,8,8
	.align 4
__ZZN3stk6cipher9cript_XOREPvjPKcjE14__entered_time:
	.long	1
.lcomm __ZZN3stk6cipher9cript_XOREPvjPKcjE8__time_1,8,8
	.align 4
__ZZN3stk6cipher11uncript_MTFEPvjE14__entered_time:
	.long	1
.lcomm __ZZN3stk6cipher11uncript_MTFEPvjE8__time_1,8,8
	.align 4
__ZZN3stk6cipher9cript_MTFEPvjE14__entered_time:
	.long	1
.lcomm __ZZN3stk6cipher9cript_MTFEPvjE8__time_1,8,8
.lcomm __ZGVZN3stk6cipher11uncript_ROTEPvjjE8__time_1,8,8
.lcomm __ZGVZN3stk6cipher9cript_ROTEPvjjE8__time_1,8,8
.lcomm __ZGVZN3stk6cipher11uncript_XOREPvjPKcjE8__time_1,8,8
.lcomm __ZGVZN3stk6cipher9cript_XOREPvjPKcjE8__time_1,8,8
.lcomm __ZGVZN3stk6cipher11uncript_MTFEPvjE8__time_1,8,8
.lcomm __ZGVZN3stk6cipher9cript_MTFEPvjE8__time_1,8,8
	.section .rdata,"dr"
	.align 4
LC1:
	.long	1602224128
	.text
Letext0:
	.section	.text.unlikely,"x"
Letext_cold0:
	.file 3 "C:/Qt/Qt5.5.0/Tools/mingw492_32/i686-w64-mingw32/include/_mingw.h"
	.file 4 "C:/Qt/Qt5.5.0/Tools/mingw492_32/i686-w64-mingw32/include/stdint.h"
	.file 5 "C:/Qt/Qt5.5.0/Tools/mingw492_32/i686-w64-mingw32/include/stdio.h"
	.file 6 "cipher/./.././time/stk_time.h"
	.file 7 "cipher/stk_cipher_API.h"
	.file 8 "cipher/stk_cipher_mtf.h"
	.file 9 "cipher/./../io/stk_console.h"
	.file 10 "cipher/./../text/stk_cstr_utils.h"
	.file 11 "<built-in>"
	.file 12 "C:/Qt/Qt5.5.0/Tools/mingw492_32/i686-w64-mingw32/include/c++/bits/exception_ptr.h"
	.file 13 "C:/Qt/Qt5.5.0/Tools/mingw492_32/i686-w64-mingw32/include/c++/i686-w64-mingw32/bits/c++config.h"
	.file 14 "cipher/./../file/eno/stk_file_lzst_header.h"