	.file	"stk_cipher_mtf.cpp"
 # GNU C++ (i686-posix-dwarf-rev1, Built by MinGW-W64 project) version 4.9.2 (i686-w64-mingw32)
 #	compiled by GNU C version 4.9.2, GMP version 6.0.0, MPFR version 3.1.2-p9, MPC version 1.0.2
 # warning: MPFR header version 3.1.2-p9 differs from library version 3.1.2-p10.
 # GGC heuristics: --param ggc-min-expand=100 --param ggc-min-heapsize=131072
 # options passed:  -fpreprocessed stk_cipher_mtf.ii -malign-double
 # -momit-leaf-frame-pointer -m32 -mfpmath=sse -mpreferred-stack-boundary=8
 # -mmmx -msse -msse2 -mthreads -mtune=generic -march=i686
 # -auxbase-strip debug\stk_cipher_mtf.o -g -g -O3 -Wno-write-strings
 # -Wno-multichar -Wno-unused-variable -Wno-unused-parameter
 # -Wno-unused-value -Wno-unused-label -Wno-unused-but-set-variable
 # -Wattributes -Winline -Wshadow -Wunknown-pragmas -Wall -Wextra
 # -std=gnu++11 -std=c++11 -fno-keep-inline-dllexport
 # -fno-use-linker-plugin -fverbose-asm -fstrict-aliasing -fwrapv
 # -funroll-loops -flto -fexceptions -frtti
 # options enabled:  -faggressive-loop-optimizations
 # -fasynchronous-unwind-tables -fauto-inc-dec -fbranch-count-reg
 # -fcaller-saves -fcombine-stack-adjustments -fcommon -fcompare-elim
 # -fcprop-registers -fcrossjumping -fcse-follow-jumps -fdefer-pop
 # -fdelete-null-pointer-checks -fdevirtualize -fdevirtualize-speculatively
 # -fdwarf2-cfi-asm -fearly-inlining -feliminate-unused-debug-types
 # -fexceptions -fexpensive-optimizations -fforward-propagate
 # -ffunction-cse -fgcse -fgcse-after-reload -fgcse-lm -fgnu-runtime
 # -fgnu-unique -fguess-branch-probability -fhoist-adjacent-loads -fident
 # -fif-conversion -fif-conversion2 -findirect-inlining -finline
 # -finline-atomics -finline-functions -finline-functions-called-once
 # -finline-small-functions -fipa-cp -fipa-cp-clone -fipa-profile
 # -fipa-pure-const -fipa-reference -fipa-sra -fira-hoist-pressure
 # -fira-share-save-slots -fira-share-spill-slots
 # -fisolate-erroneous-paths-dereference -fivopts -fkeep-static-consts
 # -fleading-underscore -fmath-errno -fmerge-constants
 # -fmerge-debug-strings -fmove-loop-invariants -fomit-frame-pointer
 # -foptimize-sibling-calls -foptimize-strlen -fpartial-inlining -fpeephole
 # -fpeephole2 -fpredictive-commoning -fprefetch-loop-arrays -free
 # -freg-struct-return -frename-registers -freorder-blocks
 # -freorder-blocks-and-partition -freorder-functions
 # -frerun-cse-after-loop -fsched-critical-path-heuristic
 # -fsched-dep-count-heuristic -fsched-group-heuristic -fsched-interblock
 # -fsched-last-insn-heuristic -fsched-rank-heuristic -fsched-spec
 # -fsched-spec-insn-heuristic -fsched-stalled-insns-dep -fschedule-insns2
 # -fset-stack-executable -fshow-column -fshrink-wrap -fsigned-zeros
 # -fsplit-ivs-in-unroller -fsplit-wide-types -fstrict-aliasing
 # -fstrict-overflow -fstrict-volatile-bitfields -fsync-libcalls
 # -fthread-jumps -ftoplevel-reorder -ftrapping-math -ftree-bit-ccp
 # -ftree-builtin-call-dce -ftree-ccp -ftree-ch -ftree-coalesce-vars
 # -ftree-copy-prop -ftree-copyrename -ftree-cselim -ftree-dce
 # -ftree-dominator-opts -ftree-dse -ftree-forwprop -ftree-fre
 # -ftree-loop-distribute-patterns -ftree-loop-if-convert -ftree-loop-im
 # -ftree-loop-ivcanon -ftree-loop-optimize -ftree-loop-vectorize
 # -ftree-parallelize-loops= -ftree-partial-pre -ftree-phiprop -ftree-pre
 # -ftree-pta -ftree-reassoc -ftree-scev-cprop -ftree-sink
 # -ftree-slp-vectorize -ftree-slsr -ftree-sra -ftree-switch-conversion
 # -ftree-tail-merge -ftree-ter -ftree-vrp -funit-at-a-time -funroll-loops
 # -funswitch-loops -funwind-tables -fvar-tracking
 # -fvar-tracking-assignments -fverbose-asm -fweb -fwrapv
 # -fzero-initialized-in-bss -m32 -m80387 -m96bit-long-double
 # -maccumulate-outgoing-args -malign-double -malign-stringops
 # -mavx256-split-unaligned-load -mavx256-split-unaligned-store
 # -mfancy-math-387 -mfp-ret-in-387 -mieee-fp -mlong-double-80 -mmmx
 # -mms-bitfields -mno-red-zone -mno-sse4 -mpush-args -msahf -msse -msse2
 # -mstack-arg-probe -mvzeroupper

	.text
Ltext0:
	.section	.gnu.lto_.profile.f438d882,"dr0"
	.ascii "x\234cf```c\200\0F\206\363\314{\30\1\5`\1\232"
	.text
	.section	.gnu.lto_.jmpfuncs.f438d882,"dr0"
	.ascii "x\234\215\223MK\2Q\24\206\357\271cf\6\271h\23m\234\26\355\242]\24\256\"\212~A\364\3JA\250\21\312h\25\315\322"
	.ascii "6\266iQDA\4\246}h\366iY\366m_\332\242 \210ZD\253\266\321\302$\202\316\271\215;o\\7\343\334\367<s\336\7f4V\376\327kc\254\15\257\25\14\0\306\1\377\360\17\16\337\223\341\5\207\33\346\314i\275\310\31\303\223\331\305\317\331\252\261os\332t\24"
	.ascii "9@\4\334\214\301\22\214!J@\352\347+\343p\267\376\1\234\200\245\327\211#W\11\320 *\200\30\2"
	.ascii "4>S\310e]\357\274\310mu\14\226\241\36\237\2t>\377\20\216s\204B\4U\374p:_\241%\322t\25S\273\250^n\2}`\15'\324\244\342\242cB]j]\0IK\352\376s*Z-\244\32\30l\310\245\250\324\246T\212\322-L\235R)\354\16\333"
	.ascii "8\1\332hiE:\27KpZm79\203\35\334\255f\274+\4R\352\306{\2\330\267\214\223\13\317\5M\30\327"
	.ascii "0H\313\215\251\361\201\324\230\322CL]XH\33/\357\254\341L\206\266\322;\253"
	.ascii "1\253\356\363[~FhW\222\366\221\262\366\261\260"
	.ascii "8Q\327>\25\300\231\245\375\370\222\10\331\205v3\203s\271"
	.ascii "6\225\276\220jS\232\305\264\366\37m\374"
	.ascii "8\341\262\244\255\346v%\252^\253\273\335\10\340\326r\333\213<\245m\302\315\303 'w\243fy\251\33\245w\224\266tvu\364t{\364\306a\217\336e\4\275C\272o\304\350\13\372\3\6\235\265"
	.ascii "7\366\353\3~\303\333\244\373\2C:\336\4\375\203^'\262\354\27\31r{u"
	.text
	.section	.gnu.lto_.inline.f438d882,"dr0"
	.ascii "x\234cf\300\16\334\30!4+\3\203\274&#\3\223\370\211\"\6\366\16u&\220\30\23"
	.ascii "7\3\3\343\4?6~\220\364\4?\6 \6\13"
	.ascii "10\363\0eA\4#\3\33\203\332\27\26\240>\325\33o\234\31\330\17\254aC\350d\300\253\221\213A\315\24\250O\32\335>\230\255P\343\361\31\301\317\240m\305\10\4@\235"
	.ascii "2\33\252\30"
	.ascii "8>\350!\31\3R\302"
	.ascii "4\301\17\342|f\20\3\277a\302\14j:P\303\344_LdDs\24\212i8\315`\0\0"
	.ascii "4\212!("
	.text
	.section	.gnu.lto_.pureconst.f438d882,"dr0"
	.ascii "x\234cf``\340g\200\0v\6)V\11\266(\256(>\11\376H\341H\0\15\202\2\17"
	.text
	.section	.gnu.lto__ZN3stk6cipher12__mtf_cipherD2Ev.f438d882,"dr0"
	.ascii "x\234\205VmL[U\30>\357\271\267\267\267\245\205\262M\300\352l\25\11\376p\213\177"
	.ascii "6\343\22\223\305\270\370\327?\376\322\244"
	.ascii "1\10\31q|\4\360g\303\5\32\203\223LdjPd\31\"\37\16\201\301\30c\300F\231\16\230n\303\15\330\0\331(:\330\374\310&vY\355\260\301\367=\267\355jW\264IO\317{\316\373\361\274\317y\356\271\225\330\303\237\327\361\233\254"
	.ascii "2V\214\277\240"
	.ascii "2\340\265\27\31\253P9\227\246\323\230f6\14?\317"
	.ascii "4\213\304\345\30K\6\203\356d\340\212\337\206\313\306\306\27qY\1\243\276l\4\240\11\3V\316%\331\240\30\241\34~\341\253\34j\275\35\365I\331-\232\246\375\321\333\246\275\352\205 g\314\317u \320\12\331\350"
	.ascii "3\323\373\373\240E\332\12\14\347'\273\356^H\272\305\203\34\234d\16\326M\324+dr\231\314\266\376\241VsV\263V[\351\353\34\36\335\355\225\203\\\202"
	.ascii "6\220"
	.ascii "0!\264\203\35\276\2;\303%\6G \213\374W=\241\253I\212\7\253\333\364\242\320\1\12"
	.ascii "0f\10q\26\342\240\217\350\327}\253\257?EzJ \360./N*\231M\232V\351\33\350{_\325&4\217o}\335\21\344"
	.ascii "2|\375\357J\341&:!\263{\223W[_\277"
	.ascii "9\304\267\200\260eDaPpPT\34\214&\34T\13\231V\32l@\370Rqjb\277r\340\354"
	.ascii "6GL\10\20\246\15\214f\354\6b%>\227"
	.ascii "9\247_i\36*\357\355\37;\266\3\341}qp\316\243J\317\11\250\207\227Zzd\1\325\273V%\307\0\355J\4"
	.ascii "4\216\17\242\"~\21\272!\223\360"
	.ascii "38J\233\320\3J\200\313\350sh\352@\27w\257i\325\232\32\344\346\20\302\242\310\305\33\223\227T:\35Y\230\355\25\236\317\241\21\32*4\315\333!!\3\320\13n8F\0\240\17"
	.ascii "7\330\14xf\245\7I+Z\207j\214\24\236\204\16\307\303"
	.ascii "8\227\361\370\246\323\244\5\360<\243{*\361\345-~*\17\375\340f\377\217\314,\314\373\315\37[u`\350d\205\23\10k\200\352\321V\315\340\230\11\343)\32N\"J\252\312`\20\334A\236L\210\347\302\210\25\310\214 \224\331"
	.ascii "9\5\21\206"
	.ascii "7\324x\24)~\354\201\301\20\2\14r\333\12/\307\343\273\254\350\316&\364gh\327\211:\30"
	.ascii "9~\374^\273\22\211L\15q\375\240\242\324\244\12\363\360\360\302"
	.ascii "5\210"
	.ascii "6\240\302"
	.ascii "06pJ\360z\32\227"
	.ascii "1+\213\360\365\20%\233\374t:0\362_l\305\321\343\335\210\236\321(=g\210\236\315\202\14\203P\350\25\250\324\32\315\264I\32\242\16N\325UY\35\274Q\253w\6\371\26J\265\364\363x\225\204\251\352)\331#\360\15"
	.ascii "8\20\327\267\210\213b\257%\213\330N\21{\351\263\326\252\24\241+|\234\316\"\22\362\30\331\34\343\261r\363P\213\270\27\14\245\224\332\377\367\273s\321\266d\30\23\324\214\353\251m,\34\223\320i\2\235H\226U\255\331\341\3I\4\23\227\3\315\276\337\200*\246\31\311l\371d\356\210J\234\325\222\233\1\316!g\337\205"
	.ascii "9[Z\257\256\210f\220\341{\222>\203\363\350q6*r\205\371m\202\264\251\364\230\266\22Rt\1!R\210"
	.ascii "1B\264\336Q\0/\15\22\322\322m\243.-K\274\232\322Ct\257\304\252)=\201\232\24\270\210\310&\5\33?\20\324y\250\252\13\253\325\212Y\341i\273\250\323t\307\230H\262\321\"\361Y/E\263^\26\32\265\242F3\22J4\303\217\"b0\245Kt\355\203\3M\252\343\5]8\217\322JC\263\277\301\24a\305\16\323\340\320E8\3\356\200\270\276\7B\177\235V\35Ez\310c\342E\341{o$%\22\362"
	.ascii "8\\\211\204\\\5"
	.ascii "7\356~\32"
	.ascii "8?&\364\245d0\230\5;\202\13\362\255\372\203\332\337\323\270]o>5\366\36yB\364\270\277\342\313;F\352\321\26\344\216\0\267\301\\\370\310\17N\177\364\241e[\207&z7\301<v\374\247x\311\301\217\260\215\36N\315\225\260u\247\237\323=\273\200\255c\301 \177R\200"
	.ascii "83\273\212\17\332QAv\264\244\20\332\203\242@d\343\276"
	.ascii "6:\27Pv\366i\325\370fu0\270\16;\205\350\351v\277K\327\320u\0\375\246g+\0\33\313;^\317\213\33\353\331\247\353y\11\334\206\215\22\302O\340Vj\332\356s|\223\1\311\26\271\260\347\344\27\357\315-y\243\264\354m\227>u\25\224\345m\317).fr\331\336\374R\253\313\225\227\277/\327U\370fA\256\313\245\206-\327\216\227\367\274\364\332+\273\234Y\245\273\234{\12\313rK\234y\357\24\346\224\345\27\25\322\332\356\254\267\234\373\362\13s\237u\346\25\225"
	.ascii "8\321(\313/\310"
	.ascii "5\323\377\220\177\0x\354\370\212"
	.text
	.section	.gnu.lto__ZN3stk6cipher12__mtf_cipher10initializeEv@4.f438d882,"dr0"
	.ascii "x\234\225V\355oSU\30?\317\271\355\275\267\267\33\255\14\306\250\342\212s\1\23"
	.ascii "0\306\204h\360\213"
	.ascii "1\22\377\2\277\231T\203\233"
	.ascii "4\302\300m~l\270]\207\"\22\234\3ua\274\14\347\306`\300\30\216\1c\260\16\225\27\21\220\301\200\301\200\15\266\361\246\"\226P\12\326\372<\347\334\326"
	.ascii "2:\215Kzw\316\271\317\313\357\371=\277s\316U\330\343\177\353\361W\353`\254\24\377C6\3^u\234\261\240\316\271r:\227\231\206\332\371\22"
	.ascii "3\263\24nK\233\331x\26cKu\273\264\264\203*\7*\327\372\235h\244\267\35`h\245\201.\327up\310\201\203;\207\360\215al9F\6\206\\\357\326\235\0"
	.ascii "4`Y\14\330b\256\330\354\252\246;\14g\26,\346\16\6\11\20?\374\273\301\357p\250\12"
	.ascii "7\327"
	.ascii "8\247"
	.ascii "5\230\246\371\373\225\215\357\231\253\336\216q\306\"\\\26\3\215"
	.ascii "0\15mzw\374\322\221\245L\1\206\343=\333\356\36s^\347"
	.ascii "1\16^\232vT\37\256Qi\312m4\335\330\276\267\321(\254"
	.ascii "7\253*\314\252\252:\\V`#(\30\16\232\300\3\233\300\303p\211\301f($\353;\225\361\263N\265\22s\273eJh\6\25\241\331\342\234\305\361"
	.ascii "5\207\226\353m\355.\345\31\221"
	.ascii "9<|\371\204Z\260\301"
	.ascii "4+\6\216\264}\252\233\207\315\312\201D\"?\306m\260\345\321\34\26\370\255P\200nw?n\271\240)/\210\20\227\227,\351\262B\34\335\377r8Xg\376\225H@\214\333a\233\214"
	.ascii "0\303\3\317\245\374[\240\240e|\330L$\"\353\273\267\303d\20\21\271XW\261\16U\307\207f\340Cw\342\303\341\242\251\233\36"
	.ascii "9@\25N\300\241"
	.ascii "1\21\37<\227Fy\302\221\335\344\240\260[\234\32\0\214\263\333"
	.ascii "8\202\273\234\212\37\302\7\366s\30'CL9\17\25\367\226\35o\233\205\250\277^\331W\251+/\212\12\352\6\33Zm\242\202\360\303\220-\215\202\355\231(x\224\343"
	.ascii "8W$\261\320\12\5T\213\340\33q\354\0"
	.ascii "5\312U4^wj\305"
	.ascii "6\36xh.5\365\30w\306\261\247\202\265\241\23'u\352\261\234"
	.ascii "6\5+\327\300Z\250\15\232f\270YA\36\340[\10@\33%\205\235\370\202\365B\345"
	.ascii "9\345\237\240\301\306\275\313"
	.ascii "5rG\225C\273\205m\30e0E\351\207\312\351\322P\37\235=;B\34\301.\10\260\377\6\346\24\323\7\365_dK\\h4\16v#\252=\224\216^-\357"
	.ascii "8\350@\177\362\206\16\4IY\31\354\205@\214\273\10p\237\5X\207\202$@\33\323\21\240\265n\214\6\341\216P\323\240\23\361\305\370\23#\4v\230\333\321\5\33\327\243J''\372"
	.ascii "1\234W\213t\30\341\320\316{Mj2\302\370"
	.ascii "8\227-J\21"
	.ascii "4^L\353:\373/B\252\16\7\354\303:\366\13v\273p\31\243\262$m\217"
	.ascii "1\223\23AZ\31\204\377\215\264Q,u\217\305\322\201\24K\337\21K\23\4'*I\363\14T\230k\15zGB\242\2\366U\207\262\363\371Z\263\306\33\343\23)\322\340\325C!\5#\325P\254\\\370\36\362\21\326\17\10\213|/\216\23\276r{\236\\\335\30r\11q\341F8\210@\310\242+'\315b\344\332\272\6q\304\250e\24:\362\347G}\251\252lpH0sX\206v'7}F\243#hD\332\14"
	.ascii "5N\263\372\221\11&.G\353\7n\1e\234\244\321\264\341\313\276\315:QVEf*\374\210\224\35\265(\33L,\15\246\"\330\340'\322?\203chq0\245t\215\271\4g\247&\245U\225\221\241\343\210\220<t\213fYO\24\305E*\32\374M\223\272r\215\226R^\234\364\227.\245\274\14R\322\340\4\342\372Ypq\222\200\236\207P\265%U7F\205g=\"\317\206\333Z&\275\246\222\214\216\332\223\212zJ\10\324\215\2\315\313\250\317\311\21\22!\234\226\372|\370\331\212\15z\376+R6\36Z\251\255\217\324:\222\244<\11\275\220/\25x\6\2Qq\37\354\216\337\337\257\347\177 ]\236\22"
	.ascii "7\316\300']\256\244\313\24"
	.ascii "8\233t9\7\1|\333\23Y\325$n+m*\203>\360 \270\30\177\232\244\22\376j+<z<\212\343Y838\217}j\21}J\235"
	.ascii "1v\\\276@U\216\0\214-\235\321Z\351\37[+\27\245V.A@\35+ \\\206\200\266f\323\3\216\232p0\274\324-Q\264\220(85\253\275\265\321Ch\243|B:X\11fY\360\233\333\32\201\301\242\275Q\236\3\3\26\222\225\247W}\236"
	.ascii "5\263\331\24\15"
	.ascii "4`\20\221\374!\256|\270\2"
	.ascii "3)\354%M\6\235(\323\204jT9\317\305<\270*\345"
	.ascii "8\216\326\322\263\32\"\370\316\373\353\177\265N\230\260\7yC/\270*\344"
	.ascii "1$\344\301\345&\334e\341\246\217\220\25GWw+\24a*}\235\14\313\235"
	.ascii "3\2\234\10\327;o\30Q\236gLG\16\14\206\237:\212\224\255p\316\223\376\251C\304\216\356#\342\20\341\311\36Fi/\240\257\223\366\324%\10\206[\355\362\332\243E\274\222\224s\20t3\272\202\361Xm\332\335\323\13c\35\255\244\200k\377\343h\275>\326\321z#u\264\336\224G\353\20\340\27\20\210o\0@\230\330\12\317\\\377\242yE\245o\225\225\277\357\223C\337\202\362\342\347\347.Z\304l\345\363\374e\331>_\261\177~\221\257\344\235\5E>\37\370uk\356\233\365\372\234\327\336|c\266\267\260l\266wNIyQ\251\267\370\303\222\271\345\376\205%\264\366j\341\273\336\371\376\222\242\31\336\342\205\245^\234\224\373\27\24\31\364)\362"
	.ascii "7\22\321\200\13"
	.text
	.section	.gnu.lto__ZN3stk6cipher12__mtf_cipherC2Ev.f438d882,"dr0"
	.ascii "x\234\225V_L[U\30?\337\271\267\367\336\26\12\35(\233\325\331:F\360\301\31_\26\343\242\311b\\|\365\305"
	.ascii "7\223\306 d\325\361'P\37\233\335Bc\330\\&25D\204\214!\214\201\203"
	.ascii "17\266\1\33\235\316\301t\33"
	.ascii "2`\3\6\3\34\260\351\26\331\354\2v\330\340\367\235\333V\326\25\215Mzz\277s\277?\277\363;\277\363\235J\354\361O>~wi\214\25\341/X\30\360\212\313\214\371"
	.ascii "4\316\245\241\14\246[\224\356\227\231\236,qy\205%s3c\345\232\311\360"
	.ascii "4\201b<(\\\15\332\320I\253y\15\235T\320\214i\15\200\36\230\231\1\333\311%\331\244\250\232\31v\302\257\374>\207\212@KURv\203\256\353\367\16"
	.ascii "4\350o\5 \304\31\13r\3\32"
	.ascii "4B6\372\14\37\275\333\231,\255\7\206\317\247Z\37\\J\272\315C\34\234dvV\366U)dr\231\314\203\35]\215\226\254z\275\242t\252\272\363\354\326\200\34\342\22\34\4\11\23B\23\330\341\20\330\31N1h\206,\362\277\357\17_KR\374X\335f\24\205\26P\200"
	.ascii "1S\230\263"
	.ascii "0\7cD\277\266\333\307:R\245\15\2A`v\262_\311\254\323\365\322\251\332c\37kz\237\356\237Z^v\204\270\14\337<Z)\262\210\303\220\331\226\26\320\227\227o5\363\14\20\266\214(L\12\16\212\206\203j\306A\263\222\231BC\32\16\346t\20 \177\343 \261;\34(\21\343l\36\237\340\1'\250"
	.ascii "38\20\257\263h\341\257"
	.ascii "4\6\245\13\273\27\332"
	.ascii "7#\304\3\373F\375\232\364\222\200\273\177\272\241]\26p\3Ke\362\12\260\255\211\300>\312\11\264A&\301\25\264 \200#\240,r\31}j\7\367\266r\357\222^\256k!n\11#\243\24"
	.ascii "99\323?\240\321f\310\302l\362\371\277\202\32\250\366\351z\240E\302\5C;x\341(\325\202o\361\5\33\6\377\210\364OR_c\327\36\225\302\223\320\341X\4\322,\346\36\312\220\306\301\377\274\341\251\304\227O\16\22;p\34\274\354\277\221Y\204\371\260\376s\253\1\14\235\254\320\201\260NP=z\265\247\363\274\31\343)\32N\"J\252\312\340\24xC<\205\20\217F\20+\220\31E(\263\13\12\"\214\274\320\342Q\244\6i\277\240\23\1\206\270m\216\320\316r\23\305\340\226]Q\214(3\6"
	.ascii "2\264+EAL\321{|\241I\211\246X\23\346\306\346\304"
	.ascii "8Z#\314\375\335\343\23\20[\211\6]\270\222nA\360i\234\306\254,J\334c\334\244\5\211\33"
	.ascii "8\363o\264\305\361\324\263\32O\201\30Og\211\247t\301\212\"Ty\25J\365\32\13\275$1\321\12NW\226Y\35\274F\257r\206\370\23\224j\372fo\231\204\251\252(\331\223\360\35"
	.ascii "8\20\327\367\210\213b'RD\354a\21;\360ecY\252\20\30\236\202s\210\204<z\322Wx\314\335\252m\20\375\300TB\251\203\177}4\32[\226\14?\10j\316\33\251m,\22\223\320\251\27\235H\237e\215\331\221\15I\4\23\247\27\353\247\356\0U4\253d6|1\332\254\21g\25\344f\202>\344\354B\204\263\351\345r_,\203\14?\322\31`\360\23z\234\213\251]eA\233 mp\355\212e%\244\350\"B\244\20-J\264\261\242E\24\30\11i\372w\325\220\226"
	.ascii "5^M\31a\322\340J5e$P\223\2\227\20\331e\301F?A\35\203\262\312\210ZS0+l\264\213:u\363j\"\311\306\212\304g\375"
	.ascii "9\226u@h4\5"
	.ascii "5\272.\241D\327\6\251\223\300\25C\242K\237\354\255\323\34\257\30\302YG3\325\365\301js\224\225\247`\20\34\206\10\207\300\273(\332\366\311\360\237g4G\241\21b\27\27\304\324\256\236\324h\310\323"
	.ascii "0\34\15\271\12^|\333^w}Q\">\260\17\303"
	.ascii "5\260#\270\20\177\206\316P`\240;r\274\323\342Q\256\17\342af0b\240\354\272x\250\215S\212gul\256\243`\17q\207A\323\253\21\226b\275\310)\350\331\355\373z^%zl!\376\334\"O\207\261\210Z\366\15}\366i\362\246\26]\320\266\1\256#Y\177\210{\21\306a\23\342\20\260\6\217@B\352"
	.ascii "2\203\234\32\366\4\202\302\234!\276\221\335\0_`X6\32"
	.ascii "9\233\3X]\321\361\22\276\261\272\204'\15\11O\201WY-!L\203W\275[\377\220\243R\361_\203"
	.ascii "4\2>\33\243\33\14\341"
	.ascii "7\335{\177\265\336\244b\344/\377\243"
	.ascii "7\335\\\255"
	.ascii "7\315\304z\323\254\321\233f\0/{\20\27(\320\311AN\355"
	.ascii "9\356\242\355\271\305\357\224x>p\31\217\256|O\336\213"
	.ascii "9EEL\366lw\227X]\256<\367\216\\W\301\273\371\271.\227\26\261\\\233\337\330\366\372\333onqf\225lqn+\360\344\26;\363>,\310\361\270\13\13hnk\326{\316\35\356\202\334\27\234y\205\305N4<\356\374\\\13]\343\177\3\13\317#\217"
	.text
	.section	.gnu.lto__ZN3stk6cipher12__mtf_cipher6encodeEc@8.f438d882,"dr0"
	.ascii "x\234\225V\373OTG\24\236"
	.ascii "3w\271{wy\12\226\307\242e+R\332D\375\315hM\232\230\246\246\177A\177k\262"
	.ascii "5\26\"U\320\2Mc\332\215w\201\266\370\250E\264\306J1*\5i\255\240(T\301\307Z[\337`QDPDP@|\201v\15t\325-=g\346\356\272\342\322\306M\366\356\234\231s\316|\347\233o\316]\205\275\370\311\306\357\\+c_\340/X\31\360\222\26\306\\\32\347J[<\323\255\352\241"
	.ascii "9L\217P\270)\310"
	.ascii "2q\13c\305Z\230\364\14\3U\16Tn\366\304\240\223V\376"
	.ascii "6:\231A\223\323\32\0\15\230\205\1[\311\25S\230j\326,\260\22n\363\207\34\206\326\267"
	.ascii "6i\351\225\272\256?\250[\263d\335\306\17\275\234"
	.ascii "1\17g0\303\6o\332\10R\25\244\243\337\245\272{\215\21\312T`8>X\363\250"
	.ascii "9|\220{9\330\311l,=\265Y%\223\233\310\334\331\320TeM\253\320K\12\364\222\222m8\255\300NP(e5\330\340'\260"
	.ascii "1\234b\360"
	.ascii "3\244\241s\345\326\233-\252"
	.ascii "2M\244\35zT^\254R\240\356\256>\256$z\271\11v\311@\211\305\313\303\30\374\2i\344\373\260\310w9\\-B\330"
	.ascii "1\204\26a\356\6\25\30"
	.ascii "3\371"
	.ascii "8\363\341"
	.ascii "2\207\332\301\375\15\321J\272\310\354\356\277~^M\335\256\353\5=\335\373\327h\372)\275\250gl,\305\313U\250y\36\232\374@-\244Ra\367\33\335\\\231-R\234\35\330\262\307,S\14\326\275\345v\355\320\377\31\33\3/7\303\236`\214F\374^H\255\215u\353cc\373j\216u\300\24\20\31MX\1S\251\14\15\37\232\5\37\226H2\243\350"
	.ascii "1\11\250\266X\32\306\1\261"
	.ascii "3\31\207\326x|\204'\210\204\211"
	.ascii "8\214H\242\311dJ\304\356pP\330]\16\264\37\343l\30G\360\210\23\27}\370\240\23\357G\13\177\225+P0\262z\244~6\226\261cCg\221\246\314\21%m\353\255\334k\22%\271\237\24\232\202"
	.ascii "8\251\13\305\11\6\254\271\374p8J\231/\202\327~\363\264\330j\360\321>7\230\217\375/\362\361\374\201\371\270\"O\11\366A*\21\3\365\370\305\12\305!b5\15\240\216r\23\6m\275\270\256\206;\237\350\305\272\346\345\221>\324\27\245\272\336w\276U#\275\251\302\254v\25\375\0\345P\346\322\365\236\356v\25\251\201_\301\11\7\10"
	.ascii "9\34\304\25v\11\212:\224gY]UMk\315\24\37\205\16\215F\201\375\250\311\266x\245\13\212\336\220\236\352\370\375\243=\304"
	.ascii "54\201\223\375?\264Ha>\256\370.R\"C\247p8\204\260\16\323~\264\264\266\361\204\5\343)\32\216 J\332\225\301Qpzy\14!\356"
	.ascii "4\20\253\220\352Ghb\247UDh,h\343QL\362\320\351\203\33\1zy\354\0\241\355\307+\203"
	.ascii "1(\200\13\252\214\262` C\273Tl\210)N\326\217T\253\376\24q>.\217+\300Q\234"
	.ascii "0\267\35\352\272\6\201J,p\14+\371M\20|\34\247"
	.ascii "1+\363\23\367\2"
	.ascii "7\223=\310,\203\337\377\213\266q<\375"
	.ascii "1\21O'\2<\235$\236^\21\254\250B\343\355P\240\227[i\221TE\25\34.-\214L\341\345\372f\273\227\307S\252\336\233'\13\25L\265\231\222%\300)HA\\\247\21\27\305^\213\22\261\362\342\267n\251*\214\26\12\303;u\6\221\220\307\321\270 \217\201[[+E\317cy\224\332\363\364\253\316@Y*\234\25\324\234\223\251c\374\355$\244S3:\221>\13\253\322\215\3\11\5\23\247G+z\356\2\355\230h&\263rS\347\317\32qVBn\14Z\220\263\363\6g\275c\305\256@\6\25\376\244;\300\240\25=\316\4\324nf\236\30A\332\305\204\240\262BRt\1!R\210\346'ZV4\212\2#!\365\16\231\245\264\"\307\253)\311G\32\14VSR\10"
	.ascii "5\205\301ED\326&\330\270DP\257@a\251\241\326(\314\12\323mb\237\355\303\346P\222\15l2>k{ \353e\241\321(\324hbH\211\332<\244C\350\220\22}\362\355\272\355Z\312\2)\234d\232)\253\360\224Y\374\254L\201NH\221\"\274\2\316Q\361\256"
	.ascii "9\340\373\373\210\226\362\271\14\231*^\202=\253\216F\373C^\205\253\376\220.p\342j{Wm\261PO\330,\6\327\300\206\340\274<\205\304\342n\335\315\305y\324\213\363(k\256^eZ\361\31\266\325Q>If\350\206\25DG\367\327\347\222$G\261\270D3\15 \355\311\301}\310.\250Y\355\372q\330L\324\304x\371k\243<\16\256\33J\331\320\266q}\304\314]\272\240\314\12=H\324_\\\274\301za&\362e\34C\374x\306\246y\260\261"
	.ascii "0\270\201\214\341\206\210\1\35\256\336h\376\236\323\236\251:\352\361&\330\274|:\341\352"
	.ascii "0\344\221\200y\260DY\336^\322O\202,\244e$Lz$\32S\376J\222^\2z\337"
	.ascii "3\350\375\2\372\227\372'!\17;\315C\357\15\30\20\320\223pS/\177]\342h\337dt\326dB\332\15\6\212d\306\6\0&\276\230\343o\342\255\211o\342\240\274\211\267\301\251N\224\20\356\200\323|o\327c\216\27\16\377\344)\35\340\212a\364Z\307\6[\375\340\343\211Z\254\31#\357\276D\213\275"
	.ascii "7Q\213\275\37h\261C\262\305\366\1\376\305\2\361\257\2\250\1 \307\266EY\313\27g\344~\220\227\277\304!\207\216\354\374\314Y\213\226/g\246\374\305Yy\246\205\216E\213#\35\216\314\254\245\31\216\234\205\331\31\16\7\344j\206\355"
	.ascii "0-\305\325\331\357.x\347\375\367\346\331\323\362\346\331\27\344\344g\344\332"
	.ascii "3?\315Y\224\237\265,\207\346\346\247}d_\232\225\223"
	.ascii "1\303\236\271,\327\216F~Vv\206\225\376\347\374\13\26\33\264P"
	.text
	.section	.gnu.lto__ZN3stk6cipher12__mtf_cipher6decodeEc@8.f438d882,"dr0"
	.ascii "x\234\225V\377STU\24\277\347\276\267o\337\256,\254\200@k\266\233\310P3\332o\216\215"
	.ascii "3\315"
	.ascii "8MN\177A\277"
	.ascii "4\315l\16\301H\12\32P\375\264\343[\330\212\314\14\321\212\321"
	.ascii "0\225@\322\22\361\13*\240\256Y\212\231\32\212(\206\12\11\250\231\370e\35\326U\267\355\234{w\267\25\227\232vf\337\336s\337"
	.ascii "9\347~\316\347|\356\275\253\260'?%\370]ea\354}\374\5+\3^s\222"
	.ascii "1\257\316\271\322\223\305\14\253\326"
	.ascii "9\207\31)\12W\23,\225\243\177\265n\222\236&\320\344@\343\346\200\35\235\364\372\227\320\311\14\272\234\326\1h\300,\14\330"
	.ascii "2\256\250&\315\254[`\31\\\347w8\214\256\352\356\320\363\33\15\303\270}\367\323E+\327\274\31\342\214\5"
	.ascii "8\203\231\16x\336A\220\232 \37\375\316\356\370\263=E\231\6\14\307\373\266\335;1\351\32\17qp\221\331^\333U\247\221\311U27\267u4Y\363\32\214\232J\243\246f\3N+\260\31\24J\331\14\16\370\26\34\14\247\30l\201<tn\\\177\345\244\246L\27iG\357\325Wk\24h\370\233\17+9!\256\302V\31(\261\204\270\211\301w\220G\276w|\341s\223"
	.ascii "4\37\302\266\23Z\204\371=h\300\230\32\346,\214\257"
	.ascii "9\264\\\333\325\226\246\344\213\314\376\341\313\247\264\334\215\206Q9\360`\327'\272\321e\370\6\"\21g\210k\260\355qh\362\3-\220K\205\335l\367se\266Hq|d\355v\263L\361\250\367E\277w\223\361W$\2!n\206\355\211\30\243\361\255\220\333\222\356"
	.ascii "7\"\221\235\235\207j\264\251 2\252X\1\323\250\14\35\37\272\5\37\26\33\231\251\364\230\14DI:\16\255\31@ef\342p\322\24|\360,\232\314\26Ysp\230BT0\366\7\7\205\335\340@\353"
	.ascii "1\316n\341\10\356q\342b\10\37\324\361a\264\360W\271\0\225c\313{\367\314\306"
	.ascii "26\255\356\363\351\312\34Q\322\206\301\306VU\224\344\177X\245&p\262#\31'\217\223\36\346\212d\32vB.\25G\340D\23\20\315.\320\202\\\305\200\365gVn\343\236\207F\265\241\207\270-\214\372\240"
	.ascii "4\227\207Nu\353\244\27M\230\315^\337WP\17\353\274\206\341\337\252`e\260\33<\320F\13\303\36|\301\316\202\357\274\362ORoS\307\12"
	.ascii "3\205\247\242\303\336(\276a\224TO\226\322\17\276\347\244\247"
	.ascii "6~\371\264\0Q\5\373\300\303\376\33\231M\230\17\32>\267I`\350d\207v\204\325A\353\321\253\25\355G,\30O\321\320\211(iU\6\373\301\23\342\223\11q_\24\261\6\271"
	.ascii "1\204*;\246!\302\350\13}<\212\364\0"
	.ascii "5\17\16 \300\20\317\30!\264\303\250x\214\301\376\235\326d\224\5\3\31\332\265bALqt\367X\263\26K\221\31\346\262Sq\216"
	.ascii "2\205\271\241\263\377\"\304+\261\300A\254\304/\10>\204\323\230\225\305\210{\202\233)\1d\226\301\17\377F\333"
	.ascii "8\236\16O\304\323\217q\236~\"\236\262\4+\232\220h/T\32\365VzI\202\242\12\366\327V\331\234\274\336\250s\205x6\245\32\274r\264J\301Tu\224,\7\216\200\23q\35E\\\24{1U\304\312}\333\275\266\251*M\10\14\267D\27\"!\217\203\31\11\36#W\327"
	.ascii "7\212#\213\225S\352\300\243\17\373\342eipLP\363\263Lm\217\235\6I\235\216\243\23\351\263\252)?\332\220d0q:\330"
	.ascii "0p\3h\305\247\314d6~\321\267E'\316j\310\215\301/\310\331\211(g\203\221jo<\203\6'i\17"
	.ascii "08\205\36]q\265\233Y\300.H;\223\235PVR\212~E\210\24\242\307\210\226\25\5Q`$\244\301Q\263\224\226m\274\232\34a\322`\242\232\34I\324d\202nDvZ\260q\206\240^\200\252\332\250ZS1+\314p\210u6\336"
	.ascii "2'\223l|\221\361Y{\342Y\317\12\215\246\242Fs\222Jtj\200t\10\275R\242\17?[\271Qw\316\223\302y\232f\326"
	.ascii "5\4\326Yb\254L\203s\340\224\"<\17\236\240\270*\366\206\357\37\320\235\357\311\220g\304\35"
	.ascii "6\360\361\301\264X\210\23\372b!\27\300C\367_S_\207J|\230\346"
	.ascii "2\370\15\34\10.\304]Te[\353\201\327e\351\351\211\307\311\263\242\302\345\336on\231\251B{\210O\17\362\311\320\37m\370\352\236"
	.ascii "5\253Rfm5D\345V \32\356rq\217\\\202Y\224\366R\264E\231A\236\221hO\301)\342\273.\312w\26\256\213\263\344"
	.ascii "2f\225S\331\211"
	.ascii "8\254b\271\335\367\277\276I\373\225n/\214\201\313\202\345\1\352]/p!\247V\322G\266X\352\243\321\240I\246\312\241\251~\370\300x'i\33r\3xZ1\30\304"
	.ascii "6\10\30x\201\317\220\31\306\276\214\236y\16\312p\11 j16\2"
	.ascii "0\361\226\31\277G~\237x\217\\\221{d\10<\332D\11a\30<\346\357Z\36p\334\12\370\357I9\17^;\243\373\22\217\276\346\333oOt\370\321}6\362?\16\277\253\23\35~\327\342\207\337uy\370\15\1\376w\1q]\3mM\354\270\243\240x\351\302\302\262"
	.ascii "7\312+\26\271\345\320]RQ\364B\301\322\245L\255XX\\\256.p\27,\264\271\335E\305\213\13\335\245\13J\12\335n(\323\243\266{\366+\363_~\355\325\271\256\274\362\271\256\371\245\25\205e\256\242wK\13*\212\227\224\322\334\274\274\267\\\213\213K\13g\272\212\226\224\271\320\250(.)\264\322\177\207\277\1\216\265y\14"
	.text
	.section	.gnu.lto_.symbol_nodes.f438d882,"dr0"
	.ascii "x\234U\217IN\303P\20D\313\376)\307q\6G\361\202)$;\316\310\256\263\260\"$\244\300\11H\2\6\302<\213A \6\205-+\304\1\20K\16\1\356\37K\266"
	.ascii "7\325e\275\327\255o\0\254\272\260\237\273K\1"
	.ascii "6?\0\21l\215|p\207\30\271bxGj\336\323K\323\271\245"
	.ascii "8\26Do\315\207\273Gq3\261\337\253\300\235PL\366c\220n\332\247\243\33\36Y\326|\242\237\246;\246\224\12'\207t\25"
	.ascii "8cE\363\222\201\202\333\24\26N\34R\274\302\211\3\32"
	.ascii "5\236Y\325|aM\315cJ\271\0\36\261\244\300\224u\315w6\364U\17\24?{U\317\207sE\251\344\373"
	.ascii "9%\310\367SJ5\337O(\265|\277\241\324\363\375\232\322\310\367"
	.ascii "7J\230\357\257\224f\256\33,\341g\262b\260\210\344\242n\260\200\270\377\345\30\314#^\377\355\32\314a\232\246g)\357\237\32\327\215\227R\237\216\361\224\32"
	.ascii "6\215\327F\322"
	.ascii "2\201\205\2\273*\230\255\12"
	.ascii "2(XFb\7\17\337vhc\332"
	.ascii "0\241\325B\253\205"
	.ascii "3-\314\264\260\213x\240C\7\311\206\16z-\262Zd\265h\246E\231\26u\20+\35\265\21\267\360\7W\17\245<"
	.text
	.section	.gnu.lto_.refs.f438d882,"dr0"
	.ascii "x\234%\311A\22\202@\14D\321\356\16\232\300\210N\310\310\202\225\\\324\263K\225\177\371\276\1\370\342\237\3\244h\224\213\1KZi\2ov\275;\374rc\270<0'\347\222\237\276\240Q\315\370p\265\300\232\\K\355\340\323\26\370\13\235\352\306t\365\300\226\334J\375\364\302\240\206\361\355\32\201=\271\227\306\7?\377\322\4P"
	.text
	.section	.gnu.lto_.decls.f438d882,"dr0"
	.ascii "x\234\275Y\13PT\331\231\356sO\323@7\217\214\32\307P\331\31\342$f\334\361-:\316V2Cfbb\231*'\331\335\331\255\265R\333a\260\35\231(\30@\307\270[5\27y\252\274A`@\241U\20\20\21T\336\10\264\10\2\242\2\12\242\242\330\362PPy\250"
	.ascii "0\202\12\354\177\316\271\267\373^lP\247R{\313\237\333\347\334\377|\347\373\277\363\237\307\275b\205B\261\312J\241\230\200k\306O\25\212\313\326\12\205\12\352>\7\263\1;\5\226\7V\10V\4\266\26\254\30l\15X\271\202]o\201\335\6k\7\353\0\353\1{\0\326\17"
	.ascii "6\14"
	.ascii "6B\234\220B\241\6\373\21\330;`\357\201\315\3[\0\266\34\314\25\314\21\334>\205\373o\301~\7\266\6l-\330\277\202}\1\366\237`\377\5\366g\260\377\6\373\13\330\227`\33\300"
	.ascii "6\"\205\354\"|\346\12q8\200\331\201}\5>\233\300"
	.ascii "2\205"
	.ascii "8\310\363\217\301\316\13"
	.ascii "1\221"
	.ascii "8<\340\371,\270;\303\375k\260\237\200\375\32\312\177\205\273\35\330\337\300\274\301\326A\335o\300|\320\313\32YA\335e\270_\2\363\205\337\317Y\370\212F0k\201\333NA\203w\4M\210"
	.ascii "6\304I\251"
	.ascii "0\307K\264\370\237Iq\365L\23W\255\342\377"
	.ascii "7\266\331\222\270T\2\267\311"
	.ascii "1\221"
	.ascii "1\206\364"
	.ascii "2\215\335\377\202\5\10c,\275H\276\374\342"
	.ascii "5\307k\335\17\210i\272x\2\21\313\347\371\222\330\210nAP\356\226\304h#\360\234\34#\311a\22\373<a\374\304\374\14\26\362Xz\221\371\360Ka\234\244qf\11"
	.ascii "1\212\343(\35?\22\337\232I1\377\243\306"
	.ascii "0\4\261y\374k\270\357\6[\202\344\361\16[\210\327U\230\263\342\330\212\363p\17X\250"
	.ascii "0o\245\327\210"
	.ascii "0\266o\22\363l\13"
	.ascii "1\377#swr\254\326\2\317\311\261J\343\24\327\231"
	.ascii "0\260\10\304\326&\351\365\210C\265Y\7\376\202"
	.ascii "9\4?\225\3M/\212\355\221\223\223z^\2\37\302\217\274\213"
	.ascii "2\221ZA~\32z&&\276\235`W\204"
	.ascii "5\255\16\341\341"
	.ascii "2F\361x\216\2-pB\363\235\24\350(\232G\37)P\6rB\351\310I\221\12>\221\301\374\247\12R\217\216 ,\357:)\376\370\200\225Z@\12\231\26\11\274\303\252\242n8\366p\310A\235\201I9|\254/\300\6\312v\352\25\244X||\350\242\206>v&\305\222\350\332\4\25}\252$\305\211\202\326;\210\26]Hq\317\363c\343\230\365\314\357\342mk\35\340\1:\16}\345@_\12t\202\366\375\276\23\312e]w\354\216\351W\317\210$\336\360\307\31\321p\216\201{6u?\211f\210\215\210\367\321\206\253\251\234\324;kJot\12\315\200\26\17\367FGY\333\355!\\\4:P/\341\223\207H\2\322;\211\345Hy\246\315\324\344\363E\362\357S\356\17\303\17\224\11\334\215~\"w\246\263\2\25P.\371\"\363\256\13\23\275\366R\337\254)|Q!\345\335\245\217m\265\222\361.\224\361.\22x\27Q\336\376E\273\263ld\336\263\244\274\213\5\347b\352|\372\310\11+<\223\244%\352"
	.ascii "4Duj\26\34\5R\220\211\215\330\234?~GJC\255aP\327\250i\361v\322h\252--\222<u\204*.\271\273\246\314\6\251\347\205\230;U\230\272D\25\220f\244-:\15"
	.ascii "5eB\276\16\326\177\37\377"
	.ascii "6\317+Q9\304^\202"
	.ascii "0*E\13\10-\342H\371A=tVUs\267\302\21o\244\4o4\366Tr\330\7\24#\245\250\203\355\211\32\274S(\31\12\207s\254\347\247\363z~p\334\377\234#\1\376|6\252"
	.ascii "4\341\232\202\11\350\353\312Q3\307\262\264\240_\10\216g\300\361,\232/u\214o\272V\250\304\5\10I%\230\315$\10\257O<\203iq\202<\346\332\322\215\200#\304/\237\255u\20<i\205\316A\360"
	.ascii "5b\360\343\201Wh\360\265\20|\265"
	.ascii "9\370\331jS\367w\206\256\34F\262Q$\276\346a<\317\206\21<\317\305'\265`\354G\327\26\325\355\364\304\323\30\315\233"
	.ascii "9s\336\334\357\20\353\253\254;h6\37\245D\27\321Ld\200\276.\241\231\244/v\203+\212"
	.ascii "7\300\14"
	.ascii "2\360\256\276\222"
	.ascii "1\273\0\264\301\3U\241\371\250\1~7\242\271\244\216"
	.ascii "4lB\200l\261Q\303+\32\245\202\352\206x~\227\35\355\235\222\251\222\210\256\320\363|\245"
	.ascii "1\271\331\240"
	.ascii "4Ta\22 \252gt\315=\274OB\377g\370\243\210\367s\246!\320*\"\303\241\261\303\343\216"
	.ascii "2\301\244-\25\350\262I\260\32\375w)\32%\307\352\320z\272p\245\217\306\326\330\317\211\23\246\344\217\20I\12qF6\243"
	.ascii "9\360\367\12R2\321\300\273h<\274\313\372\265\275/\364\327\357\262\305\301t\200P\206\341j\274=\216e\205\312\206\242"
	.ascii "8D\231\254\23\211\34\213.\215\261\21\253\256!Z\27\333\273\257EE\353\346\252\321uV\27\327\25"
	.ascii "5aG\353\326\252\321\15V\327_P;b\365\366>3\255\265\346e\345&z\33\376\266!%\323 -\246"
	.ascii "3\324\16\347"
	.ascii "3\32\307\33\6\237*\235\223atz\374\242\355\6aR\23wtK\330HL?\300\265\267\273\346\250\25q\315\35L\314\372C8\257\367\343a\21@\12\324\202\346\240\253\246\354R\240V\322\6\265#g\370{\33"
	.ascii "9C\323\247e}\261*\334\315\272\254\321WF\331\343\307\254\20\32\21\367LEAy@D\6\330\5)\236Q\202wG$\323A\301.\205\205\26`\34\203i{\375\340\211A\242\5\352\244NP\23\230\227p\1[\32 \324E\6\246\373\245"
	.ascii "1\272\33\306"
	.ascii "7\"\234\302\360"
	.ascii "2\243\356Dh\360QVh;\231"
	.ascii "7b\7\344\214zcy\334G\206]\374\213\211\11L!\320]\11\277{\"\277\36\312\357\366\355t\27\334\312\20\356\265\304>T\342.V\350\340s2\325$V\275"
	.ascii "1\251\22g\360\215\23\23\237\220\234A\275\22\260\373\"\330\3\12VSX?\344\210\3\225\24`\177Bz\253\32G\263\302\363\363\7\207m)\32UNO\224#`\17%`}\"X?\5{Y\254\362\242\272?\321L\"[\26\313\302\223"
	.ascii "7K\214*\323\24\31d\351\225q\262\371\262\235TT\323\26\207\6\210\224\217\251\252\217$\252fV\235\32U\342S\214kQ\353\225a\15.a\205\254\352\320vk&C\233DU\200@O$\334\207D\356\303\224\373\201\247\355\335v\270\203Ad\27\225\31"
	.ascii "8\334\313\12\231\331\374\25\206\247\37\330\317\273"
	.ascii "2<\12\367\275\4\356\251\10"
	.ascii "72\205\24\26&\244\276\355\305\270\265tR\231Ri\224D\372\234\316\253g\342\274*.\213\251T\342(+a[*\277\373"
	.ascii "8\301\21\307\211\305\12C\313\240\260\371\224\344\33w\370\363\256\4m\354\345\315\347\273\363\25\245J\234oEc;r55^C2\220"
	.ascii "7\246\24}T\351'h\5=\243\27\320t\234"
	.ascii "5E\23bp<G\202k\271ZP\340\200\353\31DvJ^\12G\"\365\343\204H\33\"\217>\227\237\22\262d\373\213?'.\227\327"
	.ascii "2JS\225T\23Z\7"
	.ascii "5u\247\13+\34,J\262\213\3I\2"
	.ascii "9\"I\0'H\342\37\352\337f\213[D\15\22\6r\367\330\341\233b19\251\377\211\222IR[\230\372wA\222`\356%I\316\32\373\15J<\316\342y\370"
	.ascii "0!\305\216I\222\223k\226\4zFA\320"
	.ascii "4\204c\222\354\346\4I\366PI\316<\351\210\261\247\221\24\233\26\376\24>8Ne)\26\360\12\245\201\354\25\3"
	.ascii "9\360\374\373e8NE\11\234\333\225"
	.ascii "wS\215\217\262\302\376\0c\253\232\250\33.\252[\266"
	.ascii "7;\220\254\250\306\310\301\304\372\232/\356\370E\207\362\35\23\23\357RL\24F\335P\4\21+L\244\30I)\236<\234V`K\217\327\256\4'u_\334"
	.ascii "1+z\236\266\241\33\301`\321"
	.ascii "5[\234\243\222\235I\346\262"
	.ascii "3\311h\360\356\0"
	.ascii "5-N\210\27=\233\24=*.G\342\331$r\27\377\226\337\211\237*P\24\347\204\242"
	.ascii "9\330Q\343\271y\24\1\305B\315>N<\237T\307-$\347\223"
	.ascii "8N\215b8\323\371d\256\371|\362\362\334"
	.ascii "95\230pP6QHc\226\26\11$\322\357\250\232\353\5"
	.ascii "1\17\26\364uip\221JH\203Si\317\366 l`\221\5\234\317\13q\24\17sA?\27\316hI/\347D\365\271\206~\33\\\315Z\305"
	.ascii "44\215:\260\234H:m\316\11\350\26%B\323\375BN\34\20\5O~\375\234\220\354\243z\32E\212\230\23C\221g>\307\355S\245\201~<\344\276\255\305"
	.ascii "4\0\30t\220\245\301!\"\316A\221\325a\312*8$\251O\205\37O\205\333"
	.ascii "5\220"
	.ascii "6DC\215\344\303#\335B\310\252O\362*\225\1\246\21\300T\21\360\10gy\251{\364\354A\26G\3/7-\373\331\225\306*$\15\34VA6\202\351\4"
	.ascii "3\223\306\236!\306\336x,>\311\1\7X\13C\30\366"
	.ascii "4\262\310\6\357\261\246\234\371{\205\21\216t0`\245\33\332\324\355\27\31\312\33i\344\0\202\216r\346e+K$z\354\15\210FW\30\307\260\270N\37\347h\335\276v}\233\306\"\371lB>\227\222\317\21\311\337MM)\266\306z\221\374\211\320\326"
	.ascii "2\15Ne\344o^\355\31\242\303\306\353\313\366\363\237\262L\"\0\350\204\204\370I\221\370)J|\340\342\223\22\33\\\302\20\372\252/\215\220\311"
	.ascii "8K\315\213\27\372\226\34\273\222\333\256\332\323zq\216~K\346\350X\236\276\327\201\315Q\336\302\34-\202"
	.ascii "9:\213\314\321|\250)0\315\321\300\316"
	.ascii "5\1\260\\\26\302"
	.ascii "4\313"
	.ascii "3\317\321Y\323\315QKZ\236-\33\177be\332\377K\230\230g\223\14]l\321\377\235\35*eu\203c\267x\33\251\300\205\246\11^L\24.\243\12\237\26\25\356>S\20a\205\317\212\12\367\266"
	.ascii "4\334\307\270\206\351s\267"
	.ascii "8\241\304VL\17\275\367=sz\0\10*\227\250\\!\252l\240*7\205\204\16\251\261\221\241T\206\337\366\303\357\35\344\15\372\301\304\275\227VF\305\352CA\227\211O\336%o\274g\240\241IB\5-\22\230J\356=hyu\254\263\34\341p\33\266\231\324\347\\\267\245"
	.ascii "0\372\272C\31\256\11<\245B0\316\312"
	.ascii "1\316\12\30U\24\303"
	.ascii "8\374\202\327\340s\14\343zZ\350\3%\303H\226cT\313"
	.ascii "1\252\5\214s\24#>\250\356\224\3\36b\30\243O\373:\4\36\355r\214\32"
	.ascii "9F\215\200QK1\356\360\207"
	.ascii "2\324"
	.ascii "8\335\226\35\245o\37wb\20\317\344\20ur\210:\1\342<\205(\277S=`\207o\330Nz)Y+\246HZ\305\311V;\323q\360\202\220\"\227\37\217ZM\361\22t\211#G\301\213\234\371(\330\233P\227\242ym\357\374\341c\17\34\351\33\211"
	.ascii "1\273\322\177n\6\11\343\23\324\300\315\221\274\301\232\267\201\320\264\322\245\270\223\261\17\320_\316U\201\2\274\336Xt\343 2\210\22|\254A\365\220V\215\234\263D\205&A\205\313T\205\330\263\265\27"
	.ascii "58B\315\6\264\"\362\202\22'\263\302\356\246\224\27\326\24\324P\347\257\254\25 A\236+\2\244\371\334\324L \321\317a\326\266P\320\334\243c\373\255p\23\303I\277\24\323\304p\214u\214\\\200\224\34\274:H\310]\25\310\265R\234\252k\7\236hp\260\206\342\30:\263\3\260\204O\200\224\17A1\363\271f\342s\235\342\4"
	.ascii "7=\364GL\331$\252\254\351\5\304\222\262\27c\366f`\\\305z\335{\272\260\12"
	.ascii "1\366\311\26\244\275!\223\266M`\177\223\345\350p\177\272\6\17"
	.ascii "2\234\276=\371\345\266S\251yC\246\346-\23\373v\212\23\232\364"
	.ascii "4\316\12\37\266c\357\20\15GJ\225\214O\273\5"
	.ascii "5\207ej\336\26\370\30)\316\371\306 x\27if8\331\343\317NsS\251"
	.ascii "9,S\363\216\211O\7\233"
	.ascii "8\315\271\245j\34j\317^Cs2\236\260\270\214\317,\360\31\221\361\351\24\370tQ\234!\377\254"
	.ascii "6\15.c8W\374\262b\355\247\342"
	.ascii "3\"\343\323m\342s\227\342D\326g\235\347\304S}\310\224\37A\320=\216|\374\33k\316\271+\377\256\230){\7\350a\357\0\344\16\336\315C\275\245ror\210"
	.ascii "1{\367\12\336\275\324\273\276\240"
	.ascii "1F\342\275\206\236\303\314\316\367\5\347\373S@\207\312\274\37\10\336\17\250\367hLm\226\35=#7R\275\306OT<\265\243\207d\372%\266+3j\2\323\342O\350\353Go\322%n\352\317\270\3\234\360\31\267\237\243\255\7\303\2\232\35'\177\203~\10\303\326G\207m\220\233!6\"\336\265\27\223\243U\223\277A[\366F\217"
	.ascii "8\362-\327p\260\372\24\226\205\12\365\22>\217\205P\37\323P\3++\207\344_\1\3e\302<\21\274\237Po}\265\376\13\251\344\344\15\321\354;$\370\16Q\337\276\213y\363\247x\355\31\226\35\324Cj;\3"
	.ascii "8<l/l\343\371\206\356a\214'\304bb\334\256|\341\215\26\366d\364\224\223\374\337\3\331"
	.ascii "8\206\312\323"
	.ascii "4\330\337\201\275"
	.ascii "3U\304\371\323oGQ\246S+t\205\276'Y-\34\316G\305\335\376\31\335\355C\36\334"
	.ascii "4X\377,\205\234v\22\263\366.\206\27\1\5\375\232\304|\236s?#\253\300\330\331{\210\372\204\30*m \16\372\11\206y\274\240\36\306f\375=\33\34\303H\14\365\244\16\342y\364\0\25L^,\310\274\32\223\262&N\307o\235\375\6"
	.ascii "2h-=\275\215\320W)rz\253\273\322\320hE\353I\225"
	.ascii "5=P\345%\276\320\210\331\25\"\377\356=\16\307\266\265$\273& !xL\323k\240~\357\210\22\307"
	.ascii "3.aq10\245\217\260\302\361\214\13\327\311j\226\0\207\231\254\350\37G\362\372]\221<Y\233\221\37V\243]x\362\302\356\217\311\324OCp\274\203\275\200\234i\332\223{4\322\341\317\224\245J f\303\17w\362\236y\262\244\234\223:\223\357Yf\347 \301"
	.ascii "9\210:\207\37\212I\303r\211\37\210\22\7c\"qNsK\251\203\24\256L\326w\210\0\27B\341\272\15\255\21*\251s\256\314y\267\340\274\233:\347\32:\374'\365=,\366\275\207\366\355"
	.ascii "7|\364\246-\356d*f\370\245\336\260\247*\352\333\365\274k\200\236\37\207\301"
	.ascii "3I(_\315\367\232%\14\245\22v\7\215\305)\345\235\215\210\235\205\321\316n\235\257\334\307\341$G\332\331\241\335)\267\254Yg\317,t&_\252\303\315\235E\340\367\24J\367Mn\336\232_}\271\315c\263\357B\17\317\217\25*\37\217\235:\255\257\315\357\327}\341\374\331\7\37(>\375\354_\26\377\311\27\376\255X\264b\321\222\305\377\356\345\265\331g\361\26\17\317\257\276q\371h\231v\371\262\305\36+W\255\\\370\315J\227\205\264\222Tx\272o\336\266A\267XK+\26mR\330i\265[|7j\335=\266n\322y\253\330\15\373\370\376\365\35\366\363\317\213\26/\202\177\213}=\266\350\26C\265\226\374\200fs\204\307\244\212\375$0\360\300z\233\207\247\357*\255\357\17\247\346\343\273\1 \0\312\312\313{\203\316\33\10~\351\346"
	.ascii "\243\323n\360\365\362vv\326\256_\267\34\372\\\311\372\\\272L\312\376\267\313Vo\237\245\325~\265c\207v\253\316\333\307\313\323m\263\207\357\337\265\333\227"
	.ascii "8Y&\353\276u+\11\337\335k\313\326\327A_\272z\273F\253\5v\356n\233"
	.ascii "7k\265j\17O\17_\17\350b\247n\301t\355\226.1;\256\336"
	.ascii "\356\352\"\306\343\376\312\36?\203xD~\257\341\15\374T:Ow\257\15\272_N\347\267\222\371\254vw]\245\332\240{\265;\363!\356\312\215\336:\35\336\242\333\342$\315\15(\323\304\200;\214\331\217\5\254\345Pt!\376\253\377\10"
	.ascii "1\333B\24\200\3\252\251\266z\303\340\372`w/\317\177\222\242xxQ\20\250\366\361\332L\22\354m\21\10\252V\262F\253\377\370\7\367\235"
	.ascii "3\1j\207\233\366\253mn\336\33\264\336\272\315:\320R\11\177"
	.ascii "7\332\220\304[\351\242\365\265&)\252\335\342\243$\367"
	.ascii "9\2\214\13)|(<\201aX\"\303qs\377\333"
	.ascii "6\17o\335[\262\272/\275\274}\255`\250\275\334\245A\255\240"
	.ascii "5\253\277vu\301\336^\336\322'\313\241\14\321~\355\272\312\6\230lq\333\241\365\305\356\233\274\347H]\240\14Qlw\377\332u\351\262\205\332\365\277\377\217\351\22\316e\365\366\325\253\264t\306i\227~\370\12oy\232\231\333\275\252\227\317d\275,{\205\267)y\336\240\211\230@\346&6\342\217\17\264\353_[\0\7\255V\347\351\253\363\326m\240\25\313^\335t\251\213\274\311\212i\233L%\340\257\336\244\325\344.\247\17\360%\355_\345;\31~\311\264M,\14\326\207\257\331\340\15;zy\210_\321\221\251\301\344\216l\341'l\10n\276:\330\204"
	.ascii "68j\327\377\233\357G\246\252\355\30&\226$\17"
	.ascii "6{x\352~\360\360\220\306?D\216\327hg1:\322\356\377\0\310\32\370\303"
	.text
	.section	.gnu.lto_.symtab.f438d882,"dr0"
	.ascii "__ZN3stk6cipher12__mtf_cipherD2Ev\0\0\0\0\0\0\0\0\0\0\0\0\337\0\0\0__ZN3stk6cipher12__mtf_cipherD1Ev\0\0\0\0\0\0\0\0\0\0\0\0\342\0\0\0__ZN3stk6cipher12__mtf_cipher10initializeEv@4\0\0\0\0\0\0\0\0\0\0\0\0\350\0\0\0__ZN3stk6cipher12__mtf_cipherC2Ev\0\0\0\0\0\0\0\0\0\0\0\0\353\0\0\0__ZN3stk6cipher12__mtf_cipherC1Ev\0\0\0\0\0\0\0\0\0\0\0\0\356\0\0\0__ZN3stk6cipher12__mtf_cipher6encodeEc@8\0\0\0\0\0\0\0\0\0\0\0\0\365\0\0\0__ZN3stk6cipher12__mtf_cipher6decodeEc@8\0\0\0\0\0\0\0\0\0\0\0\0\370\0\0\0___gxx_personality_v0\0\0\2\0\0\0\0\0\0\0\0\0\336\0\0\0__ZN3stk3mem4freeEPv@4\0\0\2\0\0\0\0\0\0\0\0\0\0\1\0\0__ZN3stk3con6printsEPKcz\0\0\2\0\0\0\0\0\0\0\0\0\12\1\0\0___cxa_guard_release\0\0\2\0\0\0\0\0\0\0\0\0\20\1\0\0__ZN3stk4time7time_msEv@0\0\0\2\0\0\0\0\0\0\0\0\0\36\1\0\0___cxa_guard_acquire\0\0\2\0\0\0\0\0\0\0\0\0#\1\0\0___cxa_guard_abort\0\0\2\0\0\0\0\0\0\0\0\0&\1\0\0__ZN3stk3mem5allocEj@4\0\0\2\0\0\0\0\0\0\0\0\0,\1\0\0__ZN3stk3mem3rorEPvj@8\0\0\2\0\0\0\0\0\0\0\0\0"
	.ascii "3\1\0\0__ZN3stk3mem3chrEPKvcj@12\0\0\2\0\0\0\0\0\0\0\0\0@\1\0\0"
	.text
	.section	.gnu.lto_.opts,"dr0"
	.ascii "'-fno-trapv' '-dD' '-malign-double' '-momit-leaf-frame-pointer' '-m32' '-mfpmath=sse' '-mpreferred-stack-boundary=8' '-mmmx' '-msse' '-msse2' '-mthreads' '-mtune=generic' '-march=i686' '-g' '-g' '-O3' '-fno-use-linker-plugin' '-fverbose-asm' '-fstrict-aliasing' '-fwrapv' '-funroll-loops' '-flto' '-fexceptions'\0"
	.text
	.section .rdata,"dr"
LC0:
	.ascii "cipher\\stk_cipher_mtf.cpp\0"
LC2:
	.ascii "\0"
	.align 4
LC3:
	.ascii "DEBUG: %s: Enter function: %s@%d line, for %d time\12\0\0"
	.section	.text.unlikely,"x"
	.align 2
LCOLDB5:
	.text
LHOTB5:
	.align 2
	.p2align 4,,15
	.section	.text.unlikely,"x"
Ltext_cold0:
	.text
	.globl	__ZN3stk6cipher12__mtf_cipherC2Ev
	.def	__ZN3stk6cipher12__mtf_cipherC2Ev;	.scl	2;	.type	32;	.endef
__ZN3stk6cipher12__mtf_cipherC2Ev:
LFB703:
	.file 1 "cipher/stk_cipher_mtf.cpp"
	.loc 1 11 0
	.cfi_startproc
	.cfi_personality 0,___gxx_personality_v0
	.cfi_lsda 0,LLSDA703
LVL0:
	pushl	%esi	 #
	.cfi_def_cfa_offset 8
	.cfi_offset 6, -8
	pushl	%ebx	 #
	.cfi_def_cfa_offset 12
	.cfi_offset 3, -12
	movl	%ecx, %ebx	 # this, this
	subl	$756, %esp	 #,
	.cfi_def_cfa_offset 768
LBB7:
	.loc 1 14 0
	cmpb	$0, __ZGVZN3stk6cipher12__mtf_cipherC4EvE8__time_1	 #, MEM[(char *)&_ZGVZN3stk6cipher12__mtf_cipherC4EvE8__time_1]
	je	L43	 #,
LVL1:
L3:
	.loc 1 14 0 is_stmt 0 discriminator 2
	movl	$LC0+7, %esi	 #, __file_name__
	cmpl	$1, %esi	 #, __file_name__
	je	L44	 #,
	.loc 1 14 0
	movl	__ZZN3stk6cipher12__mtf_cipherC4EvE14__entered_time, %eax	 # __entered_time, tmp175
	movl	$14, 12(%esp)	 #,
	movl	$LC2, 8(%esp)	 #,
	movl	$LC0+7, 4(%esp)	 #,
	movl	$LC3, (%esp)	 #,
	addl	$1, %eax	 #, D.29980
	movl	%eax, 16(%esp)	 # D.29980,
	movl	%eax, __ZZN3stk6cipher12__mtf_cipherC4EvE14__entered_time	 # D.29980, __entered_time
LEHB0:
	call	__ZN3stk3con6printsEPKcz	 #
LVL2:
	.loc 1 16 0 is_stmt 1
	movl	$256, (%esp)	 #,
	call	__ZN3stk3mem5allocEj@4	 #
	.cfi_def_cfa_offset 764
LVL3:
	subl	$4, %esp	 #,
	.cfi_def_cfa_offset 768
	movl	%eax, (%ebx)	 # D.29985, this_19(D)->order
LVL4:
LBB8:
LBB9:
	.loc 1 33 0
	cmpb	$0, __ZGVZN3stk6cipher12__mtf_cipher10initializeEvE8__time_1	 #, MEM[(char *)&_ZGVZN3stk6cipher12__mtf_cipher10initializeEvE8__time_1]
	je	L45	 #,
L15:
LBE9:
LBE8:
LBE7:
	.loc 1 11 0
	movl	$LC0+7, %esi	 #, __file_name__
L9:
LVL5:
LBB21:
LBB16:
LBB11:
	.loc 1 33 0
	movl	__ZZN3stk6cipher12__mtf_cipher10initializeEvE14__entered_time, %eax	 # __entered_time, tmp166
	movl	%esi, 4(%esp)	 # __file_name__,
	movl	$33, 12(%esp)	 #,
	movl	$LC2, 8(%esp)	 #,
	movl	$LC3, (%esp)	 #,
	addl	$1, %eax	 #, D.29980
	movl	%eax, 16(%esp)	 # D.29980,
	movl	%eax, __ZZN3stk6cipher12__mtf_cipher10initializeEvE14__entered_time	 # D.29980, __entered_time
	call	__ZN3stk3con6printsEPKcz	 #
LEHE0:
LVL6:
LBB10:
	.loc 1 36 0
	movl	(%ebx), %ecx	 # this_19(D)->order, D.29983
	.loc 1 35 0
	movl	$3, %eax	 #, i
	.loc 1 36 0
	movb	$0, (%ecx)	 #, *_45
	movl	(%ebx), %edx	 # this_19(D)->order, this_19(D)->order
	movb	$1, 1(%edx)	 #, *_32
	movl	(%ebx), %esi	 # this_19(D)->order, this_19(D)->order
LVL7:
	movb	$2, 2(%esi)	 #, *_32
	movl	(%ebx), %ecx	 # this_19(D)->order, this_19(D)->order
	movb	$3, 3(%ecx)	 #, *_32
	.p2align 4,,10
L11:
	movl	(%ebx), %esi	 # this_19(D)->order, tmp167
	.loc 1 35 0
	leal	1(%eax), %edx	 #, tmp132
	.loc 1 36 0
	movzbl	%dl, %ecx	 # tmp132, D.29984
	movb	%dl, (%esi,%ecx)	 # tmp132, *_32
	.loc 1 35 0
	leal	2(%eax), %edx	 #, i
	.loc 1 36 0
	movl	(%ebx), %esi	 # this_19(D)->order, tmp168
	movzbl	%dl, %ecx	 # i, D.29984
	movb	%dl, (%esi,%ecx)	 # i, *_32
	.loc 1 35 0
	leal	3(%eax), %edx	 #, i
	.loc 1 36 0
	movl	(%ebx), %esi	 # this_19(D)->order, tmp169
	movzbl	%dl, %ecx	 # i, D.29984
	movb	%dl, (%esi,%ecx)	 # i, *_32
	.loc 1 35 0
	leal	4(%eax), %edx	 #, i
	.loc 1 36 0
	movl	(%ebx), %esi	 # this_19(D)->order, tmp170
	movzbl	%dl, %ecx	 # i, D.29984
	movb	%dl, (%esi,%ecx)	 # i, *_32
	.loc 1 35 0
	leal	5(%eax), %edx	 #, i
	.loc 1 36 0
	movl	(%ebx), %esi	 # this_19(D)->order, tmp171
	movzbl	%dl, %ecx	 # i, D.29984
	movb	%dl, (%esi,%ecx)	 # i, *_32
	.loc 1 35 0
	leal	6(%eax), %edx	 #, i
	.loc 1 36 0
	movl	(%ebx), %esi	 # this_19(D)->order, tmp172
	movzbl	%dl, %ecx	 # i, D.29984
	movb	%dl, (%esi,%ecx)	 # i, *_32
	.loc 1 35 0
	leal	7(%eax), %edx	 #, i
	.loc 1 36 0
	movl	(%ebx), %esi	 # this_19(D)->order, tmp173
	movzbl	%dl, %ecx	 # i, D.29984
	movb	%dl, (%esi,%ecx)	 # i, *_32
	.loc 1 35 0
	leal	8(%eax), %edx	 #, i
	.loc 1 36 0
	movl	(%ebx), %esi	 # this_19(D)->order, tmp174
	.loc 1 35 0
	addl	$9, %eax	 #, i
	.loc 1 36 0
	movzbl	%dl, %ecx	 # i, D.29984
	.loc 1 37 0
	cmpb	$-1, %al	 #, i
	.loc 1 36 0
	movb	%dl, (%esi,%ecx)	 # i, *_32
	movl	(%ebx), %ecx	 # this_19(D)->order, this_19(D)->order
	movzbl	%al, %edx	 # i, D.29984
	movb	%al, (%ecx,%edx)	 # i, *_32
	.loc 1 37 0
	jne	L11	 #,
LBE10:
LBE11:
LBE16:
LBE21:
	.loc 1 18 0
	addl	$756, %esp	 #,
	.cfi_remember_state
	.cfi_def_cfa_offset 12
	popl	%ebx	 #
	.cfi_restore 3
	.cfi_def_cfa_offset 8
LVL8:
	popl	%esi	 #
	.cfi_restore 6
	.cfi_def_cfa_offset 4
	ret
LVL9:
	.p2align 4,,10
L43:
	.cfi_restore_state
LBB22:
	.loc 1 14 0 discriminator 1
	movl	$__ZGVZN3stk6cipher12__mtf_cipherC4EvE8__time_1, (%esp)	 #,
	call	___cxa_guard_acquire	 #
LVL10:
	testl	%eax, %eax	 # D.29980
	je	L3	 #,
LEHB1:
	.loc 1 14 0 is_stmt 0 discriminator 3
	call	__ZN3stk4time7time_msEv@0	 #
LEHE1:
LVL11:
	movl	%edx, 500(%esp)	 #, %sfp
	movl	500(%esp), %edx	 # %sfp,
	movl	%eax, 496(%esp)	 #, %sfp
	fildq	496(%esp)	 # %sfp
	testl	%edx, %edx	 #
	js	L46	 #,
L5:
	.loc 1 14 0 discriminator 5
	movl	$__ZGVZN3stk6cipher12__mtf_cipherC4EvE8__time_1, (%esp)	 #,
	fstpl	__ZZN3stk6cipher12__mtf_cipherC4EvE8__time_1	 # __time_1
	call	___cxa_guard_release	 #
LVL12:
	jmp	L3	 #
LVL13:
	.p2align 4,,10
L45:
LBB17:
LBB12:
	.loc 1 33 0 is_stmt 1
	movl	$__ZGVZN3stk6cipher12__mtf_cipher10initializeEvE8__time_1, (%esp)	 #,
	call	___cxa_guard_acquire	 #
LVL14:
	testl	%eax, %eax	 # D.29980
	je	L15	 #,
L17:
LEHB2:
	call	__ZN3stk4time7time_msEv@0	 #
LEHE2:
LVL15:
	movl	%edx, 500(%esp)	 #, %sfp
	movl	500(%esp), %edx	 # %sfp,
	movl	%eax, 496(%esp)	 #, %sfp
	fildq	496(%esp)	 # %sfp
	testl	%edx, %edx	 #
	js	L47	 #,
L8:
	movl	$__ZGVZN3stk6cipher12__mtf_cipher10initializeEvE8__time_1, (%esp)	 #,
	fstpl	__ZZN3stk6cipher12__mtf_cipher10initializeEvE8__time_1	 # __time_1
	call	___cxa_guard_release	 #
LVL16:
	cmpl	$1, %esi	 #, __file_name__
	jne	L15	 #,
LVL17:
	.p2align 4,,10
L18:
	movl	$LC0, %esi	 #, __file_name__
	jmp	L9	 #
LVL18:
	.p2align 4,,10
L44:
LBE12:
LBE17:
	.loc 1 14 0
	movl	__ZZN3stk6cipher12__mtf_cipherC4EvE14__entered_time, %ecx	 # __entered_time, tmp176
	movl	$14, 12(%esp)	 #,
	movl	$LC2, 8(%esp)	 #,
	movl	$LC0, 4(%esp)	 #,
	movl	$LC3, (%esp)	 #,
	addl	$1, %ecx	 #, D.29980
	movl	%ecx, 16(%esp)	 # D.29980,
	movl	%ecx, __ZZN3stk6cipher12__mtf_cipherC4EvE14__entered_time	 # D.29980, __entered_time
LEHB3:
	call	__ZN3stk3con6printsEPKcz	 #
LVL19:
	.loc 1 16 0
	movl	$256, (%esp)	 #,
	call	__ZN3stk3mem5allocEj@4	 #
	.cfi_def_cfa_offset 764
LVL20:
	subl	$4, %esp	 #,
	.cfi_def_cfa_offset 768
	movl	%eax, (%ebx)	 # D.29985, this_19(D)->order
LVL21:
LBB18:
LBB13:
	.loc 1 33 0
	cmpb	$0, __ZGVZN3stk6cipher12__mtf_cipher10initializeEvE8__time_1	 #, MEM[(char *)&_ZGVZN3stk6cipher12__mtf_cipher10initializeEvE8__time_1]
	jne	L18	 #,
	movl	$__ZGVZN3stk6cipher12__mtf_cipher10initializeEvE8__time_1, (%esp)	 #,
	call	___cxa_guard_acquire	 #
LVL22:
	testl	%eax, %eax	 # D.29980
	je	L18	 #,
	jmp	L17	 #
LVL23:
L46:
LBE13:
LBE18:
	.loc 1 14 0 discriminator 5
	fadds	LC1	 #
	jmp	L5	 #
LVL24:
L47:
LBB19:
LBB14:
	.loc 1 33 0
	fadds	LC1	 #
	jmp	L8	 #
LVL25:
L19:
	movl	%eax, %esi	 #, tmp125
LBE14:
LBE19:
	.loc 1 14 0
	movl	$__ZGVZN3stk6cipher12__mtf_cipherC4EvE8__time_1, (%esp)	 #,
	call	___cxa_guard_abort	 #
LVL26:
	movl	%esi, (%esp)	 # tmp125,
	call	__Unwind_Resume	 #
LVL27:
L20:
	movl	%eax, %ebx	 #, tmp124
LVL28:
LBB20:
LBB15:
	.loc 1 33 0
	movl	$__ZGVZN3stk6cipher12__mtf_cipher10initializeEvE8__time_1, (%esp)	 #,
	call	___cxa_guard_abort	 #
LVL29:
	movl	%ebx, (%esp)	 # tmp124,
	call	__Unwind_Resume	 #
LEHE3:
LVL30:
LBE15:
LBE20:
LBE22:
	.cfi_endproc
LFE703:
	.def	___gxx_personality_v0;	.scl	2;	.type	32;	.endef
	.section	.gcc_except_table,"w"
LLSDA703:
	.byte	0xff
	.byte	0xff
	.byte	0x1
	.uleb128 LLSDACSE703-LLSDACSB703
LLSDACSB703:
	.uleb128 LEHB0-LFB703
	.uleb128 LEHE0-LEHB0
	.uleb128 0
	.uleb128 0
	.uleb128 LEHB1-LFB703
	.uleb128 LEHE1-LEHB1
	.uleb128 L19-LFB703
	.uleb128 0
	.uleb128 LEHB2-LFB703
	.uleb128 LEHE2-LEHB2
	.uleb128 L20-LFB703
	.uleb128 0
	.uleb128 LEHB3-LFB703
	.uleb128 LEHE3-LEHB3
	.uleb128 0
	.uleb128 0
LLSDACSE703:
	.text
	.section	.text.unlikely,"x"
LCOLDE5:
	.text
LHOTE5:
	.globl	__ZN3stk6cipher12__mtf_cipherC1Ev
	.def	__ZN3stk6cipher12__mtf_cipherC1Ev;	.scl	2;	.type	32;	.endef
	.set	__ZN3stk6cipher12__mtf_cipherC1Ev,__ZN3stk6cipher12__mtf_cipherC2Ev
	.section	.text.unlikely,"x"
	.align 2
LCOLDB6:
	.text
LHOTB6:
	.align 2
	.p2align 4,,15
	.globl	__ZN3stk6cipher12__mtf_cipherD2Ev
	.def	__ZN3stk6cipher12__mtf_cipherD2Ev;	.scl	2;	.type	32;	.endef
__ZN3stk6cipher12__mtf_cipherD2Ev:
LFB706:
	.loc 1 21 0
	.cfi_startproc
	.cfi_personality 0,___gxx_personality_v0
	.cfi_lsda 0,LLSDA706
LVL31:
	pushl	%ebx	 #
	.cfi_def_cfa_offset 8
	.cfi_offset 3, -8
	movl	%ecx, %ebx	 # this, this
	subl	$760, %esp	 #,
	.cfi_def_cfa_offset 768
LBB23:
	.loc 1 24 0
	cmpb	$0, __ZGVZN3stk6cipher12__mtf_cipherD4EvE8__time_1	 #, MEM[(char *)&_ZGVZN3stk6cipher12__mtf_cipherD4EvE8__time_1]
	je	L59	 #,
LVL32:
L50:
	.loc 1 24 0 is_stmt 0 discriminator 2
	movl	__ZZN3stk6cipher12__mtf_cipherD4EvE14__entered_time, %ecx	 # __entered_time, tmp102
	movl	$LC0+7, %eax	 #, __file_name__
	movl	$LC0, %edx	 #, tmp101
	cmpl	$1, %eax	 #, __file_name__
	movl	$24, 12(%esp)	 #,
	movl	$LC2, 8(%esp)	 #,
	cmove	%edx, %eax	 # __file_name__,, tmp101, __file_name__
LVL33:
	movl	$LC3, (%esp)	 #,
	leal	1(%ecx), %edx	 #, D.29993
	movl	%eax, 4(%esp)	 # __file_name__,
	movl	%edx, 16(%esp)	 # D.29993,
	movl	%edx, __ZZN3stk6cipher12__mtf_cipherD4EvE14__entered_time	 # D.29993, __entered_time
	call	__ZN3stk3con6printsEPKcz	 #
LVL34:
	.loc 1 26 0 is_stmt 1 discriminator 2
	movl	(%ebx), %ebx	 # this_16(D)->order, this_16(D)->order
LVL35:
	movl	%ebx, (%esp)	 # this_16(D)->order,
	call	__ZN3stk3mem4freeEPv@4	 #
	.cfi_def_cfa_offset 764
LVL36:
	subl	$4, %esp	 #,
	.cfi_def_cfa_offset 768
LBE23:
	.loc 1 27 0 discriminator 2
	addl	$760, %esp	 #,
	.cfi_remember_state
	.cfi_def_cfa_offset 8
	popl	%ebx	 #
	.cfi_restore 3
	.cfi_def_cfa_offset 4
	ret
LVL37:
	.p2align 4,,10
L59:
	.cfi_restore_state
LBB24:
	.loc 1 24 0 discriminator 1
	movl	$__ZGVZN3stk6cipher12__mtf_cipherD4EvE8__time_1, (%esp)	 #,
	call	___cxa_guard_acquire	 #
LVL38:
	testl	%eax, %eax	 # D.29993
	je	L50	 #,
	.loc 1 24 0 is_stmt 0 discriminator 3
	call	__ZN3stk4time7time_msEv@0	 #
LVL39:
	movl	%eax, 496(%esp)	 #, %sfp
	movl	%edx, 500(%esp)	 #, %sfp
	movl	500(%esp), %eax	 # %sfp,
	fildq	496(%esp)	 # %sfp
	testl	%eax, %eax	 #
	js	L60	 #,
L52:
	movl	$__ZGVZN3stk6cipher12__mtf_cipherD4EvE8__time_1, (%esp)	 #,
	fstpl	__ZZN3stk6cipher12__mtf_cipherD4EvE8__time_1	 # __time_1
	call	___cxa_guard_release	 #
LVL40:
	jmp	L50	 #
	.p2align 4,,10
L60:
	fadds	LC1	 #
	jmp	L52	 #
LBE24:
	.cfi_endproc
LFE706:
	.section	.gcc_except_table,"w"
LLSDA706:
	.byte	0xff
	.byte	0xff
	.byte	0x1
	.uleb128 LLSDACSE706-LLSDACSB706
LLSDACSB706:
LLSDACSE706:
	.text
	.section	.text.unlikely,"x"
LCOLDE6:
	.text
LHOTE6:
	.globl	__ZN3stk6cipher12__mtf_cipherD1Ev
	.def	__ZN3stk6cipher12__mtf_cipherD1Ev;	.scl	2;	.type	32;	.endef
	.set	__ZN3stk6cipher12__mtf_cipherD1Ev,__ZN3stk6cipher12__mtf_cipherD2Ev
	.section	.text.unlikely,"x"
	.align 2
LCOLDB7:
	.text
LHOTB7:
	.align 2
	.p2align 4,,15
	.globl	__ZN3stk6cipher12__mtf_cipher10initializeEv@4
	.def	__ZN3stk6cipher12__mtf_cipher10initializeEv@4;	.scl	2;	.type	32;	.endef
__ZN3stk6cipher12__mtf_cipher10initializeEv@4:
LFB708:
	.loc 1 31 0 is_stmt 1
	.cfi_startproc
	.cfi_personality 0,___gxx_personality_v0
	.cfi_lsda 0,LLSDA708
LVL41:
	pushl	%esi	 #
	.cfi_def_cfa_offset 8
	.cfi_offset 6, -8
	pushl	%ebx	 #
	.cfi_def_cfa_offset 12
	.cfi_offset 3, -12
	subl	$756, %esp	 #,
	.cfi_def_cfa_offset 768
LBB25:
	.loc 1 33 0
	cmpb	$0, __ZGVZN3stk6cipher12__mtf_cipher10initializeEvE8__time_1	 #, MEM[(char *)&_ZGVZN3stk6cipher12__mtf_cipher10initializeEvE8__time_1]
LBE25:
	.loc 1 31 0
	movl	768(%esp), %ebx	 # this, this
LBB27:
	.loc 1 33 0
	je	L89	 #,
L63:
LVL42:
	.loc 1 33 0 is_stmt 0 discriminator 2
	movl	__ZZN3stk6cipher12__mtf_cipher10initializeEvE14__entered_time, %esi	 # __entered_time, tmp146
	movl	$LC0+7, %ecx	 #, __file_name__
	movl	$LC0, %edx	 #, tmp110
	cmpl	$1, %ecx	 #, __file_name__
	movl	$33, 12(%esp)	 #,
	movl	$LC2, 8(%esp)	 #,
	cmove	%edx, %ecx	 # __file_name__,, tmp110, __file_name__
LVL43:
	movl	$LC3, (%esp)	 #,
	leal	1(%esi), %eax	 #, D.30007
	movl	%ecx, 4(%esp)	 # __file_name__,
	movl	%eax, 16(%esp)	 # D.30007,
	movl	%eax, __ZZN3stk6cipher12__mtf_cipher10initializeEvE14__entered_time	 # D.30007, __entered_time
LEHB4:
	call	__ZN3stk3con6printsEPKcz	 #
LEHE4:
LVL44:
LBB26:
	.loc 1 36 0 is_stmt 1 discriminator 2
	movl	(%ebx), %ecx	 # this_19(D)->order, D.30010
	.loc 1 35 0 discriminator 2
	movl	$3, %eax	 #, i
	.loc 1 36 0 discriminator 2
	movb	$0, (%ecx)	 #, *_27
	movl	(%ebx), %edx	 # this_19(D)->order, this_19(D)->order
	movb	$1, 1(%edx)	 #, *_22
	movl	(%ebx), %esi	 # this_19(D)->order, this_19(D)->order
	movb	$2, 2(%esi)	 #, *_22
	movl	(%ebx), %ecx	 # this_19(D)->order, this_19(D)->order
	movb	$3, 3(%ecx)	 #, *_22
	.p2align 4,,10
L67:
	.loc 1 36 0 is_stmt 0
	movl	(%ebx), %esi	 # this_19(D)->order, tmp147
	.loc 1 35 0 is_stmt 1
	leal	1(%eax), %edx	 #, tmp112
	.loc 1 36 0
	movzbl	%dl, %ecx	 # tmp112, D.30011
	movb	%dl, (%esi,%ecx)	 # tmp112, *_22
	.loc 1 35 0
	leal	2(%eax), %edx	 #, i
	.loc 1 36 0
	movl	(%ebx), %esi	 # this_19(D)->order, tmp148
	movzbl	%dl, %ecx	 # i, D.30011
	movb	%dl, (%esi,%ecx)	 # i, *_22
	.loc 1 35 0
	leal	3(%eax), %edx	 #, i
	.loc 1 36 0
	movl	(%ebx), %esi	 # this_19(D)->order, tmp149
	movzbl	%dl, %ecx	 # i, D.30011
	movb	%dl, (%esi,%ecx)	 # i, *_22
	.loc 1 35 0
	leal	4(%eax), %edx	 #, i
	.loc 1 36 0
	movl	(%ebx), %esi	 # this_19(D)->order, tmp150
	movzbl	%dl, %ecx	 # i, D.30011
	movb	%dl, (%esi,%ecx)	 # i, *_22
	.loc 1 35 0
	leal	5(%eax), %edx	 #, i
	.loc 1 36 0
	movl	(%ebx), %esi	 # this_19(D)->order, tmp151
	movzbl	%dl, %ecx	 # i, D.30011
	movb	%dl, (%esi,%ecx)	 # i, *_22
	.loc 1 35 0
	leal	6(%eax), %edx	 #, i
	.loc 1 36 0
	movl	(%ebx), %esi	 # this_19(D)->order, tmp152
	movzbl	%dl, %ecx	 # i, D.30011
	movb	%dl, (%esi,%ecx)	 # i, *_22
	.loc 1 35 0
	leal	7(%eax), %edx	 #, i
	.loc 1 36 0
	movl	(%ebx), %esi	 # this_19(D)->order, tmp153
	movzbl	%dl, %ecx	 # i, D.30011
	movb	%dl, (%esi,%ecx)	 # i, *_22
	.loc 1 35 0
	leal	8(%eax), %edx	 #, i
	.loc 1 36 0
	movl	(%ebx), %esi	 # this_19(D)->order, tmp154
	.loc 1 35 0
	addl	$9, %eax	 #, i
	.loc 1 36 0
	movzbl	%dl, %ecx	 # i, D.30011
	.loc 1 37 0
	cmpb	$-1, %al	 #, i
	.loc 1 36 0
	movb	%dl, (%esi,%ecx)	 # i, *_22
	movl	(%ebx), %ecx	 # this_19(D)->order, this_19(D)->order
	movzbl	%al, %edx	 # i, D.30011
	movb	%al, (%ecx,%edx)	 # i, *_22
	.loc 1 37 0
	jne	L67	 #,
LBE26:
LBE27:
	.loc 1 40 0
	addl	$756, %esp	 #,
	.cfi_remember_state
	.cfi_def_cfa_offset 12
	popl	%ebx	 #
	.cfi_restore 3
	.cfi_def_cfa_offset 8
	popl	%esi	 #
	.cfi_restore 6
	.cfi_def_cfa_offset 4
	ret	$4	 #
LVL45:
	.p2align 4,,10
L89:
	.cfi_restore_state
LBB28:
	.loc 1 33 0 discriminator 1
	movl	$__ZGVZN3stk6cipher12__mtf_cipher10initializeEvE8__time_1, (%esp)	 #,
	call	___cxa_guard_acquire	 #
LVL46:
	testl	%eax, %eax	 # D.30007
	je	L63	 #,
LEHB5:
	.loc 1 33 0 is_stmt 0 discriminator 3
	call	__ZN3stk4time7time_msEv@0	 #
LEHE5:
LVL47:
	movl	%eax, 496(%esp)	 #, %sfp
	movl	%edx, 500(%esp)	 #, %sfp
	movl	500(%esp), %eax	 # %sfp,
	fildq	496(%esp)	 # %sfp
	testl	%eax, %eax	 #
	js	L90	 #,
L65:
	.loc 1 33 0 discriminator 5
	movl	$__ZGVZN3stk6cipher12__mtf_cipher10initializeEvE8__time_1, (%esp)	 #,
	fstpl	__ZZN3stk6cipher12__mtf_cipher10initializeEvE8__time_1	 # __time_1
	call	___cxa_guard_release	 #
LVL48:
	jmp	L63	 #
L90:
	fadds	LC1	 #
	jmp	L65	 #
L70:
	movl	%eax, %ebx	 #, tmp107
	.loc 1 33 0
	movl	$__ZGVZN3stk6cipher12__mtf_cipher10initializeEvE8__time_1, (%esp)	 #,
	call	___cxa_guard_abort	 #
LVL49:
	movl	%ebx, (%esp)	 # tmp107,
LEHB6:
	call	__Unwind_Resume	 #
LEHE6:
LVL50:
LBE28:
	.cfi_endproc
LFE708:
	.section	.gcc_except_table,"w"
LLSDA708:
	.byte	0xff
	.byte	0xff
	.byte	0x1
	.uleb128 LLSDACSE708-LLSDACSB708
LLSDACSB708:
	.uleb128 LEHB4-LFB708
	.uleb128 LEHE4-LEHB4
	.uleb128 0
	.uleb128 0
	.uleb128 LEHB5-LFB708
	.uleb128 LEHE5-LEHB5
	.uleb128 L70-LFB708
	.uleb128 0
	.uleb128 LEHB6-LFB708
	.uleb128 LEHE6-LEHB6
	.uleb128 0
	.uleb128 0
LLSDACSE708:
	.text
	.section	.text.unlikely,"x"
LCOLDE7:
	.text
LHOTE7:
	.section	.text.unlikely,"x"
	.align 2
LCOLDB8:
	.text
LHOTB8:
	.align 2
	.p2align 4,,15
	.globl	__ZN3stk6cipher12__mtf_cipher6encodeEc@8
	.def	__ZN3stk6cipher12__mtf_cipher6encodeEc@8;	.scl	2;	.type	32;	.endef
__ZN3stk6cipher12__mtf_cipher6encodeEc@8:
LFB709:
	.loc 1 44 0 is_stmt 1
	.cfi_startproc
	.cfi_personality 0,___gxx_personality_v0
	.cfi_lsda 0,LLSDA709
LVL51:
	pushl	%esi	 #
	.cfi_def_cfa_offset 8
	.cfi_offset 6, -8
	pushl	%ebx	 #
	.cfi_def_cfa_offset 12
	.cfi_offset 3, -12
	subl	$756, %esp	 #,
	.cfi_def_cfa_offset 768
LBB29:
	.loc 1 46 0
	cmpb	$0, __ZGVZN3stk6cipher12__mtf_cipher6encodeEcE8__time_1	 #, MEM[(char *)&_ZGVZN3stk6cipher12__mtf_cipher6encodeEcE8__time_1]
LBE29:
	.loc 1 44 0
	movl	768(%esp), %esi	 # this, this
	movl	772(%esp), %ebx	 # a_ch, a_ch
LBB30:
	.loc 1 46 0
	je	L105	 #,
L93:
LVL52:
	.loc 1 46 0 is_stmt 0 discriminator 2
	movl	__ZZN3stk6cipher12__mtf_cipher6encodeEcE14__entered_time, %ecx	 # __entered_time, tmp119
	movl	$LC0+7, %eax	 #, __file_name__
	movl	$LC0, %edx	 #, tmp118
	cmpl	$1, %eax	 #, __file_name__
	movl	$46, 12(%esp)	 #,
	movl	$LC2, 8(%esp)	 #,
	cmove	%edx, %eax	 # __file_name__,, tmp118, __file_name__
LVL53:
	movl	$LC3, (%esp)	 #,
	.loc 1 48 0 is_stmt 1 discriminator 2
	movsbl	%bl, %ebx	 # a_ch, a_ch
	.loc 1 46 0 discriminator 2
	leal	1(%ecx), %edx	 #, D.30016
	movl	%eax, 4(%esp)	 # __file_name__,
	movl	%edx, 16(%esp)	 # D.30016,
	movl	%edx, __ZZN3stk6cipher12__mtf_cipher6encodeEcE14__entered_time	 # D.30016, __entered_time
LEHB7:
	call	__ZN3stk3con6printsEPKcz	 #
LVL54:
	.loc 1 48 0 discriminator 2
	movl	%ebx, 4(%esp)	 # a_ch,
	movl	$256, 8(%esp)	 #,
	movl	(%esi), %eax	 # this_19(D)->order, this_19(D)->order
	movl	%eax, (%esp)	 # this_19(D)->order,
	call	__ZN3stk3mem3chrEPKvcj@12	 #
	.cfi_def_cfa_offset 756
LVL55:
	subl	$12, %esp	 #,
	.cfi_def_cfa_offset 768
	.loc 1 49 0 discriminator 2
	movzbl	%al, %ecx	 # D.30020, D.30020
	.loc 1 48 0 discriminator 2
	movl	%eax, %ebx	 #, D.30020
LVL56:
	.loc 1 49 0 discriminator 2
	movl	%ecx, 4(%esp)	 # D.30020,
	movl	(%esi), %esi	 # this_19(D)->order, this_19(D)->order
	movl	%esi, (%esp)	 # this_19(D)->order,
	call	__ZN3stk3mem3rorEPvj@8	 #
	.cfi_def_cfa_offset 760
LEHE7:
LVL57:
	subl	$8, %esp	 #,
	.cfi_def_cfa_offset 768
LBE30:
	.loc 1 52 0 discriminator 2
	movl	%ebx, %eax	 # D.30020,
	addl	$756, %esp	 #,
	.cfi_remember_state
	.cfi_def_cfa_offset 12
	popl	%ebx	 #
	.cfi_restore 3
	.cfi_def_cfa_offset 8
	popl	%esi	 #
	.cfi_restore 6
	.cfi_def_cfa_offset 4
	ret	$8	 #
LVL58:
	.p2align 4,,10
L105:
	.cfi_restore_state
LBB31:
	.loc 1 46 0 discriminator 1
	movl	$__ZGVZN3stk6cipher12__mtf_cipher6encodeEcE8__time_1, (%esp)	 #,
	call	___cxa_guard_acquire	 #
LVL59:
	testl	%eax, %eax	 # D.30016
	je	L93	 #,
LEHB8:
	.loc 1 46 0 is_stmt 0 discriminator 3
	call	__ZN3stk4time7time_msEv@0	 #
LEHE8:
LVL60:
	movl	%eax, 496(%esp)	 #, %sfp
	movl	%edx, 500(%esp)	 #, %sfp
	movl	500(%esp), %eax	 # %sfp,
	fildq	496(%esp)	 # %sfp
	testl	%eax, %eax	 #
	js	L106	 #,
L95:
	.loc 1 46 0 discriminator 5
	movl	$__ZGVZN3stk6cipher12__mtf_cipher6encodeEcE8__time_1, (%esp)	 #,
	fstpl	__ZZN3stk6cipher12__mtf_cipher6encodeEcE8__time_1	 # __time_1
	call	___cxa_guard_release	 #
LVL61:
	jmp	L93	 #
	.p2align 4,,10
L106:
	fadds	LC1	 #
	jmp	L95	 #
L99:
	movl	%eax, %ebx	 #, tmp113
	.loc 1 46 0
	movl	$__ZGVZN3stk6cipher12__mtf_cipher6encodeEcE8__time_1, (%esp)	 #,
	call	___cxa_guard_abort	 #
LVL62:
	movl	%ebx, (%esp)	 # tmp113,
LEHB9:
	call	__Unwind_Resume	 #
LEHE9:
LVL63:
LBE31:
	.cfi_endproc
LFE709:
	.section	.gcc_except_table,"w"
LLSDA709:
	.byte	0xff
	.byte	0xff
	.byte	0x1
	.uleb128 LLSDACSE709-LLSDACSB709
LLSDACSB709:
	.uleb128 LEHB7-LFB709
	.uleb128 LEHE7-LEHB7
	.uleb128 0
	.uleb128 0
	.uleb128 LEHB8-LFB709
	.uleb128 LEHE8-LEHB8
	.uleb128 L99-LFB709
	.uleb128 0
	.uleb128 LEHB9-LFB709
	.uleb128 LEHE9-LEHB9
	.uleb128 0
	.uleb128 0
LLSDACSE709:
	.text
	.section	.text.unlikely,"x"
LCOLDE8:
	.text
LHOTE8:
	.section	.text.unlikely,"x"
	.align 2
LCOLDB9:
	.text
LHOTB9:
	.align 2
	.p2align 4,,15
	.globl	__ZN3stk6cipher12__mtf_cipher6decodeEc@8
	.def	__ZN3stk6cipher12__mtf_cipher6decodeEc@8;	.scl	2;	.type	32;	.endef
__ZN3stk6cipher12__mtf_cipher6decodeEc@8:
LFB710:
	.loc 1 56 0 is_stmt 1
	.cfi_startproc
	.cfi_personality 0,___gxx_personality_v0
	.cfi_lsda 0,LLSDA710
LVL64:
	pushl	%ebx	 #
	.cfi_def_cfa_offset 8
	.cfi_offset 3, -8
	subl	$760, %esp	 #,
	.cfi_def_cfa_offset 768
LBB32:
	.loc 1 58 0
	cmpb	$0, __ZGVZN3stk6cipher12__mtf_cipher6decodeEcE8__time_1	 #, MEM[(char *)&_ZGVZN3stk6cipher12__mtf_cipher6decodeEcE8__time_1]
LBE32:
	.loc 1 56 0
	movl	772(%esp), %ebx	 # a_ch, a_ch
LBB33:
	.loc 1 58 0
	je	L121	 #,
L109:
LVL65:
	.loc 1 58 0 is_stmt 0 discriminator 2
	movl	__ZZN3stk6cipher12__mtf_cipher6decodeEcE14__entered_time, %ecx	 # __entered_time, tmp115
	movl	$LC0+7, %eax	 #, __file_name__
	movl	$LC0, %edx	 #, tmp114
	cmpl	$1, %eax	 #, __file_name__
	movl	$58, 12(%esp)	 #,
	movl	$LC2, 8(%esp)	 #,
	cmove	%edx, %eax	 # __file_name__,, tmp114, __file_name__
LVL66:
	movl	$LC3, (%esp)	 #,
	.loc 1 60 0 is_stmt 1 discriminator 2
	movzbl	%bl, %ebx	 # a_ch, D.30032
	.loc 1 58 0 discriminator 2
	leal	1(%ecx), %edx	 #, D.30027
	movl	%eax, 4(%esp)	 # __file_name__,
	movl	%edx, 16(%esp)	 # D.30027,
	movl	%edx, __ZZN3stk6cipher12__mtf_cipher6decodeEcE14__entered_time	 # D.30027, __entered_time
LEHB10:
	call	__ZN3stk3con6printsEPKcz	 #
LVL67:
	.loc 1 60 0 discriminator 2
	movl	768(%esp), %eax	 # this, this
	movl	(%eax), %ecx	 # this_17(D)->order, D.30030
	movzbl	(%ecx,%ebx), %edx	 # *_22,
	.loc 1 61 0 discriminator 2
	movl	%ecx, (%esp)	 # D.30030,
	movl	%edx, 4(%esp)	 # r,
	.loc 1 60 0 discriminator 2
	movl	%edx, %ebx	 #,
LVL68:
	.loc 1 61 0 discriminator 2
	call	__ZN3stk3mem3rorEPvj@8	 #
	.cfi_def_cfa_offset 760
LEHE10:
LVL69:
	subl	$8, %esp	 #,
	.cfi_def_cfa_offset 768
LBE33:
	.loc 1 64 0 discriminator 2
	movl	%ebx, %eax	 # r,
	addl	$760, %esp	 #,
	.cfi_remember_state
	.cfi_def_cfa_offset 8
	popl	%ebx	 #
	.cfi_restore 3
	.cfi_def_cfa_offset 4
LVL70:
	ret	$8	 #
LVL71:
	.p2align 4,,10
L121:
	.cfi_restore_state
LBB34:
	.loc 1 58 0 discriminator 1
	movl	$__ZGVZN3stk6cipher12__mtf_cipher6decodeEcE8__time_1, (%esp)	 #,
	call	___cxa_guard_acquire	 #
LVL72:
	testl	%eax, %eax	 # D.30027
	je	L109	 #,
LEHB11:
	.loc 1 58 0 is_stmt 0 discriminator 3
	call	__ZN3stk4time7time_msEv@0	 #
LEHE11:
LVL73:
	movl	%eax, 496(%esp)	 #, %sfp
	movl	%edx, 500(%esp)	 #, %sfp
	movl	500(%esp), %eax	 # %sfp,
	fildq	496(%esp)	 # %sfp
	testl	%eax, %eax	 #
	js	L122	 #,
L111:
	.loc 1 58 0 discriminator 5
	movl	$__ZGVZN3stk6cipher12__mtf_cipher6decodeEcE8__time_1, (%esp)	 #,
	fstpl	__ZZN3stk6cipher12__mtf_cipher6decodeEcE8__time_1	 # __time_1
	call	___cxa_guard_release	 #
LVL74:
	jmp	L109	 #
	.p2align 4,,10
L122:
	fadds	LC1	 #
	jmp	L111	 #
L115:
	movl	%eax, %ebx	 #, tmp111
	.loc 1 58 0
	movl	$__ZGVZN3stk6cipher12__mtf_cipher6decodeEcE8__time_1, (%esp)	 #,
	call	___cxa_guard_abort	 #
LVL75:
	movl	%ebx, (%esp)	 # tmp111,
LEHB12:
	call	__Unwind_Resume	 #
LEHE12:
LVL76:
LBE34:
	.cfi_endproc
LFE710:
	.section	.gcc_except_table,"w"
LLSDA710:
	.byte	0xff
	.byte	0xff
	.byte	0x1
	.uleb128 LLSDACSE710-LLSDACSB710
LLSDACSB710:
	.uleb128 LEHB10-LFB710
	.uleb128 LEHE10-LEHB10
	.uleb128 0
	.uleb128 0
	.uleb128 LEHB11-LFB710
	.uleb128 LEHE11-LEHB11
	.uleb128 L115-LFB710
	.uleb128 0
	.uleb128 LEHB12-LFB710
	.uleb128 LEHE12-LEHB12
	.uleb128 0
	.uleb128 0
LLSDACSE710:
	.text
	.section	.text.unlikely,"x"
LCOLDE9:
	.text
LHOTE9:
	.data
	.align 4
__ZZN3stk6cipher12__mtf_cipher6decodeEcE14__entered_time:
	.long	1
.lcomm __ZZN3stk6cipher12__mtf_cipher6decodeEcE8__time_1,8,8
	.align 4
__ZZN3stk6cipher12__mtf_cipher6encodeEcE14__entered_time:
	.long	1
.lcomm __ZZN3stk6cipher12__mtf_cipher6encodeEcE8__time_1,8,8
	.align 4
__ZZN3stk6cipher12__mtf_cipher10initializeEvE14__entered_time:
	.long	1
.lcomm __ZZN3stk6cipher12__mtf_cipher10initializeEvE8__time_1,8,8
	.align 4
__ZZN3stk6cipher12__mtf_cipherD4EvE14__entered_time:
	.long	1
.lcomm __ZZN3stk6cipher12__mtf_cipherD4EvE8__time_1,8,8
	.align 4
__ZZN3stk6cipher12__mtf_cipherC4EvE14__entered_time:
	.long	1
.lcomm __ZZN3stk6cipher12__mtf_cipherC4EvE8__time_1,8,8
.lcomm __ZGVZN3stk6cipher12__mtf_cipher6decodeEcE8__time_1,8,8
.lcomm __ZGVZN3stk6cipher12__mtf_cipher6encodeEcE8__time_1,8,8
.lcomm __ZGVZN3stk6cipher12__mtf_cipher10initializeEvE8__time_1,8,8
.lcomm __ZGVZN3stk6cipher12__mtf_cipherD4EvE8__time_1,8,8
.lcomm __ZGVZN3stk6cipher12__mtf_cipherC4EvE8__time_1,8,8
	.section .rdata,"dr"
	.align 4
LC1:
	.long	1602224128
	.text
Letext0:
	.section	.text.unlikely,"x"
Letext_cold0:
	.file 2 "C:/Qt/Qt5.5.0/Tools/mingw492_32/i686-w64-mingw32/include/_mingw.h"
	.file 3 "C:/Qt/Qt5.5.0/Tools/mingw492_32/i686-w64-mingw32/include/stdint.h"
	.file 4 "C:/Qt/Qt5.5.0/Tools/mingw492_32/i686-w64-mingw32/include/stdio.h"
	.file 5 "cipher/./.././time/stk_time.h"
	.file 6 "cipher/stk_cipher_mtf.h"
	.file 7 "cipher/./../io/stk_console.h"
	.file 8 "cipher/./../mem/stk_mem.h"
	.file 9 "<built-in>"
	.file 10 "C:/Qt/Qt5.5.0/Tools/mingw492_32/i686-w64-mingw32/include/c++/bits/exception_ptr.h"
	.file 11 "C:/Qt/Qt5.5.0/Tools/mingw492_32/i686-w64-mingw32/include/c++/i686-w64-mingw32/bits/c++config.h"