	.file	"stk_compression_API.cpp"
 # GNU C++ (i686-posix-dwarf-rev1, Built by MinGW-W64 project) version 4.9.2 (i686-w64-mingw32)
 #	compiled by GNU C version 4.9.2, GMP version 6.0.0, MPFR version 3.1.2-p9, MPC version 1.0.2
 # warning: MPFR header version 3.1.2-p9 differs from library version 3.1.2-p10.
 # GGC heuristics: --param ggc-min-expand=100 --param ggc-min-heapsize=131072
 # options passed:  -fpreprocessed stk_compression_API.ii -malign-double
 # -momit-leaf-frame-pointer -m32 -mfpmath=sse -mpreferred-stack-boundary=8
 # -mmmx -msse -msse2 -mthreads -mtune=generic -march=i686
 # -auxbase-strip debug\stk_compression_API.o -g -g -O3 -Wno-write-strings
 # -Wno-multichar -Wno-unused-variable -Wno-unused-parameter
 # -Wno-unused-value -Wno-unused-label -Wno-unused-but-set-variable
 # -Wattributes -Winline -Wshadow -Wunknown-pragmas -Wall -Wextra
 # -std=gnu++11 -std=c++11 -fno-keep-inline-dllexport
 # -fno-use-linker-plugin -fverbose-asm -fstrict-aliasing -fwrapv
 # -funroll-loops -flto -fexceptions -frtti
 # options enabled:  -faggressive-loop-optimizations
 # -fasynchronous-unwind-tables -fauto-inc-dec -fbranch-count-reg
 # -fcaller-saves -fcombine-stack-adjustments -fcommon -fcompare-elim
 # -fcprop-registers -fcrossjumping -fcse-follow-jumps -fdefer-pop
 # -fdelete-null-pointer-checks -fdevirtualize -fdevirtualize-speculatively
 # -fdwarf2-cfi-asm -fearly-inlining -feliminate-unused-debug-types
 # -fexceptions -fexpensive-optimizations -fforward-propagate
 # -ffunction-cse -fgcse -fgcse-after-reload -fgcse-lm -fgnu-runtime
 # -fgnu-unique -fguess-branch-probability -fhoist-adjacent-loads -fident
 # -fif-conversion -fif-conversion2 -findirect-inlining -finline
 # -finline-atomics -finline-functions -finline-functions-called-once
 # -finline-small-functions -fipa-cp -fipa-cp-clone -fipa-profile
 # -fipa-pure-const -fipa-reference -fipa-sra -fira-hoist-pressure
 # -fira-share-save-slots -fira-share-spill-slots
 # -fisolate-erroneous-paths-dereference -fivopts -fkeep-static-consts
 # -fleading-underscore -fmath-errno -fmerge-constants
 # -fmerge-debug-strings -fmove-loop-invariants -fomit-frame-pointer
 # -foptimize-sibling-calls -foptimize-strlen -fpartial-inlining -fpeephole
 # -fpeephole2 -fpredictive-commoning -fprefetch-loop-arrays -free
 # -freg-struct-return -frename-registers -freorder-blocks
 # -freorder-blocks-and-partition -freorder-functions
 # -frerun-cse-after-loop -fsched-critical-path-heuristic
 # -fsched-dep-count-heuristic -fsched-group-heuristic -fsched-interblock
 # -fsched-last-insn-heuristic -fsched-rank-heuristic -fsched-spec
 # -fsched-spec-insn-heuristic -fsched-stalled-insns-dep -fschedule-insns2
 # -fset-stack-executable -fshow-column -fshrink-wrap -fsigned-zeros
 # -fsplit-ivs-in-unroller -fsplit-wide-types -fstrict-aliasing
 # -fstrict-overflow -fstrict-volatile-bitfields -fsync-libcalls
 # -fthread-jumps -ftoplevel-reorder -ftrapping-math -ftree-bit-ccp
 # -ftree-builtin-call-dce -ftree-ccp -ftree-ch -ftree-coalesce-vars
 # -ftree-copy-prop -ftree-copyrename -ftree-cselim -ftree-dce
 # -ftree-dominator-opts -ftree-dse -ftree-forwprop -ftree-fre
 # -ftree-loop-distribute-patterns -ftree-loop-if-convert -ftree-loop-im
 # -ftree-loop-ivcanon -ftree-loop-optimize -ftree-loop-vectorize
 # -ftree-parallelize-loops= -ftree-partial-pre -ftree-phiprop -ftree-pre
 # -ftree-pta -ftree-reassoc -ftree-scev-cprop -ftree-sink
 # -ftree-slp-vectorize -ftree-slsr -ftree-sra -ftree-switch-conversion
 # -ftree-tail-merge -ftree-ter -ftree-vrp -funit-at-a-time -funroll-loops
 # -funswitch-loops -funwind-tables -fvar-tracking
 # -fvar-tracking-assignments -fverbose-asm -fweb -fwrapv
 # -fzero-initialized-in-bss -m32 -m80387 -m96bit-long-double
 # -maccumulate-outgoing-args -malign-double -malign-stringops
 # -mavx256-split-unaligned-load -mavx256-split-unaligned-store
 # -mfancy-math-387 -mfp-ret-in-387 -mieee-fp -mlong-double-80 -mmmx
 # -mms-bitfields -mno-red-zone -mno-sse4 -mpush-args -msahf -msse -msse2
 # -mstack-arg-probe -mvzeroupper

	.text
Ltext0:
	.section	.gnu.lto_.profile.f43985e8,"dr0"
	.ascii "x\234cf```c\200\0F\206\363\\sX\0\5"
	.ascii "8\1\204"
	.text
	.section	.gnu.lto_.jmpfuncs.f43985e8,"dr0"
	.ascii "x\234\245\224[H\24Q\30\307\317"
	.ascii "73\353^\\[+\243\220`\16\231\10Q\21=\366\26%\330[/\275\364\266\315\216\354\232\316\330\316\312F Z\241Y*\225F*\221BtY-5/\245\226ef*\31\370\20$\224J\31h>X\222\21\271)\324\271"
	.ascii "8{)\355\245a\230"
	.ascii "9\363\235\377\357|\377s\371FD\253_\273,\10%\3Bv$\1\271\\EEE@>\371-r\215@\37\254-|\25\340\334\247\311"
	.ascii "6\347\254\20\26\320/+\202\333\220J\373\5\326\210\"\321V\374+f\250\177\240q\37\322\12\11\333S\243\355"
	.ascii "4\206\212A\256\24\203\354A\"@\35\316N\224v&P\207\220\205\340\16\317\262"
	.ascii "2'\332=\366\243\274\324&\303\365\342Z\34\26\4D\"S\325\363\235\266\302\245\342\332b[X\20!\4"
	.ascii "2\221"
	.ascii "6B!\327\207\316\327\207\22e+\327KT_6[Qb5\365\26hb\372\273\246\276\256\276\277\306\"\247p}\2\325_\274"
	.ascii "23`1\365V\270\307\364\315D/P\375\255\336\253?\223\344\315\\o\243\372\205\360\340\333$So\207\26\246o%z\304\211\276/%e\202\274\215\23\16J\\zU7\352"
	.ascii "2\211D\270\317\210\266(\361\261\372\364e\273\274\203\23NJ,\216w\325"
	.ascii "8M\"\11\332\31\321\301\10\311\334\352\367\341\251"
	.ascii "9\7\333\352b\33\202N\272\222$z\343\314\313a\211G1\202\7"
	.ascii "4J\303\37.\264\34\222"
	.ascii "3cf1\266"
	.ascii "8s\323\21\235\305C\226\241+\306\323\360\242W>\314\201u\24h\350i\372\26\331\6\27t3\240'\12\204Zg\233\5\371\10'\222)\321>\367f\302n\22\353\341\21#\36"
	.ascii "3\2\330a\243X\345\265\346&\247\254ql\3\305F\316\316\217\254"
	.ascii "3\261\215\320\313\260'\346~Tw\367\365J\362\322\312\1I\241\300\353\351\306w\11&\260\11\236"
	.ascii "2\240\217\347\211[\22\240K\362\214\236g\201\275D\221\24\225\225\24U|\31Hf\371\255R\35\22+D\312\240H!Z\314\35\251\232^\256\262\312\345B\314\341]\256\30\357O\212\36\336~\346\355"
	.ascii "9\235\14\255\222\230\\1%\20\232\34\35\262"
	.ascii "1\277N\4\3\304\247\305\364\31I\371\27\306t\11\377g\356\5"
	.ascii "37\30"
	.ascii "5\367\347z\304x\234\252\374\336\1\314#Y\322!\222\333\272\266G\263\374\331\250\334-%l\253\374\323\204\370\337\223\260\362\367`)\273\27>7\260\363\16[\21\14\223\1\354,%\24\201(\6\11Dr\0\205,\231\232\307\201\234\7UE\317\313\367\253\206\341@\244\14\35"
	.ascii "8#=m\317\336\223\31\30YIS!\357\324\243y\232O\315"
	.ascii "1N\351\232\216=:N\367\340c\356\234\200\36$\352\3\21VJ'\217-\244\373"
	.ascii "8\17\345\370b\205\345\220\245\372U\34\360\252\330\243f\373"
	.ascii "4\325\203\203\272\337c`E\327\14\237\21\300z6\16\4\311\360>#G\367i\1\254\344\272\15C5vbC=Q\240j\212jP\211;7\337\353\326\12\362T\277O\301\212\327\355w+\1\325o`\267\346\211\27j\272\266\206v7B\256\375\36b\20\33~e\37\361\350\340{\217~\3"
	.ascii "6\22\205\334"
	.text
	.section	.gnu.lto_.inline.f43985e8,"dr0"
	.ascii "x\234\225S\261J\3A\20}\263\273w\227\313\235I@\260P1 \30\5\323\212\235\237\220/\360w\4;\257\261\20\13\203\235\226\202\12"
	.ascii "6\321F+A\304J\11H>\300\312F\260pg\367n\263wDc\22ng\356\355\354\274}3s\22\223\177\333\312\332\30\30\320Y\227$\21 \364\3\375\310+z\371x#\204\375\266\200xj\246\34)\22\275\227\365\312F\315\351\350\254\307\177v\205u\310b`OC\372(\201\16\332A\203\212`\203\34\326\\h\326\363"
	.ascii "6=4\317\300\216pI\305"
	.ascii "8i\351\234L\31\251\233\215\347Nu\343U2\242F\251\311\342\373"
	.ascii "2u7\307\370\10WB\340\16\347\272"
	.ascii "2b\361\363^\331rL\256\4\374\225\351\4,\255\265"
	.ascii "06l\2\312"
	.ascii "0\242\200&Y\312_\213\233\25"
	.ascii "0\362\265\365\210\257\200\4"
	.ascii "7\212\233&wG\337k\345VU\313\12XGY\314C\253\245f\10\335KQ\231\207\225\376\260\356Q\244\277\215\3+\14\254B~\321\214\303\250h\270\37g\225\4X=\22\236\220\205\213,\376\37\313\224\304!\266\36\252\22:\357\307\311\314\22\202\206\33\210\251\244\21"
	.ascii "6N|5\313\247\203\331\325"
	.ascii "8B\224r\327\260\271\247\312\202\324\322\315u\214h\177=\317\257\227\326\37\237\251\356-s\230/a\30\231\376[N7\374\226)F2Od\4\350d\346\372\265\333\35e\247\312\25\3?v\301\245\232"
	.text
	.section	.gnu.lto_.pureconst.f43985e8,"dr0"
	.ascii "x\234cf``\20f\200\0N\206(&IfK\226H\326\10\266H\366\10\216(N\11\0\32\356\2\314"
	.text
	.section	.gnu.lto__ZN3stk11compression12compress_LZSEPvPKvjj@16.f43985e8,"dr0"
	.ascii "x\234\235"
	.ascii "9\11t\225\325\321w\356\367\266\274%{\302\26\10de\221\320z<J\245U9z\370\225\203\326\245n\307%\207MP0@\222Z\265\362\363HB\2\204@\210\204E@\241\265\210-\15\245\10\210R}\354\24"
	.ascii "0\210\30"
	.ascii "6\3D\204'\26D\302\13\276\4\2\371g\346~/\371\276\360\240\341\347\34n\356\235;\373\314\235;\337}\232\270\376\337"
	.ascii "0)\204\257\247\20?\342\34\372\13\220\345\325BLuHy\233\20\323\35\232Zi`U\23\213\232\14\266J\333\364L\341u:it\333\244\275\310\216\253\210Y;\5.\355\322\301\233}x\323\1\31D\2\21\340T<\234\322\365u\"n\273"
	.ascii "7\335\205\333.p+\260[z\30\34\311`\17D*p\244\214\232\366+\4\307\224& 8J&^\330\212"
	.ascii "2\234\321\313\234\270\214\206\30\205\25#c\231"
	.ascii "8\236\211cCXq\214\25\7\361\12+^&\262b\11\254X\2X\24"
	.ascii "8Qvgp'\6w\202.\254og\365w\263\243\213\354\314v9\273\222\221\356\256\262\33\213JbQ\335 I1I\202\356j\322]\246\226\247\343~\17o\37\334\357\1=\25"
	.ascii "8YM6;z\312^\325\273\211]\312\26\15\21z\311d\343"
	.ascii "2%\244T\252\264\220\0g\32\11s\247\205\300\351\312\233\233\35\31"
	.ascii "2]i\225\311Ze\312\336\254U\37\326\252"
	.ascii "7\364Q\350}d\337\305\277Ap\277K\321\10\356\13\375\24\270\37\0M\304m\2\304\24\251Y\254"
	.ascii "6\273#\302\351r{\"\243\242cb\343\342\23\22;u\356\322\265[R\367\36\311={\245\244\246\245gd\366\356\323\267\337m0\305jUi\323E@\321"
	.ascii "2\257\344yO\1\26\236d\30\200?\310z\11\33\253\32\276p\235\221M\22qp\371I\305\256\205"
	.ascii "6Z\">.W\274\177n\232=\363/^o\301\205\212\262\177B\371\274e\270%E@\12X\1]\341\3\350J9\271\22"
	.ascii "2\21\267\274\362\310\26M\313\4\242[\260\351\203\23\21\351\177F:\337\222B\313\203MR\203\17A3\222!H\300_!\35\221w\4\226\26Z\264_2\341'\313\13>\321\24\341\36&\264\300\337\332\23Z\4\254b\302\315S\17~i\327\6"
	.ascii "1\341\367\327\352\177v!ay\201\357*\23Z\341\357\355\11\255\2\252\230\260y\235o\226G\373\37&\274r\376\362=\212n\343"
	.ascii "4E\267:\14\335? \235\220\353\213\256\36r\331\212\274^ot\203\24\15\22\32\244l\220Z\203\264"
	.ascii "4Hk\203\264"
	.ascii "5H;9\7}\262\6l \204\15i\212\257\26\257\265k\277ea\245\225\307\32]\251\313\321\274\272\363\7\357\363\25\375\311{\255\245\5\232\244\15\376i\26\252\376\301ZHE\252\223Wj\226K\355w\314\241q\326\331\351Rq\370\351\242\201\203\35>\12\313a\35s\270V\343\273\6\332\13\314\341\357G\32\212@qh4\353\260>,\207\15\314\241`\367\242\31\21\332\10\346\360\315\236\231\233l\212\303\225\303\6\16\22>\16\313a#s8W\272sE\244"
	.ascii "6\211"
	.ascii "9\324n\234\335\244tXvu\231\367>\3\207O\302r\370\224"
	.ascii "9\314\257Z;\333\252Ma\16\247\257n\235\246t\360\355"
	.ascii "3s\330\24\226\303\277 uu\254\317\333\322\262v\335\267\357gh\357\2p\26I\36"
	.ascii "5\36-\234\220V\36m<\332yt\360\30\301\243\223\255q\361\350\346\321\303c$s\210\342"
	.ascii "1\232\307\30\36cY\367"
	.ascii "8\36\343Y\213\4\36\23yL\3\302I\7J\313\14\216U&\220\224\276@\11\327\37S\17\262pp\14\240\331/p\260\335\316\\\357\340\361N\332\272\213\206\201"
	.ascii "4\334\215C\304 \336\271\207\326\367\262b\367\321t0\15\367\323\376\3l\305\20\336z\20\1\316\207\210\365P\216\362"
	.ascii "0\336{\230"
	.ascii "9<\302\30\217\22\306c\14x\234\360\236`\274'\31\357)\306x\232"
	.ascii "8?C\303\263"
	.ascii "4<G\4\317\363\376\13D\360\"\23d\323\326p\32F\360\326H\232\216b\266/\261\37\306\360"
	.ascii "8\226\275\364\12m\216\243a<K\310!\226\23\30y\"\261\234\304,r\11!\217\241\371L\366\32\355\375\201\\\364:\331\371\6\15o\322\360G\302|\213\206\311"
	.ascii "4L\341C\345\5\332\232\312c\1\217\205"
	.ascii "4:\212\200e\26\323\302Y\2,j:-`\6\260)\245\12"
	.ascii "6KeO\231B\237\303\350\345\12"
	.ascii "6\227\321+\24\372<\205^I0\271\200\5-\344q\21\217\357"
	.ascii "0|\11p5\374\217\264X\305Y\11\224\255\342<\2\4\4$\234\257YY\366\14.\261|cZ\343\246\24?\341\37,<\16D<\205\265\246V\210\323X\223k\205v\20\12\352\266/\256\6<\36>\377\322\217\245\346\3>+\333?+\\\243\237\370&s\315\370,\334YA\212\3\37~X\342\324\366(\362\31\373\213\213\35\212\274\371+\3\271\13|7 \337\334\350;o\327\216*r\357\347G\317F)\362\31\337\275\355\360\356\362\26\325\265\264$7I7l\271\1\275\241\314R\264\350`\220"
	.ascii "7\341s\374\217\376\206\315\370\37cNI\3[!\225\253-\272k\33\326\\D\17\312"
	.ascii "4q\24\12\27\26_[q\27\301\202"
	.ascii "2\3AA\231.\16\202d\244u\204\224\201\313\2_}\275\233A\33\10\224\311\240\300F\205\365y\33(\270N\201T%;qj\337~\307\31\276\11\5lG\305\11\245\351\264B\331\254\24 \320\225"
	.ascii "5\12D\252\352h\336\271"
	.ascii "6\6\375\253\25\304(\310tQ\351\201f\253V\247|V\351\365\217A\227\225\27\324\375\360\356`\37\336\330\312\343\36\330\21\266\270\355d\265\316\324\26\177\304ww\344\203\2v\341n-\24\325\35\233\371\305\232\10\223K\353\376r\362\313\356D\302\16\13\240\21f\217\13\370"
	.ascii "7{s7yn\11%\323\273\7fW\311\311W\274\323\275\216&\31\25\300\313\234"
	.ascii "0`\17Lf9M2\32E\261]\242=vL\200"
	.ascii "2\27\366\"*1\13\312\276\30\207&\31\353\247T>\215I\316i\253\334\264\225<\207\207\241\26\246\371*\213\323\302\362\213\13\340m,\340\213V~iM2^\20+\213\230\37\245\11?\224#PK\245!\205\206\4\32\322\300\17%8\261\23|DJU\343\314mZPZhoR\332\271c\315\36?\214\17J7\355\272\211jHB\325\205\235\335qA\204\23\202"
	.ascii "2\232vF\245TU\224\336\31\224\221D\226\227\266\351\304\307\232\37\362\203"
	.ascii "2\216"
	.ascii "6\307\246"
	.ascii "4\37i\324(\244\11U\27K\22i\222\266\242\321\345\207"
	.ascii "1A\231@\10\211)\344\311\375\357\254(\214\342\314\301#\\M\310\15;{\4enZ\325\345=\3\320\10\253\250\217\2L\223h.\210A4M->\245E\254\276\340\14\213\324\27\33i\341\324\27\234\304\26}\301'\1\350$T\24/\230\363]\234:\12\375\221)\261:\12\5\353\227\337\253`Y\306\234v\363\11\\\327\370\336\217\236\245\260\30\223.\201\34\15\373(\333pcI\303\333G\242\372\377\15\23\305AV|\11K\341\"\267\223\260\37\277MH\230M1\35\300\262\262\324I<\247\3\177\201\32\341\226\250\201\242}\205\221\255\260\14b\340\7\334*\7\13\5U;W6\306\17\226\240,\341u\246V\24\345\7gP\216\267\0\271V\333\264:\316\17\221A9Aa\357]\235\350\207\330\240\314\327\267k\347\340"
	.ascii "6\232"
	.ascii "9F_O\377%\372\326&\232\250&\241"
	.ascii "7v,\272\0J\366k\250$\32\365~\345\374UV\356z\361\256\377\12-e\245\33t\245\377\300J\277\246\224\216m\205\261\322\310\327"
	.ascii "\256\227^\337\332\342\364P\11B\236\27\13\216\375\325"
	.ascii "1\344\1\274\220\230<\236\323\31\16\300\20r\375gC1}+\21\334_\211:\270(W\361\235\302\310x_\204\16\5Gq\12\321\34.9\276\250\\\327\333\13$\237\200v\5\230\12\12\253p\236\256t\1(\254\251\224\1\5\307K\32,\12^\10\264g\14T\21(\250\263U&\347T\21p\36\21\0\33[A\326\37\331\272g{j\210\210\313\227\362\200Cd\321\311{\36s\317\216\7\346)\332\266W\255/\316\364\303c\230\251v@\234\10\261\224\274\217V\374\274\350]\335\212\327\333\31\361\206\236\257!\33\336d\224"
	.ascii "7t\3\254\12\370G\204\33\221\336bP<\203\212\233;+\340d\206s\226W,?\4z\211\355hR\177\335\226\324"
	.ascii "5\200I<\231\255tR\201"
	.ascii "9\14Su\227X\331#\205k\313"
	.ascii "4%2\326\340\20\227Xk\321j\241\304\367\315\216\1a\313Xb\200\\\212'=T\306\200\30\244b)\355\244\22\342\347w\364\204\270]\355\231\363\341v\276^N\354H4]/$\331MJ\32jF\234\261\30H\245\362\331\220\312\361!\225\375 Q\214\23\5\335\356:\267\356\24\306"
	.ascii "0\16e:9\306\256\346u\37Q\0=!\233\202\305\277\276\231M\207Zm\222$!\255\315&\377\342yz\340\357P\233f\243\356Pwfq\262\351\202$\243\"\315\236\17\25"
	.ascii "8\256\220\11F\3"
	.ascii "5\272\362|\13v\366Pb\356l\257b\347\0\236V\1\207u\25\233d\27\362Hu\250\22\335I%Y\371\3\257\7\354OP)\317\336\15+\245\37"
	.ascii "0_\342\335\354\17O\355\206F\362G\224\230\351\242\204^\277\306?\365"
	.ascii "7\212\376\256\377\236c\375(\277\216p~q\243w\224\213f\301z\335"
	.ascii "1\3;\310\341\33\346\300\37\232\265\310A\277}\203\362\356\366\26w\15P\237\10\307\330b,\240\3Q\313&\331M\231\255\327\262\273"
	.ascii "1\361\364\304\215\26\370\375E>\\Z\222\31"
	.ascii "6\310I\1<\311\2\216\267z\260;\323\305\210\35VC\204$\307acI\262\22pO\230"
	.ascii "88\221\313\211\33\304\201\360W\277w\351\32\360M\211\37gu\255'+VT\3{\275\376\374\362A\12\373\276\16\372\354[\366\231F>;i\366\372\340\16r\370\216"
	.ascii "9\320C\12\234"
	.ascii "2z\375\376"
	.ascii "0^w!\322\351\220\327\7\243\226\355\275~\177\233\327\343D7v\372\347;o\350t\274\225\361T\232\235\36/\336\266\30\234\16\212\375\206"
	.ascii "9\372\351v\322\253\310\241\375\353${\361\32~\313~\337\352\306\4"
	.ascii "1S\352w\341{\257)\364!H\301\371o\272\5\206\250\216\270\304\\i\10vI\235"
	.ascii "2>\250\325\372AM\24\263<\6\215"
	.ascii "4\322\350p\341\237\347\205"
	.ascii "42\224\310Nb\207\215.\215\7\360\322HD\323\356\305m\372;\10/\214D:_\235\305\342-\2\335"
	.ascii "2\255n\373\7\233\373+\6\17\266\367L\217\0\326%\1g\330"
	.ascii "3V\334-\371\376\330\32"
	.ascii "7\33\334\202\6\377@\315i\262\272?\366&)\36\17!\33U\217\266\351\\\207\")\302[\15\347.j(\206\267\330[\23\25"
	.ascii "6 =\3X\223\4\374\207\305\"y\224\222\324K\361\335;T\361\35\206{HY\366e\323\17Nn.H\245\263\6\17\263\240a\212\350\353\337*\242\207\211\233\21\211\273\275\207U\33\247\233\360HP\272\350\11\304\277\357+\13\333:\265\261\245%J\300\271\366\321{\204]\335E|\273K\200\241w\214"
	.ascii "2\366\216.c\357\310\227Z\265\36.\27Y\245\312!\372\347\201NX\16\207u^X\211Ar\5\345\275\264|\244\363@?D\5\345 Z<\334y\345{\24\270\256\24Y\276h.g\206\30\265\305\275\233\10P\205\231\346\15tU\233\217\336 \246?\252\230\"uk\10k\237S$\217#\225\356\352q\12\362\4c>n\366\354\23\34\302K=n\26\302\363,\5\311\243X\220\36\301m\377\253\330>\311[.3\333'\371;n\377\210Pt\214\275\236K1R\275\336O\330\353\221\311I\344\20\203\223m|~\16\314Ln\213\257\306\240\232\335\211\241\330)\217\371I\11kWt\356\223\335\316\35Xv/2\353n>b\302\370M\20m\214\253\333\30W;\227\273"
	.ascii "5\207*\364N\353\351[\350\206.p\325\243Ge\250\307\252\207\221\375\"T\250\237n\273"
	.ascii "0\355|\216\321\270$\314\17"
	.ascii "7\37f\262!iU\315G\10\210\346S\215v&-\251\341\333\263\207\270`S\267\347\361-\277R\314\236\351`\25\276\330v{\6\314u\374\331\16rhh\273=/q\35/\366.\326\35\363\\\373<I\11\340q\21\360"
	.ascii "3\347\11\32\371,*\332$SUB\376Z\21\275\200t\372w\216~B_d\334\27\314\211\363\242\372\350R\357\4A\231\335Am\203m\366"
	.ascii "6\352\332.p\335,\247\233XWT\1\233\230l\225\323\5\353\277=\247\213\35~\13\241\277\334&\372\12\350\237*\333\6*>#X\304p\263\211#XV\375\251-\36\205"
	.ascii "4\362\26\204"
	.ascii "5\267\345\331U]\230~\277\216bSF\232K\342(>2\225{\356\10\335B\244\14\35\267d\261l\247P\227\333\371Uo*\16/\341\7\270\351rc\374\227\30\277\247(\257\26\232\241\245L\244\34\337[\270v\276^\7\23I6'9\316\206\367Xu\344}\324\346\245\344\332#\15\224\311\275D\365n\241\361\251X;?G\247"
	.ascii "0t,)*\323\361\343\344\332\252f=Q\307\"G\222\23\322\206[\365\261\334"
	.ascii "4\255)\15\377\360\241"
	.ascii "7^\327\332\365\0\251b\251\315P\16\364s~\351Oz:\277r\13\376oi\353n\274\322|\316_1\330\223&\276W\35\330\232\340I\375ym\\\7"
	.ascii "3y\252l\355\300\12\244\312\344\26=\304"
	.ascii "9a\316]4\342\25J\375\334\275\202b\332\237\273\211H\247\222\262\271\233\202Lb\334\211\346\244\234\244\222\362\352I=)so\301)E\262\325)\323\244))\363"
	.ascii "8)s\315I\231\247\236\2K\257o\227\256\354\31\320\226x\271\34\352\253{n\30jj\367\212\245"
	.ascii "9\324\351b\237F7\247o\321\354\320Y.\276\356uN\277<K\230\326\21\266\1\232\16Dhn\201f \314A[f\317\315\200\16tA\323Y\26q\210\11\333\6\225\2\355^\337\370\224\202\271\363\231\305\34\256k}f\201\251\367)C,\317\365\235N\31\260\217"
	.ascii "2D\263f\354tb\214"
	.ascii "7\242\307x#:\214\235\216\247\255\323A/<\357\0\322.\235[\35OP>E\353"
	.ascii "2H\307^'&(\37\243\325,HW\315N\246\310"
	.ascii "2\367:\36C\257\323[xL\255\316\234\33\205k\206\12\27R_\327\353\314\5\242"
	.ascii "3w;\25*Zs\333E\253\2:\320\360\314dQ\304!\206\305\265\353x\346\201\332\364\230Y\317\203\233"
	.ascii "7=\304K5=\245R5=}\364W\261\220\277#\324\333\303\247K\364o\363\320\221#\237G\360\303\21I\351\275\267~\31~\11"
	.ascii "82\311\267}\305.\372\0(Zy\370\273\177CX\233\322\2\30a\1\263ZOJ\353\23?b\316-\251>\342\326\316\250\7\365K\227\327\177\346\344\37!.T\374h\374\21B\203"
	.ascii "2\31\356I}\266\14=F\27\325\35\333]\263\334n~C\337N*!\216\376\206\36{\335\33\372\34~\14)\227\327+\235\21\220q\274\15s[\365\316\364\323#\323i\331\217\274\306\257d;6\276\250\34\265\0\310y\206W\262\205\364 j|\1[\4\12k\241\376\324\367\265\376\324\367\16\320\236"
	.ascii "8\16\20Z"
	.ascii "sdn\23\202o\14A?!q\204\376?\376\251\270\271\177\370"
	.ascii "7\206\212\233\370\347m\366\317\274\33\371\207\266\241\322\350\237\267N\1\321\361\217^(V`\373\226"
	.ascii "6r\302\253\23sG\347\345\275<!\347\371\274\374q\331\206u\366\340G\37\312\32"
	.ascii "9q\242\210\30\236=*/?{b~.\316\362rG\322\314"
	.ascii "\245f#'\374>'\337><{\304\370\11#\307Y\20\236\347\240!{t\316(Z\215\212\234"
	.ascii "8~\370\313"
	.ascii "9\331\371\243_\317\317\36?:\307\223C\223\274q/O\244U\"\257^\316\311\33\235\233\237\235?!{\324\357\31\334\307\250S\326\200\254\254\1D>\200g\257\216~u\0\251\211\177\263\306\12'\211\310\316\313\37\236\233o\24\204P\353\310\261\270D\305XA\353p\202\375\37\15\274o\342"
	.text
	.section	.gnu.lto__ZN3stk11compression4testEv@0.f43985e8,"dr0"
	.ascii "x\234}\226}PTU\24\300\357\271o?\337\202\200\225\340\252\354K4\354c\264\251\351\237\376\322)g\362\277\376\256\246\206v\267qQw\211\305\321\232a\\\371\20\264"
	.ascii "2\225R\34\7D\307\12DASS\224t\361\213T4\261\304D\302\305\224\301\311\276\\\23"
	.ascii "6\265\355\234{\337\203\225p\337\314\336}\357\274s~\347\353\336\263\253\260\377_\25\370\251R\31\233\15\214\201\203\1_s\216\261\345"
	.ascii "6\316\325\256Y,\244*\7\263Y(E\1\233\24\233\270\271"
	.ascii "2\27\305\26ZS\314`\225b\213qc\225\212m6\33"
	.ascii "7}\334\316P\323^fEM;\250RA\5\240\33\6l\31WLf\213\325fWa\31\267"
	.ascii "1\210\343e\25!\335\344\177qX\23n\254v\344~\21\12\205\376\\w\302U\236\25\343\214E\271\214\31\276\204\\\206:\177\225=\270\344\260\224\241N\272|\7_\201\5\363"
	.ascii "0\343\273\373\35\361m\212\222\13\244\327\322t\347\254c\200\307"
	.ascii "8h\364xp\335w\325\26z\344&z\354>\264\375\203\234-\10\211"
	.ascii "4u\315\16\227m\15\375\33\217C\214+P\17\12R\241\1\234\260\35\234z\275\240\21r\320\350NE\363\25\253\362\264\300\327\254:\334f\22\204pS]hv\2a\307\230\204\235\202\260\343\263\333\233\35\312\263\202\260\272}e\304L\204\222H\363.\214\241N'\230\240iLB\263 \374\32\215\317Qf\11\300\321\276\25\235\22Pw\200B\30\1\354\32\23\260[\0\356\206N\256JS^\24\204\333\247VW\311$\"g\276I\10\301\14_\217I\330\3"
	.ascii "9\315\343\303\241x|\317\347m\255"
	.ascii "0\3\204\304*B\263\13\276\312b\334\342\240%\205\226t\\\254\31\"\371\11t\233)*9\21o\271\23\27\323$\\l\223i\231\202\213=\33\27\263F\313TAf\354:6\270|<\273\301"
	.ascii "9~)]P\22\376y\0\36\336\4D$\7\24\4\205 \366\3\306\272\27w\5\211s\234\254\7\312\302Wwp\22\15r+\232\327\376\260\272\211\27\337\13U\206l1\256F9\35\203}PL%\331Zr\252\335D\373\304\21\322\30|\3\316\30Oa] \214\311\5\2\4\257@\322\354\217\240\355G\332h\353\335dmg\335P\272\253\342\\\251\"\1\252\214\350\352\365\357;m\344\326\204\306\7\260\342B\353\276\36\263\3\355\14\351\235\25\35\272"
	.ascii "4EX;\330E(\273\\j\321e\211,*C\213\336\275\33\\aeV\245\7\312\303\203\365\302"
	.ascii "7\33\35zj\24\313\314\340\240,D\325\201#\255&\327K5\241j-\306\307\221\344\302\215\206n\13*W\223r\32\34\2\227\300@+\24c\22"
	.ascii "1\236\316\210\36\33\230"
	.ascii "0&=#\212\21"
	.ascii "0\370\26\351"
	.ascii "2\345O6\355\334\236\342\232+\35\214'\375\323\245\177\234\36g8x\14\16\33\16\216@q\214?.\312~/\2"
	.ascii "2\321\364\321\374'\242\242va\311\217\361\11X\254\222\336\212\16\275\316\31h2\334\211\235\324\211\14\21\356\203\272\244\305h\223\305\250o\36\330\311]\27@\6\233I\242\257o]\354\261\33\301f\301Q#\330cT\215\14\243\32\361!H\206?.\361\327\332\207\346\273~\325\351\23I\262\271e{\324f\320\235p\302\240\237|\250\326k\33x2z\273\244GV5\315s\375\251\323'\221\244k\250\177\233j\320'\303w\6\375TB\354\25\341\252\26\275v\23F\363\247D\271\31\371\247E\255\355\372\16\216\365\335Ri\327e\207p\260\237\1g\342a\312\246\303\324A\307\301%\333r_\337\257\231H\37nK#\265%Sd\366yC\322\266\234\325\353V\265|\255\335uOOM\314\371\241+\373"
	.ascii "7\244\30\251=\11\347\214\324\276\247\324"
	.ascii "2cb\23\224\204"
	.ascii "7\24\243j\317\306\310\220IY\317\305(<\\]\271O\237\347\15\211\303\324\14\347\307\32\205\243f\20\16+\350\244\331\263W\314\236\13\230\314\36"
	.ascii "9{\320[\350M!\350\224\2:\212&\206\277\223\212(D\377q\205\336\16\362\211\203\30\10\236\357j\213|v\212\312N\244r\335U\245h\22z\335"
	.ascii "7\264\371\267\324\32\330\204\241\331PIL\5\6?@\215"
	.ascii "0^\267\242\207K\335\311R\375\374\352\332-\234:`\213\304\365\13\226\301\217b\224\224\364Z\245\356\24T\247)r\266t\234.@\313\233\375[\273\201,\355o3\270"
	.ascii "8<E\314\354d\216\214\374V\226T\316FO\324\263P\215\210\374Q-\353\222-;\362{y%wUs\331\262\251$Zsf\343\271"
	.ascii "4\243e9p\11[F\34\370\211Z\226M-#\307\226a\307\277\337qH\317\232\341\271\23\222y\276,=\177\321\272\376\237TW\35O8\7\267c'.\247\216\234\203n\303\363\25\362\254\31\236\255z\267\260\272\275\323\244\347\251\330,\230\346\24;Wo6\12\205\266\215\341\177\35\372\251JgR\14T\332\16\275\313@\33\34\257~\0\334\14\312\220\202f\326\31hf\227\323\271,\274\273/\351\304\350\221\311l\254m\333`v5\352\311L#\321\247\237\365\37"
	.ascii "3\33\311L\207\237\215\235\337K\323"
	.ascii "3]L\317=\311\347\305U}\330\255\254\255w\270\232t\366S$\252\34\370\270\334j\260s!b\260\373F\330\373\177K\32\367"
	.ascii "5\311\356\32\374h\205\315uHg\317 Q_\325\37{\207G\335\323\360\213\301\276>\302ni\31\233\375LT\374\306\335"
	.ascii "0f\376\263B\373`R\345~9\264H\231\332\245\322\37\213^X\36\376\333$\17/\375\351\0\24b\320\323\334\201E\5\205\336`\320\27\360\277\25,Z\360N\302\363;s^\237"
	.ascii "7\323]P\300 \0>%X\350V<\301\"X\232"
	.ascii "6\307\203\12\32>\277\254M\367\250\354#x\315[\350\325\212\346{5\217\367=\237\337\353\321\226\4\12=A\315\35\360\7}\301\"-\360\236V\264$\240y|\301\374\200\317_\244\271\27\346\5\203\336\340sZ\320\373\376b\257\337\215"
	.ascii "0T\311[X0?\317\277x\221\267\320\347\326\334\363\363\12\363\334E\336\302\240\226\347\367<\254\350\17\370\37\241;\223\261,O@[ S\310\367ax\332\273y\371E\201%*3M\17\252L}E\317Ne\316"
	.ascii "7\26\371}\336\374\340\207\1?\206\26HT\205\5V-w\272;Wc*~\347<\377\302R\274\305*\246\274\352u\17\333\233\347\372"
	.ascii "1\367\377\0"
	.ascii "55%o"
	.text
	.section	.gnu.lto__ZN3stk11compression14uncompress_LZSEPvjPKv@12.f43985e8,"dr0"
	.ascii "x\234uWkP\324\327\25\277\347\336}\277Y\20\25\253"
	.ascii "8\202A\15\26\210"
	.ascii "3\266\235I\37\231~\261\37:\323~\350\207\314\244C\35\241\223\264):@\372\241\35&\177\26D\7S\302(\30\232\226\250\243\365\211P\203\6y\311J\202\32D4\12\221\247.\21"
	.ascii "0ib\6\207\215\270\223(=\367\334\377.\273\270q\306\353=\347\376\316\357<\357\335\277\202=\373\307\15\214\255q1\366W\334\303\22\6\274\272\237\261R\13\207\4\265\21\334"
	.ascii "5jc\232\315p\356C\306"
	.ascii "4\207\201;\7\222Q4v\374\10%#w\323\241I\35\232\270kf\11\212\346\203?F\311\314\235$YH\262pw\177/\202l\326n\201\242\225'\322\241\215\16m\272d'\311\256K\16\222\34<\361\322J\224\274\275\331(9\301\243\342r\205"
	.ascii "7\356\360\306\243B~)\201\13\345\311K\236\274\220\244\316\23\303\233$\0\271a\300\336\344\302`4\231-V\233\335\341t\271=\11\336\304$x\223'\250\322|\301\37r\250\366\237\252\263g\374G\323\264\231\356\331\343IZ\315\37B\234\261Y\256 p\24"
	.ascii "2$\250v\270[\210\14`\270om\14^\263\177\316C\34VK\261m\357\225:\223\24\271A\212\357t\34\273k]{X\323|\376w\313\14[B\\\300"
	.ascii "1\20H\7\307!\5N@\12C\25\203\223\260\26\301\377\334s\353;\243\310!Z\337\314\\\235\31\15\253}\376>24\300\251\305\206\6\6\15dxi\266\276\314 ~B\206m\207|mBy\14\221\241\21N/642h\204\265\22\375\260\374\311m\273\251\34\323\365\4"
	.ascii "9\13r\10r\36\344\"\310\15An\14rS\220\233\203\334\22\344VU\2h\2\23\16\220\31-+\236T4\233\305/\311\347\236\332\361\307\366\264C\350"
	.ascii "3p\362~\245E\273r\260<0?\237\32\342&\370o\254o\275\214g \15\315v\316\\\357u\212-Dqc\272s\304\251(\32\216UEQ\230\341\375\270\24\315D1\366\326\221\343f\361[\242\350\235?q\315\200\24~_\240\361\362.\244\320t\12\13\234\215Kq\216(N\34\251\371\207Y\374\216(j\272.\356Q\24\376S\7\265_\224\37\324\236\316\317\203d\370 .C\13"
	.ascii "1\374\273\333W ^.\325h\0\306+kG\35\212\342|,\305\371\270\24\255D1\331\371\365\200M\374\236\202\270\347/}`W\14\235\261\14mq\31\332\211\341jU\325\23\273\330J\14\15m\355c.YL-\320\264\253\322\254\325\205\213i\205\16E\221\231\2\353#\4\235\220\326\344\365k\363\363\263\375\373\372\262\177\375\"\320xp\32K#\310\275\11\344\336\14r\336,T{\33\216\221\325N\266N\334\332\334\270p\17u6\1\267v\257\\\22qq$\341\342L\226\342R\342]F\274\313\245B\316\242}\5\311+%\311*I\222J$\253\345\321\32\271\244\221U:\241\236\223\250\14R\254\223\330\365\264\335 a\317\313%S*7\342b\312\222b6\31\345P\224/\310\200"
	.ascii "7\321\226\261I\34\346\363\6"
	.ascii "6\305"
	.ascii "9\376#>\5_\240\347\177\23\313\261rO\7\375OA\344S\25O\17\7\313A\215\344\251ES}!^#\320\344\344\356\323-N\361'\325\306}_\266\310\211\256\326\2\35\367\367c\23\302\343\350\2\377\263M\210\275\213\262\2\320\205\177\261\322rL\345\240\311I\221\275\226\31\300E\314B^F\354^7^I\204\317\341\255\306D\374\267\253\372\201t]Rgb#PVW1\335\26"
	.ascii "4I\345\34\267\240n\216\233\21\312\11\325,Q\26\14`\12\337!|G\305\10\370\36U\336\351(Tp\33\306uw\362\372'\26\371\244\271)\314s\217\17<p\326\303\277p\"\255s\34\340CY\0\370\10\352A\372z\\1`P\246ve\335t\340\233\247 \255\255\370\316\365 6\354\271Sz\266\263A(\37*k~O\350Fhq\271\376\363\367\15\322\302\201\203xI/\357\24\276vg\374L\20\274u\325\2\272\364h\373[fBc\24\227#h#\33\335\250\300\23Q\340woO\5\5\201\261\374W\"`\23k\315\20\24\374\327\235"
	.ascii "5\240\340"
	.ascii "9z\370=W\273\351=\267\272\31|\274"
	.ascii "8\374\34\25\376\267\341\360s\320b\356p\340KJ\330af\320\33\361af\315?P\1\35J]\0W5\36\231u\23\30\253s5\2\266\260\326$\5>\21\5\276_}\274\311A`\274x}\21\260\225=\242\266]\250|tAo\333\13\30|l76\241\22)\256?\250\354\243\2X\177\316\340\332\342t6\251t\272\16\350\351lB\213\241\200\257\227~\337\34X\200\376\210S\33\33\324\233"
	.ascii "1\221\272\0\356x\373\355\36\325\14\274\305\327#`;\373\251\302NEa\207\277h\271\307\11\233\305\340F\4\353`\231\12\373 \214\215\362\352d7R\304\20\224z\344\21\376Z\261\205\275\205\215\301N\377\276\233\233\225\325J\364\360\336\255\252F^\362\255\266[\263\204\270g\26\341\14>\201\22"
	.ascii "9\304\245\373[}\6<\322"
	.ascii "4\377\353!\236@w\13\355\30\334\204\22\34\352\20\367b\371|wv\275\250\330V!\241\272I_\351\367(\25Q\250\217\324\217n`\252"
	.ascii "4\332{\246'hW\240\325\222\27\343\"\33\266"
	.ascii "8\242\304Y|~\30\334\302\210\346"
	.ascii "8'\312\325!\236D\34\17{\212\25\305\32\242P\256\365\311L#\350\232X\327:\346\263-\12\223N\214\13\30z\14\322\251\206.vxIT\15yT\15\255\30k\205\277k\357\317\24\211sq\304Kf\361\221`0\240j\370\301\304\225\3NU\303\277\313\32\266\204k8\10%\362\27\375\220\377+g\11\235\234\13\237|\252W79\246\272nt\245\302\237"
	.ascii "4+\215\207\252\353\216M\321\243\252;0\351T \362H\272\11\275\351^\351Ij\206t\236\304"
	.ascii "9\275\221\272\234\204*\314q\227"
	.ascii "6\16q[\262t\26\237\31\6\267\303-\361\220IB\210/S]\31\320\273\222\254;\212\352\312RB'\307\206\274T\205<\250\233-\327#.\333_\21\324\315R\320\6\17\24\327\30W\312\25\344<%\266{+\250{n6\275<\252{,\252{f\331\275\300TS\267\236\354sq\332g\304\354\206\236\271\2\333c\256\300"
	.ascii "0\265o\347\375\362,\325\275\366\360\301H\334\356\255CO*\374\217t\307\353\251{\353bK\261^\225br@\357\336\6}\260\261{\33\225\346y\351Ij\6\364;\226\211:\305<`T\232\215T\230L\231\250"
	.ascii "6\32\277\205\372\255\32\15\267\20M6Dn\325\244\336\210\254goU6\241\263bk\236M5\367\260\241\217\231`\323\220\201i\270\277{gB\340}s6\356\277\351\302\16\273jja\32\226!\326}t/\316[\272\363h\235\27\273\345j\250=\15h\234\300\360?\37\362\23\3?\216\210\223"
	.ascii "3%PU@\276\270}e\363\365z\347\271\372"
	.ascii "1F_X\301\14\17.F\336\360\315\214c\32\360d\231\224M\374\354\33H\353e\343\2\37\375\356!\252\214\376)\253]\34\236"
	.ascii "3m>\253\355\226_\213\14\306`3[\200\264\304\203\214\307@Z\343A\356\304@\332\343A\356\"D\26*\221\215\260\250\341"
	.ascii "4E\15\247"
	.ascii "1jo\210\332\13\342n\275x\315\364\375y\4\364\10\340\373\363\230\210\201\304\315\343\263\30H\334<\356\351y$\311\257\302;\240\6\214\311\317E@\15\216U\372\266\355\177\331Q\230_T\364\332\366\202W\212\212\377\234\33%\347\276\364\233_\375p\333\216"
	.ascii "\35\314\272"
	.ascii "57\257\250"
	.ascii "8wGq\241y+\2\336((FMQ\341"
	.ascii "6\251"
	.ascii "1\340\337\"\13.y\271\371\5y\242\350\265\277\211m\5\305\342\365\374\2\261\375\217E\342\325<B\344"
	.ascii "9^\315\337\232\227_\210\326\270\376\37\275\304\372\316"
	.text
	.section	.gnu.lto__ZN3stk11compression12compress_HUFEPvPKvjj@16.f43985e8,"dr0"
	.ascii "x\234\235VmP\224U\24\276\347\276\357\356\273\213(\4\242\362!0\"2L\15N\375\255fj\372S\375j\246\231\306\37\315"
	.ascii "0\10\230\216\251\214`\323\17\35_\227\25H\311\20p\332"
	.ascii "2\4"
	.ascii "2\225\362;B\23\314\300\24\360\3\310\20\5S\331"
	.ascii "1a2?qA\330D\350\234s_qA\364G;\303\335{\317=\317s\317y\356"
	.ascii "9w\321\304\323\237O\360o[\220\20\25\370\15A\2dQ\253\20\353\34R:\205(phj\245\201MMt5ip\330\244^\330$\204\31dw\33\302\14\266Kc\353\353\270r\14\204\342\312\0\207rw\0\320D8\5\210\265R\323mv\303\341\204\265\322&`\24?!\34\301\15\331'\341\310\276\376\226)\177K\277\24\361\2\227\265\305\315\36;-A\247\345\316\357n\255"
	.ascii "7\222v\230\246\353\336\375\255\267#\212J+pK\12\237\24\260\23\242`\27DQ\364U\220\204\276E[\272\216kZ\22\20\356\313\243\273\272\235\211\333\21W\377M\256\376\266_j\360=h\201"
	.ascii "04\11\370\1\22\321\271\321W\226\253k/3\260\266\322U\253)\340\31\6\352\260{\"P\27\260\207\201_ml\37\266i\257"
	.ascii "2\320uo\320c \260\310U\377\210\201"
	.ascii "6\330;\21\210\331\357c\340\305\242\346\302 \355-\6\272k\276h\321\25p\357z\5\334?\11\360\0$\222w\237\373\321\305)v\267i\232\241\244\2&\177\20\354 \204\206{\327\36vTJ\355]f\35*\274Y \23*1\17\357\235\33\33\34fs\205\333;:\32\347\227v\370q<\273\372@5$ l\244\243~\4\264\367\231boW\277\33\230\242\342\356gz\0\301O\223\22\324"
	.ascii "0\201\337\314\335\251i\13\230\300\363\365\346*&0\275C\247"
	.ascii "6\30\246\347"
	.ascii "1\205\1\207\24\305KQ\220<Fp\30\22\366\207\325\233\243\243\325\375\245\5\363l/\2\313,\371\226"
	.ascii "4\336\266\3Y\14 \25\35\34\262\23hw\32J\344\10\301\301\31JC\30\16F8\315\246\323\20\301\330\31"
	.ascii "4\235I\303,\34 \222i\243x+\232\17\212\241\275\331"
	.ascii "4\304\342\20\24\207\303\224xZ\316\341\334\346\322"
	.ascii "4\221\206y4$\341 \223\271\212\376\221\272M\334\224@9\210;h\20\340\223\260\355H\325\347\13p\251\343\335\370hS\212\273\370\5\375ti\342:\216\330?=X\313nC\273\0.\357\216\272k\221\250Y\336\243\274jC\333\10,\340\306-W\206\246\360\15\324\357\256"
	.ascii "0\337p\177k\216\214\216\2]\301\317\223]\1\"\266o*\275\347\324\212\24\274\257\307\273\337\246j\300\177\243\4k\300\264\364\17\206\332g\340\3\312\13\216@\2IL\311\223JP\7\11\\m\230\337Q\254"
	.ascii "9\334\36\224vq\11r=y\17Z;\355d\34\224\16\264\15JC\\\0\311^\325\344\345\300\245\253\276\273\244\25\330VC6'\333\372\332c\331t\230\213\247\373z\333"
	.ascii "9\7"
	.ascii "5\277\201g\374\202qY,\270\265\305\354\375\10S)ry\273\307\245"
	.ascii "2ub\227Y\305t\214\11\253\256\264"
	.ascii "62\341\264`\1\277\342\356ep{K\362[\16:\307\345\352\335q\354~\24A83\37^\312\204N\203zN\273\201"
	.ascii "2L\306\275m\355\233\366\311"
	.ascii "5\17\315\2\323\341\227!>|]\310\1\216\303\32>\306/C\351\244Pb\23\23\335_\360QM\300o\350\213d~\31\326K\325\321\203u\303\225\240d\253#\211\222\211\244~\240d\306\263xl\310sb\214G\20\213.\360u\326.\201\353\301\206\7m\36\353R\246\5jk\347\213\256\31*\277=\265\14\266b5\31\203\22\340$I\7\215P\6x\243\256\253\371\267f)h\10\242\331b\250u\350 \6z\31\362\315"
	.ascii "2\213;lb\\\341>:\2\232T\\\203R2(\304/\247\7\362\204#\222j\247\330\242\231\316^\341\344\322i\271D\240u\254\216\16\223 \21*\266\221\266\17\224\307\14e\312\275j\221\314D\23"
	.ascii "55{\235\0e\234\205vU\245\375RY\"9\250Yc\334\\\217\221\344"
	.ascii "3\224\327\330\271Z9E!7\246"
	.ascii "68\334\264>\204K\322\20\320\374\244$U@Q\212\270\267MW\240h\222"
	.ascii "2\371\211\23\367H4_\214M\340\17\"uz\250PXM\250\5\237.\255\5\3@t\200\373\254\246(\201\332\7?\275\200"
	.ascii "3\273v\271\254/\30)\365\263\345\316^\300,\234\332"
	.ascii "0[\"\365\341\362#\320\13\32\365\215VX>\200\336Qz\341A?\340\331v*-\26\245\267s\304\222%\206\"\300\350K-\355f\7\376\26;\343\5\234\2\224 \306\322"
	.ascii "2R9\305\242_\340-\306)\222\261u<\232\260:<\346\201E\223\326l\204\217[\373"
	.ascii "4\327\6F\37\217\16\305=\303\305F\334\26(3=\361~9\203"
	.ascii "0\303\205\177"
	.ascii "6LE\214\207"
	.ascii "03\341\14\304"
	.ascii "1\33\234\205"
	.ascii "5\220\200Q\305\372\361\366X\371;\235\257\250\223\347 \37\367\377\270K\235CJv\345\326\355\231\255\274\222\3\33!\30#i\261^\214\36\214\253\301\246a\277U\35\260O\32z\244\217\356\1Z\37\267[\340\343\264"
	.ascii "9\277\265+X\333\252^\335\201\177\17\35\13R\257\356\370\247J\203\266I\237\252\337\307z\335[\322\324Qi\214\177\232N\376u\32\310\305z\232\234O=M\347\370i\372c\222\220\243}2\210\267\241\375q\324"
	.ascii "1\275r\15e\353\260*\242"
	.ascii "3\177\244\363"
	.ascii "5\245\315\\\222+\240\375\22\351\215\16(\220y\354\222\250\12\342\274\365<$\241]\\\5\253\246\222XI\374\377Q\353\204u\241\202~\352\270\254\377\217*\347\237\253\12?\330\347\237\243J\7\253r\341Y\252\320"
	.ascii "6\\\14Pe\365u \30\377"
	.ascii "4\3\212\203\241\317M_\261,kefv\366\222\25\313?\314\316Y\232\32\260N}\363\275wR\322\263\262\204"
	.ascii "3-5#;'5+g%\316\262W\246\323\314HC\327U\313s\354i\13?^\221\276\324\201\246\354\324\314\345\31:N2h\225\221\272pINr }\312\374\224\224\371"
	.ascii "9\231\237\346\314\347\331\262\314e\363\351D\374NY,\10\227\255/^\265h\221\215\265\261\245\321)\377\1\363D\315!"
	.text
	.section	.gnu.lto__ZN3stk11compression14uncompress_HUFEPvjPKv@12.f43985e8,"dr0"
	.ascii "x\234\235U]lTE\24\236"
	.ascii "3s\367\336\273m\201\355\17\245m*\232\324\206\220\230"
	.ascii "6\372\346\203\211\306\27M|\360I}0\251H\213\20\3"
	.ascii "4t1>@\270l\227\26E\233Z(V@\5I\245P(?\265\324V\300\5\241T(\213\206\24h\13ec\350\252"
	.ascii "4\301\226-.\253\300z\316\231m\263--\17nr\357\235"
	.ascii "9\363}\337\234s\346\234Y%\36\375}\200\317\26[\210\315\370\205\24\1\262"
	.ascii "6(\304z[J\267\20\33m\245g\12\\z`\350\301I\333%\215O\316\12\341\244\230~K8i\246\264\266\277\200"
	.ascii "3\373\256\7g\26\330\32n\3\320@\270\5\210uR\31.\323\262\335\260N\272\4\304\361"
	.ascii "7\207=\370S\216J\250\15"
	.ascii "47\244.ht\34g\344H\353\336,g\313;1)DDj'\341[X@\240\372\276SJ-\0\201\343\216\226\261\13\251\177\310\230\204\247h\332Y\327\335`\322T\32"
	.ascii "4\375\374\330\236\33\356\302\335\216\343\13l\253"
	.ascii "4^\211I\5{@\241\34"
	.ascii "4A\36\354\205<\201&\1\373\240\20\301_l\272t\337\245\236eY\337H\264\301Bb\255/\320\303D\3\232\247\22\15\1\373\231\330\25\371\262\322P\317"
	.ascii "3\261s\227\257S\351\35cLt\301\201\251D\14\273\5\12\11=\352\177p%\325\364c\270\36\35$\34\4\23\204\240T\324\235\371\335\221\352eV\335\326x\357o\263`\27\342B\373\316\177l9\15;\375\241x\374\311\230"
	.ascii "4\341\220V\177&\17\26\346%\316\22\16C\1\222"
	.ascii "6\214\\<7K\275\306\2\277\204\217\367\317\"\1_h\177s\215\355t\217\13Xpd\262{\11\211V(8\230\21p\342\361\326`}\367s\256\371\300>K\326\326\31"
	.ascii "3\201,\26\320\30\17\30S\341f\332l\214\320\366\340\313L\247Q\6\275"
	.ascii "2\231\227E\303\271\364\312\306\227\234\307\222"
	.ascii "9\274\224\313\222\371|\34\267\244\341\22\303\22\310\15q\33\15\2\"\22\6\333\232>}\13\247\206\20\350/\345H\374\205\37\30\343\332\270\211o\254\300!)\361\243.\203/\324x\353\267\\\14\274\352AU\253\245\326q\22"
	.ascii "6\325_\277\227\312I\10"
	.ascii "4\357t^\364\177\343<\214\307!&\335\360\335t9@\306\303\336\300CP~`\372\201\276"
	.ascii "1?0}g\363&c\"\203n8:\3{w\315\226\21\267\372H\263G\207B\7]\372\4Z\206"
	.ascii "7\343\11"
	.ascii "8\11~\12|?\3?\251:\240\15\12(O\320\216\17&\31:\240\200\213\5\223\323\211%\203\313Qi\12\14<\320{y>\233t\21\334\270y\361W\233\32\202\220?\240:A\256l\15\2c\332\211f\211~\250l\250\12\367\217\231d\214J7\332\242\322F\250dT+\241\334\343S\24\255w\302\357a(\265\276\320\366\341\272\244PR\247"
	.ascii "6I\242\230\216\261+M\327\203]\354JZ\232\200\343\270z\15\374\241\376\252\13"
	.ascii "0)\324\320\231\341;y\304\340\300\"x\240S\372\4Np\324?\222\247\371\270\366\325\245\232\26\271\366_g\243c\307\344\254\10\266"
	.ascii "8\1 \0ky\227\230\234M\33yHML\205\317\211P=\301I\304\242XLz\302TYCXs\\E:\374\16\12?\237D\2"
	.ascii "7\266f\317\244\343B\235S\23:\202T\14\201w\243\352\7\337`\365\340\300\216DrgG1\244kP\355|\235"
	.ascii "0x\246\212\245G\370\260~\322bQ\251\242\22\220\27\223\31\202\264,MKG&\35\\]B&\203\245\323\11r5\1\311D\353\304!\36\246(2Y\241:<\360\206FdiS\345`Bd.\232\240"
	.ascii "0O\243N\203"
	.ascii "6f\243]\227\310\230\324\226y\354Q\366\204"
	.ascii "6W\337<\302\334\253\272=\260F\203rP\33C\213\336?\273a\16\27\240%\340"
	.ascii "4\27`\222C9Z88`hR.\206K\27\331"
	.ascii "8\210\13"
	.ascii "4\227\263\351\22\370\37B\255\215%\300f%\364\204\205db\302\256\200\350\5\177\217\322\222\212j\27\177a@\237M\265\243m4\15\235"
	.ascii "5z\332; \214\273`O\250\375mwq-\307\270\326\36C\33\22,u\214a\271\306\216v7\356mR=\240f_\345\236\226'\264l~rs\245\340y\235I\324\373\20"
	.ascii "6\324I\227\302ri:dN[-\231\21\204\10\350\32\257\226\254\244\326\372\254:\330\227\246j\364\235q\367\237\243'R\364\235"
	.ascii "1\271\321\24\234\235\266\321\272'J54\320\325\273\313\232\334Y\215w\316\1A\22\235e?\322Y?sg\235\233\306\345\271\21\274\347h\31\316\217{\235\35\226k)Z\233r3\10\353\3\365o\352\13\211\214\230qu\25\326{\4]\317|2\377'\234\236\307\206\303\27E\317c\302\271\300\341\4g\12\207\226\341bR8kn\2\321\370\357\4"
	.ascii "0*t\375\351\305+\227\227\257*\253\250X\266r\305\333\25\336\367K\222\346%/\275\376j\321\342\362r\341^TRZ\341-)\367\256\262\26!`\365\12/Z*V-&\213\215OE\311\273\313\274"
	.ascii "4(-)[Q\272"
	.ascii "0Y\262\250\270\250\250\330[\366\241\267\230G\313\313\226\27\323.\370-Z*\14\342\322\253\324X\272z\311\22\327\"\22\374\17S\17\33\366"
	.text
	.section	.gnu.lto__ZN3stk11compression12compress_ARIEPvPKvjj@16.f43985e8,"dr0"
	.ascii "x\234\235VklTU\20>s\316\335\275w\333B\213P\240/\12\224Z\312\243\15\12\204\370H4\376Q\177\231h\214?L\232\12\250Dy\204Vc\214\304\353vi\11 \226W\254\17\24| \312S+b)\325\305\7\255b\253\210m\1a[\15]Q\12B\266\260]y\254"
	.ascii "3sn\313\355R\371\341M\366\354"
	.ascii "9sf\276"
	.ascii "3\363\315\234\271W\211\353\237g\361"
	.ascii "7#E\210\267\361\37\222\4\310\352\26!^\262\244\364\11\261\314Rz\245\300\243'\206\236\354\267<\322X\331(\204\235\344\15\230\302N\361J\363\215;qe]H\303\225\11\226V\267\0h\"|\2\304\213R\31\36\257i\371\340E\351\21\20\307'\225=\370S\236\227P\267\243\247"
	.ascii "9\371\224\214I1V\340r\357\232\246\32/-\301\240\345\346\367\272\227\232\5\357\333\266\377\334\317ug\322\253\327m\304-)\"R\300f\310\204\17 \223\274\337\2\5\250[\275\376\350WJ\25\0\331\275\272\357\203\16_\376\273h\27|\263\302\270"
	.ascii "7&\25|\10\312m\206\"\1\37A>*\37\210l\250"
	.ascii "0\324"
	.ascii "46\334\273\311\277Wi\303\203lh\300\326DCC\300"
	.ascii "66|m\305\341\313\36u;\33\372\317EkL4\254\366\7\257\260\241\7\266'\32b\364;\330\260\275\272ie\222\272\207\15\3\273_i6\264\341\366\245\332p\347 \206\273 \237\264\317\7\256\264'{\3\266m\247\21\13\30\374\307\340\5!\24\356\375~\251u\223T\367"
	.ascii "3j\357\312\323\313d\336&\214\243\363\370\326U\226\335\264"
	.ascii "1\320\31\217\347\306\244\27>\31\210\256\37\250\205<4\273\332\32\274\12\352A\206\330~\264'\0\32\342\304\351\345.\10\23>\35\24b7C\304\354\212\315J=\302\20"
	.ascii "5\257\257\336\302\20vg\350\340r\323\256\351\203\260\340"
	.ascii "3\15"
	.ascii "1%\23\12\373\1\366@\336\316\233\202v<^\373\307\372\246\361\336\333\200\211\226\234'\305\333^ \211\11\304\243\305N\373\200v\207\"I\276T\34\222\322h6\214f\303qH\36A\263t\32F\322"
	.ascii "0\212QF\323"
	.ascii "4\203\6\"\27\262\370\200l\336\312\341#\307\20H.)\214#\220\361"
	.ascii "4\313\243a\2\15\371\254y3M\13h\230H \205\34\377$\336\232L\322)4L\305!\245\210\320\212i9\215\225n\245\351t\32f\320"
	.ascii "0\23\7"
	.ascii "9\213\13\362/ix\304i\11D\206"
	.ascii "8\213\2\1\21\11o\325my\371\21\\\32\230\346\10mJ\361"
	.ascii "7\376A\17\345_\234\304\21\257b\27^\213\200\251\332\300\337\331u\361\367\14$\277\362Je\255\251V\0gb\305\372\23\275\311\234\314\340\326\215\366]\201w\354\253\361"
	.ascii "8P.?\37,\227T\334\237\324m\363\251jm~\276"
	.ascii "1x E\327B\307\301\265X\13\266\223\310!\260\367?\354]\225\12u\220G\271\242\340\211\37\250\207<.\\\214o\37\226/nG\245W\34\203\212\232\312\360\211\36/\11\243\322BYT\232\242\15$k\325\222\226\205K\177\260\376\325\26`\331n\222\371X\326\320>\206E{\270\12;N\376x\310\242>b\341\31\15\350\227\203\202[\353\355\360\23\30J\265\277\263\371\264;\224\241\211\27\326\251\312/\30\360\267\227/\324\2\1\246\216\25\360%\356\36\207@\347\332\252\346\217}\3b\355\354\212\36\313$\23\216,\202II\270\264\20\344\260\367S\204\263p\357\255\303\253v\310%\227\354e\266\25\223i\21lT\244\0_\301\22>&&\207\321Ii\204&\22\325o\212PM\300\327\250\213`19<L\325\321\205u\303\225\240i\253'\212f\21H\360P{\316\240"
	.ascii "8#\"\330a\4|\323\207\223.\10\305\20\330\350\325"
	.ascii "1\360_\\\36\16}\356$e\250\233\333\221\234\350\335\275o\237\31\262\1\336\300jJ\216J\200o\211:8\0\33\0"
	.ascii "3\352\17Uugh\323T\264f\211\251\327iQt\324\265\36\206\"t\263\312np\316\32\236\350\347\250\210$\356\32\265\237Q)\331(5&G\273qF$\340\246#\22\325\326\32\7v$\253\244\223\312\21Ge\24J\373\353l\17\21"
	.ascii "6J\373~6\364\260\326\30\255E\25!\7$\3E\220\237\251\265\276\1-\314D\271\256\342\36\251%Y\354d\177\365\351z\315\"\235\336\312\213\241\27\264R6bc\250\321\313\215KS\271dM\1M\327JV;\224\255\201\333B\206"
	.ascii "6\312!\252\13\257)\361\35\312\341\304y\4\276{\251\23\244\11m\253\204^\360\351\322Y\260\1\210V\10\374\240"
	.ascii "4$\320\365\302'\14"
	.ascii "8\363\252}\365\347S\20\322\330\326\340\13\3F\341S\307Y\222e\34o\250\203"
	.ascii "0(\272W\252\273\376\2jg\33\335\15"
	.ascii "1\300\263\275TzLJ[G\257C\313\230\204\204\344\242\10\23]i_r\24\306%&:#\202\367^\300w\256D\343\5\315t\203\214O\0\305`\306\271\263<\201U\362\334Y\316G\351@R\363u\376B\35\17i\215\233\265\250?\313\5(\352\317\362\35Z6\21\305:\27\335N\222\13\331\301\211\3\223\\\250\223\34\356x^+MB\350\353\263:\311)\263\216\253\16\25\223\265\254b\235\343\301\24\367'R\22\266\236\357\1\253l\262Sw\316\315\232\212zn.\212\372\200\235u1\212\220\360\32{\327\343\203\336\377\254\10\267\311\203L7FS\214\12k\272.\257"
	.ascii "1s\327\301\6\273fl\14\253\17E\227W\376\272\177\10\332\324\220M\16\374\0\271\214\6\315\260\4\362\320\253\251"
	.ascii "1\314+3s\261\343\26}\362"
	.ascii "4\304\343^:\200\233iTuG+\342;\263\265\326,wS\31\202\236\264"
	.ascii "8\335\267\13\313`\277Ga\357\332\262\313;\250\353\271\21\372^\205\37\373Z\327XW\243_]\325r4E\275\256\337`\27\376\371\354\213$\375\6\33\330\366\25\374"
	.ascii "4h\333?\324\337"
	.ascii "7;\327"
	.ascii "6\266n2\23\332|\374{ \25\247\315']\327\346\177\346"
	.ascii "6\177x\20\227\307Ed2o\303/}^\217\17\313%\24\255\345\334\236#U-\247\234r\273\225\350r\25\361tz\337\271\12d\6\253L\327\5\361\313h-\234\211r\21\2\247\246f2\223H\223:\2/\245\11\372l\340\26\360\177Xi\275"
	.ascii "1+\364\362k\275\1+m\314J\373\177\261B\333p\304\305\312\13'\201\314\370"
	.ascii "3\7\220\34t}\302\354\205\363\27-\236[V6o\341\202G\313\312\237*q\255K\356~\340\276\242\331\213\26\11_i\311\234\262\362\222E\345\213qV\266x6\315\314RT}fA\271\267\364\261\247\27\316~\312BQY\311\334\5s\14\234\314\241\325\234\222\307\346\225\27\272\341\213\212\213\212\212\313\347>W^\314\263\371s\347\27\323\211\370_\364\244 \273"
	.ascii "2U\272x\236\207\251\361\224\322!\377\2*(R\337"
	.text
	.section	.gnu.lto__ZN3stk11compression14uncompress_ARIEPvjPKv@12.f43985e8,"dr0"
	.ascii "x\234\235UoPTU\24\277\347\336\267\357\275\5\224\25Ab\375\7l`\316"
	.ascii "40}l\246>4}\261o5\323"
	.ascii "4M\323\14\221"
	.ascii "0\305"
	.ascii "4*\3[\323"
	.ascii "4:>\226\25M\305!\312\"\374"
	.ascii "39\215\212\377\320$4\20m5\5R\300\214A\305\14\267\11(1Mf\301uK\245s\356}\313,+\372\241\235\331\367\356=\367w~\367\234\337=\367<\301\36\376}\200\377\6'c\265\370\206\4\6\274\246\207\261\12\223s\264\255"
	.ascii "3\205\232\11p\250\201\246\6'M\7\327"
	.ascii "6v0f%\350~\203YI:7\266<\217"
	.ascii "3s\334\205"
	.ascii "3\3L\5"
	.ascii "7\1h\300\234\14\330j.4\207n\230NX\315\35\14&\360\227,#\270\316G9\324\4\366\325%.\332iY\326\355\237/\354I\265>{+\302\31\13q\25$\354\202E\4\332\334\177J\210E\300p\334\322"
	.ascii "8\326\235\370'\217p\310\244ikmg\235NS\256\321\364\213\266\335\327\234"
	.ascii "9_[\226/P_\251-\211p\1\273A \35"
	.ascii "4\200\33\366\200\233\241\211\301^\310A\360\227\33z\357"
	.ascii "9\304"
	.ascii "3\222\326w;\\g\240c\215/\320%\35"
	.ascii "5\330\27\357\250"
	.ascii "1\330/\35\333C\333*5\361\254tl\335\341k\25j\307\210tt\300\201xGL\273\21r\10=\352\277\177)Q\367c\272.\225$\34\4\35\30\23\270Vu\277\252\311\20/J\326\15\233\177\275\233\350\331\201\254\301-7\327\233V\347W\376\340\304\304\302\10\327\341\320Tv[\250o\300\203n\265g\376\260\270X\")\352w\336\275\243\23\205\25\334\332\275\336\260\352\242\24\6\34V\24O\273a\361$A\223$Xs\373\374\331\31\342\25I\360\323\360\361+3T\14\333\17l\212\211\301\204o\247\215\241\31<\7S\2\326\304DS\307\347\235\371\372S \303\342\222[\211\256\3\11a\0\215\261FPM\247t\233\211\"9\223\361\221\340\222\350Y4L\241\307l|\360TI\224&\227\346\240!1\235\226"
	.ascii "2\310\211\344M\230K\217y\364\230/1\13h\270\220\36\231\344\236%\335\263\345\222G\306\221+\313`\204k\16v\203\3\305\316n\241\201A\210C\343\321\206\352\327q\252\341\251\204h\221\263\277\361\5c\262&\7\361\211\225?\304"
	.ascii "9\276\304E\360\5\207v\375\236\201j=\350\13<\0\341\7)\335\201\376"
	.ascii "1?(\351\266\305\35\337\221\351\244\243b<\334\262\337)>V\376\243\35\201\366$\345\337\320\375)\372[\266\177\22|\367\10\377\230\312\242l)W8\212\177T\27Z\300#\13\15\23l\305r\303\345"
	.ascii "0\327\31\6\37h\271\262@\232\324\351_\33<\177\301\244\313d \362\30\262\23\344X}\17H\314Qr3\330\25\250\254\253\272s}L'c\230;\321\26\346&B\271D5\23\312\31\235\"\351fk\370\35L\245\306\27\254\276Y\33\223\312\214\370\13fWQ\233\14\345\267\352\361&\240Pff28\216\253W\301\37\34\253\352\206)\251\6\327\354\375\305M\36"
	.ascii "2\261\20\36J\334\35\203\23"
	.ascii "2\353\357)\322\\\\\333\336\273\251\221\257\372\327Zg\231\21\236\34\302\366@\0\10\300*\271K\204\273h#\27\261\261x\370\254\20\325\4\234D,\222Ex\312"
	.ascii "0U\307\20\326\215\254\4\225~\13\245\237\213$U\201\336\372"
	.ascii "3\240"
	.ascii "4\232\31O5;\204=\201\301)E\205\207\1\36\334;\25\265\365\15\30\312'\31\335h~\331\236\273\320"
	.ascii "4)r\23\355\342\222\360\265\27G^U\210Y\312T9`\237L\12\232 \307\255P\317)\333l4\253\23\374\213+K*\356\216\366IjY\34\24I\345\335\252\201\221\217\24(\15\251"
	.ascii "1\207\360\275\216"
	.ascii "5\311\262>\14\6?\310\372\210\211'\215\221\32\32\303\357\203\220{>\30\251\267C\231\23\306\243\211I.\35M\250\321Zk\233\15\310\210W(-\304\351\340NG\25\22a\334\236\247G\320/\206\307\35\307;\27\231(\364Z\233v\236\204\314\215\325q>Z\247\306=_)\324~\343"
	.ascii "5\205X\240L\223:.D\323\244\216\247\355#\315D\273\22r\314\26"
	.ascii "2KF\230"
	.ascii "9U\310,%d\317\215\225\12\224\215\334\17+\227\255\230n\215h\12\205&A\255"
	.ascii "9\12\222"
	.ascii "7\317#\345u0\374\260R\337\301\332\226f\301\324D\22q{\"\367\6\326\7\376.\241(\5]J\374\15\3\6\231*\366\367"
	.ascii "5\343;K\333x\251\5\206\201\343\341\211\266\276q4ek[/E\320\204xC\\\355\35M\302\215\265\253}N\334Z\247:G\312\376\312P\363<\305\232\33\333"
	.ascii "4\222\360\274\316\330\367x\10\33\305I\207\300\273\324pH\237\366"
	.ascii "6\245\207d\227i\217\336\246'bZ\306'k{\372\223D\265\352\205\343\377\34"
	.ascii "9\221\240z\341\324\6\"\240c\332\6\322\31\275\202\376\340x{\337\16#\256c\34<\7\4\261;\206\371P\307\370Qv\214\263\323\204\234\21\342N\271\14\347\242Q\273\207\371*\312\326$m\6\240\"p\377\15\325h\311\210\202\213\313P\341b\364\351\220\7\363\177\322\351z|:\324\0\273\36\223N\267L\247\347Q\351\320"
	.ascii "2\234\217Ig\345 \220\233\374\324\1f\205\241?\271t\305\262\322\262\342\362\362\222\25\313\337,\367\276W\20"
	.ascii "3/x\341\345\227\362\226\226\226"
	.ascii "2gaAQ\271\267\240\324[f\24\"\340\375\345^\264\224\227-%\213\206\377r\223\36\5o\227xiPTP\274\274hq,o^~^^\276\267\370Co\276\34-+^\226O[\341;\357]F\4E\242\260\254\304QH|\377\1\353\215p!"
	.text
	.section	.gnu.lto__ZN3stk11compression12compress_BWTEPvPKvjj@16.f43985e8,"dr0"
	.ascii "x\234\235VmP\224U\24\276\347\276\237\273\13\272\202B A\272\250"
	.ascii "5\223"
	.ascii "05\375kjj\372S\375j\246?\375hb\20\231jLe\334m\352G\216\257\313\12\226f\233\37e\241)\231\37\245\370\21\1Jf\253\25b\10f\206\270\342\307N\1Y\272(.\206\233\342v\316\275/\316\262\242?\332\31\356{?\316\363\334s\236s\336\363\242\260;\177\25\370\267\311\301X\20\237\340d\300\203\35\214-69\307\275\245\246\"W\12hr\242\312\311AS\343\352\362\303\214YN=`0+M\347F\315\23\270"
	.ascii "2\257\271qe\200)\315M\0\232"
	.ascii "0\7\3\266\210+\252\246\33\246\3\26qM\336\375\27\37\340\260o\347`\273\353\2\217s\366\0\303e\363\312\326\265:-A\245\345\226/.-1fl\266,\377\225\225\341\350\244\340\352\215x\304Y\214"
	.ascii "3\330\2\271\260\25r\311\357m0\3m\203k\302\207\24e\6\20\356\343\375[\317;\246mB\\h]\245\372l\234+\360%(\311"
	.ascii "0\334b\360\25LC\343\226\330\372JUyD\0\233k\375\315\212\4\266\11\240\12\333S\201*\203\35\2\370\311\262\23"
	.ascii "75\345q\1\364_\31Zk 0\350\17\15\13\240\6u\251@\215\301N\1\354\12\266.w*\317\10`\240\341\203vU\2\353\226H\340\256"
	.ascii "1\200\273a\32Y\17\4\206\273\\z\300\262,7\251\200\301\357\1\35\30#)\177\277\321Y\313\225\347\5\353\365\345\27\227rO-\306\21"
	.ascii "9U\267\302\264Z7\6\"\211DA\234\353\360\365hv\371\203z\360 \354Vg\350\26(/\12\212\272\360`\0$E8\372^\22\205\1\337\214I\321\0\236]\31!+\221\250\357\375\350\302\223\372\203 t\342\342@\3\232\353@\2\30\342"
	.ascii "6,\16\224\337\5\24Y:\306h\216\303\301\341\26\326\23p\352\314\240!\223\206\211t\234EC\266\240\314\241)\351\342\310\23\346\371"
	.ascii "8\345\5b:\205\354\247\322\340\241\241\220N\246\213d\377\315U\215]\344@\236\262~\334`\20\343\260\242i\333\373/\341Re\14C\"!\331e|\300 i\313zp\304\2\357\305\222\13\30\312I\360Gz\353\377\310Am\252\206\253\352\15\305\17B\250ek\316^w\11\241B\333"
	.ascii "7ZO\5>\267n%\22@:5\216\245\23\"\342\211\303\357\352J\265\204\237;\272\345\246\204G\272\333W\241\316\226\255\263\13\366\336\5\237T\5\320\4\36\222\223\202\207}\340\21\5\201\261"
	.ascii "5cY\340\321\20\326\316i\250\\[\325\22\335m\320\346\20"
	.ascii "7po\210\353\354$paUOV\6.\375\241\372\232\16\20{\15\264g\216\230\340\215k\254\276W\321\307\240?r$\232\354cZj\225\333\265\360\255(\247\275W\243\33\234\364"
	.ascii "6\247c\242\366\343\351\31\10D\6\252\332\367"
	.ascii "8F\5\21\351ml\233L\20\341v\14\325N\251t\370N\304t\200\334\237\216g\237\235X\261\223/\274a-\265\314"
	.ascii "8\37\27\303\267\233\14\340{X(\256\211\363\361x\223Fd,\325\332\35\243\\C\10M\221k\210\273\342|B\37%\276\27KB$Y\252\262\217\24\230\216\332\371\33\7\372\253\322\245t\351\310v\276\347\330q\223br\211T4\\\337\20M_\17"
	.ascii "5\230\357\14\4\300A\322\0\367\327\15\256\12\217\237\271\35\335\307K9\34\202\365pU\324\24\374\0"
	.ascii "3\211\366\224\235\216qHK\353\225`K}\373\202\314Q\27,\266\254\320\303q>\21\363\2?\322%\360\23r\"^\346\367\237\350\243\222\317\215\6\10\373\264\253wP\21\215\24\223\323\202\366#\201\211\324\272\31\5\254"
	.ascii "2l\342\12\371R}\262\377"
	.ascii "4H\374\4*\206$\377"
	.ascii "0*\240+V\353r\235)L2\310\344\\\365\31\333\10\275\312D\311m\223\254T\321'\305\250\347\303\341\21\321\321\355\211q\236%=\357\261"
	.ascii "9\262\305~\326mGE\365fS\311\204\272j\212\244MN*sv\214Se\264J\346"
	.ascii "8\277O\270^}I\223\366\271\10\31%n\262\232"
	.ascii "3\205\232\334V\363\210P3W\372\324\327\377\230$\310#\203;\344\313C\257\226\204\272\273\13\244Q~\252W91\324\220\301\317#\361\346\305mb[\240\2A\234?\232\264@\344Dc\370\311\244V#;!^\317\344B\310\1\254\23\2G+75qI\4\224,\374\365\1\316"
	.ascii "4\345fx \15"
	.ascii "5Sw\234\35P\372\200c\236\225K\335\345H\255\236"
	.ascii "9;\14\310\256S\211#E\270\362\317\246<Ia\227\254\270\334`\7"
	.ascii "5\5\5\337\266[\37\363\345\231\34\303\246\300\240mD\355\274\244\16\361auG8MY&{\332\265\177\33\17"
	.ascii "8eO\33\335/\24"
	.ascii "8:f\277h\227\257\233\350\17-\235\265\306\350\376\260\371@\33\220\211\335\37\34w\364\207\16\321\37\216\215\341\362\375"
	.ascii "1\356\24\307\360\313\210\327\371}|!Ek\222\30\262\372/\277\"\305\230Bz'\25\377T\352\202I\305\357\21&S\355\342\317\221\233\205\270\317\316\201\375\376\24\12%\361\337'\345\24,v3\372\220\210\4\376\37U\216\337S\25\321"
	.ascii "5\217\337C\225_\205*'\356\246\12\35\303oI\252\274\323\3\4\23\37>@q\320\365\302\262\371s+\26\224{\275\257\317\237\367\262\327"
	.ascii "7\247$i]\362\364\13\317\25\225UT0Gi\311l\257\257\244\302\267\0g\336\5e43J\321\364\315y>\275t\326\33\363\313\346\230\270\345-)\237"
	.ascii "7[\305\311\354\207\222Y\213\212\213\212\212}\345o\373\212\305ln\371\334b\272\10\237E\257"
	.ascii "12\367*\263\336\362i\245\304\372\37\364\266wp"
	.text
	.section	.gnu.lto__ZN3stk11compression14uncompress_BWTEPvjPKv@12.f43985e8,"dr0"
	.ascii "x\234u\222MHTQ\24\307\357\377\336"
	.ascii "7\357\215\16RD\13qS`\346.h\331\256(\304\26A\213\332E\223\250\213\210tp\246\245\370\34\247\207`\37\"~W\246E\231\337\231}9\25=Z\204d\231d)J\246\224F\355\264\31\32\37\245\257s\357\333\250\341c\356\271\357\236\367\377\235{\316\231#\330\377O\26\255\23\202\261\223\264C0\360\332"
	.ascii "1\306*\375\34\220/\14\254\202\243\2?\371"
	.ascii "2G\255\335\323\34\310\275c\232\346\322\327\271\256\235f\375\31\207"
	.ascii "3\226\340^ \334E\256\24"
	.ascii "5L\277\22\"\27\214\336\207\373\223\357\2?\270\303\261[\36\343u#\315\272<rM\36\233\236w\316\245\345\334"
	.ascii "6\315\250\335Z\245\345;\\\240\23\202\302\341\36\262\320\205,F.\206n\344\220\270\245f\342\257O\354Wa\243K\251f\203\300\332\250\375V\201\32z6\203\32C\257\2_'nTi\342\200\2\343\35\321\270\360nt\24\350C\337f\320\307\320\217\34\251^\216\255N\5\364\30\225\273\335+\22\3\320A\373\300\16\333t\335\204\333X\275\327H\7\244\236\332Ey\12\310K5\212\242\373\244\321\245"
	.ascii "1\244al\201\"\310\216.r.w1\211\250\335\324"
	.ascii "6\6\272\310Z\265\206\14qX\245X\323"
	.ascii "0\273\22\310\356\220)\366\264\233\7c\267\314"
	.ascii "5\327\205\303\15\334\337\230\251\367\20\261\366\311^\203\310Wt\337t2\6E\267_\272\252\215\264\307\346]w\227\204\37l\1_\\z\377&C\34S\360\370\367\27"
	.ascii "3\31\36|y\3\374p\13x]\203"
	.ascii "0\210l\14\321z\204l\325'\352\326c\352\26\271S\34L\26\333B\305*\337\220\364q\345\273\326"
	.ascii "6\351\371\10\243\200\277\242\263\335\376\274#t'\11R4\17\364\211\341\11\362\330\14\252\32\255\337+\37\224:\305"
	.ascii "5\372H\372\326\251\305\244\220\3\245SzO)5\222]\267>\32\236\310G:\22\215\216\366f*\215\351g\30\366D\365\326\202\317\23\321O\220T:\353\254d\246\347\244\353u\"\277\275\234w\322\25J\377\201\273\215!N\364gX\346M]eF\222\266\211+\375\274\374\217Ym\372\35\356OP\251\14\317P\316T\376\240H\16Oc_Pi\17\236\366\272\"\7\1r\0h\34\366\24\226\236\17\225\25\207\303gKKN\205#\347\202\353\316\301C\307\217\356+\14\205XZA\260(\34\11\206\"eF\1\11.\224D\310\23.+\224\36\215VX\232\"\277"
	.ascii "4\301\342\222\242\177\375\14C\354"
	.text
	.section	.gnu.lto_.symbol_nodes.f43985e8,"dr0"
	.ascii "x\234U\221\371oLQ\24\307\277}w\316\314\30\35\306\326\252)]-\265o\377\221?\344\20OKH\11\11\211\37\324\362\354KQ\224\322\326r\265\332RK\203\204\304\226\27\246\226\12\261\224\330\356\334\373\236\234y\277\234\317\347\233{\316\273\357\35\5`C\22\356\361\366\22\3\333\206\1f\264\356M\243\354"
	.ascii "2q\231\13\260vc\32^\33\261'\17x\373\210UI\260\237"
	.ascii "8Q\22\34 \246\222  N\226\4\7\211S%\301!\342tIp\230xB\311\275\272\211"
	.ascii "3\361\275\326\32\357\"\236(\275\223\270\\\372\5\342\254\364\363\304\223\244_\"\236,\375,qN\372E\342)\322\317\21O\225\336A<M\372\31\342\351\322O\23\317\220\336N\\!\375\24q\245\364\223\304"
	.ascii "3\245_!\256\222~\202x\226\364\243\304y\351\307\211\253\245\37#\236-\375\10\361\34\351\327\210k\244_%\256\225\336K\\'\275\207\270^z\37q\203\364\233\304\215\322"
	.ascii "5\361\\\351"
	.ascii "7\210\347I\277N<_z?\361\2\351\267\211\233\244\17\21/\224>H\274H\372\0\361b\351\267\210\227H\37&^*\375\16\361"
	.ascii "2\351#\304\313\245? ^!\375>\361J\351\367\210WI\277K\274Z\270B\25\302\346\367m9\205\231\360[\336\327(TB\267\330\240\2\301\253\361_\235\265E\322\257\35\315@\370\366\305\236\216:\205\351\10\337\25Z\177\233,\207`\254\360\253\305S\230\206p\254\260\245\327dS\21~\34o\337d\262I\10>\27n\233qY\4\337\307\177>\336\234P(G\360"
	.ascii "3\302,\374\375\3\273"
	.ascii "7{\305\320?\340h\12\302\343\243O\37\326\332\254\335Q\16~\247\243\311\10\272>\375p\243u\217\243,\302\236k\37:lG\330\353(\13\375f\364h\256\30\351\267\26&\232\213~\32P\12\31s\317\30>\227)o\16\364\213?\353,\370/-\344\241\373\372\232\15\314F\350\240\32~\277\205<\302\30\374\301\10\2\7\300\365\377\311P|x\353\327\236\234M\266G\20\216\304\355\217\342\303\16fA\307\20ZP\365\10Z\277t\257\367\224"
	.ascii "2\37\261\325Q\35\364\216\337\273\213T\13\275\313Q\15\374g\337\272\334"
	.ascii "9\377U\341\224YU\302,\326~Kb>\374f\263\330\304<h\273\351\304\\\350\376\277\335\33<\225h\204\277\323F\15\360\37\337\255V\211\14t\\\363\212\342\21\24\215\240x\4-0\177\303\216\240\6\350\7\246\203"
	.ascii "2\360G\242Z\241\222qgr\211\353L.\216:\223\213\314\357\263\235\311\205\10w\330\250\21\301\36\13M\10\236\233\31I\263\226\270\256Q\251xV*\232\225Z\26\315J-E8dg\245\232\334\275S\346\355O\242\232W\351*h\333\231^]\34a\352*\350A\333\220^i6\344h\5\364\260\243\345\10\213\237\222\316 \30\211j\245\232P^|k[\16\377\0\24\327\6y"
	.text
	.section	.gnu.lto_.refs.f43985e8,"dr0"
	.ascii "x\234cf``\220g\200\0F\6&F\6F\26\20\301\12\"\330@\4;\210\340\0\22\14\0\10\207\0Y"
	.text
	.section	.gnu.lto_.decls.f43985e8,"dr0"
	.ascii "x\234\275|\11TTW\326.\247N\25CQ@\242\211I\354\356\27c\372\267;\351$\16"
	.ascii "1i\363w\277\264I\307N:\335+\311\353\244\377~\177\326[\253\232(Fl\247\26"
	.ascii "4\351\374\375\272\13\31\25P\4Ae\20P\346YP\346\241@A\220Q\231T\24J\31UP\24\20\4\245\336>\303\255\272\267\270\245\246\377\265\36+\333{\317\271{\357\263\277}\366"
	.ascii "9g\337sn\5\333\330\330l\263\267\261"
	.ascii "1\302\337\271Oll\236\233gc\243\206\272O\201\26\0e\2e\3\225\0\225\2U\1\235\2\252\5\252\3j\6j\1\352\0\352\4\272\2\324\15t\15\250\27\350:\320\15\240Q\240;@\223@S6\354\357- 'dc\243\1\232\7\264\20\350G@\213\200^\6Z\2\364\12\320k@+\201v\2\375\3h\17\320>\240\203@\221@1@i@9@y@\371@\325@\15@\255@\27\201\14@\327\201n\3M\0M\3)\24"
	.ascii "66\216@\316@\317\2\375\33\320J\240w\201\336\7\372\0\350S\240M@\236@\177\7\362\2\362\6\12\6\12\7\312\6\312\7*\5:\15T\247\260\231\363G0\376\24\256\316@\32\356Sp\265\315o\200|\201\377m\240\17\201>\202\362\307@\336\300\377.\320"
	.ascii "6\240\263\12\346\377z\270v\20Lpm\201k#i\13\256\256@Mp_\5\327f\270f\302\265\5\256\311p=\7\327 \270\236\207\253?\361\5\\\377\13\256mp=\0\327v\270z\300\265\3\256K\341j\13\355\254\205\353& -\220;\320\227@\377\11\364\14\307q\31x\207\24\314\247\255\334\307\325\334\347y\274?rx\177\354\343}\365\17\336G\7y\37\336V\260\376t 1\1\367c@\23@\223@\367\201f\200\36\2\31\211/\261\324\227$N^\343\361)\370"
	.ascii "3\236\373\213\370\256\24"
	.ascii "1?\236 \242 \253\304\314\177SP\257\302\346\370\353#x\261"
	.ascii "9.\307\240l\7\345ad\216Y!\206\205\30\267\307\254\357\214\242"
	.ascii "8\27\342^\30\17\302\370\20\306\213\3\310\\F\314v;n\377"
	.ascii "4\217\305\11\36\217N<>-\377\310xx\301\2\353'<fH\354\10q\223\311\361zs\354O\363"
	.ascii "8Rc\346\27G\270\256\"cLa\216\1\15\324\31I\333p\265\347"
	.ascii "1k\313\333$c\201\364\231"
	.ascii "3\37\37d\234\220"
	.ascii "9\301\5x\237\6\232\17\364,\320s@/\0\375\0\350G@/\2\275d\321_d<\377\350"
	.ascii "1\261O\354\26l&\366\223y\347%\305\334\330_\14\272W\303\375\313p\375\5\\\177\214\315~^N\306/\224_V\230\343\231\374"
	.ascii "9r\33\304q\373\1\37\337\357\362\361N\306\275\20\223Dl\211\5\6"
	.ascii "2\37=\367\210~ \366\223~\370\230\367\311\243l\377\11\\\177o\305V5oK\316\326Oe\354\374\251\205\235d\316|\371\21\276\376P\344\357\5\334\337\257\362y\347k\31\233_\1\375\356p\377*\\\377\1\327\237\301\365"
	.ascii "5\240\357\340\376u\270\376U\246\17\336\200\362F\13\\\32n\233\30\227"
	.ascii "7\237K\377\316\347\326\225|\236\25\343[j\201\217\254\7?x\314x\20\372\342U\336\37\13\36\203m\31\\C\341\272\34\256\201V\354W\363\266-\355\17\347\353\200\245\335+,\354&k\330\213O\320/\244\37\346\361~I\223\261\371M\320{\6\356\343\201\336!c\32\350\337\201*\241\374\13\270\26\301\365\227p\315\203\353\377$s\225\10\7\261+Y\301\306\303+\26X\310\232E\326.\262\206\221\265,\333\2\317\273\26x\310z,\344\10r\375\360\21\357\13a\256!\177\12.\367\17\231y\356\216\2\25e\215"
	.ascii "7:\16)\220\263z\21)\26\207\326\36\262\205\242F\255$\305\212\362\251\32"
	.ascii "5V r\337\253\337\337\353\370Z\232N\247\13\320\351/ \263\12\257\244\222 ;\220\371HM\213=Q\367\23\34h\221\244"
	.ascii "6.P\245\330WS\23\251AK\324\11 <\232\221\223\212t:%\312Dj\224\202"
	.ascii "0JEdY\241\322\344/@\247\333E\376s\250u\266AIh!JF\13mP\6ZB9P\32\324\244\223\32\20\207\306J\223\216\253\360\237\210}\212#\375g\312\354\221z\211\274\202\34K\5\324\226\362\336\331\355\273t\253Q6\330\222"
	.ascii "5\327\26R\17\215\324\246\307\374\31\307#\322\212\362\366\271\7ENh\341B\365\222C\340\207\251\27\321\11\244\266!\267\372!\243\361\237F\366\267\317\216V\203%:\235a\277\16?o\203^[\210^\1"
	.ascii "3N\202\31\344\221\15\312\3;r\5;\232T>\210\324\243\343\10K\373'\352`\326m\225\232k\12x\244&\340N\271\326\24\352D{\363\247\244"
	.ascii "8\334\32U\254\241\275\251\"\305\270\207"
	.ascii "1\331NL\27\363\17<0y\310\6\25Qm?eE`\237>\221\22\352</\204p\303?\213\230\201\5\300^H\331\213\321<A\210p\347\246\307\30\24b\356|\253\334\250\4\315\3\211}\347zwh\366\230{\213T\213\314)E\32\332\7p\5\346\234\212\364\335\16\24\331\237Ik\223\276\243\273\325\24\231\206\24\7CR\262\31PGR<\\\224\36\341l\35\250^\0Z\301\200\246\35\333\337\253\260\4Z\6\354\345\224\275\222\232\256\27\200\336;oL\264\263\4*\317\215\252(\320\326S\307\216"
	.ascii "8J\220VI\220\236\342HOQ\244\365\327\246\306"
	.ascii "4\24\351S\244\271\310\316\376qL\241)H\321\230T\236jo\35Z\215\0\355\25\212\354\254\276y\25"
	.ascii "3u\324K\0v\32\230\253)\363\31jj\215\0,~ c\6\213\271\363\255r\243Z\12loTN\266\203\4X\255\4X\35\7VG\201\15\226\17\353\24\24\330g\244\271\340\351;\215\316\24\230\232\24/\324\36|\213\226\34H\351\242W\327\275G\364`\243\0\263\201\365`[HZ\202\213e\17\236\5\366z\312\336DMo4\205jHn\226\243e\17\312s\243f\12\264\257\363F\203\223\4h\263\4h\13\7\332B\201z\351"
	.ascii "3[\355(\320U4V\217\31n\"\12\315\216\24C}\13\13\31n[R\364\256)\354u\260\216\264M@\332\312\220\216$\353w\317\31\224\347\200\375<eo\247\266\267\11H\253\233O5 K\244\362\334\250\203\"\215I\15\233\266\225 \355\220 \355\344H;)\322\373a\265\351,V[\350\32"
	.ascii "1{\274b\222\215Cjl_\352~#\213\335\27(\324\353QM\12\353P\273\4\250\227\30\324\321`\237\266"
	.ascii "9\235z\1\330/R\366\313\324\370.\1jm\343\221P[K\250\362\334\350\12\205\252\217\257\316\303\22\250W$P\273"
	.ascii "9\324n\12uoV\302\230\13\305\202\351\344h,\235VY\307b\20\260\364"
	.ascii "0,Y\271\321\27\370\244\1\354\34\213\231\375*\265\316 `\11\276\320\240\303b\356|\253\334\350\32\305\322"
	.ascii "0\21r\321E\202\345\232\4K/\307\322K\261"
	.ascii "4\4\306\36f#QO\273\355\360dC\15\303\366<)^niOg\21\372\34\235D\256\337<\254\264\16uP\200:\300\240\36\30\231\360\260\354\265>\340\356\247\334C\324\366A\1\351\201T\377@\215e\257\311s\243\353\24iR\256\277\305P\274.Az\203#\275A\221\226"
	.ascii "7\336<fO\221^\260'\355\365g\17\235WQh\201\24\371^?\277%\264\270\207\26\275.\334\364\326X\207zK\200:\302\240^\272\26\321\210,\261\336\4\366a\312~\233Z\177K\300z&7\366\357\226P\345\231\321(\205\232\343\237\361\215\4\351\250\4\351\35\216\364\16Ez\274}\250S"
	.ascii "M\221~K\247S\303\256\263\216\24\31\311\300\320\361\370\256I6\22\235I\261#,\252\335\326:\316\11\1\347"
	.ascii "8\303Y\26V\335=g\201\274\13\354c\224\375\36"
	.ascii "5}B\300\331\27p\251\321\301\22\250<7\232d@C\273#\244#qR\202t\212#\235\242H\233\202\203\362"
	.ascii "1\316\245\371\30\212\33=>\252Q*l\320}\232"
	.ascii "9AMxmN\200\13\324\320\24\21}I\363\330\224\366\7\31\266\246\272\31D+}\364\223\247\324\264\362"
	.ascii "7\32\364\200\325\245\337\352\250r\242u\237h\320CV\247\253\34\276\255|.\234\246`^\272\247\20\325A\263"
	.ascii "04\15\34\310\210\340\35\25\315\302-m\277\241r\246\335\5\227#XBI\261d\260l\257"
	.ascii "3\256\27\212\373\343\273#\35q\247P\324\27Ld\333\275\222\254\213\323\215\226\370\327\270\220\274\370\323\5h\227BHEMy\340\354\361\336$G\306h\34\254\377\11g\364\2Fo\305+b\306\350\376"
	.ascii "3\341\30\37e9{Usa\4\22\340"
	.ascii "0Wd\204\226\204\331\13U~\12Zw\340zx;s\317b5\362gu\21}\373\215\32Z\367\261\32\5\260\272[\371\265S*\261'>\346\216\0\256=\12\342\205\335\12\356\205\304\260\336 \15nafd5\217N*\27\35\1\343\207\274B5\243\360V@\330Q\240\202%\273\246\33`\355\312\367\17t\2VC\\Ncz\244\235\356\220No4\376\212:\31\351\0\255\17C\213|\211\10\12R,\202\177\203\25\213d#\341V\355\276\0\265\330\\\360\30\353\267\275`&\332G-\376\222\33|;\354\304\36\7\274\7\363\216y\320s}V\211\367aj\177HqO\203#\261?\316\220\32\361\216\336K\367\300h\304T\1\12\21\331\264_\300\23j\305 sw\374F\350\216\356\242\214\1;Sd\36`~\356\251m)0u[8\253\253\15\337\327\353(\13&\214\200"
	.ascii "9H\301D\10\356?\17\215\253p\246\200\346\364\341\230Z\204K\31\232\221\361\364$\5E\223\323\30"
	.ascii "8\210\366\352\14:\335\254\321\210\250\22tH\4\350\260\0(\222\1\312\277Q\245\300"
	.ascii "7M.:P3\343\204\247\230\322\264\360S\201\264\213\343F\33o\26|\327\347\245\13\322\31\214\306\27Y\317E\211\224F\213z.\206\352-\362\211\236\320\340$%\327\333\330S?\240\302'\225T\357\211\314\326<\356\372\250\233\241\346x \246\36\21i\215\25i\215\243ZSG\207\17"
	.ascii "9\343>Ak@Ea\244\22\337aZ\363\3\246\317\251\231\326\306\233a\322(\213\27i=*\322z\214j\15K\365>`\213cU\\k\342]\277|%\316RQ\255\315\367\316f:0\255\301#\26\266&\210\264&\212\264&Q\255w\6\202\257\332\341+\202\326\324S\375a\10\337`Z\333\332\257\334\260gZ\353F,lM\26iM\21iM\245Z\243\272}\356\333\343C\266\\kD\332\276?\341d[\252\264\256\240|\204u\227a\326\322\324"
	.ascii "4\221\322t!\2"
	.ascii "2\36\33\322\246\31&\256\353\301\254\235l\244f\222H\315\246\221\232%DjQYX\225\22w\10F\226\17\334=\344\202\273\204b\205\276}T\315\246\275\212\22\303\267\336\360\256\16\332\216\317\235\366\16\237\255(Q\342\335v\24]RG\302A\22"
	.ascii "4\6\235!\266\360\235*a\274B\313(\7Ds9\270<\1\334\11\12\316\247h$\205%\263z\212\243\350x\310}\226\6}D\212W\307\307\203"
	.ascii "1\216e-\234Lh\354\227f!\231\222\24\255P\241\341\206]j\277Se\213\217"
	.ascii "3\261\252\242\356!\10mV\30\363\357\254v\306E\254\220{,1\237\275\337\256&\305\240J]\231\35\256f\317\36\266e\17\250$\215I\263\307rSc\235\265\305\260$\234cb\302\213\244\206\275H\266\214\34\12\262\303\227\330\263Q\337\201.\214\7Y\301\367VS\277"
	.ascii "3\236b\205\374\211\0_%\16\260\247\5awH\303v\207b\207wU*p4{v\262!\366\250\23Nd\205[\375\3g]\360qVH\255\273\20\350\202+Y\241g\262\247\312\216\252XF\212\273zvW\251\361"
	.ascii "9\366l\177Z\331\254=\356g\205+\223Y\255j<\316\12-~\271"
	.ascii "5\10\373;H|\243a\276\11\363\273\331\252\301\7\330\263\266\222\372{\12\234\346 \314I\267\246"
	.ascii "6\262p\271\325~YX%\317\315\11\27U@nJ2\4\15\262\231?\177\311\222\203\10\265)\346\223\204\7\36\356\347q\273\372\257\246\255\226\16\305\22\302\200\316+^\241\367\235\212%$jZ\25 /\303\336\371\10\366\4fZ\334\2\177\335.\15\345j\1\343\316\213\214\243\33B\372"
	.ascii "2\335Q{x?\343\317\211u\344E\215^XO\247\5d\26"
	.ascii "8\341!\352\204\347|\253\32\317(\321b\370\203&\26/\236?\237\334.Y\274\230_\342 lFG:\207\\\275Bu\11?\244\221z\6\264^\5\355\246\375\261j\5\335s!\377\332\20\376\270\354\270]\253Oc\312\\i\311\254\247\314IH`6\24\337\325+\365\234\273V^u\231\231;{\272\322\304}Z\236\373U\302\14\375r\325\324/q\304\317\335\321EJ}%u\10\272\300%\271\327\233\347\330t\302\334J\235e+g\315\255\354\327\351!Q\325\353V{\332\240\223\212\205(\37\36\241\21\350"
	.ascii "7\"\0\363 \32\200\373\33\212\305\250\37h\10h\20\350\26\320%\240^\240\353@\227\201\372\200.\2u\1\365\0\335\4\32\6\272\15t\15\250\33h\204\305\302\25\26:2\15\17\374\177h\230\272\247\253\320\334eM\226\356i6\273\207\365\330\270\231\271J>\32\314\241c(\314e\334"
	.ascii "0/\241\32\371\376"
	.ascii "5\365S\225!\255\215q\303\224\211\212-\271\177jf&C\307\20\233\245S>OY\12\314\253\24\373\243Mg\212\2\261LV\231"
	.ascii "9\16\365\321\346\20/\221\345\25a\312.4G\323)y\17\224\211"
	.ascii "0\25\233"
	.ascii "1\25\311\252"
	.ascii "6\373\266\370\236Ys\275|\234\232\243Z\237\342\375\343\332U\224\267A\236\227\331L&\21C\354]\335\7\366\310\300\235u\225M\"W\205I\204"
	.ascii "6\236%\352\252\12yX\"KC\374?\322\361\326\33\345[g>\200\371\251\330?=G\272\217$\346\206"
	.ascii "7\\\323\232"
	.ascii "5\323s\256\215\275|@\35O!\"\223C\243\355\236\217\230\233B\0\327]\305\363\344\245\227\244\22\4\13y7\352\316\236R<1\367d\331\10dpQj\272|\14\314\264\205\250q\12+\334o\215\271`\307\322\206\262\32\357E)$\201\375\25\32S<\217\306M\376\203"
	.ascii "7W!k\270g%%\272"
	.ascii "3}3]A\1e\233^@C+\14\17\261\220\371O\261\214\336w\367t\245\213\220:\335gu%\243\371\213\304\251\23<a\251\323$A0CS\247i!u*\36\237\32\266\305mj!\311\357\315\36U\342\13\14Kon\341\177Q(\220"
	.ascii "7%\374\265\317+DH\307A\7z J\202\36\12pf)\234X\237\31\275-\276\313\224T\365W\204\223\335\223\247\325:~\262aD\377\204\372\326\331\246S\210\326\377\23\330\24%~\267|\225\246\343\235\210\223\364x\307\33\253\221\321\364\36\13\254,\352d\316Dv\341%\364"
	.ascii "1\322\341\205\310\13/|\362\327\372\336\262\275\341\246wY_L\353\2\362"
	.ascii "3\233\235\304.$\206"
	.ascii "0\37\372\0\7\362\307\304\207~\230\373"
	.ascii "02\374h\252\23\276\317\3\240*\33\346+?GZ(\353\312\331\255`.\274\325\236\262`8Z\307\22I\204\210\16\24\200\205u\31\336"
	.ascii "z1\367\341\36,\37\22\361S\15\35.r\21\212\2\211MA\330"
	.ascii "2H\253\23\214\220\237\325"
	.ascii "0K\246\323\37\36\263\303\227Y!nv\367e{f\326Hg\337F\350\331\3\274gA\13\202\14\325\24\250{\5\253\366Y\261\352\361;%\373\261\305N\11\370"
	.ascii "9\224\325M\224_\336,\357\346\20\2\351\0us\230"
	.ascii "\340\346\220\242\212\36\25\216\325P\10\305=%5\366"
	.ascii "8\215\25r\323\233\232Mn\36\222\270\31t\240p\221\233#\4@\7)\240\32\237\11?\7|\203\251"
	.ascii "9\335\335\6\5#+\34\215\351=\354 \370\250\324\322G\207D>:,\250\214\244*/7\371\314\330\341J'\252\345LUB\222\2\267\260\302\376\213\275S*\301\314\302"
	.ascii "9fF\211\314\214\26t\306P\235%\203\273.\332\341\3\316l'\344\312\251o`\340|\254&\216\233"
	.ascii "2\15\250\272\326\346\26\25\255'U\344\230@11Q\234\306\217"
	.ascii "3\205M:\321q\346Q\30"
	.ascii "3\37\223"
	.ascii "1\23\13c&\16\363c\304\214#;\310\320\213\207\256"
	.ascii "8\202MC\357c\265)k\374Wb \201\365wS\376\371\203\12Se\"\253\364/,\234q\26GA\274)\12\216\221(H\246Q\220$DA\317\271\203\211\216"
	.ascii "8\232\271\342J\233\376\2\274"
	.ascii "2\260B\304\331\272;\246(\230Z0\"r/\350@)\"\367\246\12\356M\263\22\326r\13\312\350\330\215\213\366\342\1h\336\303K'\206f\322\21\230\201\315#\260'\260z\334\1O3\363F\362\"\217i\360\36\27Z\310\276o8\213\204\350"
	.ascii "2|\334o\216.\320\202\262D\321\225-\230\232CM\215\256\253\314\304\370\14\323\322\233"
	.ascii "8|Y\215\15\254PY\20|\335^\200\377`\16\374\343\"\370\271\202\316<\252"
	.ascii "3\276\354\354\264\6g>E\325\334\211\230HV\342RVH\271\322]\256\20\314,\264"
	.ascii "4\363\204\310\314\223\202\312|+\36m\16I\233\261\227,\346\322\3\211B,,\346I\372!\310a\246\250\5J\357#\263:\214\226,tXh>\344.\305\16\250\10\213\17\271\17\351\354I\255\215?\321m\360\12y\312\374&U\14QN\36\331\240\22\10\363"
	.ascii "2\10sr\322\316\330IG\264\371\276N\373\231(e\375\34\21<tJc\212\322r\26\245"
	.ascii "9\255"
	.ascii "9\307\331\36\33\30\212*Xelm\337\36\7S\224\350Ye|Zt\31\226\235\247\13HhT\321(\251\24EIwNd\276\22?d\36\317\14j9\210\261\317\323\264"
	.ascii "0|\254N\257\22\334\237 \236\203@\13:%r\377i\301\375\325V\334?x\367\352)\7\223\375\14hrp\355"
	.ascii "1\215\311\374"
	.ascii "3\314\374F\237{\1\262i\23\252!6\327Q\363kE\346\17\4\353Z\20.e\26\357~\230\26\244\304gX\341hZ\341\15\26=q\25\321\272\367w\321-\24\242\1\235\25\231^/\230\336@M\177\374d\322\310\14\255\255\270t\324\336d}\23\253\274R\320U\246\261\222\306\265P\323\233E\246\237)\250\37w\301^\363\330vV\366X\216\12\357e\5CHf8fi\\i-I\343ZH\32\7\32\320"
	.ascii "9\221\351\347\5\323[\255x].\215\313\254"
	.ascii "2\234F\262\371Y\33"
	.ascii "1\255\203Nw\355\302t\327\222q0\312\31\227\314\343\371Y\360dH\241=\256dF\352\6\13\366\271\10\11\332\370\206~s\202\6JP'6'h\27\4C/Z1t\364\342L\21sf\271i\276\13O\31>\216d\367\340.\21C/SC\273\4C\343c\332\313\234p\247`h\355\235\354"
	.ascii "3\230\355\242\224F]]\355\303"
	.ascii "6\335\256\340"
	.ascii "9\233n\276\227\222\307\324\330g>KLn\246\235e\210\14)m\346M7h\212n\272uc\6\247G\200c\240p\332;\362\363\235q\24S\221\31{\"\226\270\34]\305\34\333\205\224\222\4\245\20\372\264\246\256\264\240\302Y\26\331"
	.ascii "5\202\254\217\"\353\25\220y\7yw9\340\304\371\34\331\241\333"
	.ascii "9{48C(\36\211\272"
	.ascii "5\246d@\207b\22\377\306w\27\7\346\2=e\270\245W\342Vf\345\360\360\241X\15\3\232\235c\6\12-\243~\20\35\344@\207\4\240\327\277\307\260\366\15\335"
	.ascii "5\240\20\243\313"
	.ascii "6\255S7\10\274a\12\357\246\0/\272j\327\26|S\200\223\237\350\323\244\302\267\231\225\243\347\306\257\362\371\247"
	.ascii "4\352\372\332\1s\200\201\16"
	.ascii "4\202\315=rK0\364\366\367"
	.ascii "04n\272\353\276\223)\350\356\260\21\34\234\27\351%9)#\317\230\365\243\304\372"
	.ascii "1j\375]\301\372\302\266\243i\30\373=C\355\325"
	.ascii "7\356Iwf^\315\354"
	.ascii "0{\25D\350\353\212`\354\270`\354\304\367\30\266\27\373\374\217\"y\273\356\21\273\246\250]\223\202]#M\301\341\220\254"
	.ascii "2\273f\232\362g\331j\37\27\11\23!\263\213H\320A*\230u_0k\332\212Y2G?\31\206\206!g\346V0\347\1_\253R\252\256)L\225\17\371\314\330\331\331\241\224O\266g\210\375Fj\377\254)*j\222\22\355p>\263\277\343v\324%5\256d\205\214\342\322N;!\317\30\226d\261\240\3\351\224\346<\303K\311\21\355R>\271\243\303\357\7W\263\225\226X\350\243\244\225w\17\25%\231\316Y}Y]\303X\312$6\235B\262\272\322\311]\371\32\331\311\325\33\30P\200\222\200\364Wr\220w\275\366fi\260\357\263\302\241Q\357\315\303.8\360Y\12\263\320\30\225l+L\256}\377"
	.ascii "9h\216}P\202v+\315\223\353\36\1e E\31y\277\256D\201S\230\226\244\4\177X\34\13X!\260\356\302~\223\347J\347x.H\344\271`A\347^+\236{l,\204"
	.ascii "0\207D_\37/Q\313w\373>\342\221P\352\221\375\202G\246\302\366\265*\261\221\331\33\21n\250v\304A\13\330\\PWvX\315b\270\276\332{\21;\354!\342(Ld\367\1\301\356p+v\7\236<\221\355\200\233\230\316\256\201\241i'l\240\5\373\334S\336\243.h\11\331~^Bv\237i\276w\271d\342#\357\220\367Q\214r>:\10\355\34Q\322\15(v\261\341{J\251\242\235\262C\214Iv\367\357 \242\202l/\230n\5\306\320\255\300#\\\271d+P\274\263*|\231\207\16+\227Pn\262\263\32\15\367q\312\305(\22(\26\10\236\21\323\242\224\26\333\262&\341\350'\24\246\230\304\273\177dGs.&\321>{\12\333\204\24v\12\347\362\276\312w\324\332;\16\337\220~l'\346\265A\361J!\11\37\350\315\333\303\322"
	.ascii "0\250\343\1V\223t~J~\7\"\202\204\322"
	.ascii "1%\311\257\216\222[\342f\20\360\362\215*\263\305!\317\261\241\20"
	.ascii "1|\221/yY\263\253\252v\221\363bL\245\350\326\30\357R\224 DP\242\225\10:x\356B\201\22\227"
	.ascii "3\245\302w\303\13\330w\303{\353#+1-\32\351\367\274]\311\6x\227\345\337\363Jw\214\322\241\7\210\24JQ.D\251J\341\355\367P\31\335yJS\252\21\274\6\11\257\277\13\314\257\277rS\226\377\251\353I\314YD.\203\215\274\23\207C\257\250\204\21\232\311\352\374\273/\5\231\31\263Xe\335\315\300W\204i,\233U\355\271\321\343\257\224MP\222\210{\217\323A\233#\14Z\335LM-\302"
	.ascii "5\317\361i\314"
	.ascii "06\331o\207\233\230\203\222w_J4Mc\206\317EK8(A\271\242i,Op\374\11+\216?\233"
	.ascii "1f\260\223\4\17\231K\314\301\223o\12\236\253\341\301\213M38sQ\303\256\33\243jS]\1\203\31w\344\364q\226\24\200,*d\225m\223\206JgS\344\25\261\312\336\321\223U\222\274\336<\215\235$\36)\241\261W,\212\275\324\323y\367\225\370\26\363Bc\310\341h\7<\301\12\323W\206\246\330\311.L/w\376&z\253\2-\250Ti\216\305"
	.ascii "2\301%\345V\\b}DT\20S\364sFD\374\331\254\275\316"
	.ascii "8\343yjH"
	.ascii "\344\303|\177\366~d(>\364N\325.\236\256\200\24}A\22\254\250\24\254\250\242V\204\25\236\271\250\306}L\305\331\260Z_\304"
	.ascii "3\36:\250\36\232T\234\23\251"
	.ascii "8%\250"
	.ascii "8m\5H\335\361\276Q\245\334'\342r\33\253Y\23\263\255\322\203\353\32\245"
	.ascii "8\20\316<*\20\352\242\203[Y6\16l\250\226u\257\276\254\261\11\231\2\241\216U\236?\22|]c\12\204\263\254r\306\267\244\307J T\23?7P\227\327\213\\\36"
	.ascii "3\331\335\257\301\241/P\177\215\307\373CRr\230\25:\363\323\322\271\363\312\216\230\375\17*P\243(\12\232\4\347"
	.ascii "5S\347\225"
	.ascii "4\244f\263\17\37u\364k\352\306\216\302\4'|\236\251l\363.k\327\340^V\210:\334P\257\300wYaw\214~Z\203\357\261\302X\272\356\0\306"
	.ascii "3\254\320u >\321\1{-\244\205\376\304\200"
	.ascii "2\5\336\313\12"
	.ascii "9\306\241\363j\34\305\12\1=c\220\235$\322\202S\344P\327\237\21"
	.ascii "9\227e\307\317\364\224\226\234\32\215\366\\LugG\264d5\350\4\30\6\245\225SW\321\12Hx\316Y\256\200\364\24*Vt\304w\336R\233\344\24\252\312\220.Z\263.\310\267\314\26-X\210\15J\363a\271y\255l\201\271\230\34\356\241\253"
	.ascii "0;\33\370Z\331\5\367\227a\215\34\0\352\3\352\7\352\5\272\4t\5\350\32\320U\266~v[.\276&\205]\377\15\205\364 ,f\224\34\204\365pG\31X\36b\20\345!U\206\14\21\376\213\362\370\315\347{q\251\346E\273C\236\331\354\331\224\363\346^h\223\355\5S6P\245\27\235\272\267\313\362\232\215\20\37_\266\312\362&\11\207q\215\243\367*\245\207q\6I\352"
	.ascii "0h\32\364\35Y3'\330T?hJ\35J\33\257\205[;^\273N\207\354\20\31\262\6"
	.ascii "6d\33J\313\233\255\35\335\315\345\256\276Ww[\203\317\263Q\222t\277\252\211o\334\24\235"
	.ascii "6\235\277\335\340I\6\357/tS\30\322\303V\346\303\301\301\321\23\32\323B\315"
	.ascii "0\234\212\217\365s1\345\327\267\330|4y2\363\5\23\326\333\254.b\177\375A\311F1\321\301\346\250\21b\367\35\12aT\4\341h\246?\314"
	.ascii "8\17\31\204\300\210[Mj\34\370\3\366\21\313\203\342*~\236Xw\302<G\201\12tWi\6"
	.ascii "4&\0\32\377\36\200\246\17\32\363\315u\367\230\361\35\272\261D\215\11\345$\253\14\321\15\344\250L0\247Xe\341\231\273\267\25\362"
	.ascii "0'\10\266i\12\363\276\10\346\221\334\266T[\\\313\220E\7\244\354a{=q\265\346\335\301i\276\4\13\300f\4`\17\254\0\253>\253\17A\262K\360C\322\362\354\234p\211\275w\36^\372f\231\21\3\241"
	.ascii "5\17"
	.ascii "4x\377\17i\241\344\354\335\11\356\353\12\321z\0*\220Qd\222N\305M\362R\21\223|\364\373\216:\340\26\246\"+m<\230\253(<m\332"
	.ascii "7\274\316\227cA\303.A\203\267J\36T\320\355\251K\364\27:d\260\5<\346gldU\14\277\27/\315\353}U\342\25\331O%\14N\271"
	.ascii "8(\351i;\314\322"
	.ascii "0\340C\376*\266\215\35\324\30\355b\332\234\11`\225\365\367.\235@\246"
	.ascii "8\330\315*\253rb\362"
	.ascii "5\362q\340\3\34(PE\272`\217J4b;\242\317\251\361\14sY\310\240\376"
	.ascii "2\337\264i\20E8H\321UX\360Y\220\340\263`+>{<\262}\314\336\246\366l?{\23\210\20V\371\240\366a\201\203<\210\275\304\362P\12b\277\10\304\231\262\231[N8\357Gl\335/\233JP\340\32V(\255\316\274\313\367\275\353\315\221\15\32P\230\312\14\350\200\0(\234\2*\231\312Ov\246i\205\201\235i\226\16M\260\337S\374\220\24\23\232\233\22\25x\367\377`\37\211\346\373y9\340HV\310\311\357\356\265\307\211\254\20"
	.ascii "5tv\217"
	.ascii "3>\301\12\11\341\21\31\354\207\12\364w\13Y\351\323\361\302\317~v\351\26y\322\1\16\353\6\212V\221\30\211QI~\311u\254+\343\201\32W0M\1\373\32\367+\361YZP\33O\32\256*\320b\222v\320O\305\226\260\217\303"
	.ascii "2g\372E\231G$ \215W\311\257&\342\5:B\265\20\35\204\366Q\212j\11\25 \13"
	.ascii "4\271OU-Fq@\311@I@\11@\307TtQNTY\254\362&%\307\276\247\22\321\312~\24\304\16"
	.ascii "1\243\311cv\261\341\337\214\225\347V\323\365\27|\204b92\301s\222\234\12"
	.ascii "2\33\"i\376\334L_t\224\256\260D\362\210\245\244\305\307D\206bQ\262\25%\353@\341\313\34S\346\26\317\315\236\373\31\223\370\13\252\303\262\312\204]\201\3\15\347\366K_\354\304\274"
	.ascii "0\236L\263\207w\317\10\177\371\205:>\306\256\335=\20gmi\317\240\243&\235\214\32\342\26\340"
	.ascii "6\246\204G8=1\367\356\266\266\365X\367\"\213A\357\376\243l\3\312\220n^\331"
	.ascii "3Ule\347\375\205\262\204Q\225me\232\220;\351\10m\251\31"
	.ascii "5\303:\316f\204\22\337\324@$\177\334\233CL\314\243\326\346\212\254\255\353=\37a\207\323\231\271#S\275\227lq\16+\234\252\271\324\305\317"
	.ascii "5\262s\315s\34\250@'Tf\343O\12\306\347[1^\316\377\355C\263\201Jy;\13\210qE\324\316B\221\235y\205\361\327"
	.ascii "1\276\312L\363*:p\31\341\1V\350\356\363\251c\257\306qY\346\231\13"
	.ascii "4\240b\221\231%\202\231\245V\314\224;\303\353;}p\267\371\0\265\234\371\370\360\314\310\240\31O\5\253\364\276\366\260\302\312"
	.ascii "9{\31AQI\1\351E\200\"\356L\34\264\303\21\213\330g\304u\303\243\266"
	.ascii "8\226\25*\365gn\260M\247\270L3 \320\200\252D\200N\11\200NS@r\346g\227\214|b2\264\232\31\32\330\326:m-\362\317P#kDFN\205\336\234A\270\223\331\25~2\205\35\254\30\322jLi\2\310\320"
	.ascii "4A0\253V0\253\216\232"
	.ascii "51]4\346b%)\230\363\323ttVE~v\336\321}dH\364\263\341\217\350\311\240yd\327\263\221M\256$\13\255\364\331.\231\6\310y\247\231\271\201"
	.ascii "37P\346"
	.ascii "2\377\254x\225Xs\235\204\271\221"
	.ascii "37R\346\272\272k^H\314\\%an\342\314M\224"
	.ascii "9\246\271\256Vbs\246\204\271\231"
	.ascii "37S\346k\345\261\365\22\346d\11\300\26\316\334B\231\203\232\216u\250\305\314A\22\315\347"
	.ascii "8\363"
	.ascii "9\312\234w\334+E#f\366\227h>\317\231\317S\346s\17\307\342\354\304\314\344\23"
	.ascii "93s+gn\245\314\272\323\376\351\22o\34\220hn\343\314m\214\271\367\244\305\257"
	.ascii "2\311\307\204f\356v\316\335N\271\343\252\343\376(\326\234-1\243\203\363vP\336\221\306\23\257\310\355"
	.ascii "1\2C\247J\374\263\246\200\332^\37\5\336\365\22\337_<\251\357\237\300"
	.ascii "8H(FF\354:\311\177^\321\244\322!\33tQ%\372"
	.ascii "4\3\30\22\307\313\23\35q\310K4\360k*\"\274I\344\307\355\327\355\15q\15"
	.ascii "0\32\377I\32C\27`4^R\261\215\310.!\354/\323\260o\315\210\353u\306qL\274#\254\300\217\235\371\374x!\373\241`\331\336p'\234\316\236F&\304]'o\236\250G\305g\242\251k\276#$\1DW\240\201n\225\22\31\330\320\215n\351Z,\34\22\243\253\254n\314\357P\236J\366\354\350\32\31\306\275*\311\301|\375\344\350"
	.ascii "9\7\\\316\32\316\315\17\273\252\301\365\254p\324\30\353K\333\354\27\254(\177"
	.ascii "8]\257\300\327\330\343\336f\203\201\256\5q\344`"
	.ascii "Is1Z\247\367J \247@^\247\21i\4\365\251\370\276"
	.ascii "3\32 \355\16\202\26\372\17y\217\241\36\231{\304\235\275"
	.ascii "7\244\303V\0\216\256"
	.ascii "3<\27\375\206\375\\d7\221o\20\275"
	.ascii "7U\222\337\320\224\226\365\265b<d\15B{\314\354U{<\305\36\267\337\362\213\245Kq\216!\315;\302NwH\177\332"
	.ascii "h\254\320\275D\225\242a\223\375#\244\235[\304$\370\207\377\254\350"
	.ascii "6\205"
	.ascii "0Y\177\242\336\31\33\231\272\264\202\372"
	.ascii "1\305K\261d\377\275"
	.ascii "10\375\5\376\213\213Q\20\11&\"\220\253!0\345\216\352%\340\275<iLV\341\220\305T\360n\342\215Y\25\25\314i\254\377\216\313\335\265\220\33\243r\373\246R\217\252q4\223\213\337{|\237\206\312\305]\302\324/\343\26B\23T\350a{\361m\204\23\230Pf\333\303\12\7*d\230=\246\326Q\261{\26b\223T,\364r\303\21{\234\307\304\366\234\31\34W2\261\272\265\366Dh\312B\350>\25\272"
	.ascii "5\30\370\34\256`2\247\253"
	.ascii "2k\31.C\232\320\324\264\205\324\14\225\252\234\236h\265\307ML\254\267\364|*\346~\254\277\366"
	.ascii "4\367\307\3\13\301\207Tp\252\315\347\216-\276\314\4}t'\323X\7\30\206\334\250\215\263\26BF*\24]\27p\305\216\362\5\350\253\10\237\15g\"o\305\266\300\201\33:\252\203\24\344\177mB\377\317&\277B\336\266j\372q\26\271\262C\30/\321!\214\15\255\207\367a\333\205\310\313v!-B3\31A\347\257J\226\226)\311\374\350c\313f1\270\2\263oU\325"
	.ascii "8\222\314\217}\22n_\316\355K\271\3\202\37\306J\346\351"
	.ascii "1\11\263\37g\366\243\314\323\303QUNb\346a\11\263?g\366\247\314\307\36L\334s\21"
	.ascii "3\223\337\326\231\231\3"
	.ascii "8s\0e\36j\33\257T\210\231/K4\357\346\314\273)\363\210\327L\247\323|\376#\241"
	.ascii "8\371\337\24\331H~!\204\366\330\316'&\215\336\270\212\305\255\220\323Zs+\201\274\225@\332J\322\360\341Z\11X\243\304\244 \316\34D\231\263\333\7\16H\26\322\0\211\346`\316\34L\231\275z\247\257h\360u\26j\211\325W\226\362\21\33\230\255\340!\272\327\26\223\237\207\232\242m\37\211%\224_W\32\357\200g\230\\\377\315\270)'a\250\33\21\27\14\261\20\334O\5\367\7\235\314\326\340}/S\301\30\337}9,\266\343\242\35\350H\12\265\20\12\243B\276Im\376J\234\310\204\374\374J\247\224\274\265\233y\202\231\7,\4\303\251\340\245\354\236\10\214\363\230`~\301\201"
	.ascii "4\27\326Z\23k-\302B\350 \25\352\355\31\0\23K\230P\301\235\251^>\35"
	.ascii "52\241C\26B\207\251\320\365\340\201j\204O1\241\301\202\331\3\314!q\15L(\322B(\212\12\265\216\\\10s\304\365/\363\31\342\326~\304\204\312\230P\264\205P\14\25\272X<\350\203\261\201\11\245\7\246\353\34\5g\230\\\177\304B0\226\12\306\37\366\236\266\307\223L\260**\371"
	.ascii "2\233\217\342bXkq\26B\361T(\372B\356\220$\364\310\361\225"
	.ascii "9\232\216\362h:J\243)h0\264U\222\226\225H\230\217q\346c\224"
	.ascii "9<\365A\203$\323:.\211\323\4\316\234@\231\347\230qL\242"
	.ascii "9\221"
	.ascii "3'Rf\343\331\331\275N\322\251"
	.ascii "0F\230\12\223(*]\230\361\210R\254\256A\242.\231\253K\246\352b\216L\315\252\245\352\342\4u)T]r@R\223t\377\375\272D_*\327\227J\365\325\\\355\233\226\14\320Y\11s\32gN\243\314W\307[\217I\247\320"
	.ascii "4\311y^:\347N\247\334\211"
	.ascii "1\376A\222\211nZ\242:\203"
	.ascii "3gP\346\7\207|z\234\305\314w$\314\231\234"
	.ascii "9\223umq\272Zb\306\15\11s\26g\316\242\314e\251Q\315H\352\261c\202\307\262\251\307f\216\354\13\222\314\365d\7\316\254.\207\253\313\241\352n\324\316\16H\346\312@\11\363q\316|\234"
	.ascii "2\217\207\5Lci\333IB\333\271\264\355\361"
	.ascii "3W\202\244G\244g$\372\362\270\276<\252\257\351NJ\211=\16\371"
	.ascii "1;\242\34kk#\377\23\216yj\372\223z\323\367\375\225\5>\351\230\326\33\331\307\15\206\331+\207\260\351'3\221\377\227\14\314B[5:ak\372na\236\370\27"
	.ascii "3\243^:U\12\274"
	.ascii "4\12\377;&T`\273\204r\240\223\260\376\346\333\322\235\344\252\240=\203\322\275 \242R\364?\370\342\206\27Q\303\33\356>\270+\31\214\225\22\224\305\234\271\230"
	.ascii "2\237J\32?\343 f.\222"
	.ascii "0\227p\346\22\312\234P\244\317\260\25"
	.ascii "3\347I\230K9s)e\316l\337\23h\361Kj\11w\31\347.\243\334\235\201\267\317)\244\275\227*\364^\271\355K6\366;\334\267x\276\271B\353i\377\341'\177\\\364\353\237\375\314\346\375_\377\373\322\377\345\11\377\275\365\306[o,[\372\305\326\255\233<\226nv\337\362\365"
	.ascii "7+\337Y\241}s\305R\367\267W\275\375\372"
	.ascii "7o\257|\235V\222\212-k7\355X\347\266\324\303s\35({c\203\215\255\207\373wnZ\317\177]\223\226V\200&\345\332\15\256\333\35\177\371\325\16\367M\236\257\273oy\327\306Q\253\205f\326\272n\332\244\325j\326n\335\274m\273\233\207\207\366\367_~\356(\24\334\267n\301\36\236\177yYT\376?o,}\3\376[\352\351\276\231X\371\27-\271\1\355\213\305<\244^T\326\276\367\331o\201\345u\355\227\237\274\11\217\226/\27=[\276B\334\362\232\317v~\366\273\235\33"
	.ascii "7\256^\376\366"
	.ascii "3Z\355\327\337~\253\335\346\266\335c\353\26\327M\356\236\177\323\356\\\366\343\307\265\262v\333"
	.ascii "6\33\245\247\233\207\347\217\344\32[I\236\254\331\271z\231\363\216-\342f\337\220\265l\245\224\11l\333\10\306\255^\276\302\354\254\217\376\370\233\307\241\2\26\21*q\303\360\344\361\15"
	.ascii "3\361"
	.ascii "9\15\277\367\207\337>\256a`\261\322"
	.ascii "0<y|\303L|N\303\357\377\351\213\307"
	.ascii "5\14,V\32\206'\217o\230\211\363\206\225\353\267\273\271\341\315n\233_\231\23\203\236n\337z.\245w\360\230\206\"\\!\314\236\345-\274\11\305\225D\34\264\255^\371\264V\273\351;\320.\250\331\272\35C\\\341u\256\353\34\267\303\0\321\256s\333\344\346\351\306\356\335\267x\270m\367\264\247\367\333<\267k\276r]\373\227o\\\267\257\323nr\333\362\224\251\260\331\365[R\341b\252\330\272~\275\207\233\347|\11\3\253\263_\357\276e\35Q\345\270~\353vA\223\213p/(\22\312n\233\326n\335\261\305s\276\370"
	.ascii "9\257s6\363\220ya\236\224\205Ti<6\223\1\315\332}\226\202\366\334\271R\273\301\315u\235\333v@\17\377:\256w\337\344\306k\226\317q+y\270\324m\313V\352Q\312ITpvp\257F\254\352\337\36"
	.ascii "5\36Y\323DDK\353\265\353<\267n_\364"
	.ascii "3\331\0\370\371\234\356\371`\371\232\235x\363\326\235/\210\272\363M(\363\320\202\330\260\205\31r\225\326S\263m\223\253\373\26\255\333\26b\321\257L\332E W,\227\365\303\362\25bI\22s\253W=\273v\223\233\353v\255\251\17\301\226\35\233<\337\177B\233W,\227\25\207\31g\245z\335\216m\377\212\215\313\314r\304B\202\373\31\326\210\320\367\254\215\367\236\324\304er\322\304B\347m\256\236\236n\333\5\177\374\372\373X\271R*+Xj\307\27\304g\326np[\373\27-\201\262\331\325s\355\6\220\362\360\374\350{4\0V\313hX\263\221\266\342\342\1\200\240J\360\372/\237\320\25\313\337\262\20$^x\236"
	.ascii "5$\340"
	.ascii "17\366\373\357c\356JkZ\270\311\316\274e\336\13\277xR\213WJ\345\210\301\312\257 \27\260\335\261m\235\253\247\333\317\237P\317\333\214}\315g\277[\273\361+\230\243\325\356[\334=\335a\221\375\316\355\235'5e"
	.ascii "\231Y\206\350Y\275J\30\345k\311(\177\355\11\325\374z9xD\5"
	.ascii "3\326\326\265\342y\373-Z\263f#\300[\353\341\271\375'\362\223?\235p\340\261v\207\247\373&\17\230h\26p\25+I-\237\373\327\256^\351\0\226\255s[\13i\216\355"
	.ascii "6\230\324==\360\332\255[\26\317\321\351\316\346<x\346\261u\23\311i\236\23,\202\252\267\231$\201\372\35\206\331Z\322\324\233PA\235\260\362yI5\235\256\326R\357H\370\315\360\350\264\0\266}\337\1\267\314,\267\346\263\215\237\257\320\262\345R\5\223\276\333\267?\24{\222\326\260I\323\225\256\307BP2\351\17\377\245a>\267e>\13\263\7\357\375\13\263\260I%\321\267\12\226\353\15;\326\257\27E\212#t\347_\265;]7\355p\363x\371Q\313\16\221\263\232m\376|\216^\262\316\254^e\267\203-&v_\271{j\241\333^\24\271\360\347\274\16\234\270\1\214\333\260q\365\212e\266l\242{\373\11\33y[\230\27]]]\241\17\254\216S\13"
	.ascii "1\311 \203\261\376\244\230~M0\255\264e.]\365\244"
	.ascii "6\12=\340\372\331\357\250\225Oi\265\256\333\335E\34\220\312A\207\255\337\264\365\33-\270\304\3\303\215r\203\373\327\33T\264W4\344\375B\353\271U\353\361\267\315_i\310?\244@*\35h\201\364\37\273[\273c\363\372G\276/@\263\320\203\257\312\32\376\266\245U\244\3\235\326o\332\341\261\201\257>\333\345\27\200"
	.ascii "9\202\313\337\224HA\350m\200@~\353\311\204M=\272q\3H\275=\317\334Q\202\276w\237\320\212UsEI\357=!z\322\325\362\341"
	.ascii "4\327d\241\203aF\332hi4{\266]>\323y\264\321\\t\15\323\272\2\302\346\253o<E\314jX\376\266\273\177K\362_g~\353\276\216\26\205'\353\334"
	.ascii "7\253\277\336\276u\307"
	.ascii "6\17\355W_o\21n\335\266\254{\365QQBZa\12V<*Z\244\306\220hQz\270\356t[\366d\374+\11/YEV)\241\344\271\364I\245\200\227\364\242\375\327n[\334\266[]\232\347\10\256\22\370\351\332\14\336|BXd\35u\200\251\31^\366A\30^\332\327\271h\277\374\334\363\35S\325N5]s\264\364\265\1\26O\230\305\241\2\336\251\335=\334\277\332\344\246\331\272\215"
	.ascii "4\13+\367\26\267o\26h\265s9\264Z\225\366\313-\337lt1q\262W&[\355\227\353"
	.ascii "6}\266\363)xC\326~\376\336\177\254\321~\366\336\27_\254\371\303'\216\244\342\223O\277\370\350\267\237|hG\356?\370\343g\316f\246\337\277\367[\306\302\331\351\243?~\366\301{_\254!\234N&\316?\254\371\374\13\215\251\4\217\236\376\360\323/>%/\344\332\337\177\372\336\7\244f\276\264\206\352~\326\242\216\265\342DkA\345\232?\374\307\232\17\354Xi\5\277.\347\327e\317\314iA\273\346\177/\220i\4\252\237\227m\7\36\220\334\27\372\311\363\377\1\272\262\345v"
	.text
	.section	.gnu.lto_.symtab.f43985e8,"dr0"
	.ascii "__ZN3stk11compression12compress_LZSEPvPKvjj@16\0\0\0\0\0\0\0\0\0\0\0\0\15\1\0\0__ZN3stk11compression4testEv@0\0\0\0\0\0\0\0\0\0\0\0\0\22\1\0\0__ZN3stk11compression14uncompress_LZSEPvjPKv@12\0\0\0\0\0\0\0\0\0\0\0\0\32\1\0\0__ZN3stk11compression12compress_HUFEPvPKvjj@16\0\0\0\0\0\0\0\0\0\0\0\0\35\1\0\0__ZN3stk11compression14uncompress_HUFEPvjPKv@12\0\0\0\0\0\0\0\0\0\0\0\0 \1\0\0__ZN3stk11compression12compress_ARIEPvPKvjj@16\0\0\0\0\0\0\0\0\0\0\0\0#\1\0\0__ZN3stk11compression14uncompress_ARIEPvjPKv@12\0\0\0\0\0\0\0\0\0\0\0\0&\1\0\0__ZN3stk11compression12compress_BWTEPvPKvjj@16\0\0\0\0\0\0\0\0\0\0\0\0)\1\0\0__ZN3stk11compression14uncompress_BWTEPvjPKv@12\0\0\0\0\0\0\0\0\0\0\0\0,\1\0\0___gxx_personality_v0\0\0\2\0\0\0\0\0\0\0\0\0\14\1\0\0__ZN3stk3mem4freeEPv@4\0\0\2\0\0\0\0\0\0\0\0\0"
	.ascii "4\1\0\0__ZN3stk11compression17__lzss_compressorD1Ev\0\0\2\0\0\0\0\0\0\0\0\0v\1\0\0__ZN3stk3mem3movEPvPKvj@12\0\0\2\0\0\0\0\0\0\0\0\0~\1\0\0__ZN3stk11file_header21__lzstv4_header_coder12plain_encodeEPvj@8\0\0\2\0\0\0\0\0\0\0\0\0\212\1\0\0__ZN3stk11compression17__lzss_compressor21clear_backward_resultEv@4\0\0\2\0\0\0\0\0\0\0\0\0\217\1\0\0__ZN3stk11file_header21__lzstv4_header_coder10dup_encodeEPvjj@12\0\0\2\0\0\0\0\0\0\0\0\0\227\1\0\0__ZN3stk11compression17__lzss_compressor20clear_forwar"
	.ascii "d_resultEv@4\0\0\2\0\0\0\0\0\0\0\0\0\232\1\0\0__ZN3stk11file_header21__lzstv4_header_coder14pattern_encodeEPvjj@12\0\0\2\0\0\0\0\0\0\0\0\0\235\1\0\0__ZN3stk11file_header21__lzstv4_header_coder20check_dup_match_costEjjj@12\0\0\2\0\0\0\0\0\0\0\0\0\252\1\0\0__ZN3stk11compression17__lzss_compressor15search_backwardEv@4\0\0\2\0\0\0\0\0\0\0\0\0\260\1\0\0__ZN3stk11file_header21__lzstv4_header_coder24check_pattern_match_costEjjj@12\0\0\2\0\0\0\0\0\0\0\0\0\263\1\0\0__ZN3stk11compression17__lzss_compressor14search_forwardEv@4\0\0\2\0\0\0\0\0\0\0\0\0\266\1\0\0__ZN3stk11compression17__lzss_compressor6updateEPKcjb@16\0\0\2\0\0\0\0\0\0\0\0\0\305\1\0\0__ZN3stk11compression17__lzss_compressor10initializeEPKc@8\0\0\2\0\0\0\0\0\0\0\0\0\314\1\0\0__ZN3stk11compression17__lzss_compressorC1Ejj\0\0\2\0\0\0\0\0\0\0\0\0\323\1\0\0__ZN3stk3mem5allocEj@4\0\0\2\0\0\0\0\0\0\0\0\0\331\1\0\0__ZN3stk4cstr4freeEPc@4\0\0\2\0\0\0\0\0\0\0\0\0\340\1\0\0__ZN3stk3con6printsEPKcz\0\0\2\0\0\0\0\0\0\0\0\0\351\1\0\0__ZN3stk4cstr3lenEPKc@4\0\0\2\0\0\0\0\0\0\0\0\0\357\1\0\0__ZN3stk4cstr3movEPcPKc@8\0\0\2\0\0\0\0\0\0\0\0\0\365\1\0\0__ZN3stk4cstr5allocEj@4\0\0\2\0\0\0\0\0\0\0\0\0\372\1\0\0__ZN3stk11file_header21__lzstv4_header_coder10dup_decodeEPjS2_PKv@12\0\0\2\0\0\0\0\0\0\0\0\0\2\2\0\0__ZN3stk3mem5setexEPvPKvaj@16\0\0\2\0\0\0\0\0\0\0\0\0\13\2\0\0__ZN3stk11file_header21__lzstv4_header_coder14pattern_decodeEPjS2_PKv@12\0\0\2\0\0\0\0\0\0\0\0\0\16\2\0\0__ZN3stk11file_header21__lzstv4_header_coder12plain_decodeEPjPKv@8\0\0\2\0\0\0\0\0\0\0\0\0\25\2\0\0__ZN3stk11compression17__huff_compressorD1Ev@8\0\0\2\0\0\0\0\0\0\0\0\0%\2\0\0__ZN3stk3mem7bit_movEPvhPKvhj@20\0\0\2\0\0\0\0\0\0\0\0\0"
	.ascii "4\2\0\0__ZN3stk11compression17__huff_compressor6encodeEPaaa@16\0\0\2\0\0\0\0\0\0\0\0\0>\2\0\0__ZN3stk11compression17__huff_compressor10initializeEv@4\0\0\2\0\0\0\0\0\0\0\0\0B\2\0\0__ZN3stk11compression17__huff_compressorC1Ev@4\0\0\2\0\0\0\0\0\0\0\0\0D\2\0\0__ZN3stk11compression17__huff_compressor6decodeEPaPKaa@16\0\0\2\0\0\0\0\0\0\0\0\0O\2\0\0__ZN3stk11compression16__ari_compressorD1Ev\0\0\2\0\0\0\0\0\0\0\0\0l\2\0\0__ZN3stk11compression16__ari_compressor13flush_encoderEPjh@12\0\0\2\0\0\0\0\0\0\0\0\0t\2\0\0__ZN3stk11compression16__ari_compressor6encodeEPjhh@16\0\0\2\0\0\0\0\0\0\0\0\0|\2\0\0__ZN3stk11compression16__ari_compressor18initialize_encoderEv@4\0\0\2\0\0\0\0\0\0\0\0\0\201\2\0\0__ZN3stk11compression16__ari_compressorC1Ev\0\0\2\0\0\0\0\0\0\0\0\0\203\2\0\0__ZN3stk11compression16__ari_compressor6decodeEPcPKjh@16\0\0\2\0\0\0\0\0\0\0\0\0\215\2\0\0__ZN3st"
	.ascii "k11compression16__ari_compressor18initialize"
	.ascii "_decoderEPKjh@12\0\0\2\0\0\0\0\0\0\0\0\0\225\2\0\0__ZN3stk11compression16__bwt_compressorD1Ev\0\0\2\0\0\0\0\0\0\0\0\0\257\2\0\0__ZN3stk11compression16__bwt_compressor4saveEPc@8\0\0\2\0\0\0\0\0\0\0\0\0\266\2\0\0__ZN3stk11compression16__bwt_compressor4sortEv@4\0\0\2\0\0\0\0\0\0\0\0\0\274\2\0\0__ZN3stk11compression16__bwt_compressor8generateEPKcj@12\0\0\2\0\0\0\0\0\0\0\0\0\304\2\0\0__ZN3stk11compression16__bwt_compressorC1Ej\0\0\2\0\0\0\0\0\0\0\0\0\311\2\0\0"
	.text
	.section	.gnu.lto_.opts,"dr0"
	.ascii "'-fno-trapv' '-dD' '-malign-double' '-momit-leaf-frame-pointer' '-m32' '-mfpmath=sse' '-mpreferred-stack-boundary=8' '-mmmx' '-msse' '-msse2' '-mthreads' '-mtune=generic' '-march=i686' '-g' '-g' '-O3' '-fno-use-linker-plugin' '-fverbose-asm' '-fstrict-aliasing' '-fwrapv' '-funroll-loops' '-flto' '-fexceptions'\0"
	.text
	.section	.text.unlikely,"x"
LCOLDB0:
	.text
LHOTB0:
	.p2align 4,,15
	.section	.text.unlikely,"x"
Ltext_cold0:
	.text
	.globl	__ZN3stk11compression12compress_LZSEPvPKvjj@16
	.def	__ZN3stk11compression12compress_LZSEPvPKvjj@16;	.scl	2;	.type	32;	.endef
__ZN3stk11compression12compress_LZSEPvPKvjj@16:
LFB703:
	.file 1 "compression/stk_compression_API.cpp"
	.loc 1 50 0
	.cfi_startproc
	.cfi_personality 0,___gxx_personality_v0
	.cfi_lsda 0,LLSDA703
LVL0:
	pushl	%ebp	 #
	.cfi_def_cfa_offset 8
	.cfi_offset 5, -8
	movl	%esp, %ebp	 #,
	.cfi_def_cfa_register 5
LVL1:
	pushl	%edi	 #
	pushl	%esi	 #
	pushl	%ebx	 #
	subl	$748, %esp	 #,
	.cfi_offset 7, -12
	.cfi_offset 6, -16
	.cfi_offset 3, -20
	.loc 1 50 0
	movl	16(%ebp), %ebx	 # a_src_count, a_src_count
LBB44:
	.loc 1 55 0
	movl	12(%ebp), %eax	 # a_src_ptr, ptrs_end
LBB45:
LBB46:
	.file 2 "compression/./../text/./../mem/stk_mem.h"
	.loc 2 74 0
	movl	$72, (%esp)	 #,
LBE46:
LBE45:
	.loc 1 55 0
	addl	%ebx, %eax	 # a_src_count, ptrs_end
	movl	%eax, -260(%ebp)	 # ptrs_end, %sfp
LVL2:
LEHB0:
LBB50:
LBB47:
	.loc 2 74 0
	call	__ZN3stk3mem5allocEj@4	 #
LEHE0:
LVL3:
LBE47:
LBE50:
	.loc 1 65 0
	movl	20(%ebp), %edx	 # a_block, a_block
LBB51:
LBB48:
	.loc 2 74 0
	subl	$4, %esp	 #,
LBE48:
LBE51:
	.loc 1 65 0
	movl	%eax, %ecx	 # D.30472,
	movl	%ebx, 4(%esp)	 # a_src_count,
LBB52:
LBB49:
	.loc 2 74 0
	movl	%eax, %esi	 #, D.30472
	movl	%eax, -256(%ebp)	 # D.30472, %sfp
LBE49:
LBE52:
	.loc 1 65 0
	movl	%edx, (%esp)	 # a_block,
LEHB1:
	call	__ZN3stk11compression17__lzss_compressorC1Ejj	 #
LEHE1:
LVL4:
	.loc 1 66 0
	movl	12(%ebp), %ecx	 # a_src_ptr, tmp283
	.loc 1 65 0
	subl	$8, %esp	 #,
LVL5:
	.loc 1 66 0
	movl	%esi, -256(%ebp)	 # D.30472, %sfp
	movl	%esi, (%esp)	 # D.30472,
	.loc 1 61 0
	xorl	%edi, %edi	 # next_insert_to_dup_len
	.loc 1 66 0
	movl	%ecx, 4(%esp)	 # tmp283,
LEHB2:
	call	__ZN3stk11compression17__lzss_compressor10initializeEPKc@8	 #
LVL6:
	.loc 1 60 0
	movl	12(%ebp), %esi	 # a_src_ptr, a_src_ptr
LVL7:
	.loc 1 56 0
	movl	8(%ebp), %ebx	 # a_dst_ptr, a_dst_ptr
	.loc 1 66 0
	subl	$8, %esp	 #,
	.loc 1 61 0
	xorl	%eax, %eax	 # next_skip_len
	.loc 1 59 0
	movl	$0, -252(%ebp)	 #, %sfp
LVL8:
	.p2align 4,,10
L2:
	.loc 1 71 0
	movl	-256(%ebp), %ecx	 # %sfp, D.30472
	leal	(%edi,%eax), %edx	 #, D.30466
	movl	%edx, -264(%ebp)	 # D.30466, %sfp
	addl	24(%ecx), %edx	 # MEM[(struct __lzss_compressor *)_156].backward_max_len, D.30466
	addl	12(%ebp), %edx	 # a_src_ptr, D.30468
	cmpl	%edx, -260(%ebp)	 # D.30468, %sfp
	ja	L3	 #,
	.loc 1 72 0
	movl	12(%ebp), %ecx	 # a_src_ptr, tmp289
	movl	-264(%ebp), %edx	 # %sfp, D.30466
	leal	8(%ecx,%edx), %ecx	 #, D.30468
	cmpl	%ecx, -260(%ebp)	 # D.30468, %sfp
	jbe	L99	 #,
	.loc 1 78 0
	movl	-260(%ebp), %edx	 # %sfp, D.30469
	subl	12(%ebp), %edx	 # a_src_ptr, D.30469
	movl	-256(%ebp), %ecx	 # %sfp, D.30472
	subl	%edi, %edx	 # next_insert_to_dup_len, D.30467
	subl	%eax, %edx	 # next_skip_len, tmp162
	movl	%edx, 24(%ecx)	 # tmp162, MEM[(struct __lzss_compressor *)_156].backward_max_len
L3:
	.loc 1 84 0
	testl	%eax, %eax	 # next_skip_len
	jne	L100	 #,
LVL9:
	.loc 1 90 0
	testl	%edi, %edi	 # next_insert_to_dup_len
	jne	L101	 #,
LVL10:
L9:
	.loc 1 99 0
	movl	-256(%ebp), %edi	 # %sfp, D.30472
	movl	%edi, (%esp)	 # D.30472,
LVL11:
	call	__ZN3stk11compression17__lzss_compressor14search_forwardEv@4	 #
LVL12:
	subl	$4, %esp	 #,
	cmpl	$1, %eax	 #, D.30467
	jbe	L10	 #,
	.loc 1 100 0
	movl	56(%edi), %edx	 # MEM[(struct __lzss_compressor *)_156].forward_elsize, MEM[(struct __lzss_compressor *)_156].forward_elsize
	movl	-252(%ebp), %eax	 # %sfp, plain_text_len
	movl	%edx, 8(%esp)	 # MEM[(struct __lzss_compressor *)_156].forward_elsize,
	movl	48(%edi), %ecx	 # MEM[(struct __lzss_compressor *)_156].forward_elcount, MEM[(struct __lzss_compressor *)_156].forward_elcount
	movl	%eax, (%esp)	 # plain_text_len,
	movl	%ecx, 4(%esp)	 # MEM[(struct __lzss_compressor *)_156].forward_elcount,
	call	__ZN3stk11file_header21__lzstv4_header_coder24check_pattern_match_costEjjj@12	 #
LVL13:
	subl	$12, %esp	 #,
	testl	%eax, %eax	 # D.30469
	jle	L102	 #,
L11:
LDL1:
	.loc 1 128 0
	movl	-252(%ebp), %edi	 # %sfp,
	testl	%edi, %edi	 #
	jne	L18	 #,
L17:
LVL14:
	.loc 1 150 0
	movl	-256(%ebp), %edi	 # %sfp, D.30472
	cmpl	$1, 40(%edi)	 #, MEM[(struct __lzss_compressor *)_156].forward_len
	jbe	L20	 #,
L103:
	.loc 1 156 0
	movl	56(%edi), %ecx	 # MEM[(struct __lzss_compressor *)_156].forward_elsize, MEM[(struct __lzss_compressor *)_156].forward_elsize
	movl	%edi, %esi	 # D.30472, D.30472
	movl	%ecx, 8(%esp)	 # MEM[(struct __lzss_compressor *)_156].forward_elsize,
	movl	48(%edi), %edx	 # MEM[(struct __lzss_compressor *)_156].forward_elcount, MEM[(struct __lzss_compressor *)_156].forward_elcount
	movl	%ebx, (%esp)	 # a_dst_ptr,
	movl	%edx, 4(%esp)	 # MEM[(struct __lzss_compressor *)_156].forward_elcount,
	call	__ZN3stk11file_header21__lzstv4_header_coder14pattern_encodeEPvjj@12	 #
LVL15:
	movl	12(%ebp), %edx	 # a_src_ptr, tmp337
	movsbl	%al, %edi	 # D.30470, D.30466
	movl	56(%esi), %eax	 # MEM[(struct __lzss_compressor *)_156].forward_elsize, MEM[(struct __lzss_compressor *)_156].forward_elsize
	subl	$12, %esp	 #,
	addl	%edi, %ebx	 # D.30466, ptrd
LVL16:
	movl	%ebx, (%esp)	 # ptrd,
	movl	%eax, 8(%esp)	 # MEM[(struct __lzss_compressor *)_156].forward_elsize,
	movl	%edx, 4(%esp)	 # tmp337,
	call	__ZN3stk3mem3movEPvPKvj@12	 #
LVL17:
	movl	56(%esi), %ecx	 # MEM[(struct __lzss_compressor *)_156].forward_elsize, next_insert_to_dup_len
	.loc 1 161 0
	movl	40(%esi), %eax	 # MEM[(struct __lzss_compressor *)_156].forward_len, D.30467
	.loc 1 156 0
	subl	$12, %esp	 #,
	.loc 1 161 0
	movl	12(%ebp), %esi	 # a_src_ptr, a_src_ptr
	.loc 1 156 0
	addl	%ecx, %ebx	 # next_insert_to_dup_len, a_dst_ptr
LVL18:
	.loc 1 161 0
	addl	%eax, %esi	 # D.30467, a_src_ptr
LVL19:
	.loc 1 164 0
	cmpl	%eax, %ecx	 # D.30467, next_insert_to_dup_len
	jae	L24	 #,
	cmpl	$3, %ecx	 #, next_insert_to_dup_len
	ja	L24	 #,
	.loc 1 165 0
	leal	1(%ecx), %edi	 #, next_insert_to_dup_len
LVL20:
	.loc 1 164 0
	cmpl	%edi, %eax	 # next_insert_to_dup_len, D.30467
	jbe	L21	 #,
	cmpl	$4, %edi	 #, next_insert_to_dup_len
	je	L21	 #,
LVL21:
	.loc 1 165 0
	leal	2(%ecx), %edi	 #, next_insert_to_dup_len
LVL22:
	.loc 1 164 0
	cmpl	%edi, %eax	 # next_insert_to_dup_len, D.30467
	jbe	L21	 #,
	cmpl	$4, %edi	 #, next_insert_to_dup_len
	je	L21	 #,
	.loc 1 165 0
	leal	3(%ecx), %edi	 #, next_insert_to_dup_len
LVL23:
	.loc 1 164 0
	movl	$4, %edx	 #, tmp341
	cmpl	%edi, %eax	 # next_insert_to_dup_len, D.30467
LVL24:
	cmova	%edx, %edi	 # next_insert_to_dup_len,, tmp341, next_insert_to_dup_len
LVL25:
L21:
	.loc 1 168 0
	movl	-256(%ebp), %ecx	 # %sfp, D.30472
	.loc 1 167 0
	subl	%edi, %eax	 # next_insert_to_dup_len, next_skip_len
	movl	%eax, -264(%ebp)	 # next_skip_len, %sfp
LVL26:
	.loc 1 168 0
	movl	%ecx, (%esp)	 # D.30472,
	call	__ZN3stk11compression17__lzss_compressor20clear_forward_resultEv@4	 #
LVL27:
	.loc 1 169 0
	movl	$0, -252(%ebp)	 #, %sfp
	.loc 1 168 0
	subl	$4, %esp	 #,
	.loc 1 169 0
	movl	-264(%ebp), %eax	 # %sfp, next_skip_len
	jmp	L2	 #
LVL28:
	.p2align 4,,10
L18:
	.loc 1 142 0
	cmpl	$1023, -252(%ebp)	 #, %sfp
	jbe	L96	 #,
	movl	-252(%ebp), %ecx	 # %sfp, plain_text_len
	movl	$4198405, %edx	 #, tmp198
	movl	%ebx, (%esp)	 # a_dst_ptr,
	movl	$1023, 4(%esp)	 #,
	leal	-1024(%ecx), %ecx	 #, tmp196
	movl	%ecx, %eax	 # tmp196, tmp280
	mull	%edx	 # tmp198
	subl	%edx, %ecx	 # tmp197, tmp199
	movl	%ecx, %edi	 # tmp199, tmp199
	shrl	%edi	 # tmp200
	addl	%edx, %edi	 # tmp197, tmp201
	call	__ZN3stk11file_header21__lzstv4_header_coder12plain_encodeEPvj@8	 #
LVL29:
	movsbl	%al, %ecx	 # D.30470, D.30466
	subl	$8, %esp	 #,
	shrl	$9, %edi	 #, tmp195
	addl	%ecx, %ebx	 # D.30466, ptrd
	movl	%esi, 4(%esp)	 # a_src_ptr,
	movl	$1023, 8(%esp)	 #,
	movl	%ebx, (%esp)	 # ptrd,
	andl	$3, %edi	 #, tmp202
	addl	$1023, %ebx	 #, a_dst_ptr
	call	__ZN3stk3mem3movEPvPKvj@12	 #
LVL30:
	subl	$1023, -252(%ebp)	 #, %sfp
	subl	$12, %esp	 #,
LVL31:
	addl	$1023, %esi	 #, a_src_ptr
LVL32:
	movl	-252(%ebp), %eax	 # %sfp, plain_text_len
	cmpl	$1023, %eax	 #, plain_text_len
	jbe	L96	 #,
	testl	%edi, %edi	 # tmp202
	je	L93	 #,
	cmpl	$1, %edi	 #, tmp202
	je	L74	 #,
	cmpl	$2, %edi	 #, tmp202
	je	L75	 #,
	movl	%ebx, (%esp)	 # a_dst_ptr,
	movl	$1023, 4(%esp)	 #,
	call	__ZN3stk11file_header21__lzstv4_header_coder12plain_encodeEPvj@8	 #
LVL33:
	movsbl	%al, %edx	 # D.30470, D.30466
	subl	$8, %esp	 #,
	addl	%edx, %ebx	 # D.30466, ptrd
	movl	%esi, 4(%esp)	 # a_src_ptr,
	movl	$1023, 8(%esp)	 #,
	movl	%ebx, (%esp)	 # ptrd,
	addl	$1023, %esi	 #, a_src_ptr
LVL34:
	addl	$1023, %ebx	 #, a_dst_ptr
	call	__ZN3stk3mem3movEPvPKvj@12	 #
LVL35:
	subl	$1023, -252(%ebp)	 #, %sfp
	subl	$12, %esp	 #,
LVL36:
L75:
	movl	%ebx, (%esp)	 # a_dst_ptr,
	movl	$1023, 4(%esp)	 #,
	call	__ZN3stk11file_header21__lzstv4_header_coder12plain_encodeEPvj@8	 #
LVL37:
	movsbl	%al, %edi	 # D.30470, D.30466
	subl	$8, %esp	 #,
	addl	%edi, %ebx	 # D.30466, ptrd
	movl	%esi, 4(%esp)	 # a_src_ptr,
	addl	$1023, %esi	 #, a_src_ptr
	movl	%ebx, (%esp)	 # ptrd,
	movl	$1023, 8(%esp)	 #,
	addl	$1023, %ebx	 #, a_dst_ptr
	call	__ZN3stk3mem3movEPvPKvj@12	 #
LVL38:
	subl	$1023, -252(%ebp)	 #, %sfp
	subl	$12, %esp	 #,
L74:
	movl	%ebx, (%esp)	 # a_dst_ptr,
	movl	$1023, 4(%esp)	 #,
	call	__ZN3stk11file_header21__lzstv4_header_coder12plain_encodeEPvj@8	 #
LVL39:
	movsbl	%al, %ecx	 # D.30470, D.30466
	subl	$8, %esp	 #,
	addl	%ecx, %ebx	 # D.30466, ptrd
	movl	%esi, 4(%esp)	 # a_src_ptr,
	addl	$1023, %esi	 #, a_src_ptr
	movl	%ebx, (%esp)	 # ptrd,
	movl	$1023, 8(%esp)	 #,
	addl	$1023, %ebx	 #, a_dst_ptr
	call	__ZN3stk3mem3movEPvPKvj@12	 #
LVL40:
	subl	$1023, -252(%ebp)	 #, %sfp
	subl	$12, %esp	 #,
	movl	-252(%ebp), %eax	 # %sfp, plain_text_len
	cmpl	$1023, %eax	 #, plain_text_len
	movl	%eax, %edi	 # plain_text_len, plain_text_len
	jbe	L96	 #,
L45:
	.loc 1 142 0 is_stmt 0 discriminator 2
	movl	%ebx, (%esp)	 # a_dst_ptr,
	movl	$1023, 4(%esp)	 #,
	subl	$4092, %edi	 #, plain_text_len
	call	__ZN3stk11file_header21__lzstv4_header_coder12plain_encodeEPvj@8	 #
LVL41:
	movsbl	%al, %edx	 # D.30470, D.30466
	subl	$8, %esp	 #,
	addl	%edx, %ebx	 # D.30466, ptrd
	movl	%esi, 4(%esp)	 # a_src_ptr,
	movl	$1023, 8(%esp)	 #,
	movl	%ebx, (%esp)	 # ptrd,
	addl	$1023, %ebx	 #, a_dst_ptr
	call	__ZN3stk3mem3movEPvPKvj@12	 #
LVL42:
	leal	1023(%esi), %ecx	 #, tmp203
	subl	$12, %esp	 #,
	movl	%ebx, (%esp)	 # a_dst_ptr,
	movl	$1023, 4(%esp)	 #,
	movl	%ecx, -252(%ebp)	 # tmp203, %sfp
	call	__ZN3stk11file_header21__lzstv4_header_coder12plain_encodeEPvj@8	 #
LVL43:
	movl	-252(%ebp), %edx	 # %sfp, tmp203
	movsbl	%al, %eax	 # D.30470, D.30466
	subl	$8, %esp	 #,
	addl	%eax, %ebx	 # D.30466, ptrd
	movl	$1023, 8(%esp)	 #,
	movl	%ebx, (%esp)	 # ptrd,
	addl	$1023, %ebx	 #, a_dst_ptr
	movl	%edx, 4(%esp)	 # tmp203,
	call	__ZN3stk3mem3movEPvPKvj@12	 #
LVL44:
	leal	2046(%esi), %ecx	 #, a_src_ptr
	subl	$12, %esp	 #,
	movl	%ebx, (%esp)	 # a_dst_ptr,
	movl	$1023, 4(%esp)	 #,
	movl	%ecx, -252(%ebp)	 # a_src_ptr, %sfp
	call	__ZN3stk11file_header21__lzstv4_header_coder12plain_encodeEPvj@8	 #
LVL45:
	movl	-252(%ebp), %edx	 # %sfp, a_src_ptr
	movsbl	%al, %eax	 # D.30470, D.30466
	subl	$8, %esp	 #,
	addl	%eax, %ebx	 # D.30466, ptrd
	movl	$1023, 8(%esp)	 #,
	movl	%ebx, (%esp)	 # ptrd,
	addl	$1023, %ebx	 #, a_dst_ptr
	movl	%edx, 4(%esp)	 # a_src_ptr,
	call	__ZN3stk3mem3movEPvPKvj@12	 #
LVL46:
	leal	3069(%esi), %ecx	 #, a_src_ptr
	subl	$12, %esp	 #,
	addl	$4092, %esi	 #, a_src_ptr
	movl	%ebx, (%esp)	 # a_dst_ptr,
	movl	$1023, 4(%esp)	 #,
	movl	%ecx, -252(%ebp)	 # a_src_ptr, %sfp
	call	__ZN3stk11file_header21__lzstv4_header_coder12plain_encodeEPvj@8	 #
LVL47:
	movl	-252(%ebp), %edx	 # %sfp, a_src_ptr
	movsbl	%al, %eax	 # D.30470, D.30466
	subl	$8, %esp	 #,
	addl	%eax, %ebx	 # D.30466, ptrd
	movl	$1023, 8(%esp)	 #,
	movl	%ebx, (%esp)	 # ptrd,
	addl	$1023, %ebx	 #, a_dst_ptr
	movl	%edx, 4(%esp)	 # a_src_ptr,
	call	__ZN3stk3mem3movEPvPKvj@12	 #
LVL48:
	subl	$12, %esp	 #,
	cmpl	$1023, %edi	 #, plain_text_len
	ja	L45	 #,
	movl	%edi, -252(%ebp)	 # plain_text_len, %sfp
L15:
	.loc 1 142 0 discriminator 3
	movl	%edi, 4(%esp)	 # plain_text_len,
	movl	%ebx, (%esp)	 # a_dst_ptr,
	call	__ZN3stk11file_header21__lzstv4_header_coder12plain_encodeEPvj@8	 #
LVL49:
	movsbl	%al, %eax	 # D.30470, D.30466
	subl	$8, %esp	 #,
	addl	%eax, %ebx	 # D.30466, ptrd
LVL50:
	movl	%edi, 8(%esp)	 # plain_text_len,
	movl	%esi, 4(%esp)	 # a_src_ptr,
	movl	%ebx, (%esp)	 # ptrd,
	addl	%edi, %ebx	 # plain_text_len, a_dst_ptr
LVL51:
	call	__ZN3stk3mem3movEPvPKvj@12	 #
LVL52:
	.loc 1 150 0 is_stmt 1 discriminator 3
	movl	-256(%ebp), %edi	 # %sfp, D.30472
	.loc 1 142 0 discriminator 3
	subl	$12, %esp	 #,
	.loc 1 145 0 discriminator 3
	movl	12(%ebp), %esi	 # a_src_ptr, a_src_ptr
LVL53:
	.loc 1 150 0 discriminator 3
	cmpl	$1, 40(%edi)	 #, MEM[(struct __lzss_compressor *)_156].forward_len
	ja	L103	 #,
LVL54:
L20:
	.loc 1 178 0
	movl	20(%edi), %edi	 # MEM[(struct __lzss_compressor *)_156].backward_len, D.30467
	cmpl	$3, %edi	 #, D.30467
	ja	L104	 #,
	xorl	%edi, %edi	 # next_insert_to_dup_len
	xorl	%eax, %eax	 # next_skip_len
	movl	$0, -252(%ebp)	 #, %sfp
	jmp	L2	 #
LVL55:
	.p2align 4,,10
L102:
	.loc 1 102 0
	movl	-256(%ebp), %edx	 # %sfp, D.30472
	movl	%edx, (%esp)	 # D.30472,
	call	__ZN3stk11compression17__lzss_compressor20clear_forward_resultEv@4	 #
LVL56:
	subl	$4, %esp	 #,
L10:
	.loc 1 108 0
	movl	-256(%ebp), %edi	 # %sfp, D.30472
	movl	%edi, (%esp)	 # D.30472,
	call	__ZN3stk11compression17__lzss_compressor15search_backwardEv@4	 #
LVL57:
	subl	$4, %esp	 #,
	cmpl	$3, %eax	 #, D.30467
	ja	L105	 #,
L12:
	.loc 1 117 0
	cmpl	$1022, -252(%ebp)	 #, %sfp
	ja	L18	 #,
LVL58:
	.loc 1 120 0
	addl	$1, -252(%ebp)	 #, %sfp
LVL59:
	.loc 1 122 0
	movl	$1, %edi	 #, next_insert_to_dup_len
	.loc 1 121 0
	xorl	%eax, %eax	 # next_skip_len
	.loc 1 123 0
	jmp	L2	 #
LVL60:
	.p2align 4,,10
L100:
	.loc 1 85 0
	movl	%eax, 8(%esp)	 # next_skip_len,
LVL61:
	movl	%eax, -264(%ebp)	 # next_skip_len, %sfp
	movl	-256(%ebp), %edx	 # %sfp, D.30472
	movl	12(%ebp), %eax	 # a_src_ptr, tmp298
LVL62:
	movl	$0, 12(%esp)	 #,
LVL63:
	movl	%eax, 4(%esp)	 # tmp298,
	movl	%edx, (%esp)	 # D.30472,
	call	__ZN3stk11compression17__lzss_compressor6updateEPKcjb@16	 #
LVL64:
	.loc 1 86 0
	movl	-264(%ebp), %ecx	 # %sfp, next_skip_len
	.loc 1 85 0
	subl	$16, %esp	 #,
	.loc 1 86 0
	addl	%ecx, 12(%ebp)	 # next_skip_len, a_src_ptr
LVL65:
	.loc 1 90 0
	testl	%edi, %edi	 # next_insert_to_dup_len
	je	L9	 #,
LVL66:
L101:
	.loc 1 91 0
	movl	12(%ebp), %eax	 # a_src_ptr, tmp300
	movl	-256(%ebp), %edx	 # %sfp, D.30472
	movl	$1, 12(%esp)	 #,
	movl	%edi, 8(%esp)	 # next_insert_to_dup_len,
	movl	%eax, 4(%esp)	 # tmp300,
	movl	%edx, (%esp)	 # D.30472,
	call	__ZN3stk11compression17__lzss_compressor6updateEPKcjb@16	 #
LVL67:
	.loc 1 92 0
	addl	%edi, 12(%ebp)	 # next_insert_to_dup_len, a_src_ptr
LVL68:
	.loc 1 91 0
	subl	$16, %esp	 #,
	jmp	L9	 #
LVL69:
	.p2align 4,,10
L104:
	.loc 1 182 0
	movl	-256(%ebp), %esi	 # %sfp, D.30472
	movl	28(%esi), %edx	 # MEM[(struct __lzss_compressor *)_156].backward_offset, MEM[(struct __lzss_compressor *)_156].backward_offset
	movl	%edi, 4(%esp)	 # D.30467,
	movl	%ebx, (%esp)	 # a_dst_ptr,
	movl	%edx, 8(%esp)	 # MEM[(struct __lzss_compressor *)_156].backward_offset,
	call	__ZN3stk11file_header21__lzstv4_header_coder10dup_encodeEPvjj@12	 #
LVL70:
	.loc 1 187 0
	movl	20(%esi), %edi	 # MEM[(struct __lzss_compressor *)_156].backward_len, next_insert_to_dup_len
	.loc 1 182 0
	movsbl	%al, %ecx	 # D.30470, D.30466
LVL71:
	.loc 1 187 0
	movl	%esi, %eax	 # D.30472, D.30472
	movl	12(%ebp), %esi	 # a_src_ptr, a_src_ptr
	.loc 1 182 0
	subl	$12, %esp	 #,
	addl	%ecx, %ebx	 # D.30466, a_dst_ptr
LVL72:
	.loc 1 190 0
	movl	%eax, (%esp)	 # D.30472,
	call	__ZN3stk11compression17__lzss_compressor21clear_backward_resultEv@4	 #
LVL73:
	.loc 1 187 0
	addl	%edi, %esi	 # next_insert_to_dup_len, a_src_ptr
LVL74:
	.loc 1 190 0
	subl	$4, %esp	 #,
	.loc 1 188 0
	xorl	%eax, %eax	 # next_skip_len
	.loc 1 191 0
	movl	$0, -252(%ebp)	 #, %sfp
	jmp	L2	 #
LVL75:
	.p2align 4,,10
L96:
	movl	-252(%ebp), %edi	 # %sfp, plain_text_len
	jmp	L15	 #
	.p2align 4,,10
L105:
	.loc 1 109 0
	movl	-256(%ebp), %ecx	 # %sfp, D.30472
	movl	-252(%ebp), %eax	 # %sfp, plain_text_len
	movl	28(%ecx), %edx	 # MEM[(struct __lzss_compressor *)_156].backward_offset, MEM[(struct __lzss_compressor *)_156].backward_offset
	movl	%edx, 8(%esp)	 # MEM[(struct __lzss_compressor *)_156].backward_offset,
	movl	20(%ecx), %ecx	 # MEM[(struct __lzss_compressor *)_156].backward_len, MEM[(struct __lzss_compressor *)_156].backward_len
	movl	%eax, (%esp)	 # plain_text_len,
	movl	%ecx, 4(%esp)	 # MEM[(struct __lzss_compressor *)_156].backward_len,
	call	__ZN3stk11file_header21__lzstv4_header_coder20check_dup_match_costEjjj@12	 #
LVL76:
	subl	$12, %esp	 #,
	testl	%eax, %eax	 # D.30469
	jg	L11	 #,
	.loc 1 111 0
	movl	-256(%ebp), %edx	 # %sfp, D.30472
	movl	%edx, (%esp)	 # D.30472,
	call	__ZN3stk11compression17__lzss_compressor21clear_backward_resultEv@4	 #
LVL77:
	subl	$4, %esp	 #,
	jmp	L12	 #
LVL78:
	.p2align 4,,10
L93:
	movl	-252(%ebp), %edi	 # %sfp, plain_text_len
	jmp	L45	 #
LVL79:
	.p2align 4,,10
L99:
	movl	-264(%ebp), %edx	 # %sfp, D.30466
LVL80:
	.loc 1 74 0
	addl	12(%ebp), %edx	 # a_src_ptr, ptrs
LVL81:
	.loc 1 75 0
	movl	-260(%ebp), %ecx	 # %sfp, D.30469
	subl	%edx, %ecx	 # ptrs, D.30469
LDL2:
	.loc 1 195 0
	addl	-252(%ebp), %ecx	 # %sfp, plain_text_len
	movl	%ecx, -252(%ebp)	 # plain_text_len, %sfp
	je	L5	 #,
	.loc 1 196 0 discriminator 1
	cmpl	$1023, %ecx	 #,
	jbe	L97	 #,
	movl	-252(%ebp), %edi	 # %sfp, plain_text_len
	movl	$4198405, %edx	 #, tmp188
LVL82:
	.loc 1 196 0 is_stmt 0
	movl	%ebx, (%esp)	 # a_dst_ptr,
LVL83:
	movl	$1023, 4(%esp)	 #,
	leal	-1024(%edi), %ecx	 #, tmp186
	movl	%ecx, %eax	 # tmp186, tmp281
LVL84:
	mull	%edx	 # tmp188
	subl	%edx, %ecx	 # tmp187, tmp189
	movl	%ecx, %edi	 # tmp189, tmp189
	shrl	%edi	 # tmp190
	addl	%edx, %edi	 # tmp187, tmp191
	call	__ZN3stk11file_header21__lzstv4_header_coder12plain_encodeEPvj@8	 #
LVL85:
	movsbl	%al, %ecx	 # D.30470, D.30466
	subl	$8, %esp	 #,
	shrl	$9, %edi	 #, tmp185
	addl	%ecx, %ebx	 # D.30466, ptrd
	movl	%esi, 4(%esp)	 # a_src_ptr,
	movl	$1023, 8(%esp)	 #,
	movl	%ebx, (%esp)	 # ptrd,
	andl	$3, %edi	 #, tmp192
	addl	$1023, %ebx	 #, a_dst_ptr
	call	__ZN3stk3mem3movEPvPKvj@12	 #
LVL86:
	subl	$1023, -252(%ebp)	 #, %sfp
	subl	$12, %esp	 #,
LVL87:
	addl	$1023, %esi	 #, a_src_ptr
LVL88:
	movl	-252(%ebp), %eax	 # %sfp, plain_text_len
	cmpl	$1023, %eax	 #, plain_text_len
	jbe	L97	 #,
	testl	%edi, %edi	 # tmp192
	je	L91	 #,
	cmpl	$1, %edi	 #, tmp192
	je	L72	 #,
	cmpl	$2, %edi	 #, tmp192
	je	L73	 #,
	movl	%ebx, (%esp)	 # a_dst_ptr,
	movl	$1023, 4(%esp)	 #,
	call	__ZN3stk11file_header21__lzstv4_header_coder12plain_encodeEPvj@8	 #
LVL89:
	movsbl	%al, %edx	 # D.30470, D.30466
	subl	$8, %esp	 #,
	addl	%edx, %ebx	 # D.30466, ptrd
	movl	%esi, 4(%esp)	 # a_src_ptr,
	movl	$1023, 8(%esp)	 #,
	movl	%ebx, (%esp)	 # ptrd,
	addl	$1023, %esi	 #, a_src_ptr
LVL90:
	addl	$1023, %ebx	 #, a_dst_ptr
	call	__ZN3stk3mem3movEPvPKvj@12	 #
LVL91:
	subl	$1023, -252(%ebp)	 #, %sfp
	subl	$12, %esp	 #,
LVL92:
L73:
	movl	%ebx, (%esp)	 # a_dst_ptr,
	movl	$1023, 4(%esp)	 #,
	call	__ZN3stk11file_header21__lzstv4_header_coder12plain_encodeEPvj@8	 #
LVL93:
	movsbl	%al, %edi	 # D.30470, D.30466
	subl	$8, %esp	 #,
	addl	%edi, %ebx	 # D.30466, ptrd
	movl	%esi, 4(%esp)	 # a_src_ptr,
	addl	$1023, %esi	 #, a_src_ptr
	movl	%ebx, (%esp)	 # ptrd,
	movl	$1023, 8(%esp)	 #,
	addl	$1023, %ebx	 #, a_dst_ptr
	call	__ZN3stk3mem3movEPvPKvj@12	 #
LVL94:
	subl	$1023, -252(%ebp)	 #, %sfp
	subl	$12, %esp	 #,
L72:
	movl	%ebx, (%esp)	 # a_dst_ptr,
	movl	$1023, 4(%esp)	 #,
	call	__ZN3stk11file_header21__lzstv4_header_coder12plain_encodeEPvj@8	 #
LVL95:
	movsbl	%al, %ecx	 # D.30470, D.30466
	subl	$8, %esp	 #,
	addl	%ecx, %ebx	 # D.30466, ptrd
	movl	%esi, 4(%esp)	 # a_src_ptr,
	addl	$1023, %esi	 #, a_src_ptr
	movl	%ebx, (%esp)	 # ptrd,
	movl	$1023, 8(%esp)	 #,
	addl	$1023, %ebx	 #, a_dst_ptr
	call	__ZN3stk3mem3movEPvPKvj@12	 #
LVL96:
	subl	$1023, -252(%ebp)	 #, %sfp
	subl	$12, %esp	 #,
	movl	-252(%ebp), %eax	 # %sfp, plain_text_len
	cmpl	$1023, %eax	 #, plain_text_len
	movl	%eax, %edi	 # plain_text_len, plain_text_len
	jbe	L97	 #,
L44:
	.loc 1 196 0 discriminator 2
	movl	%ebx, (%esp)	 # a_dst_ptr,
	movl	$1023, 4(%esp)	 #,
	subl	$4092, %edi	 #, plain_text_len
	call	__ZN3stk11file_header21__lzstv4_header_coder12plain_encodeEPvj@8	 #
LVL97:
	movsbl	%al, %edx	 # D.30470, D.30466
	subl	$8, %esp	 #,
	addl	%edx, %ebx	 # D.30466, ptrd
	movl	%esi, 4(%esp)	 # a_src_ptr,
	movl	$1023, 8(%esp)	 #,
	movl	%ebx, (%esp)	 # ptrd,
	addl	$1023, %ebx	 #, a_dst_ptr
	call	__ZN3stk3mem3movEPvPKvj@12	 #
LVL98:
	leal	1023(%esi), %ecx	 #, tmp193
	subl	$12, %esp	 #,
	movl	%ebx, (%esp)	 # a_dst_ptr,
	movl	$1023, 4(%esp)	 #,
	movl	%ecx, -252(%ebp)	 # tmp193, %sfp
	call	__ZN3stk11file_header21__lzstv4_header_coder12plain_encodeEPvj@8	 #
LVL99:
	movl	-252(%ebp), %edx	 # %sfp, tmp193
	movsbl	%al, %eax	 # D.30470, D.30466
	subl	$8, %esp	 #,
	addl	%eax, %ebx	 # D.30466, ptrd
	movl	$1023, 8(%esp)	 #,
	movl	%ebx, (%esp)	 # ptrd,
	addl	$1023, %ebx	 #, a_dst_ptr
	movl	%edx, 4(%esp)	 # tmp193,
	call	__ZN3stk3mem3movEPvPKvj@12	 #
LVL100:
	leal	2046(%esi), %ecx	 #, a_src_ptr
	subl	$12, %esp	 #,
	movl	%ebx, (%esp)	 # a_dst_ptr,
	movl	$1023, 4(%esp)	 #,
	movl	%ecx, -252(%ebp)	 # a_src_ptr, %sfp
	call	__ZN3stk11file_header21__lzstv4_header_coder12plain_encodeEPvj@8	 #
LVL101:
	movl	-252(%ebp), %edx	 # %sfp, a_src_ptr
	movsbl	%al, %eax	 # D.30470, D.30466
	subl	$8, %esp	 #,
	addl	%eax, %ebx	 # D.30466, ptrd
	movl	$1023, 8(%esp)	 #,
	movl	%ebx, (%esp)	 # ptrd,
	addl	$1023, %ebx	 #, a_dst_ptr
	movl	%edx, 4(%esp)	 # a_src_ptr,
	call	__ZN3stk3mem3movEPvPKvj@12	 #
LVL102:
	leal	3069(%esi), %ecx	 #, a_src_ptr
	subl	$12, %esp	 #,
	addl	$4092, %esi	 #, a_src_ptr
	movl	%ebx, (%esp)	 # a_dst_ptr,
	movl	$1023, 4(%esp)	 #,
	movl	%ecx, -252(%ebp)	 # a_src_ptr, %sfp
	call	__ZN3stk11file_header21__lzstv4_header_coder12plain_encodeEPvj@8	 #
LVL103:
	movl	-252(%ebp), %edx	 # %sfp, a_src_ptr
	movsbl	%al, %eax	 # D.30470, D.30466
	subl	$8, %esp	 #,
	addl	%eax, %ebx	 # D.30466, ptrd
	movl	$1023, 8(%esp)	 #,
	movl	%ebx, (%esp)	 # ptrd,
	addl	$1023, %ebx	 #, a_dst_ptr
	movl	%edx, 4(%esp)	 # a_src_ptr,
	call	__ZN3stk3mem3movEPvPKvj@12	 #
LVL104:
	subl	$12, %esp	 #,
	cmpl	$1023, %edi	 #, plain_text_len
	ja	L44	 #,
	movl	%edi, -252(%ebp)	 # plain_text_len, %sfp
L7:
	.loc 1 196 0 discriminator 3
	movl	%ebx, (%esp)	 # a_dst_ptr,
	movl	%edi, 4(%esp)	 # plain_text_len,
	call	__ZN3stk11file_header21__lzstv4_header_coder12plain_encodeEPvj@8	 #
LVL105:
	movsbl	%al, %eax	 # D.30470, D.30466
	subl	$8, %esp	 #,
	addl	%eax, %ebx	 # D.30466, ptrd
LVL106:
	movl	%edi, 8(%esp)	 # plain_text_len,
	movl	%esi, 4(%esp)	 # a_src_ptr,
	movl	%ebx, (%esp)	 # ptrd,
	addl	%edi, %ebx	 # plain_text_len, a_dst_ptr
LVL107:
	call	__ZN3stk3mem3movEPvPKvj@12	 #
LEHE2:
LVL108:
	subl	$12, %esp	 #,
L5:
	.loc 1 198 0 is_stmt 1
	movl	-256(%ebp), %edi	 # %sfp, D.30472
	movl	%edi, %ecx	 # D.30472,
	call	__ZN3stk11compression17__lzss_compressorD1Ev	 #
LVL109:
LBB53:
LBB54:
	.loc 2 83 0
	movl	%edi, (%esp)	 # D.30472,
	call	__ZN3stk3mem4freeEPv@4	 #
LVL110:
LBE54:
LBE53:
	.loc 1 200 0
	movl	%ebx, %eax	 # a_dst_ptr, D.30469
LBB56:
LBB55:
	.loc 2 83 0
	subl	$4, %esp	 #,
LBE55:
LBE56:
	.loc 1 200 0
	subl	8(%ebp), %eax	 # a_dst_ptr, D.30469
LBE44:
	.loc 1 201 0
	leal	-12(%ebp), %esp	 #,
	popl	%ebx	 #
	.cfi_remember_state
	.cfi_restore 3
	popl	%esi	 #
	.cfi_restore 6
	popl	%edi	 #
	.cfi_restore 7
LVL111:
	popl	%ebp	 #
	.cfi_restore 5
	.cfi_def_cfa 4, 4
	ret	$16	 #
LVL112:
	.p2align 4,,10
L24:
	.cfi_restore_state
LBB59:
	.loc 1 156 0
	movl	%ecx, %edi	 # next_insert_to_dup_len, next_insert_to_dup_len
	jmp	L21	 #
LVL113:
L97:
	movl	-252(%ebp), %edi	 # %sfp, plain_text_len
	jmp	L7	 #
LVL114:
L91:
	movl	-252(%ebp), %edi	 # %sfp, plain_text_len
	jmp	L44	 #
LVL115:
L27:
	movl	%eax, %ebx	 #, tmp182
LVL116:
LBB57:
LBB58:
	.loc 2 83 0
	movl	-256(%ebp), %eax	 # %sfp, D.30472
	movl	%eax, (%esp)	 # D.30472,
	call	__ZN3stk3mem4freeEPv@4	 #
LVL117:
	subl	$4, %esp	 #,
	movl	%ebx, (%esp)	 # tmp182,
LEHB3:
	call	__Unwind_Resume	 #
LEHE3:
LVL118:
LBE58:
LBE57:
LBE59:
	.cfi_endproc
LFE703:
	.def	___gxx_personality_v0;	.scl	2;	.type	32;	.endef
	.section	.gcc_except_table,"w"
LLSDA703:
	.byte	0xff
	.byte	0xff
	.byte	0x1
	.uleb128 LLSDACSE703-LLSDACSB703
LLSDACSB703:
	.uleb128 LEHB0-LFB703
	.uleb128 LEHE0-LEHB0
	.uleb128 0
	.uleb128 0
	.uleb128 LEHB1-LFB703
	.uleb128 LEHE1-LEHB1
	.uleb128 L27-LFB703
	.uleb128 0
	.uleb128 LEHB2-LFB703
	.uleb128 LEHE2-LEHB2
	.uleb128 0
	.uleb128 0
	.uleb128 LEHB3-LFB703
	.uleb128 LEHE3-LEHB3
	.uleb128 0
	.uleb128 0
LLSDACSE703:
	.text
	.section	.text.unlikely,"x"
LCOLDE0:
	.text
LHOTE0:
	.section .rdata,"dr"
LC1:
	.ascii "Adres src: %d\12\0"
	.align 4
LC2:
	.ascii "Here the defined words consist of two disjoint classes, sequences of alphanumeric characters and sequences of nonalphanumeric characters.\0\0"
LC3:
	.ascii "do kompresji %d bajtow\12\0"
LC4:
	.ascii "%s\12\0"
LC5:
	.ascii "Compress\12\0"
LC6:
	.ascii "Zmniejszono do %d bajtow\12\0"
LC7:
	.ascii "\12\0"
LC8:
	.ascii "Decompress\12\0"
LC9:
	.ascii "End\12\0"
LC10:
	.ascii " '%c' \0"
LC11:
	.ascii " '%#02x' \0"
	.section	.text.unlikely,"x"
LCOLDB12:
	.text
LHOTB12:
	.p2align 4,,15
	.globl	__ZN3stk11compression4testEv@0
	.def	__ZN3stk11compression4testEv@0;	.scl	2;	.type	32;	.endef
__ZN3stk11compression4testEv@0:
LFB702:
	.loc 1 18 0
	.cfi_startproc
LVL119:
	pushl	%ebp	 #
	.cfi_def_cfa_offset 8
	.cfi_offset 5, -8
	pushl	%edi	 #
	.cfi_def_cfa_offset 12
	.cfi_offset 7, -12
	pushl	%esi	 #
	.cfi_def_cfa_offset 16
	.cfi_offset 6, -16
	pushl	%ebx	 #
	.cfi_def_cfa_offset 20
	.cfi_offset 3, -20
	subl	$748, %esp	 #,
	.cfi_def_cfa_offset 768
LBB60:
	.loc 1 23 0
	movl	$4096, (%esp)	 #,
	call	__ZN3stk4cstr5allocEj@4	 #
	.cfi_def_cfa_offset 764
LVL120:
	subl	$4, %esp	 #,
	.cfi_def_cfa_offset 768
	movl	%eax, %esi	 #, src
LVL121:
	.loc 1 24 0
	movl	$4096, (%esp)	 #,
	call	__ZN3stk4cstr5allocEj@4	 #
	.cfi_def_cfa_offset 764
LVL122:
	subl	$4, %esp	 #,
	.cfi_def_cfa_offset 768
	.loc 1 25 0
	testl	%eax, %eax	 # dst
	.loc 1 24 0
	movl	%eax, %ebx	 #, dst
LVL123:
	.loc 1 25 0
	je	L106	 #,
	testl	%esi, %esi	 # src
	je	L106	 #,
	.loc 1 27 0
	movl	%esi, 4(%esp)	 # src,
	movl	$LC1, (%esp)	 #,
	call	__ZN3stk3con6printsEPKcz	 #
LVL124:
	.loc 1 28 0
	movl	$LC2, 4(%esp)	 #,
	movl	%esi, (%esp)	 # src,
	call	__ZN3stk4cstr3movEPcPKc@8	 #
	.cfi_def_cfa_offset 760
LVL125:
	subl	$8, %esp	 #,
	.cfi_def_cfa_offset 768
	.loc 1 29 0
	movl	%esi, (%esp)	 # src,
	call	__ZN3stk4cstr3lenEPKc@4	 #
	.cfi_def_cfa_offset 764
LVL126:
	subl	$4, %esp	 #,
	.cfi_def_cfa_offset 768
	movl	%eax, %edi	 #, D.30480
LVL127:
	.loc 1 30 0
	movl	%eax, 4(%esp)	 # D.30480,
	movl	$LC3, (%esp)	 #,
	call	__ZN3stk3con6printsEPKcz	 #
LVL128:
	.loc 1 31 0
	movl	%esi, 4(%esp)	 # src,
	movl	$LC4, (%esp)	 #,
	call	__ZN3stk3con6printsEPKcz	 #
LVL129:
	.loc 1 32 0
	movl	%edi, 4(%esp)	 # D.30480,
	movl	$LC5, (%esp)	 #,
	call	__ZN3stk3con6printsEPKcz	 #
LVL130:
	.loc 1 33 0
	movl	$4096, 12(%esp)	 #,
	movl	$1024, 8(%esp)	 #,
	movl	%esi, 4(%esp)	 # src,
	movl	%ebx, (%esp)	 # dst,
	call	__ZN3stk11compression12compress_LZSEPvPKvjj@16	 #
	.cfi_def_cfa_offset 752
LVL131:
	subl	$16, %esp	 #,
	.cfi_def_cfa_offset 768
	movl	%eax, %ebp	 #, D.30480
LVL132:
	.loc 1 34 0
	movl	%eax, 4(%esp)	 # D.30480,
	movl	$LC6, (%esp)	 #,
	call	__ZN3stk3con6printsEPKcz	 #
LVL133:
	leal	(%ebx,%ebp), %eax	 #, D.30484
LBB61:
	.loc 1 35 0
	testl	%ebp, %ebp	 # D.30480
	movl	%eax, 508(%esp)	 # D.30484, %sfp
	jle	L112	 #,
	.loc 1 36 0
	movsbl	(%ebx), %ecx	 # MEM[base: _46, offset: 0B],
	movl	%ebx, %edi	 # dst, tmp109
LVL134:
	notl	%edi	 # tmp109
	addl	508(%esp), %edi	 # %sfp, tmp108
	leal	-32(%ecx), %edx	 #, D.30481
	andl	$3, %edi	 #, tmp110
LVL135:
	cmpb	$94, %dl	 #, D.30481
	jbe	L151	 #,
	.loc 1 37 0
	movl	%ecx, 4(%esp)	 # D.30481,
	movl	$LC11, (%esp)	 #,
	call	__ZN3stk3con6printsEPKcz	 #
LVL136:
L141:
	leal	1(%ebx), %ebp	 #, ivtmp.68
LVL137:
	.loc 1 35 0
	cmpl	508(%esp), %ebp	 # %sfp, ivtmp.68
	je	L112	 #,
	testl	%edi, %edi	 # tmp110
	je	L113	 #,
	cmpl	$1, %edi	 #, tmp110
	je	L134	 #,
	cmpl	$2, %edi	 #, tmp110
	je	L135	 #,
	.loc 1 36 0
	movsbl	0(%ebp), %eax	 # MEM[base: _46, offset: 0B],
	leal	-32(%eax), %ecx	 #, D.30481
	movl	%eax, 4(%esp)	 # D.30481,
	cmpb	$94, %cl	 #, D.30481
	ja	L117	 #,
	movl	$LC10, (%esp)	 #,
	call	__ZN3stk3con6printsEPKcz	 #
LVL138:
L142:
	addl	$1, %ebp	 #, ivtmp.68
L135:
	movsbl	0(%ebp), %edi	 # MEM[base: _46, offset: 0B],
	leal	-32(%edi), %edx	 #, D.30481
	movl	%edi, 4(%esp)	 # D.30481,
	cmpb	$94, %dl	 #, D.30481
	ja	L120	 #,
	movl	$LC10, (%esp)	 #,
	call	__ZN3stk3con6printsEPKcz	 #
LVL139:
L143:
	addl	$1, %ebp	 #, ivtmp.68
L134:
	movsbl	0(%ebp), %eax	 # MEM[base: _46, offset: 0B],
	leal	-32(%eax), %ecx	 #, D.30481
	movl	%eax, 4(%esp)	 # D.30481,
	cmpb	$94, %cl	 #, D.30481
	ja	L123	 #,
	movl	$LC10, (%esp)	 #,
	call	__ZN3stk3con6printsEPKcz	 #
LVL140:
L144:
	addl	$1, %ebp	 #, ivtmp.68
	.loc 1 35 0
	cmpl	508(%esp), %ebp	 # %sfp, ivtmp.68
	jne	L113	 #,
	jmp	L112	 #
	.p2align 4,,10
L152:
	.loc 1 36 0 discriminator 1
	movl	$LC10, (%esp)	 #,
	leal	1(%ebp), %edi	 #, tmp111
	call	__ZN3stk3con6printsEPKcz	 #
LVL141:
	movsbl	1(%ebp), %ebp	 # MEM[base: _46, offset: 0B],
	leal	-32(%ebp), %eax	 #, D.30481
	cmpb	$94, %al	 #, D.30481
	ja	L126	 #,
L153:
	.loc 1 36 0 is_stmt 0
	movl	%ebp, 4(%esp)	 # D.30481,
	movl	$LC10, (%esp)	 #,
	call	__ZN3stk3con6printsEPKcz	 #
LVL142:
	movsbl	1(%edi), %ecx	 # MEM[base: _46, offset: 0B],
	leal	-32(%ecx), %edx	 #, D.30481
	movl	%ecx, 4(%esp)	 # D.30481,
	cmpb	$94, %dl	 #, D.30481
	ja	L128	 #,
L154:
	movl	$LC10, (%esp)	 #,
	call	__ZN3stk3con6printsEPKcz	 #
LVL143:
	movsbl	2(%edi), %ebp	 # MEM[base: _46, offset: 0B],
	leal	-32(%ebp), %eax	 #, D.30481
	movl	%ebp, 4(%esp)	 # D.30481,
	cmpb	$94, %al	 #, D.30481
	ja	L130	 #,
L155:
	movl	$LC10, (%esp)	 #,
	call	__ZN3stk3con6printsEPKcz	 #
LVL144:
L147:
	leal	3(%edi), %ebp	 #, ivtmp.68
	.loc 1 35 0 is_stmt 1
	cmpl	508(%esp), %ebp	 # %sfp, ivtmp.68
	je	L112	 #,
L113:
	.loc 1 36 0
	movsbl	0(%ebp), %edi	 # MEM[base: _46, offset: 0B],
	leal	-32(%edi), %edx	 #, D.30481
	movl	%edi, 4(%esp)	 # D.30481,
	cmpb	$94, %dl	 #, D.30481
	jbe	L152	 #,
	.loc 1 37 0
	movl	$LC11, (%esp)	 #,
	leal	1(%ebp), %edi	 #, tmp111
	call	__ZN3stk3con6printsEPKcz	 #
LVL145:
	.loc 1 36 0
	movsbl	1(%ebp), %ebp	 # MEM[base: _46, offset: 0B],
	leal	-32(%ebp), %eax	 #, D.30481
	cmpb	$94, %al	 #, D.30481
	jbe	L153	 #,
L126:
	.loc 1 37 0
	movl	%ebp, 4(%esp)	 # D.30481,
	movl	$LC11, (%esp)	 #,
	call	__ZN3stk3con6printsEPKcz	 #
LVL146:
	.loc 1 36 0
	movsbl	1(%edi), %ecx	 # MEM[base: _46, offset: 0B],
	leal	-32(%ecx), %edx	 #, D.30481
	movl	%ecx, 4(%esp)	 # D.30481,
	cmpb	$94, %dl	 #, D.30481
	jbe	L154	 #,
L128:
	.loc 1 37 0
	movl	$LC11, (%esp)	 #,
	call	__ZN3stk3con6printsEPKcz	 #
LVL147:
	.loc 1 36 0
	movsbl	2(%edi), %ebp	 # MEM[base: _46, offset: 0B],
	leal	-32(%ebp), %eax	 #, D.30481
	movl	%ebp, 4(%esp)	 # D.30481,
	cmpb	$94, %al	 #, D.30481
	jbe	L155	 #,
L130:
	.loc 1 37 0
	movl	$LC11, (%esp)	 #,
	call	__ZN3stk3con6printsEPKcz	 #
LVL148:
	jmp	L147	 #
	.p2align 4,,10
L112:
LBE61:
	.loc 1 40 0
	movl	$LC7, (%esp)	 #,
	call	__ZN3stk3con6printsEPKcz	 #
LVL149:
	.loc 1 41 0
	movl	$LC8, (%esp)	 #,
	call	__ZN3stk3con6printsEPKcz	 #
LVL150:
	.loc 1 43 0
	movl	$LC9, (%esp)	 #,
	call	__ZN3stk3con6printsEPKcz	 #
LVL151:
	.loc 1 44 0
	movl	%esi, (%esp)	 # src,
	call	__ZN3stk4cstr4freeEPc@4	 #
	.cfi_def_cfa_offset 764
LVL152:
	subl	$4, %esp	 #,
	.cfi_def_cfa_offset 768
	.loc 1 45 0
	movl	%ebx, (%esp)	 # dst,
	call	__ZN3stk4cstr4freeEPc@4	 #
	.cfi_def_cfa_offset 764
LVL153:
	subl	$4, %esp	 #,
	.cfi_def_cfa_offset 768
LVL154:
L106:
LBE60:
	.loc 1 46 0
	addl	$748, %esp	 #,
	.cfi_remember_state
	.cfi_def_cfa_offset 20
	popl	%ebx	 #
	.cfi_restore 3
	.cfi_def_cfa_offset 16
LVL155:
	popl	%esi	 #
	.cfi_restore 6
	.cfi_def_cfa_offset 12
LVL156:
	popl	%edi	 #
	.cfi_restore 7
	.cfi_def_cfa_offset 8
	popl	%ebp	 #
	.cfi_restore 5
	.cfi_def_cfa_offset 4
	ret
LVL157:
	.p2align 4,,10
L151:
	.cfi_restore_state
LBB63:
LBB62:
	.loc 1 36 0
	movl	%ecx, 4(%esp)	 # D.30481,
	movl	$LC10, (%esp)	 #,
	call	__ZN3stk3con6printsEPKcz	 #
LVL158:
	jmp	L141	 #
LVL159:
	.p2align 4,,10
L117:
	.loc 1 37 0
	movl	$LC11, (%esp)	 #,
	call	__ZN3stk3con6printsEPKcz	 #
LVL160:
	jmp	L142	 #
	.p2align 4,,10
L120:
	movl	$LC11, (%esp)	 #,
	call	__ZN3stk3con6printsEPKcz	 #
LVL161:
	jmp	L143	 #
	.p2align 4,,10
L123:
	movl	$LC11, (%esp)	 #,
	call	__ZN3stk3con6printsEPKcz	 #
LVL162:
	jmp	L144	 #
LBE62:
LBE63:
	.cfi_endproc
LFE702:
	.section	.text.unlikely,"x"
LCOLDE12:
	.text
LHOTE12:
	.section	.text.unlikely,"x"
LCOLDB13:
	.text
LHOTB13:
	.p2align 4,,15
	.globl	__ZN3stk11compression14uncompress_LZSEPvjPKv@12
	.def	__ZN3stk11compression14uncompress_LZSEPvjPKv@12;	.scl	2;	.type	32;	.endef
__ZN3stk11compression14uncompress_LZSEPvjPKv@12:
LFB704:
	.loc 1 205 0
	.cfi_startproc
LVL163:
	pushl	%ebp	 #
	.cfi_def_cfa_offset 8
	.cfi_offset 5, -8
	pushl	%edi	 #
	.cfi_def_cfa_offset 12
	.cfi_offset 7, -12
	pushl	%esi	 #
	.cfi_def_cfa_offset 16
	.cfi_offset 6, -16
	pushl	%ebx	 #
	.cfi_def_cfa_offset 20
	.cfi_offset 3, -20
	subl	$748, %esp	 #,
	.cfi_def_cfa_offset 768
	.loc 1 205 0
	movl	768(%esp), %ebx	 # a_dst_ptr, a_dst_ptr
LBB64:
	.loc 1 212 0
	movl	772(%esp), %esi	 # a_count, ptrd_end
	.loc 1 257 0
	leal	504(%esp), %edi	 #, tmp141
LBE64:
	.loc 1 205 0
	movl	776(%esp), %ebp	 # a_src_ptr, a_src_ptr
LVL164:
LBB65:
	.loc 1 212 0
	addl	%ebx, %esi	 # a_dst_ptr, ptrd_end
LVL165:
	.loc 1 223 0
	cmpl	%esi, %ebx	 # ptrd_end, a_dst_ptr
	jb	L184	 #,
	jmp	L156	 #
LVL166:
	.p2align 4,,10
L193:
	.loc 1 232 0
	cmpb	$2, %al	 #, hdr
	je	L167	 #,
	.loc 1 237 0
	andl	$15, %edx	 #, hdr
LVL167:
	.loc 1 238 0
	cmpb	$7, %dl	 #, hdr
	je	L166	 #,
	.loc 1 240 0
	cmpb	$3, %dl	 #, hdr
	je	L164	 #,
	.loc 1 242 0
	cmpb	$11, %dl	 #, hdr
	jne	L156	 #,
L161:
LVL168:
L167:
	.loc 1 287 0
	leal	508(%esp), %ecx	 #, tmp145
	movl	%ebp, 8(%esp)	 # a_src_ptr,
	movl	%edi, (%esp)	 # tmp141,
	movl	%ecx, 4(%esp)	 # tmp145,
	call	__ZN3stk11file_header21__lzstv4_header_coder10dup_decodeEPjS2_PKv@12	 #
	.cfi_def_cfa_offset 756
LVL169:
	subl	$12, %esp	 #,
	.cfi_def_cfa_offset 768
	.loc 1 288 0
	movl	%ebx, %ecx	 # a_dst_ptr, D.30507
	.loc 1 287 0
	movsbl	%al, %edx	 # D.30502, D.30503
	.loc 1 288 0
	subl	508(%esp), %ecx	 # ofs, D.30507
	movl	504(%esp), %eax	 # len, len
	.loc 1 287 0
	addl	%edx, %ebp	 # D.30503, a_src_ptr
LVL170:
	.loc 1 288 0
	movl	%ebx, (%esp)	 # a_dst_ptr,
	movl	%eax, 8(%esp)	 # len,
	movl	%ecx, 4(%esp)	 # D.30507,
	call	__ZN3stk3mem3movEPvPKvj@12	 #
	.cfi_def_cfa_offset 756
LVL171:
	subl	$12, %esp	 #,
	.cfi_def_cfa_offset 768
	.loc 1 289 0
	addl	504(%esp), %ebx	 # len, a_dst_ptr
LVL172:
L165:
	.loc 1 223 0
	cmpl	%ebx, %esi	 # a_dst_ptr, ptrd_end
	jbe	L156	 #,
L184:
	.loc 1 227 0
	movzbl	0(%ebp), %edx	 # MEM[(char *)a_src_ptr_62], D.30500
	movl	%edx, %eax	 # D.30500, hdr
	andl	$3, %eax	 #, hdr
LVL173:
	.loc 1 228 0
	cmpb	$1, %al	 #, hdr
	je	L166	 #,
	.loc 1 230 0
	testb	%al, %al	 # hdr
	jne	L193	 #,
L160:
LVL174:
L164:
	.loc 1 257 0
	movl	%ebp, 4(%esp)	 # a_src_ptr,
	movl	%edi, (%esp)	 # tmp141,
	call	__ZN3stk11file_header21__lzstv4_header_coder12plain_decodeEPjPKv@8	 #
	.cfi_def_cfa_offset 760
LVL175:
	subl	$8, %esp	 #,
	.cfi_def_cfa_offset 768
	movsbl	%al, %edx	 # D.30502, D.30503
	.loc 1 258 0
	movl	504(%esp), %eax	 # len, len
	.loc 1 257 0
	addl	%edx, %ebp	 # D.30503, ptrs
LVL176:
	.loc 1 258 0
	movl	%ebx, (%esp)	 # a_dst_ptr,
	movl	%ebp, 4(%esp)	 # ptrs,
	movl	%eax, 8(%esp)	 # len,
	call	__ZN3stk3mem3movEPvPKvj@12	 #
	.cfi_def_cfa_offset 756
LVL177:
	subl	$12, %esp	 #,
	.cfi_def_cfa_offset 768
	.loc 1 259 0
	movl	504(%esp), %ecx	 # len, D.30504
	.loc 1 260 0
	addl	%ecx, %ebx	 # D.30504, a_dst_ptr
LVL178:
	.loc 1 259 0
	addl	%ecx, %ebp	 # D.30504, a_src_ptr
LVL179:
	.loc 1 223 0
	cmpl	%ebx, %esi	 # a_dst_ptr, ptrd_end
	ja	L184	 #,
L162:
L169:
L170:
L171:
L156:
LBE65:
	.loc 1 300 0
	addl	$748, %esp	 #,
	.cfi_remember_state
	.cfi_def_cfa_offset 20
	popl	%ebx	 #
	.cfi_restore 3
	.cfi_def_cfa_offset 16
LVL180:
	popl	%esi	 #
	.cfi_restore 6
	.cfi_def_cfa_offset 12
LVL181:
	popl	%edi	 #
	.cfi_restore 7
	.cfi_def_cfa_offset 8
	popl	%ebp	 #
	.cfi_restore 5
	.cfi_def_cfa_offset 4
LVL182:
	ret	$12	 #
L159:
LVL183:
	.p2align 4,,10
L166:
	.cfi_restore_state
LBB66:
	.loc 1 271 0
	leal	496(%esp), %edx	 #, tmp126
	leal	500(%esp), %eax	 #, tmp127
	movl	%ebp, 8(%esp)	 # a_src_ptr,
	movl	%edx, 4(%esp)	 # tmp126,
	movl	%eax, (%esp)	 # tmp127,
	call	__ZN3stk11file_header21__lzstv4_header_coder14pattern_decodeEPjS2_PKv@12	 #
	.cfi_def_cfa_offset 756
LVL184:
	subl	$12, %esp	 #,
	.cfi_def_cfa_offset 768
	movsbl	%al, %ecx	 # D.30502, D.30503
	.loc 1 272 0
	movsbl	496(%esp), %eax	 # siz, siz
	movl	500(%esp), %edx	 # cnt, cnt
	.loc 1 271 0
	addl	%ecx, %ebp	 # D.30503, ptrs
LVL185:
	.loc 1 272 0
	movl	%ebp, 4(%esp)	 # ptrs,
	movl	%ebx, (%esp)	 # a_dst_ptr,
	movl	%edx, 12(%esp)	 # cnt,
	movl	%eax, 8(%esp)	 # siz,
	call	__ZN3stk3mem5setexEPvPKvaj@16	 #
	.cfi_def_cfa_offset 752
LVL186:
	subl	$16, %esp	 #,
	.cfi_def_cfa_offset 768
	.loc 1 273 0
	movl	496(%esp), %ecx	 # siz, D.30504
	addl	%ecx, %ebp	 # D.30504, a_src_ptr
LVL187:
	.loc 1 274 0
	imull	500(%esp), %ecx	 # cnt, D.30504
	addl	%ecx, %ebx	 # D.30504, a_dst_ptr
LVL188:
	.loc 1 275 0
	jmp	L165	 #
LBE66:
	.cfi_endproc
LFE704:
	.section	.text.unlikely,"x"
LCOLDE13:
	.text
LHOTE13:
	.section .rdata,"dr"
LC14:
	.ascii "\0\0\0\0\0"
	.section	.text.unlikely,"x"
LCOLDB15:
	.text
LHOTB15:
	.p2align 4,,15
	.globl	__ZN3stk11compression12compress_HUFEPvPKvjj@16
	.def	__ZN3stk11compression12compress_HUFEPvPKvjj@16;	.scl	2;	.type	32;	.endef
__ZN3stk11compression12compress_HUFEPvPKvjj@16:
LFB705:
	.loc 1 304 0
	.cfi_startproc
	.cfi_personality 0,___gxx_personality_v0
	.cfi_lsda 0,LLSDA705
LVL189:
	pushl	%ebp	 #
	.cfi_def_cfa_offset 8
	.cfi_offset 5, -8
	movl	%esp, %ebp	 #,
	.cfi_def_cfa_register 5
LVL190:
	pushl	%edi	 #
	pushl	%esi	 #
	pushl	%ebx	 #
	subl	$748, %esp	 #,
	.cfi_offset 7, -12
	.cfi_offset 6, -16
	.cfi_offset 3, -20
LBB67:
	.loc 1 310 0
	movl	12(%ebp), %eax	 # a_src_ptr, ptrs_end
	addl	16(%ebp), %eax	 # a_count, ptrs_end
LBB68:
LBB69:
	.loc 2 74 0
	movl	$12, (%esp)	 #,
LBE69:
LBE68:
	.loc 1 310 0
	movl	%eax, %edi	 # ptrs_end, ptrs_end
LVL191:
LEHB4:
LBB71:
LBB70:
	.loc 2 74 0
	call	__ZN3stk3mem5allocEj@4	 #
LEHE4:
LVL192:
	subl	$4, %esp	 #,
	movl	%eax, %esi	 #, D.30519
LBE70:
LBE71:
	movl	%eax, (%esp)	 # D.30519,
LEHB5:
	call	__ZN3stk11compression17__huff_compressorC1Ev@4	 #
LEHE5:
LVL193:
	subl	$4, %esp	 #,
LVL194:
	.loc 1 314 0
	movl	%esi, (%esp)	 # D.30519,
LEHB6:
	call	__ZN3stk11compression17__huff_compressor10initializeEv@4	 #
LVL195:
	subl	$4, %esp	 #,
	.loc 1 316 0
	cmpl	%edi, 12(%ebp)	 # ptrs_end, a_src_ptr
	jae	L199	 #,
	movl	12(%ebp), %ebx	 # a_src_ptr, tmp120
	.loc 1 318 0 discriminator 2
	movl	12(%ebp), %eax	 # a_src_ptr, tmp192
	movl	%edi, -256(%ebp)	 # ptrs_end, %sfp
	movl	8(%ebp), %edx	 # a_dst_ptr, tmp193
	notl	%ebx	 # tmp120
	addl	%edi, %ebx	 # ptrs_end, tmp119
	movsbl	(%eax), %edi	 # MEM[base: a_src_ptr_48, offset: 0B], MEM[base: a_src_ptr_48, offset: 0B]
LVL196:
	movl	%edx, 4(%esp)	 # tmp193,
	movl	$0, 8(%esp)	 #,
	movl	%esi, (%esp)	 # D.30519,
	andl	$3, %ebx	 #, tmp121
	movl	%edi, 12(%esp)	 # MEM[base: a_src_ptr_48, offset: 0B],
	call	__ZN3stk11compression17__huff_compressor6encodeEPaaa@16	 #
LVL197:
	.loc 1 316 0 discriminator 2
	movl	12(%ebp), %edi	 # a_src_ptr, tmp195
	.loc 1 318 0 discriminator 2
	movsbl	%al, %ecx	 # D.30516, D.30515
LVL198:
	subl	$16, %esp	 #,
	.loc 1 319 0 discriminator 2
	movl	%ecx, %edx	 # D.30515, D.30515
	.loc 1 320 0 discriminator 2
	andl	$7, %ecx	 #, ptrd_bit
LVL199:
	.loc 1 319 0 discriminator 2
	sarl	$3, %edx	 #, D.30515
LVL200:
	addl	8(%ebp), %edx	 # a_dst_ptr, a_dst_ptr
LVL201:
	.loc 1 316 0 discriminator 2
	addl	$1, %edi	 #, a_src_ptr
	cmpl	-256(%ebp), %edi	 # %sfp, a_src_ptr
	je	L221	 #,
	testl	%ebx, %ebx	 # tmp121
	je	L224	 #,
	cmpl	$1, %ebx	 #, tmp121
	je	L215	 #,
	cmpl	$2, %ebx	 #, tmp121
	je	L216	 #,
	.loc 1 318 0
	movsbl	%cl, %ebx	 # ptrd_bit, D.30515
	movsbl	(%edi), %ecx	 # MEM[base: a_src_ptr_48, offset: 0B], MEM[base: a_src_ptr_48, offset: 0B]
	movl	%edx, 4(%esp)	 # a_dst_ptr,
	movl	%ebx, 8(%esp)	 # D.30515,
	movl	%esi, (%esp)	 # D.30519,
	movl	%edx, -252(%ebp)	 # a_dst_ptr, %sfp
	movl	%ecx, 12(%esp)	 # MEM[base: a_src_ptr_48, offset: 0B],
	call	__ZN3stk11compression17__huff_compressor6encodeEPaaa@16	 #
LVL202:
	movsbl	%al, %eax	 # D.30516, D.30515
	.loc 1 319 0
	movl	-252(%ebp), %edx	 # %sfp, a_dst_ptr
	.loc 1 318 0
	subl	$16, %esp	 #,
	addl	%eax, %ebx	 # D.30515, D.30515
LVL203:
	.loc 1 319 0
	movsbl	%bl, %edi	 # D.30515, D.30515
	.loc 1 320 0
	movl	%ebx, %ecx	 # D.30515, ptrd_bit
	.loc 1 319 0
	sarl	$3, %edi	 #, D.30515
	.loc 1 320 0
	andl	$7, %ecx	 #, ptrd_bit
	.loc 1 319 0
	addl	%edi, %edx	 # D.30515, a_dst_ptr
LVL204:
	.loc 1 316 0
	movl	12(%ebp), %edi	 # a_src_ptr, tmp212
	addl	$2, %edi	 #, a_src_ptr
L216:
	.loc 1 318 0
	movsbl	%cl, %ebx	 # ptrd_bit, D.30515
	movsbl	(%edi), %ecx	 # MEM[base: a_src_ptr_48, offset: 0B], MEM[base: a_src_ptr_48, offset: 0B]
	movl	%edx, 4(%esp)	 # a_dst_ptr,
LVL205:
	movl	%ebx, 8(%esp)	 # D.30515,
	movl	%esi, (%esp)	 # D.30519,
	.loc 1 316 0
	addl	$1, %edi	 #, a_src_ptr
	.loc 1 318 0
	movl	%edx, -252(%ebp)	 # a_dst_ptr, %sfp
	movl	%ecx, 12(%esp)	 # MEM[base: a_src_ptr_48, offset: 0B],
	call	__ZN3stk11compression17__huff_compressor6encodeEPaaa@16	 #
LVL206:
	movsbl	%al, %edx	 # D.30516, D.30515
	subl	$16, %esp	 #,
	addl	%edx, %ebx	 # D.30515, D.30515
LVL207:
	.loc 1 319 0
	movl	-252(%ebp), %edx	 # %sfp, a_dst_ptr
	movsbl	%bl, %eax	 # D.30515, D.30515
	.loc 1 320 0
	movl	%ebx, %ecx	 # D.30515, ptrd_bit
	.loc 1 319 0
	sarl	$3, %eax	 #, D.30515
	.loc 1 320 0
	andl	$7, %ecx	 #, ptrd_bit
	.loc 1 319 0
	addl	%eax, %edx	 # D.30515, a_dst_ptr
LVL208:
L215:
	.loc 1 318 0
	movsbl	%cl, %ebx	 # ptrd_bit, D.30515
	movsbl	(%edi), %ecx	 # MEM[base: a_src_ptr_48, offset: 0B], MEM[base: a_src_ptr_48, offset: 0B]
	movl	%edx, 4(%esp)	 # a_dst_ptr,
	movl	%ebx, 8(%esp)	 # D.30515,
	movl	%esi, (%esp)	 # D.30519,
	.loc 1 316 0
	addl	$1, %edi	 #, a_src_ptr
	.loc 1 318 0
	movl	%edx, -252(%ebp)	 # a_dst_ptr, %sfp
	movl	%ecx, 12(%esp)	 # MEM[base: a_src_ptr_48, offset: 0B],
	call	__ZN3stk11compression17__huff_compressor6encodeEPaaa@16	 #
LVL209:
	movsbl	%al, %edx	 # D.30516, D.30515
	subl	$16, %esp	 #,
	addl	%edx, %ebx	 # D.30515, D.30515
LVL210:
	.loc 1 319 0
	movl	-252(%ebp), %edx	 # %sfp, a_dst_ptr
	movsbl	%bl, %eax	 # D.30515, D.30515
	.loc 1 320 0
	movl	%ebx, %ecx	 # D.30515, ptrd_bit
	.loc 1 319 0
	sarl	$3, %eax	 #, D.30515
	.loc 1 320 0
	andl	$7, %ecx	 #, ptrd_bit
	.loc 1 319 0
	addl	%eax, %edx	 # D.30515, a_dst_ptr
LVL211:
	.loc 1 316 0
	cmpl	-256(%ebp), %edi	 # %sfp, a_src_ptr
	je	L221	 #,
L224:
	movl	%edx, -252(%ebp)	 # a_dst_ptr, %sfp
	movl	%ecx, %ebx	 # ptrd_bit, ptrd_bit
L196:
	.loc 1 318 0 discriminator 2
	movsbl	(%edi), %eax	 # MEM[base: a_src_ptr_48, offset: 0B], MEM[base: a_src_ptr_48, offset: 0B]
	movl	-252(%ebp), %edx	 # %sfp, a_dst_ptr
	movsbl	%bl, %ebx	 # ptrd_bit, D.30515
	movl	%ebx, 8(%esp)	 # D.30515,
	movl	%esi, (%esp)	 # D.30519,
	.loc 1 316 0 discriminator 2
	addl	$4, %edi	 #, a_src_ptr
	.loc 1 318 0 discriminator 2
	movl	%edx, 4(%esp)	 # a_dst_ptr,
	movl	%eax, 12(%esp)	 # MEM[base: a_src_ptr_48, offset: 0B],
	call	__ZN3stk11compression17__huff_compressor6encodeEPaaa@16	 #
LVL212:
	movsbl	%al, %ecx	 # D.30516, D.30515
	movsbl	-3(%edi), %eax	 # MEM[base: a_src_ptr_48, offset: 0B], MEM[base: a_src_ptr_48, offset: 0B]
	subl	$16, %esp	 #,
	addl	%ecx, %ebx	 # D.30515, D.30515
LVL213:
	movl	%esi, (%esp)	 # D.30519,
	.loc 1 319 0 discriminator 2
	movsbl	%bl, %edx	 # D.30515, D.30515
	.loc 1 318 0 discriminator 2
	andl	$7, %ebx	 #, D.30515
	.loc 1 319 0 discriminator 2
	sarl	$3, %edx	 #, D.30515
	addl	-252(%ebp), %edx	 # %sfp, a_dst_ptr
	.loc 1 318 0 discriminator 2
	movl	%ebx, 8(%esp)	 # D.30515,
	movl	%eax, 12(%esp)	 # MEM[base: a_src_ptr_48, offset: 0B],
	movl	%edx, 4(%esp)	 # a_dst_ptr,
	movl	%edx, -252(%ebp)	 # a_dst_ptr, %sfp
	call	__ZN3stk11compression17__huff_compressor6encodeEPaaa@16	 #
LVL214:
	movsbl	%al, %ecx	 # D.30516, D.30515
	.loc 1 319 0 discriminator 2
	movl	-252(%ebp), %edx	 # %sfp, a_dst_ptr
	.loc 1 318 0 discriminator 2
	subl	$16, %esp	 #,
	addl	%ecx, %ebx	 # D.30515, D.30515
LVL215:
	movsbl	-2(%edi), %ecx	 # MEM[base: a_src_ptr_48, offset: 0B], MEM[base: a_src_ptr_48, offset: 0B]
	movl	%esi, (%esp)	 # D.30519,
	.loc 1 319 0 discriminator 2
	movsbl	%bl, %eax	 # D.30515, D.30515
	.loc 1 318 0 discriminator 2
	andl	$7, %ebx	 #, D.30515
	.loc 1 319 0 discriminator 2
	sarl	$3, %eax	 #, D.30515
	.loc 1 318 0 discriminator 2
	movl	%ebx, 8(%esp)	 # D.30515,
	.loc 1 319 0 discriminator 2
	addl	%eax, %edx	 # D.30515, a_dst_ptr
	.loc 1 318 0 discriminator 2
	movl	%ecx, 12(%esp)	 # MEM[base: a_src_ptr_48, offset: 0B],
	movl	%edx, 4(%esp)	 # a_dst_ptr,
	movl	%edx, -252(%ebp)	 # a_dst_ptr, %sfp
	call	__ZN3stk11compression17__huff_compressor6encodeEPaaa@16	 #
LVL216:
	movsbl	%al, %eax	 # D.30516, D.30515
	.loc 1 319 0 discriminator 2
	movl	-252(%ebp), %ecx	 # %sfp, a_dst_ptr
	.loc 1 318 0 discriminator 2
	subl	$16, %esp	 #,
	addl	%eax, %ebx	 # D.30515, D.30515
LVL217:
	movsbl	-1(%edi), %eax	 # MEM[base: a_src_ptr_48, offset: 0B], MEM[base: a_src_ptr_48, offset: 0B]
	movl	%esi, (%esp)	 # D.30519,
	.loc 1 319 0 discriminator 2
	movsbl	%bl, %edx	 # D.30515, D.30515
	.loc 1 318 0 discriminator 2
	andl	$7, %ebx	 #, D.30515
	.loc 1 319 0 discriminator 2
	sarl	$3, %edx	 #, D.30515
	.loc 1 318 0 discriminator 2
	movl	%ebx, 8(%esp)	 # D.30515,
	.loc 1 319 0 discriminator 2
	addl	%edx, %ecx	 # D.30515, a_dst_ptr
	.loc 1 318 0 discriminator 2
	movl	%ecx, 4(%esp)	 # a_dst_ptr,
	movl	%eax, 12(%esp)	 # MEM[base: a_src_ptr_48, offset: 0B],
	movl	%ecx, -252(%ebp)	 # a_dst_ptr, %sfp
	call	__ZN3stk11compression17__huff_compressor6encodeEPaaa@16	 #
LVL218:
	movsbl	%al, %edx	 # D.30516, D.30515
	subl	$16, %esp	 #,
	addl	%edx, %ebx	 # D.30515, D.30515
LVL219:
	.loc 1 319 0 discriminator 2
	movl	-252(%ebp), %edx	 # %sfp, a_dst_ptr
	movsbl	%bl, %ecx	 # D.30515, D.30515
	.loc 1 320 0 discriminator 2
	andl	$7, %ebx	 #, ptrd_bit
	.loc 1 319 0 discriminator 2
	sarl	$3, %ecx	 #, D.30515
	addl	%ecx, %edx	 # D.30515, a_dst_ptr
	.loc 1 316 0 discriminator 2
	cmpl	-256(%ebp), %edi	 # %sfp, a_src_ptr
	.loc 1 319 0 discriminator 2
	movl	%edx, -252(%ebp)	 # a_dst_ptr, %sfp
LVL220:
	.loc 1 316 0 discriminator 2
	jne	L196	 #,
	movl	%ebx, %ecx	 # ptrd_bit, ptrd_bit
L221:
	movsbl	%cl, %ebx	 # ptrd_bit, D.30515
	movl	$32, %ecx	 #, tmp116
	subl	%ebx, %ecx	 # D.30515, D.30520
LVL221:
L195:
	.loc 1 324 0
	movl	%ebx, 4(%esp)	 # D.30515,
	movl	%ecx, 16(%esp)	 # D.30520,
	movl	$0, 12(%esp)	 #,
	movl	$LC14, 8(%esp)	 #,
	movl	%edx, (%esp)	 # a_dst_ptr,
	movl	%edx, -252(%ebp)	 # a_dst_ptr, %sfp
	call	__ZN3stk3mem7bit_movEPvhPKvhj@20	 #
LEHE6:
LVL222:
	.loc 1 325 0
	movl	-252(%ebp), %edi	 # %sfp, a_dst_ptr
	.loc 1 324 0
	subl	$20, %esp	 #,
	.loc 1 326 0
	testl	%esi, %esi	 # D.30519
	.loc 1 325 0
	leal	4(%edi), %ebx	 #, ptrd
LVL223:
	.loc 1 326 0
	je	L197	 #,
	.loc 1 326 0 is_stmt 0 discriminator 1
	movl	%esi, (%esp)	 # D.30519,
	call	__ZN3stk11compression17__huff_compressorD1Ev@8	 #
LVL224:
	subl	$4, %esp	 #,
LVL225:
LBB72:
LBB73:
	.loc 2 83 0 is_stmt 1 discriminator 1
	movl	%esi, (%esp)	 # D.30519,
	call	__ZN3stk3mem4freeEPv@4	 #
LVL226:
	subl	$4, %esp	 #,
LVL227:
L197:
LBE73:
LBE72:
	.loc 1 327 0
	movl	%ebx, %eax	 # ptrd, D.30515
	subl	8(%ebp), %eax	 # a_dst_ptr, D.30515
LBE67:
	.loc 1 328 0
	leal	-12(%ebp), %esp	 #,
	popl	%ebx	 #
	.cfi_remember_state
	.cfi_restore 3
LVL228:
	popl	%esi	 #
	.cfi_restore 6
LVL229:
	popl	%edi	 #
	.cfi_restore 7
LVL230:
	popl	%ebp	 #
	.cfi_restore 5
	.cfi_def_cfa 4, 4
	ret	$16	 #
LVL231:
	.p2align 4,,10
L199:
	.cfi_restore_state
LBB76:
	.loc 1 311 0
	movl	8(%ebp), %edx	 # a_dst_ptr, a_dst_ptr
	.loc 1 316 0
	movl	$32, %ecx	 #, D.30520
	xorl	%ebx, %ebx	 # D.30515
	jmp	L195	 #
LVL232:
L200:
LBB74:
LBB75:
	.loc 2 83 0
	movl	%esi, (%esp)	 # D.30519,
	movl	%eax, %edi	 #, tmp118
LVL233:
	call	__ZN3stk3mem4freeEPv@4	 #
LVL234:
	subl	$4, %esp	 #,
	movl	%edi, (%esp)	 # tmp118,
LEHB7:
	call	__Unwind_Resume	 #
LEHE7:
LVL235:
LBE75:
LBE74:
LBE76:
	.cfi_endproc
LFE705:
	.section	.gcc_except_table,"w"
LLSDA705:
	.byte	0xff
	.byte	0xff
	.byte	0x1
	.uleb128 LLSDACSE705-LLSDACSB705
LLSDACSB705:
	.uleb128 LEHB4-LFB705
	.uleb128 LEHE4-LEHB4
	.uleb128 0
	.uleb128 0
	.uleb128 LEHB5-LFB705
	.uleb128 LEHE5-LEHB5
	.uleb128 L200-LFB705
	.uleb128 0
	.uleb128 LEHB6-LFB705
	.uleb128 LEHE6-LEHB6
	.uleb128 0
	.uleb128 0
	.uleb128 LEHB7-LFB705
	.uleb128 LEHE7-LEHB7
	.uleb128 0
	.uleb128 0
LLSDACSE705:
	.text
	.section	.text.unlikely,"x"
LCOLDE15:
	.text
LHOTE15:
	.section	.text.unlikely,"x"
LCOLDB16:
	.text
LHOTB16:
	.p2align 4,,15
	.globl	__ZN3stk11compression14uncompress_HUFEPvjPKv@12
	.def	__ZN3stk11compression14uncompress_HUFEPvjPKv@12;	.scl	2;	.type	32;	.endef
__ZN3stk11compression14uncompress_HUFEPvjPKv@12:
LFB706:
	.loc 1 332 0
	.cfi_startproc
	.cfi_personality 0,___gxx_personality_v0
	.cfi_lsda 0,LLSDA706
LVL236:
	pushl	%ebp	 #
	.cfi_def_cfa_offset 8
	.cfi_offset 5, -8
	movl	%esp, %ebp	 #,
	.cfi_def_cfa_register 5
LVL237:
	pushl	%edi	 #
	pushl	%esi	 #
	pushl	%ebx	 #
	subl	$748, %esp	 #,
	.cfi_offset 7, -12
	.cfi_offset 6, -16
	.cfi_offset 3, -20
LBB77:
	.loc 1 340 0
	movl	8(%ebp), %eax	 # a_dst_ptr, ptrd_end
	addl	12(%ebp), %eax	 # a_count, ptrd_end
LBB78:
LBB79:
	.loc 2 74 0
	movl	$12, (%esp)	 #,
LBE79:
LBE78:
LBE77:
	.loc 1 332 0
	movl	16(%ebp), %ebx	 # a_src_ptr, a_src_ptr
LBB86:
	.loc 1 340 0
	movl	%eax, %edi	 # ptrd_end, ptrd_end
	movl	%eax, -252(%ebp)	 # ptrd_end, %sfp
LVL238:
LEHB8:
LBB81:
LBB80:
	.loc 2 74 0
	call	__ZN3stk3mem5allocEj@4	 #
LEHE8:
LVL239:
	subl	$4, %esp	 #,
	movl	%eax, %esi	 #, D.30531
LBE80:
LBE81:
	movl	%eax, (%esp)	 # D.30531,
LEHB9:
	call	__ZN3stk11compression17__huff_compressorC1Ev@4	 #
LEHE9:
LVL240:
	subl	$4, %esp	 #,
LVL241:
	.loc 1 343 0
	movl	%esi, (%esp)	 # D.30531,
LEHB10:
	call	__ZN3stk11compression17__huff_compressor10initializeEv@4	 #
LVL242:
	subl	$4, %esp	 #,
	.loc 1 345 0
	cmpl	%edi, 8(%ebp)	 # ptrd_end, a_dst_ptr
	jae	L231	 #,
	movl	8(%ebp), %ecx	 # a_dst_ptr, tmp104
	.loc 1 347 0
	movl	8(%ebp), %eax	 # a_dst_ptr, tmp165
	movl	%ebx, 8(%esp)	 # a_src_ptr,
	movl	$0, 12(%esp)	 #,
	movl	%esi, (%esp)	 # D.30531,
	notl	%ecx	 # tmp104
	addl	-252(%ebp), %ecx	 # %sfp, tmp103
	movl	%eax, 4(%esp)	 # tmp165,
	andl	$3, %ecx	 #, tmp105
	movl	%ecx, -256(%ebp)	 # tmp105, %sfp
	call	__ZN3stk11compression17__huff_compressor6decodeEPaPKaa@16	 #
LVL243:
	movsbl	%al, %eax	 # D.30529, D.30528
LVL244:
	subl	$16, %esp	 #,
	.loc 1 345 0
	movl	-256(%ebp), %edx	 # %sfp, tmp105
	.loc 1 348 0
	movl	%eax, %edi	 # D.30528, D.30528
LVL245:
	.loc 1 349 0
	andl	$7, %eax	 #, ptrs_bit
LVL246:
	.loc 1 348 0
	sarl	$3, %edi	 #, D.30528
LVL247:
	addl	%edi, %ebx	 # D.30528, a_src_ptr
LVL248:
	.loc 1 345 0
	movl	8(%ebp), %edi	 # a_dst_ptr, tmp167
	addl	$1, %edi	 #, a_dst_ptr
	cmpl	-252(%ebp), %edi	 # %sfp, a_dst_ptr
	je	L231	 #,
	testl	%edx, %edx	 # tmp105
	je	L234	 #,
	cmpl	$1, %edx	 #, tmp105
	je	L248	 #,
	cmpl	$2, %edx	 #, tmp105
	je	L249	 #,
	.loc 1 347 0
	movsbl	%al, %ecx	 # ptrs_bit, D.30528
	movl	%ebx, 8(%esp)	 # a_src_ptr,
	movl	%edi, 4(%esp)	 # a_dst_ptr,
	movl	%ecx, 12(%esp)	 # D.30528,
	movl	%esi, (%esp)	 # D.30531,
	movl	%ecx, -256(%ebp)	 # D.30528, %sfp
	call	__ZN3stk11compression17__huff_compressor6decodeEPaPKaa@16	 #
LVL249:
	movl	-256(%ebp), %edi	 # %sfp, D.30528
	movsbl	%al, %eax	 # D.30529, D.30528
	.loc 1 345 0
	movl	8(%ebp), %ecx	 # a_dst_ptr, tmp182
	.loc 1 347 0
	subl	$16, %esp	 #,
	addl	%edi, %eax	 # D.30528, D.30528
LVL250:
	.loc 1 345 0
	leal	2(%ecx), %edi	 #, a_dst_ptr
	.loc 1 348 0
	movsbl	%al, %edx	 # D.30528, D.30528
	.loc 1 349 0
	andl	$7, %eax	 #, ptrs_bit
	.loc 1 348 0
	sarl	$3, %edx	 #, D.30528
	addl	%edx, %ebx	 # D.30528, a_src_ptr
LVL251:
L249:
	.loc 1 347 0
	movsbl	%al, %eax	 # ptrs_bit, D.30528
	movl	%ebx, 8(%esp)	 # a_src_ptr,
LVL252:
	movl	%edi, 4(%esp)	 # a_dst_ptr,
	movl	%eax, 12(%esp)	 # D.30528,
	movl	%esi, (%esp)	 # D.30531,
	.loc 1 345 0
	addl	$1, %edi	 #, a_dst_ptr
	.loc 1 347 0
	movl	%eax, -256(%ebp)	 # D.30528, %sfp
	call	__ZN3stk11compression17__huff_compressor6decodeEPaPKaa@16	 #
LVL253:
	movsbl	%al, %eax	 # D.30529, D.30528
	addl	-256(%ebp), %eax	 # %sfp, D.30528
LVL254:
	subl	$16, %esp	 #,
	.loc 1 348 0
	movsbl	%al, %edx	 # D.30528, D.30528
	.loc 1 349 0
	andl	$7, %eax	 #, ptrs_bit
	.loc 1 348 0
	sarl	$3, %edx	 #, D.30528
	addl	%edx, %ebx	 # D.30528, a_src_ptr
LVL255:
L248:
	.loc 1 347 0
	movsbl	%al, %ecx	 # ptrs_bit, D.30528
	movl	%ebx, 8(%esp)	 # a_src_ptr,
	movl	%edi, 4(%esp)	 # a_dst_ptr,
	movl	%ecx, 12(%esp)	 # D.30528,
	movl	%esi, (%esp)	 # D.30531,
	.loc 1 345 0
	addl	$1, %edi	 #, a_dst_ptr
	.loc 1 347 0
	movl	%ecx, -256(%ebp)	 # D.30528, %sfp
	call	__ZN3stk11compression17__huff_compressor6decodeEPaPKaa@16	 #
LVL256:
	movsbl	%al, %eax	 # D.30529, D.30528
	addl	-256(%ebp), %eax	 # %sfp, D.30528
LVL257:
	subl	$16, %esp	 #,
	.loc 1 348 0
	movsbl	%al, %edx	 # D.30528, D.30528
	.loc 1 349 0
	andl	$7, %eax	 #, ptrs_bit
	.loc 1 348 0
	sarl	$3, %edx	 #, D.30528
	addl	%edx, %ebx	 # D.30528, a_src_ptr
LVL258:
	.loc 1 345 0
	cmpl	-252(%ebp), %edi	 # %sfp, a_dst_ptr
	je	L231	 #,
L234:
	.loc 1 347 0 discriminator 2
	movsbl	%al, %ecx	 # ptrs_bit, D.30528
	movl	%ebx, 8(%esp)	 # a_src_ptr,
	movl	%edi, 4(%esp)	 # a_dst_ptr,
	movl	%ecx, 12(%esp)	 # D.30528,
	movl	%esi, (%esp)	 # D.30531,
	movl	%ecx, -256(%ebp)	 # D.30528, %sfp
	call	__ZN3stk11compression17__huff_compressor6decodeEPaPKaa@16	 #
LVL259:
	movl	-256(%ebp), %edx	 # %sfp, D.30528
	movsbl	%al, %eax	 # D.30529, D.30528
	subl	$16, %esp	 #,
	movl	%esi, (%esp)	 # D.30531,
	leal	(%eax,%edx), %ecx	 #, D.30528
LVL260:
	.loc 1 345 0 discriminator 2
	leal	1(%edi), %edx	 #, tmp106
	.loc 1 348 0 discriminator 2
	movsbl	%cl, %eax	 # D.30528, D.30528
	.loc 1 347 0 discriminator 2
	andl	$7, %ecx	 #, D.30528
	movl	%edx, 4(%esp)	 # tmp106,
	.loc 1 348 0 discriminator 2
	sarl	$3, %eax	 #, D.30528
	.loc 1 347 0 discriminator 2
	movl	%ecx, 12(%esp)	 # D.30528,
	movl	%ecx, -256(%ebp)	 # D.30528, %sfp
	.loc 1 348 0 discriminator 2
	addl	%eax, %ebx	 # D.30528, a_src_ptr
LVL261:
	.loc 1 347 0 discriminator 2
	movl	%ebx, 8(%esp)	 # a_src_ptr,
	call	__ZN3stk11compression17__huff_compressor6decodeEPaPKaa@16	 #
LVL262:
	movl	-256(%ebp), %edx	 # %sfp, D.30528
	movsbl	%al, %ecx	 # D.30529, D.30528
	subl	$16, %esp	 #,
	movl	%esi, (%esp)	 # D.30531,
	addl	%ecx, %edx	 # D.30528, D.30528
LVL263:
	.loc 1 345 0 discriminator 2
	leal	2(%edi), %ecx	 #, a_dst_ptr
	.loc 1 348 0 discriminator 2
	movsbl	%dl, %eax	 # D.30528, D.30528
	.loc 1 347 0 discriminator 2
	andl	$7, %edx	 #, D.30528
	.loc 1 348 0 discriminator 2
	sarl	$3, %eax	 #, D.30528
	.loc 1 347 0 discriminator 2
	movl	%edx, 12(%esp)	 # D.30528,
	movl	%ecx, 4(%esp)	 # a_dst_ptr,
	.loc 1 348 0 discriminator 2
	addl	%eax, %ebx	 # D.30528, a_src_ptr
LVL264:
	.loc 1 347 0 discriminator 2
	movl	%edx, -256(%ebp)	 # D.30528, %sfp
	movl	%ebx, 8(%esp)	 # a_src_ptr,
	call	__ZN3stk11compression17__huff_compressor6decodeEPaPKaa@16	 #
LVL265:
	movsbl	%al, %eax	 # D.30529, D.30528
	addl	-256(%ebp), %eax	 # %sfp, D.30528
LVL266:
	.loc 1 345 0 discriminator 2
	leal	3(%edi), %ecx	 #, a_dst_ptr
	.loc 1 347 0 discriminator 2
	subl	$16, %esp	 #,
	.loc 1 345 0 discriminator 2
	addl	$4, %edi	 #, a_dst_ptr
	.loc 1 347 0 discriminator 2
	movl	%ecx, 4(%esp)	 # a_dst_ptr,
	movl	%esi, (%esp)	 # D.30531,
	.loc 1 348 0 discriminator 2
	movsbl	%al, %edx	 # D.30528, D.30528
	.loc 1 347 0 discriminator 2
	andl	$7, %eax	 #, D.30528
	.loc 1 348 0 discriminator 2
	sarl	$3, %edx	 #, D.30528
	.loc 1 347 0 discriminator 2
	movl	%eax, 12(%esp)	 # D.30528,
	movl	%eax, -256(%ebp)	 # D.30528, %sfp
	.loc 1 348 0 discriminator 2
	addl	%edx, %ebx	 # D.30528, a_src_ptr
LVL267:
	.loc 1 347 0 discriminator 2
	movl	%ebx, 8(%esp)	 # a_src_ptr,
	call	__ZN3stk11compression17__huff_compressor6decodeEPaPKaa@16	 #
LEHE10:
LVL268:
	movsbl	%al, %eax	 # D.30529, D.30528
	addl	-256(%ebp), %eax	 # %sfp, D.30528
LVL269:
	subl	$16, %esp	 #,
	.loc 1 348 0 discriminator 2
	movsbl	%al, %edx	 # D.30528, D.30528
	.loc 1 349 0 discriminator 2
	andl	$7, %eax	 #, ptrs_bit
	.loc 1 348 0 discriminator 2
	sarl	$3, %edx	 #, D.30528
	addl	%edx, %ebx	 # D.30528, a_src_ptr
LVL270:
	.loc 1 345 0 discriminator 2
	cmpl	-252(%ebp), %edi	 # %sfp, a_dst_ptr
	jne	L234	 #,
LVL271:
L231:
	.loc 1 353 0
	testl	%esi, %esi	 # D.30531
	je	L226	 #,
	.loc 1 353 0 is_stmt 0 discriminator 1
	movl	%esi, (%esp)	 # D.30531,
	call	__ZN3stk11compression17__huff_compressorD1Ev@8	 #
LVL272:
	subl	$4, %esp	 #,
LVL273:
LBB82:
LBB83:
	.loc 2 83 0 is_stmt 1 discriminator 1
	movl	%esi, (%esp)	 # D.30531,
	call	__ZN3stk3mem4freeEPv@4	 #
LVL274:
	subl	$4, %esp	 #,
LVL275:
L226:
LBE83:
LBE82:
LBE86:
	.loc 1 354 0
	leal	-12(%ebp), %esp	 #,
	popl	%ebx	 #
	.cfi_remember_state
	.cfi_restore 3
	popl	%esi	 #
	.cfi_restore 6
LVL276:
	popl	%edi	 #
	.cfi_restore 7
	popl	%ebp	 #
	.cfi_restore 5
	.cfi_def_cfa 4, 4
	ret	$12	 #
LVL277:
L233:
	.cfi_restore_state
LBB87:
LBB84:
LBB85:
	.loc 2 83 0
	movl	%esi, (%esp)	 # D.30531,
	movl	%eax, %ebx	 #, tmp102
LVL278:
	call	__ZN3stk3mem4freeEPv@4	 #
LVL279:
	subl	$4, %esp	 #,
	movl	%ebx, (%esp)	 # tmp102,
LEHB11:
	call	__Unwind_Resume	 #
LEHE11:
LVL280:
LBE85:
LBE84:
LBE87:
	.cfi_endproc
LFE706:
	.section	.gcc_except_table,"w"
LLSDA706:
	.byte	0xff
	.byte	0xff
	.byte	0x1
	.uleb128 LLSDACSE706-LLSDACSB706
LLSDACSB706:
	.uleb128 LEHB8-LFB706
	.uleb128 LEHE8-LEHB8
	.uleb128 0
	.uleb128 0
	.uleb128 LEHB9-LFB706
	.uleb128 LEHE9-LEHB9
	.uleb128 L233-LFB706
	.uleb128 0
	.uleb128 LEHB10-LFB706
	.uleb128 LEHE10-LEHB10
	.uleb128 0
	.uleb128 0
	.uleb128 LEHB11-LFB706
	.uleb128 LEHE11-LEHB11
	.uleb128 0
	.uleb128 0
LLSDACSE706:
	.text
	.section	.text.unlikely,"x"
LCOLDE16:
	.text
LHOTE16:
	.section	.text.unlikely,"x"
LCOLDB17:
	.text
LHOTB17:
	.p2align 4,,15
	.globl	__ZN3stk11compression12compress_ARIEPvPKvjj@16
	.def	__ZN3stk11compression12compress_ARIEPvPKvjj@16;	.scl	2;	.type	32;	.endef
__ZN3stk11compression12compress_ARIEPvPKvjj@16:
LFB707:
	.loc 1 358 0
	.cfi_startproc
	.cfi_personality 0,___gxx_personality_v0
	.cfi_lsda 0,LLSDA707
LVL281:
	pushl	%ebp	 #
	.cfi_def_cfa_offset 8
	.cfi_offset 5, -8
	pushl	%edi	 #
	.cfi_def_cfa_offset 12
	.cfi_offset 7, -12
	pushl	%esi	 #
	.cfi_def_cfa_offset 16
	.cfi_offset 6, -16
	pushl	%ebx	 #
	.cfi_def_cfa_offset 20
	.cfi_offset 3, -20
	subl	$748, %esp	 #,
	.cfi_def_cfa_offset 768
LVL282:
	.loc 1 358 0
	movl	772(%esp), %ebp	 # a_src_ptr, a_src_ptr
LBB88:
	.loc 1 364 0
	movl	776(%esp), %eax	 # a_count, ptrs_end
LBB89:
LBB90:
	.loc 2 74 0
	movl	$32, (%esp)	 #,
LBE90:
LBE89:
	.loc 1 364 0
	addl	%ebp, %eax	 # a_src_ptr, ptrs_end
	movl	%eax, %edi	 # ptrs_end, ptrs_end
LVL283:
LEHB12:
LBB93:
LBB91:
	.loc 2 74 0
	call	__ZN3stk3mem5allocEj@4	 #
	.cfi_def_cfa_offset 764
LEHE12:
LVL284:
	subl	$4, %esp	 #,
	.cfi_def_cfa_offset 768
LBE91:
LBE93:
	movl	%eax, %ecx	 # D.30544,
LBB94:
LBB92:
	movl	%eax, %esi	 #, D.30544
LEHB13:
LBE92:
LBE94:
	call	__ZN3stk11compression16__ari_compressorC1Ev	 #
LEHE13:
LVL285:
	.loc 1 368 0
	movl	%esi, (%esp)	 # D.30544,
LEHB14:
	call	__ZN3stk11compression16__ari_compressor18initialize_encoderEv@4	 #
	.cfi_def_cfa_offset 764
LVL286:
	subl	$4, %esp	 #,
	.cfi_def_cfa_offset 768
	.loc 1 370 0
	cmpl	%edi, %ebp	 # ptrs_end, a_src_ptr
	jae	L259	 #,
	.loc 1 372 0 discriminator 2
	movzbl	0(%ebp), %ecx	 # MEM[base: a_src_ptr_60, offset: 0B], MEM[base: a_src_ptr_60, offset: 0B]
	movl	768(%esp), %eax	 # a_dst_ptr, tmp208
	movl	%ebp, %ebx	 # a_src_ptr, tmp136
	movl	$0, 8(%esp)	 #,
	movl	%esi, (%esp)	 # D.30544,
	notl	%ebx	 # tmp136
	movl	%edi, 504(%esp)	 # ptrs_end, %sfp
	addl	%edi, %ebx	 # ptrs_end, tmp135
	.loc 1 370 0 discriminator 2
	leal	1(%ebp), %edi	 #, a_src_ptr
LVL287:
	.loc 1 372 0 discriminator 2
	movl	%eax, 4(%esp)	 # tmp208,
	andl	$3, %ebx	 #, tmp137
	movl	%ecx, 12(%esp)	 # MEM[base: a_src_ptr_60, offset: 0B],
	call	__ZN3stk11compression16__ari_compressor6encodeEPjhh@16	 #
	.cfi_def_cfa_offset 752
LVL288:
	movzbl	%al, %ecx	 # D.30540, D.30538
LVL289:
	subl	$16, %esp	 #,
	.cfi_def_cfa_offset 768
	.loc 1 373 0 discriminator 2
	movsbl	%cl, %edx	 # D.30538, D.30538
	.loc 1 374 0 discriminator 2
	andl	$7, %ecx	 #, ptrd_bit
LVL290:
	.loc 1 373 0 discriminator 2
	sarl	$3, %edx	 #, D.30538
	addl	768(%esp), %edx	 # a_dst_ptr, a_dst_ptr
LVL291:
	.loc 1 370 0 discriminator 2
	cmpl	504(%esp), %edi	 # %sfp, a_src_ptr
	je	L281	 #,
	testl	%ebx, %ebx	 # tmp137
	je	L284	 #,
	cmpl	$1, %ebx	 #, tmp137
	je	L275	 #,
	cmpl	$2, %ebx	 #, tmp137
	je	L276	 #,
	.loc 1 372 0
	movzbl	(%edi), %edi	 # MEM[base: a_src_ptr_60, offset: 0B], MEM[base: a_src_ptr_60, offset: 0B]
	movsbl	%cl, %ebx	 # ptrd_bit, D.30538
	movl	%edx, 4(%esp)	 # a_dst_ptr,
	movl	%ebx, 8(%esp)	 # D.30538,
	movl	%esi, (%esp)	 # D.30544,
	movl	%edx, 508(%esp)	 # a_dst_ptr, %sfp
	movl	%edi, 12(%esp)	 # MEM[base: a_src_ptr_60, offset: 0B],
	.loc 1 370 0
	leal	2(%ebp), %edi	 #, a_src_ptr
	.loc 1 372 0
	call	__ZN3stk11compression16__ari_compressor6encodeEPjhh@16	 #
	.cfi_def_cfa_offset 752
LVL292:
	movzbl	%al, %edx	 # D.30540, D.30538
	subl	$16, %esp	 #,
	.cfi_def_cfa_offset 768
	addl	%edx, %ebx	 # D.30538, D.30538
LVL293:
	.loc 1 373 0
	movl	508(%esp), %edx	 # %sfp, a_dst_ptr
	movsbl	%bl, %ecx	 # D.30538, D.30538
	sarl	$3, %ecx	 #, D.30538
	addl	%ecx, %edx	 # D.30538, a_dst_ptr
	.loc 1 374 0
	movl	%ebx, %ecx	 # D.30538, ptrd_bit
	andl	$7, %ecx	 #, ptrd_bit
LVL294:
L276:
	.loc 1 372 0
	movzbl	(%edi), %ebp	 # MEM[base: a_src_ptr_60, offset: 0B], MEM[base: a_src_ptr_60, offset: 0B]
	movsbl	%cl, %ebx	 # ptrd_bit, D.30538
	movl	%edx, 4(%esp)	 # a_dst_ptr,
	movl	%ebx, 8(%esp)	 # D.30538,
	movl	%esi, (%esp)	 # D.30544,
	.loc 1 370 0
	addl	$1, %edi	 #, a_src_ptr
	.loc 1 372 0
	movl	%edx, 508(%esp)	 # a_dst_ptr, %sfp
	movl	%ebp, 12(%esp)	 # MEM[base: a_src_ptr_60, offset: 0B],
	call	__ZN3stk11compression16__ari_compressor6encodeEPjhh@16	 #
	.cfi_def_cfa_offset 752
LVL295:
	subl	$16, %esp	 #,
	.cfi_def_cfa_offset 768
	movzbl	%al, %eax	 # D.30540, D.30538
	addl	%eax, %ebx	 # D.30538, D.30538
LVL296:
	.loc 1 373 0
	movl	508(%esp), %edx	 # %sfp, a_dst_ptr
	movsbl	%bl, %ecx	 # D.30538, D.30538
	sarl	$3, %ecx	 #, D.30538
	addl	%ecx, %edx	 # D.30538, a_dst_ptr
	.loc 1 374 0
	movl	%ebx, %ecx	 # D.30538, ptrd_bit
	andl	$7, %ecx	 #, ptrd_bit
LVL297:
L275:
	.loc 1 372 0
	movzbl	(%edi), %ebp	 # MEM[base: a_src_ptr_60, offset: 0B], MEM[base: a_src_ptr_60, offset: 0B]
	movsbl	%cl, %ebx	 # ptrd_bit, D.30538
	movl	%edx, 4(%esp)	 # a_dst_ptr,
	movl	%ebx, 8(%esp)	 # D.30538,
	movl	%esi, (%esp)	 # D.30544,
	.loc 1 370 0
	addl	$1, %edi	 #, a_src_ptr
	.loc 1 372 0
	movl	%edx, 508(%esp)	 # a_dst_ptr, %sfp
	movl	%ebp, 12(%esp)	 # MEM[base: a_src_ptr_60, offset: 0B],
	call	__ZN3stk11compression16__ari_compressor6encodeEPjhh@16	 #
	.cfi_def_cfa_offset 752
LVL298:
	movzbl	%al, %edx	 # D.30540, D.30538
	subl	$16, %esp	 #,
	.cfi_def_cfa_offset 768
	addl	%edx, %ebx	 # D.30538, D.30538
LVL299:
	.loc 1 373 0
	movl	508(%esp), %edx	 # %sfp, a_dst_ptr
	movsbl	%bl, %eax	 # D.30538, D.30538
	.loc 1 374 0
	movl	%ebx, %ecx	 # D.30538, ptrd_bit
	.loc 1 373 0
	sarl	$3, %eax	 #, D.30538
	.loc 1 374 0
	andl	$7, %ecx	 #, ptrd_bit
	.loc 1 373 0
	addl	%eax, %edx	 # D.30538, a_dst_ptr
LVL300:
	.loc 1 370 0
	cmpl	504(%esp), %edi	 # %sfp, a_src_ptr
	je	L281	 #,
L284:
	movl	%edx, %ebp	 # a_dst_ptr, a_dst_ptr
	movl	%ecx, %ebx	 # ptrd_bit, ptrd_bit
L256:
	.loc 1 372 0 discriminator 2
	movzbl	(%edi), %eax	 # MEM[base: a_src_ptr_60, offset: 0B], MEM[base: a_src_ptr_60, offset: 0B]
	movsbl	%bl, %ebx	 # ptrd_bit, D.30538
	movl	%ebp, 4(%esp)	 # a_dst_ptr,
	movl	%ebx, 8(%esp)	 # D.30538,
	movl	%esi, (%esp)	 # D.30544,
	.loc 1 370 0 discriminator 2
	addl	$4, %edi	 #, a_src_ptr
	.loc 1 372 0 discriminator 2
	movl	%eax, 12(%esp)	 # MEM[base: a_src_ptr_60, offset: 0B],
	call	__ZN3stk11compression16__ari_compressor6encodeEPjhh@16	 #
	.cfi_def_cfa_offset 752
LVL301:
	movzbl	%al, %edx	 # D.30540, D.30538
	movzbl	-3(%edi), %eax	 # MEM[base: a_src_ptr_60, offset: 0B], MEM[base: a_src_ptr_60, offset: 0B]
	subl	$16, %esp	 #,
	.cfi_def_cfa_offset 768
	addl	%edx, %ebx	 # D.30538, D.30538
LVL302:
	movl	%esi, (%esp)	 # D.30544,
	.loc 1 373 0 discriminator 2
	movsbl	%bl, %ecx	 # D.30538, D.30538
	.loc 1 372 0 discriminator 2
	andl	$7, %ebx	 #, D.30538
	.loc 1 373 0 discriminator 2
	sarl	$3, %ecx	 #, D.30538
	.loc 1 372 0 discriminator 2
	movl	%ebx, 8(%esp)	 # D.30538,
	.loc 1 373 0 discriminator 2
	addl	%ecx, %ebp	 # D.30538, a_dst_ptr
	.loc 1 372 0 discriminator 2
	movl	%eax, 12(%esp)	 # MEM[base: a_src_ptr_60, offset: 0B],
	movl	%ebp, 4(%esp)	 # a_dst_ptr,
	call	__ZN3stk11compression16__ari_compressor6encodeEPjhh@16	 #
	.cfi_def_cfa_offset 752
LVL303:
	movzbl	%al, %edx	 # D.30540, D.30538
	movzbl	-2(%edi), %eax	 # MEM[base: a_src_ptr_60, offset: 0B], MEM[base: a_src_ptr_60, offset: 0B]
	subl	$16, %esp	 #,
	.cfi_def_cfa_offset 768
	addl	%edx, %ebx	 # D.30538, D.30538
LVL304:
	movl	%esi, (%esp)	 # D.30544,
	.loc 1 373 0 discriminator 2
	movsbl	%bl, %ecx	 # D.30538, D.30538
	.loc 1 372 0 discriminator 2
	andl	$7, %ebx	 #, D.30538
	.loc 1 373 0 discriminator 2
	sarl	$3, %ecx	 #, D.30538
	.loc 1 372 0 discriminator 2
	movl	%ebx, 8(%esp)	 # D.30538,
	.loc 1 373 0 discriminator 2
	addl	%ecx, %ebp	 # D.30538, a_dst_ptr
	.loc 1 372 0 discriminator 2
	movl	%eax, 12(%esp)	 # MEM[base: a_src_ptr_60, offset: 0B],
	movl	%ebp, 4(%esp)	 # a_dst_ptr,
	call	__ZN3stk11compression16__ari_compressor6encodeEPjhh@16	 #
	.cfi_def_cfa_offset 752
LVL305:
	movzbl	%al, %edx	 # D.30540, D.30538
	movzbl	-1(%edi), %eax	 # MEM[base: a_src_ptr_60, offset: 0B], MEM[base: a_src_ptr_60, offset: 0B]
	subl	$16, %esp	 #,
	.cfi_def_cfa_offset 768
	addl	%edx, %ebx	 # D.30538, D.30538
LVL306:
	movl	%esi, (%esp)	 # D.30544,
	.loc 1 373 0 discriminator 2
	movsbl	%bl, %ecx	 # D.30538, D.30538
	.loc 1 372 0 discriminator 2
	andl	$7, %ebx	 #, D.30538
	.loc 1 373 0 discriminator 2
	sarl	$3, %ecx	 #, D.30538
	.loc 1 372 0 discriminator 2
	movl	%ebx, 8(%esp)	 # D.30538,
	.loc 1 373 0 discriminator 2
	addl	%ecx, %ebp	 # D.30538, a_dst_ptr
	.loc 1 372 0 discriminator 2
	movl	%eax, 12(%esp)	 # MEM[base: a_src_ptr_60, offset: 0B],
	movl	%ebp, 4(%esp)	 # a_dst_ptr,
	call	__ZN3stk11compression16__ari_compressor6encodeEPjhh@16	 #
	.cfi_def_cfa_offset 752
LVL307:
	movzbl	%al, %edx	 # D.30540, D.30538
	subl	$16, %esp	 #,
	.cfi_def_cfa_offset 768
	addl	%edx, %ebx	 # D.30538, D.30538
LVL308:
	.loc 1 373 0 discriminator 2
	movsbl	%bl, %ecx	 # D.30538, D.30538
	.loc 1 374 0 discriminator 2
	andl	$7, %ebx	 #, ptrd_bit
	.loc 1 373 0 discriminator 2
	sarl	$3, %ecx	 #, D.30538
	addl	%ecx, %ebp	 # D.30538, a_dst_ptr
LVL309:
	.loc 1 370 0 discriminator 2
	cmpl	504(%esp), %edi	 # %sfp, a_src_ptr
	jne	L256	 #,
	movl	%ebp, %edx	 # a_dst_ptr, a_dst_ptr
	movl	%ebx, %ecx	 # ptrd_bit, ptrd_bit
L281:
	movsbl	%cl, %ebx	 # ptrd_bit, D.30538
LVL310:
L255:
	.loc 1 378 0
	movl	%ebx, 8(%esp)	 # D.30538,
	movl	%edx, 4(%esp)	 # a_dst_ptr,
	movl	%esi, (%esp)	 # D.30544,
	movl	%edx, 504(%esp)	 # a_dst_ptr, %sfp
	call	__ZN3stk11compression16__ari_compressor13flush_encoderEPjh@12	 #
	.cfi_def_cfa_offset 756
LVL311:
	subl	$12, %esp	 #,
	.cfi_def_cfa_offset 768
	movzbl	%al, %eax	 # D.30540, D.30538
	addl	%ebx, %eax	 # D.30538, D.30538
LVL312:
	.loc 1 379 0
	movl	504(%esp), %ebp	 # %sfp, a_dst_ptr
	.loc 1 381 0
	movl	$32, %ebx	 #, tmp132
	.loc 1 379 0
	movsbl	%al, %edi	 # D.30538, D.30538
	.loc 1 381 0
	andl	$7, %eax	 #, D.30538
LVL313:
	movl	$0, 12(%esp)	 #,
	.loc 1 379 0
	sarl	$3, %edi	 #, D.30538
LVL314:
	.loc 1 381 0
	subl	%eax, %ebx	 # D.30538, D.30538
	movl	$LC14, 8(%esp)	 #,
	.loc 1 379 0
	addl	%ebp, %edi	 # a_dst_ptr, ptrd
LVL315:
	.loc 1 381 0
	movl	%ebx, 16(%esp)	 # D.30538,
	movl	%eax, 4(%esp)	 # D.30538,
	movl	%edi, (%esp)	 # ptrd,
	.loc 1 382 0
	addl	$4, %edi	 #, ptrd
LVL316:
	.loc 1 381 0
	call	__ZN3stk3mem7bit_movEPvhPKvhj@20	 #
	.cfi_def_cfa_offset 748
LEHE14:
LVL317:
	subl	$20, %esp	 #,
	.cfi_def_cfa_offset 768
	.loc 1 383 0
	testl	%esi, %esi	 # D.30544
	je	L257	 #,
	.loc 1 383 0 is_stmt 0 discriminator 1
	movl	%esi, %ecx	 # D.30544,
	call	__ZN3stk11compression16__ari_compressorD1Ev	 #
LVL318:
LBB95:
LBB96:
	.loc 2 83 0 is_stmt 1 discriminator 1
	movl	%esi, (%esp)	 # D.30544,
	call	__ZN3stk3mem4freeEPv@4	 #
	.cfi_def_cfa_offset 764
LVL319:
	subl	$4, %esp	 #,
	.cfi_def_cfa_offset 768
LVL320:
L257:
LBE96:
LBE95:
	.loc 1 385 0
	movl	%edi, %eax	 # ptrd, D.30538
	subl	768(%esp), %eax	 # a_dst_ptr, D.30538
LBE88:
	.loc 1 386 0
	addl	$748, %esp	 #,
	.cfi_remember_state
	.cfi_def_cfa_offset 20
	popl	%ebx	 #
	.cfi_restore 3
	.cfi_def_cfa_offset 16
	popl	%esi	 #
	.cfi_restore 6
	.cfi_def_cfa_offset 12
LVL321:
	popl	%edi	 #
	.cfi_restore 7
	.cfi_def_cfa_offset 8
LVL322:
	popl	%ebp	 #
	.cfi_restore 5
	.cfi_def_cfa_offset 4
	ret	$16	 #
LVL323:
	.p2align 4,,10
L259:
	.cfi_restore_state
LBB99:
	.loc 1 365 0
	movl	768(%esp), %edx	 # a_dst_ptr, a_dst_ptr
	.loc 1 370 0
	xorl	%ebx, %ebx	 # D.30538
	jmp	L255	 #
LVL324:
L260:
LBB97:
LBB98:
	.loc 2 83 0
	movl	%esi, (%esp)	 # D.30544,
	movl	%eax, %edi	 #, tmp134
LVL325:
	call	__ZN3stk3mem4freeEPv@4	 #
	.cfi_def_cfa_offset 764
LVL326:
	subl	$4, %esp	 #,
	.cfi_def_cfa_offset 768
	movl	%edi, (%esp)	 # tmp134,
LEHB15:
	call	__Unwind_Resume	 #
LEHE15:
LVL327:
LBE98:
LBE97:
LBE99:
	.cfi_endproc
LFE707:
	.section	.gcc_except_table,"w"
LLSDA707:
	.byte	0xff
	.byte	0xff
	.byte	0x1
	.uleb128 LLSDACSE707-LLSDACSB707
LLSDACSB707:
	.uleb128 LEHB12-LFB707
	.uleb128 LEHE12-LEHB12
	.uleb128 0
	.uleb128 0
	.uleb128 LEHB13-LFB707
	.uleb128 LEHE13-LEHB13
	.uleb128 L260-LFB707
	.uleb128 0
	.uleb128 LEHB14-LFB707
	.uleb128 LEHE14-LEHB14
	.uleb128 0
	.uleb128 0
	.uleb128 LEHB15-LFB707
	.uleb128 LEHE15-LEHB15
	.uleb128 0
	.uleb128 0
LLSDACSE707:
	.text
	.section	.text.unlikely,"x"
LCOLDE17:
	.text
LHOTE17:
	.section	.text.unlikely,"x"
LCOLDB18:
	.text
LHOTB18:
	.p2align 4,,15
	.globl	__ZN3stk11compression14uncompress_ARIEPvjPKv@12
	.def	__ZN3stk11compression14uncompress_ARIEPvjPKv@12;	.scl	2;	.type	32;	.endef
__ZN3stk11compression14uncompress_ARIEPvjPKv@12:
LFB708:
	.loc 1 390 0
	.cfi_startproc
	.cfi_personality 0,___gxx_personality_v0
	.cfi_lsda 0,LLSDA708
LVL328:
	pushl	%ebp	 #
	.cfi_def_cfa_offset 8
	.cfi_offset 5, -8
	pushl	%edi	 #
	.cfi_def_cfa_offset 12
	.cfi_offset 7, -12
	pushl	%esi	 #
	.cfi_def_cfa_offset 16
	.cfi_offset 6, -16
	pushl	%ebx	 #
	.cfi_def_cfa_offset 20
	.cfi_offset 3, -20
	subl	$748, %esp	 #,
	.cfi_def_cfa_offset 768
	.loc 1 390 0
	movl	768(%esp), %ebp	 # a_dst_ptr, a_dst_ptr
LBB100:
	.loc 1 398 0
	movl	772(%esp), %eax	 # a_count, ptrd_end
LBB101:
LBB102:
	.loc 2 74 0
	movl	$32, (%esp)	 #,
LBE102:
LBE101:
LBE100:
	.loc 1 390 0
	movl	776(%esp), %ebx	 # a_src_ptr, a_src_ptr
LVL329:
LBB111:
	.loc 1 398 0
	addl	%ebp, %eax	 # a_dst_ptr, ptrd_end
	movl	%eax, %edi	 # ptrd_end, ptrd_end
	movl	%eax, 504(%esp)	 # ptrd_end, %sfp
LVL330:
LEHB16:
LBB105:
LBB103:
	.loc 2 74 0
	call	__ZN3stk3mem5allocEj@4	 #
	.cfi_def_cfa_offset 764
LEHE16:
LVL331:
	subl	$4, %esp	 #,
	.cfi_def_cfa_offset 768
LBE103:
LBE105:
	movl	%eax, %ecx	 # D.30554,
LBB106:
LBB104:
	movl	%eax, %esi	 #, D.30554
LEHB17:
LBE104:
LBE106:
	call	__ZN3stk11compression16__ari_compressorC1Ev	 #
LEHE17:
LVL332:
	.loc 1 401 0
	movl	%ebx, 4(%esp)	 # a_src_ptr,
	movl	$0, 8(%esp)	 #,
	movl	%esi, (%esp)	 # D.30554,
LEHB18:
	call	__ZN3stk11compression16__ari_compressor18initialize_decoderEPKjh@12	 #
	.cfi_def_cfa_offset 756
LVL333:
	.loc 1 402 0
	movsbl	%al, %edx	 # D.30551, D.30552
	.loc 1 401 0
	subl	$12, %esp	 #,
	.cfi_def_cfa_offset 768
LVL334:
	.loc 1 403 0
	andl	$7, %eax	 #, ptrs_bit
LVL335:
	.loc 1 402 0
	sarl	$3, %edx	 #, D.30552
LVL336:
	addl	%edx, %ebx	 # D.30552, ptrs
LVL337:
	.loc 1 405 0
	cmpl	%edi, %ebp	 # ptrd_end, a_dst_ptr
	jae	L291	 #,
	movl	%ebp, %ecx	 # a_dst_ptr, tmp112
	.loc 1 407 0
	movsbl	%al, %edi	 # ptrs_bit, D.30552
LVL338:
	movl	%ebx, 8(%esp)	 # ptrs,
	notl	%ecx	 # tmp112
	addl	504(%esp), %ecx	 # %sfp, tmp111
	movl	%edi, 12(%esp)	 # D.30552,
	movl	%ebp, 4(%esp)	 # a_dst_ptr,
	movl	%esi, (%esp)	 # D.30554,
	andl	$3, %ecx	 #, tmp113
	movl	%ecx, 508(%esp)	 # tmp113, %sfp
	call	__ZN3stk11compression16__ari_compressor6decodeEPcPKjh@16	 #
	.cfi_def_cfa_offset 752
LVL339:
	movzbl	%al, %eax	 # D.30551, D.30552
	subl	$16, %esp	 #,
	.cfi_def_cfa_offset 768
	addl	%edi, %eax	 # D.30552, D.30552
LVL340:
	.loc 1 405 0
	leal	1(%ebp), %edi	 #, a_dst_ptr
	movl	508(%esp), %ecx	 # %sfp, tmp113
	.loc 1 408 0
	movsbl	%al, %edx	 # D.30552, D.30552
	.loc 1 409 0
	andl	$7, %eax	 #, ptrs_bit
LVL341:
	.loc 1 408 0
	sarl	$3, %edx	 #, D.30552
	addl	%edx, %ebx	 # D.30552, ptrs
LVL342:
	.loc 1 405 0
	cmpl	504(%esp), %edi	 # %sfp, a_dst_ptr
	je	L291	 #,
	testl	%ecx, %ecx	 # tmp113
	je	L294	 #,
	cmpl	$1, %ecx	 #, tmp113
	je	L308	 #,
	cmpl	$2, %ecx	 #, tmp113
	je	L309	 #,
	.loc 1 407 0
	movsbl	%al, %eax	 # ptrs_bit, D.30552
	movl	%ebx, 8(%esp)	 # ptrs,
	movl	%edi, 4(%esp)	 # a_dst_ptr,
	movl	%eax, 12(%esp)	 # D.30552,
	movl	%esi, (%esp)	 # D.30554,
	movl	%eax, 508(%esp)	 # D.30552, %sfp
	call	__ZN3stk11compression16__ari_compressor6decodeEPcPKjh@16	 #
	.cfi_def_cfa_offset 752
LVL343:
	subl	$16, %esp	 #,
	.cfi_def_cfa_offset 768
	movzbl	%al, %eax	 # D.30551, D.30552
	movl	508(%esp), %edi	 # %sfp, D.30552
	addl	%edi, %eax	 # D.30552, D.30552
	.loc 1 405 0
	leal	2(%ebp), %edi	 #, a_dst_ptr
	.loc 1 408 0
	movsbl	%al, %edx	 # D.30552, D.30552
	.loc 1 409 0
	andl	$7, %eax	 #, ptrs_bit
	.loc 1 408 0
	sarl	$3, %edx	 #, D.30552
	addl	%edx, %ebx	 # D.30552, ptrs
L309:
	.loc 1 407 0
	movsbl	%al, %ebp	 # ptrs_bit, D.30552
LVL344:
	movl	%ebx, 8(%esp)	 # ptrs,
	movl	%edi, 4(%esp)	 # a_dst_ptr,
	movl	%ebp, 12(%esp)	 # D.30552,
	movl	%esi, (%esp)	 # D.30554,
	.loc 1 405 0
	addl	$1, %edi	 #, a_dst_ptr
	.loc 1 407 0
	call	__ZN3stk11compression16__ari_compressor6decodeEPcPKjh@16	 #
	.cfi_def_cfa_offset 752
LVL345:
	movzbl	%al, %eax	 # D.30551, D.30552
	subl	$16, %esp	 #,
	.cfi_def_cfa_offset 768
	addl	%ebp, %eax	 # D.30552, D.30552
	.loc 1 408 0
	movsbl	%al, %ecx	 # D.30552, D.30552
	.loc 1 409 0
	andl	$7, %eax	 #, ptrs_bit
	.loc 1 408 0
	sarl	$3, %ecx	 #, D.30552
	addl	%ecx, %ebx	 # D.30552, ptrs
L308:
	.loc 1 407 0
	movsbl	%al, %ebp	 # ptrs_bit, D.30552
	movl	%ebx, 8(%esp)	 # ptrs,
	movl	%edi, 4(%esp)	 # a_dst_ptr,
	movl	%ebp, 12(%esp)	 # D.30552,
	movl	%esi, (%esp)	 # D.30554,
	.loc 1 405 0
	addl	$1, %edi	 #, a_dst_ptr
	.loc 1 407 0
	call	__ZN3stk11compression16__ari_compressor6decodeEPcPKjh@16	 #
	.cfi_def_cfa_offset 752
LVL346:
	movzbl	%al, %eax	 # D.30551, D.30552
	subl	$16, %esp	 #,
	.cfi_def_cfa_offset 768
	addl	%ebp, %eax	 # D.30552, D.30552
	.loc 1 408 0
	movsbl	%al, %edx	 # D.30552, D.30552
	.loc 1 409 0
	andl	$7, %eax	 #, ptrs_bit
	.loc 1 408 0
	sarl	$3, %edx	 #, D.30552
	addl	%edx, %ebx	 # D.30552, ptrs
	.loc 1 405 0
	cmpl	504(%esp), %edi	 # %sfp, a_dst_ptr
	je	L291	 #,
L294:
	.loc 1 407 0 discriminator 2
	movsbl	%al, %ebp	 # ptrs_bit, D.30552
	movl	%ebx, 8(%esp)	 # ptrs,
	movl	%edi, 4(%esp)	 # a_dst_ptr,
	movl	%ebp, 12(%esp)	 # D.30552,
	movl	%esi, (%esp)	 # D.30554,
	call	__ZN3stk11compression16__ari_compressor6decodeEPcPKjh@16	 #
	.cfi_def_cfa_offset 752
LVL347:
	movzbl	%al, %ecx	 # D.30551, D.30552
	subl	$16, %esp	 #,
	.cfi_def_cfa_offset 768
	leal	(%ecx,%ebp), %edx	 #, D.30552
	.loc 1 405 0 discriminator 2
	leal	1(%edi), %ecx	 #, tmp114
	.loc 1 407 0 discriminator 2
	movl	%esi, (%esp)	 # D.30554,
	.loc 1 408 0 discriminator 2
	movsbl	%dl, %eax	 # D.30552, D.30552
	.loc 1 407 0 discriminator 2
	andl	$7, %edx	 #, D.30552
	movl	%ecx, 4(%esp)	 # tmp114,
	.loc 1 408 0 discriminator 2
	sarl	$3, %eax	 #, D.30552
	.loc 1 407 0 discriminator 2
	movl	%edx, 12(%esp)	 # D.30552,
	movl	%edx, %ebp	 # D.30552, D.30552
	.loc 1 408 0 discriminator 2
	addl	%eax, %ebx	 # D.30552, ptrs
	.loc 1 407 0 discriminator 2
	movl	%ebx, 8(%esp)	 # ptrs,
	call	__ZN3stk11compression16__ari_compressor6decodeEPcPKjh@16	 #
	.cfi_def_cfa_offset 752
LVL348:
	movzbl	%al, %edx	 # D.30551, D.30552
	subl	$16, %esp	 #,
	.cfi_def_cfa_offset 768
	leal	(%edx,%ebp), %ecx	 #, D.30552
	.loc 1 405 0 discriminator 2
	leal	2(%edi), %edx	 #, a_dst_ptr
	.loc 1 407 0 discriminator 2
	movl	%esi, (%esp)	 # D.30554,
	.loc 1 408 0 discriminator 2
	movsbl	%cl, %eax	 # D.30552, D.30552
	.loc 1 407 0 discriminator 2
	andl	$7, %ecx	 #, D.30552
	movl	%edx, 4(%esp)	 # a_dst_ptr,
	.loc 1 408 0 discriminator 2
	sarl	$3, %eax	 #, D.30552
	.loc 1 407 0 discriminator 2
	movl	%ecx, 12(%esp)	 # D.30552,
	movl	%ecx, %ebp	 # D.30552, D.30552
	.loc 1 408 0 discriminator 2
	addl	%eax, %ebx	 # D.30552, ptrs
	.loc 1 407 0 discriminator 2
	movl	%ebx, 8(%esp)	 # ptrs,
	call	__ZN3stk11compression16__ari_compressor6decodeEPcPKjh@16	 #
	.cfi_def_cfa_offset 752
LVL349:
	movzbl	%al, %eax	 # D.30551, D.30552
	.loc 1 405 0 discriminator 2
	leal	3(%edi), %edx	 #, a_dst_ptr
	.loc 1 407 0 discriminator 2
	subl	$16, %esp	 #,
	.cfi_def_cfa_offset 768
	addl	%ebp, %eax	 # D.30552, D.30552
	movl	%esi, (%esp)	 # D.30554,
	.loc 1 405 0 discriminator 2
	addl	$4, %edi	 #, a_dst_ptr
	.loc 1 408 0 discriminator 2
	movsbl	%al, %ecx	 # D.30552, D.30552
	.loc 1 407 0 discriminator 2
	andl	$7, %eax	 #, D.30552
	movl	%edx, 4(%esp)	 # a_dst_ptr,
	.loc 1 408 0 discriminator 2
	sarl	$3, %ecx	 #, D.30552
	.loc 1 407 0 discriminator 2
	movl	%eax, 12(%esp)	 # D.30552,
	movl	%eax, %ebp	 # D.30552, D.30552
	.loc 1 408 0 discriminator 2
	addl	%ecx, %ebx	 # D.30552, ptrs
	.loc 1 407 0 discriminator 2
	movl	%ebx, 8(%esp)	 # ptrs,
	call	__ZN3stk11compression16__ari_compressor6decodeEPcPKjh@16	 #
	.cfi_def_cfa_offset 752
LEHE18:
LVL350:
	movzbl	%al, %eax	 # D.30551, D.30552
	subl	$16, %esp	 #,
	.cfi_def_cfa_offset 768
	addl	%ebp, %eax	 # D.30552, D.30552
	.loc 1 408 0 discriminator 2
	movsbl	%al, %ecx	 # D.30552, D.30552
	.loc 1 409 0 discriminator 2
	andl	$7, %eax	 #, ptrs_bit
	.loc 1 408 0 discriminator 2
	sarl	$3, %ecx	 #, D.30552
	addl	%ecx, %ebx	 # D.30552, ptrs
	.loc 1 405 0 discriminator 2
	cmpl	504(%esp), %edi	 # %sfp, a_dst_ptr
	jne	L294	 #,
L291:
	.loc 1 412 0
	testl	%esi, %esi	 # D.30554
	je	L286	 #,
	.loc 1 412 0 is_stmt 0 discriminator 1
	movl	%esi, %ecx	 # D.30554,
	call	__ZN3stk11compression16__ari_compressorD1Ev	 #
LVL351:
LBB107:
LBB108:
	.loc 2 83 0 is_stmt 1 discriminator 1
	movl	%esi, (%esp)	 # D.30554,
	call	__ZN3stk3mem4freeEPv@4	 #
	.cfi_def_cfa_offset 764
LVL352:
	subl	$4, %esp	 #,
	.cfi_def_cfa_offset 768
LVL353:
L286:
LBE108:
LBE107:
LBE111:
	.loc 1 414 0
	addl	$748, %esp	 #,
	.cfi_remember_state
	.cfi_def_cfa_offset 20
	popl	%ebx	 #
	.cfi_restore 3
	.cfi_def_cfa_offset 16
	popl	%esi	 #
	.cfi_restore 6
	.cfi_def_cfa_offset 12
LVL354:
	popl	%edi	 #
	.cfi_restore 7
	.cfi_def_cfa_offset 8
	popl	%ebp	 #
	.cfi_restore 5
	.cfi_def_cfa_offset 4
	ret	$12	 #
LVL355:
L293:
	.cfi_restore_state
LBB112:
LBB109:
LBB110:
	.loc 2 83 0
	movl	%esi, (%esp)	 # D.30554,
	movl	%eax, %ebx	 #, tmp110
LVL356:
	call	__ZN3stk3mem4freeEPv@4	 #
	.cfi_def_cfa_offset 764
LVL357:
	subl	$4, %esp	 #,
	.cfi_def_cfa_offset 768
	movl	%ebx, (%esp)	 # tmp110,
LEHB19:
	call	__Unwind_Resume	 #
LEHE19:
LVL358:
LBE110:
LBE109:
LBE112:
	.cfi_endproc
LFE708:
	.section	.gcc_except_table,"w"
LLSDA708:
	.byte	0xff
	.byte	0xff
	.byte	0x1
	.uleb128 LLSDACSE708-LLSDACSB708
LLSDACSB708:
	.uleb128 LEHB16-LFB708
	.uleb128 LEHE16-LEHB16
	.uleb128 0
	.uleb128 0
	.uleb128 LEHB17-LFB708
	.uleb128 LEHE17-LEHB17
	.uleb128 L293-LFB708
	.uleb128 0
	.uleb128 LEHB18-LFB708
	.uleb128 LEHE18-LEHB18
	.uleb128 0
	.uleb128 0
	.uleb128 LEHB19-LFB708
	.uleb128 LEHE19-LEHB19
	.uleb128 0
	.uleb128 0
LLSDACSE708:
	.text
	.section	.text.unlikely,"x"
LCOLDE18:
	.text
LHOTE18:
	.section	.text.unlikely,"x"
LCOLDB19:
	.text
LHOTB19:
	.p2align 4,,15
	.globl	__ZN3stk11compression12compress_BWTEPvPKvjj@16
	.def	__ZN3stk11compression12compress_BWTEPvPKvjj@16;	.scl	2;	.type	32;	.endef
__ZN3stk11compression12compress_BWTEPvPKvjj@16:
LFB709:
	.loc 1 418 0
	.cfi_startproc
	.cfi_personality 0,___gxx_personality_v0
	.cfi_lsda 0,LLSDA709
LVL359:
	pushl	%ebp	 #
	.cfi_def_cfa_offset 8
	.cfi_offset 5, -8
	movl	%esp, %ebp	 #,
	.cfi_def_cfa_register 5
	pushl	%edi	 #
	pushl	%esi	 #
	pushl	%ebx	 #
	subl	$748, %esp	 #,
	.cfi_offset 7, -12
	.cfi_offset 6, -16
	.cfi_offset 3, -20
	.loc 1 418 0
	movl	12(%ebp), %ebx	 # a_src_ptr, a_src_ptr
LVL360:
LBB113:
	.loc 1 424 0
	movl	16(%ebp), %edi	 # a_count, ptrs_end
LBB114:
LBB115:
	.loc 2 74 0
	movl	$28, (%esp)	 #,
LEHB20:
	call	__ZN3stk3mem5allocEj@4	 #
LEHE20:
LVL361:
	movl	%eax, %esi	 #, D.30562
LBE115:
LBE114:
	.loc 1 427 0
	movl	20(%ebp), %eax	 # ablock, ablock
LBB117:
LBB116:
	.loc 2 74 0
	subl	$4, %esp	 #,
LBE116:
LBE117:
	.loc 1 427 0
	movl	%esi, %ecx	 # D.30562,
	.loc 1 424 0
	addl	%ebx, %edi	 # a_src_ptr, ptrs_end
LVL362:
	.loc 1 427 0
	movl	%eax, (%esp)	 # ablock,
LEHB21:
	call	__ZN3stk11compression16__bwt_compressorC1Ej	 #
LEHE21:
LVL363:
	.loc 1 429 0
	movl	8(%ebp), %ecx	 # a_dst_ptr, tmp112
	movl	8(%esi), %edx	 # MEM[(struct __bwt_compressor *)_38].matrix_dim, MEM[(struct __bwt_compressor *)_38].matrix_dim
	.loc 1 427 0
	subl	$4, %esp	 #,
LVL364:
	.loc 1 430 0
	movl	%ecx, %eax	 # tmp112, tmp114
	.loc 1 429 0
	movw	%dx, (%ecx)	 # MEM[(struct __bwt_compressor *)_38].matrix_dim, MEM[(int16_t *)a_dst_ptr_8(D)]
	.loc 1 430 0
	addl	$2, %eax	 #, ptrd
	.loc 1 432 0
	cmpl	%edi, %ebx	 # ptrs_end, a_src_ptr
	.loc 1 430 0
	movl	%eax, -252(%ebp)	 # ptrd, %sfp
LVL365:
	.loc 1 432 0
	jae	L315	 #,
LVL366:
	.p2align 4,,10
L316:
	.loc 1 434 0
	movl	%edi, %edx	 # ptrs_end, D.30560
	movl	%ebx, 4(%esp)	 # a_src_ptr,
LVL367:
	movl	%esi, (%esp)	 # D.30562,
	subl	%ebx, %edx	 # a_src_ptr, D.30560
	movl	%edx, 8(%esp)	 # D.30560,
LEHB22:
	call	__ZN3stk11compression16__bwt_compressor8generateEPKcj@12	 #
LVL368:
	subl	$12, %esp	 #,
	addl	%eax, %ebx	 # D.30558, a_src_ptr
LVL369:
	.loc 1 435 0
	movl	%esi, (%esp)	 # D.30562,
	call	__ZN3stk11compression16__bwt_compressor4sortEv@4	 #
LVL370:
	movl	-252(%ebp), %ecx	 # %sfp, ptrd
	subl	$4, %esp	 #,
	movw	%ax, (%ecx)	 # D.30558, MEM[(int16_t *)ptrd_44]
	.loc 1 436 0
	leal	2(%ecx), %eax	 #, ptrd
LVL371:
	.loc 1 437 0
	movl	%esi, (%esp)	 # D.30562,
	movl	%eax, 4(%esp)	 # ptrd,
	movl	%eax, -252(%ebp)	 # ptrd, %sfp
	call	__ZN3stk11compression16__bwt_compressor4saveEPc@8	 #
LEHE22:
LVL372:
	movl	-252(%ebp), %edx	 # %sfp, ptrd
	subl	$8, %esp	 #,
	addl	%eax, %edx	 # D.30561, ptrd
	.loc 1 432 0
	cmpl	%ebx, %edi	 # a_src_ptr, ptrs_end
	.loc 1 437 0
	movl	%edx, -252(%ebp)	 # ptrd, %sfp
LVL373:
	.loc 1 432 0
	ja	L316	 #,
LVL374:
L315:
	.loc 1 441 0
	movl	%esi, %ecx	 # D.30562,
	call	__ZN3stk11compression16__bwt_compressorD1Ev	 #
LVL375:
LBB118:
LBB119:
	.loc 2 83 0
	movl	%esi, (%esp)	 # D.30562,
	call	__ZN3stk3mem4freeEPv@4	 #
LVL376:
LBE119:
LBE118:
	.loc 1 442 0
	movl	-252(%ebp), %eax	 # %sfp, D.30560
LBB121:
LBB120:
	.loc 2 83 0
	subl	$4, %esp	 #,
LBE120:
LBE121:
	.loc 1 442 0
	subl	8(%ebp), %eax	 # a_dst_ptr, D.30560
LBE113:
	.loc 1 443 0
	leal	-12(%ebp), %esp	 #,
	popl	%ebx	 #
	.cfi_remember_state
	.cfi_restore 3
LVL377:
	popl	%esi	 #
	.cfi_restore 6
LVL378:
	popl	%edi	 #
	.cfi_restore 7
LVL379:
	popl	%ebp	 #
	.cfi_restore 5
	.cfi_def_cfa 4, 4
	ret	$16	 #
LVL380:
L318:
	.cfi_restore_state
LBB124:
LBB122:
LBB123:
	.loc 2 83 0
	movl	%esi, (%esp)	 # D.30562,
	movl	%eax, %ebx	 #, tmp110
LVL381:
	call	__ZN3stk3mem4freeEPv@4	 #
LVL382:
	subl	$4, %esp	 #,
	movl	%ebx, (%esp)	 # tmp110,
LEHB23:
	call	__Unwind_Resume	 #
LEHE23:
LVL383:
LBE123:
LBE122:
LBE124:
	.cfi_endproc
LFE709:
	.section	.gcc_except_table,"w"
LLSDA709:
	.byte	0xff
	.byte	0xff
	.byte	0x1
	.uleb128 LLSDACSE709-LLSDACSB709
LLSDACSB709:
	.uleb128 LEHB20-LFB709
	.uleb128 LEHE20-LEHB20
	.uleb128 0
	.uleb128 0
	.uleb128 LEHB21-LFB709
	.uleb128 LEHE21-LEHB21
	.uleb128 L318-LFB709
	.uleb128 0
	.uleb128 LEHB22-LFB709
	.uleb128 LEHE22-LEHB22
	.uleb128 0
	.uleb128 0
	.uleb128 LEHB23-LFB709
	.uleb128 LEHE23-LEHB23
	.uleb128 0
	.uleb128 0
LLSDACSE709:
	.text
	.section	.text.unlikely,"x"
LCOLDE19:
	.text
LHOTE19:
	.section	.text.unlikely,"x"
LCOLDB20:
	.text
LHOTB20:
	.p2align 4,,15
	.globl	__ZN3stk11compression14uncompress_BWTEPvjPKv@12
	.def	__ZN3stk11compression14uncompress_BWTEPvjPKv@12;	.scl	2;	.type	32;	.endef
__ZN3stk11compression14uncompress_BWTEPvjPKv@12:
LFB710:
	.loc 1 447 0
	.cfi_startproc
LVL384:
	pushl	%ebp	 #
	.cfi_def_cfa_offset 8
	.cfi_offset 5, -8
	movl	%esp, %ebp	 #,
	.cfi_def_cfa_register 5
	.loc 1 447 0
	movl	12(%ebp), %eax	 # a_count, a_count
	movl	16(%ebp), %ecx	 # a_src_ptr, a_src_ptr
LVL385:
	leal	-2(%eax), %edx	 #, D.30565
LBB125:
	.loc 1 454 0
	addl	%eax, %eax	 # D.30565
LVL386:
	movl	%ecx, 12(%ebp)	 # a_src_ptr,
LVL387:
	shrl	$10, %eax	 #, D.30565
	subl	%eax, %edx	 # D.30565, D.30565
LVL388:
	movl	%edx, 16(%ebp)	 # D.30565,
LVL389:
LBE125:
	.loc 1 456 0
	leave
	.cfi_restore 5
	.cfi_def_cfa 4, 4
LVL390:
LBB126:
	.loc 1 454 0
	jmp	__ZN3stk3mem3movEPvPKvj@12	 #
	.cfi_def_cfa_offset -8
LVL391:
LBE126:
	.cfi_endproc
LFE710:
	.section	.text.unlikely,"x"
LCOLDE20:
	.text
LHOTE20:
Letext0:
	.section	.text.unlikely,"x"
Letext_cold0:
	.file 3 "C:/Qt/Qt5.5.0/Tools/mingw492_32/i686-w64-mingw32/include/_mingw.h"
	.file 4 "C:/Qt/Qt5.5.0/Tools/mingw492_32/i686-w64-mingw32/include/stdint.h"
	.file 5 "C:/Qt/Qt5.5.0/Tools/mingw492_32/i686-w64-mingw32/include/stdio.h"
	.file 6 "compression/./.././time/stk_time.h"
	.file 7 "compression/./../file/eno/stk_file_lzst_header.h"
	.file 8 "compression/stk_compression_API.h"
	.file 9 "compression/stk_compression_lzstv4.h"
	.file 10 "compression/stk_compression_bwt_matrix2.h"
	.file 11 "compression/stk_compression_huff.h"
	.file 12 "compression/stk_compression_ari.h"
	.file 13 "compression/./../io/stk_console.h"
	.file 14 "compression/./../text/stk_cstr_utils.h"
	.file 15 "<built-in>"
	.file 16 "C:/Qt/Qt5.5.0/Tools/mingw492_32/i686-w64-mingw32/include/c++/bits/exception_ptr.h"
	.file 17 "C:/Qt/Qt5.5.0/Tools/mingw492_32/i686-w64-mingw32/include/c++/i686-w64-mingw32/bits/c++config.h"
	.file 18 "compression/./../cipher/stk_cipher_mtf.h"