	.file	"stk_file_lzst_header.cpp"
 # GNU C++ (i686-posix-dwarf-rev1, Built by MinGW-W64 project) version 4.9.2 (i686-w64-mingw32)
 #	compiled by GNU C version 4.9.2, GMP version 6.0.0, MPFR version 3.1.2-p9, MPC version 1.0.2
 # warning: MPFR header version 3.1.2-p9 differs from library version 3.1.2-p10.
 # GGC heuristics: --param ggc-min-expand=100 --param ggc-min-heapsize=131072
 # options passed:  -fpreprocessed stk_file_lzst_header.ii -malign-double
 # -momit-leaf-frame-pointer -m32 -mfpmath=sse -mpreferred-stack-boundary=8
 # -mmmx -msse -msse2 -mthreads -mtune=generic -march=i686
 # -auxbase-strip debug\stk_file_lzst_header.o -g -g -O3 -Wno-write-strings
 # -Wno-multichar -Wno-unused-variable -Wno-unused-parameter
 # -Wno-unused-value -Wno-unused-label -Wno-unused-but-set-variable
 # -Wattributes -Winline -Wshadow -Wunknown-pragmas -Wall -Wextra
 # -std=gnu++11 -std=c++11 -fno-keep-inline-dllexport
 # -fno-use-linker-plugin -fverbose-asm -fstrict-aliasing -fwrapv
 # -funroll-loops -flto -fexceptions -frtti
 # options enabled:  -faggressive-loop-optimizations
 # -fasynchronous-unwind-tables -fauto-inc-dec -fbranch-count-reg
 # -fcaller-saves -fcombine-stack-adjustments -fcommon -fcompare-elim
 # -fcprop-registers -fcrossjumping -fcse-follow-jumps -fdefer-pop
 # -fdelete-null-pointer-checks -fdevirtualize -fdevirtualize-speculatively
 # -fdwarf2-cfi-asm -fearly-inlining -feliminate-unused-debug-types
 # -fexceptions -fexpensive-optimizations -fforward-propagate
 # -ffunction-cse -fgcse -fgcse-after-reload -fgcse-lm -fgnu-runtime
 # -fgnu-unique -fguess-branch-probability -fhoist-adjacent-loads -fident
 # -fif-conversion -fif-conversion2 -findirect-inlining -finline
 # -finline-atomics -finline-functions -finline-functions-called-once
 # -finline-small-functions -fipa-cp -fipa-cp-clone -fipa-profile
 # -fipa-pure-const -fipa-reference -fipa-sra -fira-hoist-pressure
 # -fira-share-save-slots -fira-share-spill-slots
 # -fisolate-erroneous-paths-dereference -fivopts -fkeep-static-consts
 # -fleading-underscore -fmath-errno -fmerge-constants
 # -fmerge-debug-strings -fmove-loop-invariants -fomit-frame-pointer
 # -foptimize-sibling-calls -foptimize-strlen -fpartial-inlining -fpeephole
 # -fpeephole2 -fpredictive-commoning -fprefetch-loop-arrays -free
 # -freg-struct-return -frename-registers -freorder-blocks
 # -freorder-blocks-and-partition -freorder-functions
 # -frerun-cse-after-loop -fsched-critical-path-heuristic
 # -fsched-dep-count-heuristic -fsched-group-heuristic -fsched-interblock
 # -fsched-last-insn-heuristic -fsched-rank-heuristic -fsched-spec
 # -fsched-spec-insn-heuristic -fsched-stalled-insns-dep -fschedule-insns2
 # -fset-stack-executable -fshow-column -fshrink-wrap -fsigned-zeros
 # -fsplit-ivs-in-unroller -fsplit-wide-types -fstrict-aliasing
 # -fstrict-overflow -fstrict-volatile-bitfields -fsync-libcalls
 # -fthread-jumps -ftoplevel-reorder -ftrapping-math -ftree-bit-ccp
 # -ftree-builtin-call-dce -ftree-ccp -ftree-ch -ftree-coalesce-vars
 # -ftree-copy-prop -ftree-copyrename -ftree-cselim -ftree-dce
 # -ftree-dominator-opts -ftree-dse -ftree-forwprop -ftree-fre
 # -ftree-loop-distribute-patterns -ftree-loop-if-convert -ftree-loop-im
 # -ftree-loop-ivcanon -ftree-loop-optimize -ftree-loop-vectorize
 # -ftree-parallelize-loops= -ftree-partial-pre -ftree-phiprop -ftree-pre
 # -ftree-pta -ftree-reassoc -ftree-scev-cprop -ftree-sink
 # -ftree-slp-vectorize -ftree-slsr -ftree-sra -ftree-switch-conversion
 # -ftree-tail-merge -ftree-ter -ftree-vrp -funit-at-a-time -funroll-loops
 # -funswitch-loops -funwind-tables -fvar-tracking
 # -fvar-tracking-assignments -fverbose-asm -fweb -fwrapv
 # -fzero-initialized-in-bss -m32 -m80387 -m96bit-long-double
 # -maccumulate-outgoing-args -malign-double -malign-stringops
 # -mavx256-split-unaligned-load -mavx256-split-unaligned-store
 # -mfancy-math-387 -mfp-ret-in-387 -mieee-fp -mlong-double-80 -mmmx
 # -mms-bitfields -mno-red-zone -mno-sse4 -mpush-args -msahf -msse -msse2
 # -mstack-arg-probe -mvzeroupper

	.text
Ltext0:
	.section	.gnu.lto_.profile.f43a2577,"dr0"
	.ascii "x\234cf```c\200\0F\206\243L\377\31\1\5\273\1\322"
	.text
	.section	.gnu.lto_.jmpfuncs.f43a2577,"dr0"
	.ascii "x\234u\214I\26\200"
	.ascii "0\14B!q\236o\333%\207\364B\332\327\326\272\320l \201\37\307\367\234Y\17\30\351\22\223\230\7\20\36\10\230\223\354%y5O\350\301\200\346f\14j+\212\224v\205\350\377\320!\6\35\244\361\335\300\253"
	.ascii "1\335w\315\351\365bq\301Z\272[1{6\264\12\342\2\202"
	.ascii "9\33 "
	.text
	.section	.gnu.lto_.inline.f43a2577,"dr0"
	.ascii "x\234\215\222\261k\24A\24\306\277\367\346\355\356\334\356\335\355\336Y\10\307\301]P0\212\304k\24+\271\277\340\376\1\261<k;\333\255$E\212\3\257\10\244\11\10"
	.ascii "1\205 \202\327I\22D\33S\230\377@\13\205\253"
	.ascii "4\226i\214ovv\365V\202"
	.ascii "8\305\233\201\331\357\367\276\371\366\31\\\274\26\306\357\31`#\322\5\30>IaO7\30\341\351\206\270KB\322\"C\323\37L/\337\37\277\15\227|\306HA{\324\3=\364\233\12C\375"
	.ascii "4\334\35"
	.ascii "0dw\220\201\347A&\240\17,\\T\7\222\26,x6\231M\30\15K\314\252r\312\200\226\21\242\315k\14\355-\256X\327\274\351"
	.ascii "4\6\335"
	.ascii "6\11M\377\356\346\264\266\336\361M<\264\256fV\375_\37\25g\313Eu\244\240\15\201q\335g\23A\24PP<i{\347\354 *\236tN\240\347\276K\261\271\333\371\342p;\365\267\347\6\264\357\257\367K\23\262b`\14\331\274"
	.ascii "4\366\235\320j\222\205\367\214\322\363\264\316^E\241\312a\5\227k=Is\261\220w\215\\\206\266\14P|\200!\372\31\205\354\241\354\241\354\241\354\241\277\303\355\355<F\373\331]F\374\344\352\330A\325\244F\234\223#FX\353\220\255\307\373/\352E\321\253\325"
	.ascii "8\357\346\"\220e\244V\325\242\356\372\313/\177\277\245A\37[\35\1\237\277\255\362\267Hb\2"
	.ascii "7??@|t\257\270n`\275K\244l\3\351>\35!\373tG'g\31\251\370\312\353-\222\22Q\21b\4B\246\236\261\313\321\324fBW\202NRL\266r\243\237kh\354\335\254\270\235\255\373\5\266\371\277\254\26\372_\341\346\246\26W\31\264S\4"
	.ascii "7\276|L\274F#\36"
	.ascii "9\341\320\235\36"
	.ascii "9u\33\275N\365\302\306\253\21\222\305\355\312\311\340\305\334\277"
	.ascii "0E\377\33\364\233\222g\326\347G\177x\315r\6\374\10\340\27\247\177\215M"
	.text
	.section	.gnu.lto_.pureconst.f43a2577,"dr0"
	.ascii "x\234%\301\271\1\200 \0\300\300 \242\374X\247s\3\366\237\316\302\273\10\274\374\36\14\36FO\22\227\267\331b\245\331\31{\272\366\7!\225\2\21"
	.text
	.section	.gnu.lto__ZN3stk11file_header21__lzstv4_header_coder12plain_encodeEPvj@8.part.0.f43a2577,"dr0"
	.ascii "x\234mR\355KSa\24?\347y\356\275\273\271\205\"\321\207\365\241H\206\4\22\375\3A\320\27\373\37\204\333p\213\242\241C\27D_\274\272\345\10\314lTD!\231\371V\231\366f\371\2!\225dD\212\25%\21\313\17\323"
	.ascii "2)\35\256\346\300\\\347<\263\310\325\3\367\236\27\316\357\367\374\316"
	.ascii "9\217\204\177O\31}{%\300\1\262\250\3j-\23\344h(\224\25(\331\326\233\22\221\35@\250\323\204\304:\234\27I\201\337\316N\215\230\245\235\266m/\305\236uc\363\271\203\31\1\260,\0\313\334\270\313\315\365]XJ\205\321\261GOQz\20\310\37\352K\275t~\26\31\201;8\34\216\215_48\24\32\207\243+\23\13N\317"
	.ascii "5\333n\30}\36\326\312"
	.ascii "3tY7J\246\354A7^G7P\12\360\6z\250xufrZ\227{\24\355\344b\262]\22\260\245atU\1"
	.ascii "5\274\231\17\324\0{\321\303\325\311\310\317wN#B\312\213X/\11\275\205\6\2pWM\213\247\266\310\375\212\264'\332\333o\224\\%5K\217\347c\246=\336\26\231\311f\267g\204\216}\33\311s\7\373\261\204`\257\306R\333d\271b\10\307_\277q(\206\266\27m\366\276H\273\275\226\315bF\30x\373\277\4w\260\244\277\330\266\263\331O\13\302\205\310z\205\312J\365\327\250\13\207\216\334\277\241\22\16N\230\300s\207\4\375xK\11j\224\254\234\25B\331\367\30\376\320\30\377\356\334\330"
	.ascii "7\243Y\257j\235n\276\213FZ\210"
	.ascii "4\325\374\265\24\223Fv\217\324\275\245\247@\5\214\241\" \306T\343\334\311\302\34HR\212@\315}\35\313\205\14\332DZ\357\347\203$\201\32\246\243_\364\34F[\317\304\220cB\177LLN\231\214\326\201\347"
	.ascii "6\260r\345\353\346V\274\\o\333fF\24\244i\342\3<%|\200\255Hp\226\20o\374\321\351\314\321\261\12Bu\234\277\320\253+\335&\340\303|\11FN\302\332o\335\216\365\324\37\15S\227\272\302\252\3]\355.1\270"
	.ascii "8\342\332\250aPi\30R\32\34"
	.ascii "4\362Y\352\202G\34\307\372\"H\13\23`\16M~\215"
	.ascii "3O\316\270\230\11h{\303\350\26M\247\267\322^\220\213iK;\17\35\11\370+\374U\325\25\265\241\243\26\7V\340Dm\310:\354\367\372\374"
	.ascii "5\273+\203A(\360Z\225\325>\277\25\14\325\24{\217\373\274!\257u\254\212"
	.ascii "3>+\340\257\322\330\303\300/\206_0\11"
	.text
	.section	.gnu.lto__ZN3stk11file_header21__lzstv4_header_coder12plain_encodeEPvj@8.f43a2577,"dr0"
	.ascii "x\234mS\337K\24Q\24\276\337\275"
	.ascii "3\343\346\26\212T\340\366P$\213\4\22=\370\330KDP\377\203"
	.ascii "0-\356F\341\242\242\33D \216\273k\26\205\330\26\25\226YVj\265\271i\231\225\24CdY\371\203\315R\23"
	.ascii "1\37\326H\242T\224t\310\332\316\235\25\302j`\346\336\373\315\371\276\363\235sf\4\373\367\332I\367\6\301\330>Z\241"
	.ascii "1\360\272\1\306\252\34\234\213D63\322\225h>3\326\12\250)XIm\240\2re`\225\\(**1\315\347"
	.ascii "8\276\235\216w;ro\30\206"
	.ascii "1\33y\331\202\332\263\373-\316\330<g\310sa\233K\22\232\221K\201"
	.ascii "5=O\237C\270\301h\377\250m\241\337\371\231[\34[\344\361q\244\367\202&\217\\\221Gsi\340\213\323}\315"
	.ascii "0\202\346\253\220\262\327\342\2-\20R\262\25.\334\204\213\21\304p\13n\12^\236\34\34U\305\16[vpf\256I\20\261.h.\333D\5\267\377&*\14Q\270e\364\\\370\347\210S\13\223\363L\351\227\214\336\201\6Z\350\335\333\236\205Mb\267-\32\232\30z\227\226s\225\334\314vLG\34F\357\225\360d2\271\331\342*\332V\213\247.\304\220\23\313"
	.ascii "2\215d\262;~\246/Os\202\262"
	.ascii "2.\37\2"
	.ascii "2\267\2i]\265\3"
	.ascii "5\202"
	.ascii "5\306\22\224^6w\212s\271\212a\4\315\363Od{O\315\234X/\366\330FZk\242"
	.ascii "1\315"
	.ascii "62\331wn\227\31n2~%\223\260x\32\356\376\317\307\352\12e2\264#\307.\222LvP\251\4-R#)\231\361\1"
	.ascii "6\322.\21\205\275G\270?\324\365\232K\214\"H)\326\363\346\231=!5\203\341\336J\216)\"'\262\305\30B\343\307\276_w\246\242\325\24\241~djAH\202\203\214\335'\302"
	.ascii "0\370\237\244\252Lj6Z\253\240"
	.ascii "1\4Gk^Tg\244t\264\25(b;#\305\217\211\301\270C*\246\331\265u.5~]\327\200\213U\206a\26Y|\15\371F\247"
	.ascii "4\206\7h\300\242\354*\31TX4_\214\243:S\226\275\310eG/\17\325\266\361\212\37\306q\303a\361\364y.'\336\205\12F\2d\335\342N\233\250\332s\230@U&\275\240\220O\220\237E\274\276"
	.ascii "9\224!=\320_\200\207p\211K'7\222\252\2\232 $\203\346\270\365\300!\277\257\300W\\RP\36(\322\345A\367\37-\17\350\7}\36\257\257l{ai)K\367\350\205%^\237^\32(\313\362\34\361z\2\36\375p\261D\274\272\337W\14\277\"\367\277\1\303;'\303"
	.text
	.section	.gnu.lto__ZN3stk11file_header21__lzstv4_header_coder14pattern_encodeEPvjj@12.part.1.f43a2577,"dr0"
	.ascii "x\234m\224\357K\223Q\24\307\357\271\317\335\17'\226D\21\254\27\205"
	.ascii "2$\222\350?\350]\364GHk\270G\222\206\212N(\337\370l\323\211\21\245\322\213P\374\321\17\315ri\371\373\347\30\241%d\206\32\263B\314\27\263\224\320\264\6sA\256s\356\263\27Nwa\367>\347<\347\363=\317"
	.ascii "9\347"
	.ascii "2\205\35]\371\370\313\21\214\25\341\11\6\6\242a\36\37\4pyrP\350\364\230\25\0z`\300\252\5W\240\32"
	.ascii "6\371.\207\355\306\205\11s^\247\246i;\213K\221\323\367\36\\\217s\306\376p\6\371V8o\245\370.\310\303\300\272\231\340"
	.ascii "4(6`\370<\326\33\375\220\271\301\343\34\316\221"
	.ascii "9\336"
	.ascii "4\373\320H&\27d\206\366\346\177f\332\236h\232"
	.ascii "7\364\336'\256\306"
	.ascii "1\331"
	.ascii "3PH\262\33\254\360\34\254\14]\14^\200\15\203=o\347\356\233\224KR\266\315\333\330\226\205`\203"
	.ascii "7\264/A\1=\207A\301  \301\226\372\355`\246rE\202\236A\177\230\353\340\\\255\16\276L\3\366\202\215\242wk\376-g\32k\260\344l*\24+\354\3#0&\360]{\323\323^\256\24H\325\231\221\221\333\271\217\260\214\235\307\313\1\336\240ux\33\265D\342"
	.ascii "2\304\271\1^\245\312\353\13^C.rw\177\325\237T\256I\211\356\272@\237Qjt\214\325\212\331\216\232\265D\342l\234\33\241?-? \371\225\251\335i\213R(\5\6\202[\235\307t\201\321\3\2\6\30L+0$\5\26g\242g\24U\362\276\325\245O&\235\357K\341\207\323\362#\220\333wB\303*\177l\332\262\0\250c\\\252\342\345\301\266\13Y\242A\356F\271\233\344n\306\376\232"
	.ascii "2\200Fjat\177X\4"
	.ascii "7\272m\21\354;\236\312:\347\362\14\203"
	.ascii "7\24\277\223\227:\5JKI\250~\222\223\3\301\257\31\305\261\240\31\303\333\362\25|M\376\355\236A g\214\363\30\12p\330\367-\15\3]<C\2\327q\6cXJ\30\257<\221CDr\"W\374\277/\350\234@-\344\232\227\327\243\12qf\254n\374\0#\263\11b\242\376\277I\306 \323\211\324\30\203\256\373&_\217\241\260\243BF]h>0\231\374l\23\372"
	.ascii "0\375\273\326\215~A\351"
	.ascii "3\200\301\304a\312\204\224\367s]8\260\223\244\314I_\223\264\221\377\26\371\270`&\36\233\204\346\320^\373VV+\264x4\315\34\347\226\30\312N\322Ha\12Z\1q\34\307:\266\220\332\277\12\236l\26\343\26\306\276\203\5\321\205\346.\337qR\302\177\5\10\202\225O~Y\343"
	.ascii "84\240h\34aNQ\261K-PKJ\13*\334"
	.ascii "7\355d\330]U\25n\373\15\325\341T\313/\26\226\225"
	.ascii "1\213\303^X\352T\355e\356\362S\216[N\207\333a\257,!\217\23\375\225%n\365\260WuU\24W\251\340\26d\202\12\256\377\377+\204\270"
	.text
	.section	.gnu.lto__ZN3stk11file_header21__lzstv4_header_coder14pattern_encodeEPvjj@12.f43a2577,"dr0"
	.ascii "x\234u\224\337O\24W\24\307\357\271wf\177/.j\323\270}h#!\304\304\32\37\214OM\364\311\364\217 ]\267\356\230\32\11\22Y\23"
	.ascii "51\316\376p\321\326(\220\332"
	.ascii "4\22\21\177V\333\5jA\21P\272Eh\14\370#\210\205F\11\362\260\30\215\25\330@\304\265)\333s\316l-n\351$;s\347\314\375|\317\367\334s\357*\361\337\353\23\374\205t!\266\343\23l\2d\355=!\"\16)Uz\225"
	.ascii "0]Zr\203"
	.ascii "0=\12t\12\203f=#\16\35\200\6\2\304A\251"
	.ascii "4\35\16\302s\231\221"
	.ascii "0U7\324\355(\273`\232\346\314\203\341\364\373\307\276\336\232\225B\314J\1k\375\260\306O\300E(\303\211"
	.ascii "5\375=}\240JA\340\270\263e\356\256\373\231\314J\370\210^\273\352o\177k\243W\251\321k\352\365\275\27\356\322s\246\31M\15\306\264O\263R\301w\240H\362\22\370\341"
	.ascii "2\370\5\206\4|\17\245"
	.ascii "89\362\353\235\343v\265\236e\33\243u\215^\4k\243\251\5\6"
	.ascii "5\370\241\20\324\4$\31l82\325\343V[\30\214\264'F\244\5\336"
	.ascii "9d\201\315K\200-PJ\263"
	.ascii "3\361\277F\335\266"
	.ascii "8\226\354\243B\261\302V\260\201\20\264\34c73}.U\316\252m=//\24\225\234\301:f\242\243IYk6E\353\314\\n\23d\245\16?\276\253o]p\5J\20<]\177\276E\252\317X\244\277\243c\37k4u\35\322n7\305'r\271\17\211\377iI\276\15JZ\227\247"
	.ascii "0Iw\346r\257\363\271\276\2\320\271\220tS@\205k@U`/q\365\234\234\317\305\224\233\357\36\276{\371^\204\220\315\307\303b\32\12\221\306Zi\13LJIO5\2\321\324\223\1\352\355\203\376\271\17\324V\366\33\33\37~hg\303\251\301&ss\374\254\271\220\313q\305\355K9F\342\350\364\221\225\352s\206/\325$[mV\265\235\213\252\265\303\265\377a\27\265\2\256B\11\325\3\35\370C\323\334\25\\\222\353\330\33\374"
	.ascii "4\217[\206\14g\6\312"
	.ascii "8t\205B\32\207f\277\334\310\241\16\12\351\342"
	.ascii "7\210\337\215M\237XC1\244"
	.ascii "0Kk\377`/\357O}\231\200\316|\376I\24L\257Rc\220\360Q\246yI\355o\34>\326\"\17\374i\36"
	.ascii "6\35Y\351\230\225\270+\240\13\16\10\324E)L\230\225Nf5\221\334\300\13\330\360\225\345\247\315\262\370\10b\365\211W\311v\260\262;\21A\331\205\330\360"
	.ascii "5`\3"
	.ascii "9\274\320D7\232\30\1\371o%N\"\307\22o\326Z\234\313"
	.ascii "2~rtrN\21\347\302\305\273\261\210\341l.b\346\22\275\37[\214\233"
	.ascii "1\347\273s\334\226\356@~\216\7#\213\17\254\13O\305\315B]\217\245;\322<\223\257\302\213"
	.ascii "1\244\346\317M\274\340*\334v\1=\205\224\27\251\350\357"
	.ascii "5\217\362\231\212\362\221z\326@\372I\372\376\220\203h;w\376\352\353\323/\275\247\240!b\232\251\235Y2\246\303\317\324\32H\301)@\236L\214'\236"
	.ascii "6\377\263\224>\24D\356\374\211o\222:[w\10\370\245\320\204\317"
	.ascii "21\365\326zq>\366\326\306\320\311\213\261el\203wl\372\372t\267\247\300F/\333\270\305"
	.ascii "6\212\271\333:\237\227q\210\370p'\340\236x\12\370\11\377\326P\340\376\304\255\343\36\322\303S\12}\340\327\376x<!\361\250\1!x\340Vo\337Qa\224\33\225\273\312\253\303;\3\364\22\250\330_\35\16|a\4C\306\356u\333\252\252\204+\30\330\266+d\4\252\302\273\337\13\356\15\5\303\301\300\236J\212\204"
	.ascii "0\276\247"
	.ascii "2l\24F\215\212\352\35\373\15"
	.ascii "0 \14\25\32\205\376\6\210"
	.ascii "0\366\271"
	.text
	.section	.gnu.lto__ZN3stk11file_header21__lzstv4_header_coder9dup_priceEjj@8.part.2.f43a2577,"dr0"
	.ascii "x\234mQ]kSA\20\335\331\335{\23L\240\245P\204+\250\30B\20\304\276\372\23\324\207\242\357\205\30\232\33\24cRL\4\361\245\333&\242O\332\226\202A)V\215\337\265\361\253jk\321\202\12}h\14\321\212>H\15\222\332*b\14M\211\201\350u\346\246\240\325.\354\316\316p\316\331"
	.ascii "3\263\202\375\277v\343>\304\31\333\213\21\34\14\364\276\227x\321\201\333\221smr#S\353\304l\33Sn\301\265\223>\314$\235n\11\32az\234\32\0]\30\260n\235\13\251A7|\346e\16\337\372\363\217\235\276\313J\251\357\37\227\353\255\247\6\367\325\360\241%\316`\233\1[\15b\\\1\37\2\353\205\334;Mx\201\341}|\264\222u-\362\32\207\315\224N\14L\247tJ\271\244"
	.ascii "4W*_\24\336K\252\257w*\227\220;k\\\300U\20$y\15\14\270\16\6\303\22\203\33\340Ep%=5\341\22;l\331\376\37\231RS\203x\366x\203xs\15\342\10x\11]N\376|\353\322\223\350\274\231\374\242\321[8\22\306\250\253\372\214\225\26\242\335V}>\362\365\214\346\271\240Toa|a\300\251\246\207\223\5\313\332T\343\22FW\253"
	.ascii "7\26d\300\203\264W/*\33\304\36[!1\367z\326a+\14?:!\377\342\337^\223\177\7<\231\26\245,k!\353\223\0\344\227"
	.ascii "3\232*+\342A\277P\344:E1\317\271\35\337@2\233(\15\355Z\335\25\11\221\31\273"
	.ascii "1\324\275\13z\25\1\34R\347jO\34"
	.ascii "4oi\1\203{+/\317\343lf\333\32ZKC\355\177\340\203cOSM\15\270\205\343\273\277\202/\342o}Y\217\36"
	.ascii "4\333\303\34\364"
	.ascii "4\263*\32b\237\200F\230+<;\355&\26\303\16\307\300\340\223\325E7\326"
	.ascii "3\347\227\177\201]G\255\7`\210\231j\235\352\351\374\207\274\260\353\222\301C0\344\373j\235\343#@\352\250\272%t lv\230\221hG,~\320O\211?|,\26\367\357"
	.ascii "7\3A\363\360\366\316\256.\326\22"
	.ascii "8\32\14\304\3\376#\221\316h\320\14\372\303f\244\365\237R4\24\212\231q\210B\370"
	.ascii "7,\330\1\5"
	.text
	.section	.gnu.lto__ZN3stk11file_header21__lzstv4_header_coder9dup_priceEjj@8.f43a2577,"dr0"
	.ascii "x\234uQ]H\24Q\30\275\337\275wf\226\224\24A\202\11*\222e\21\242\36|\351\261\307z\221z\15a[\334\221\242\305\225\334 \2\361\252+\371\20\251%\265\24\251\251\245\225\271YijQK(\10\246\262e\331C\230\204\206\375\220-*:dN\337\275#\375wa\346\316w\346\234\357\234\357^F\376^\7\361\261)!\7p\7\17\1Z7FH\205\207RV\343#b\3\227\357t\6\206\204\201S\343\341\26D\265\211]\210j\353\225\256*\335\345Tx\14\0\371A\200\224S\306"
	.ascii "5\335\200rxOS\24>\327'\37x|W\205\20_\336.\255f\237i8$\215\27(\201\35&\344\232Rr\15|H\\\235\36\177\245"
	.ascii "1/\20\374\356\357Z\34M\233\243"
	.ascii "6\205m\262\34"
	.ascii "8;\34\323eI\271,\307\347S-\314\333*\352*\23\343U|\257M\31\264\3\223-;\300\204\353`\342l\214\300\15\360\"y\261-1\220\306v\253\266\365+\361\371\14Wx\261\332\25\336\374\207\260\23\274\222\235\212~\233L\323\243\230<S\346\305\240\267@\7\334\343Y\11\341"
	.ascii "8\13\223\347:\362\30\2"
	.ascii "8\17\5\351\306@J\271:Y2\203/y\"\263\224\312\235\275\204\312DjL\16\372lhq3\313W\201\252\246\236O\30"
	.ascii "9W\204\250L\214"
	.ascii "4\213=\321\26\261\346"
	.ascii "8`S\16]\277\347r\227<\245\247N\33c\373\225z\260\363\323\5M\251\233\373O\361\341\346\350\264\343l\225\342\333\377\21\377"
	.ascii "2\21\304!\7\272!G\15\205\243\335\301\321\20Z\306\264\230T4\201B\272%\302\310\13\210\216V}\274\234+1d`\247\370\320\310\23u#<\203\300\335u\217Y\244\326\370\330k\250\316\224]\227)G\346\371\332\211>V\366U\304\204\307\246\332\2\305\3\204{PF\260\17\266\266\251\256\204\\\12\225Mk\343>\327\206\241"
	.ascii "8v\311~d(\33\7\10\364\374\360\321\310\207M.\275\275"
	.ascii "1\377'\275\241\347q,\303\245;x\217\275\353\374\31"
	.ascii "4\31\334\310f\251\241nb\12*2\321\36\203\274\3@U[\362M\222I\25\341\4\356\203\251\255\344!Z\33\355\235R\23\22\215@\37\230z\247\275\212\211"
	.ascii "9\223\222x\323\322\32\250\237h\323\17&?m\317\245\243\17H\3\274\370\355EGBV\201U\34.(\215\34\365\313\302\37:Y\32\361\37\266\2A\353\330\316\302\222\22\222\25"
	.ascii "8\21\14D\2\376\343\305\205\341\240\25\364\207\254\342\354?\240pQQ\251\25\201\20\204\277\3*\331-^"
	.text
	.section	.gnu.lto__ZN3stk11file_header21__lzstv4_header_coder10dup_encodeEPvjj@12.part.3.f43a2577,"dr0"
	.ascii "x\234\215U[l\24e\24\376\317\377\317\314\316e{\241\255"
	.ascii "1\254\17\20H\323\30\210\372\300\213O>\370\242/\276\23I\226J\227hl(\201\232\250/l/\334\22\324R\271)\22@J\245\272t)Pz\203\266J\213 \320\332\2\265\\,`\12x\203\322Pl\27\201\365\234"
	.ascii "3\323a\267\224\304M\366\237\377?s\276\357\234\357\234"
	.ascii "33J<\375\333\214\377#\246\20\21\274B\206\200`U\17n\202 \371*\245\276\256@DmEkPy'\215O\32\350\344Sf\352\322\210-@s`x&\232\15p\\s@\232G\347\240\331:?\17\315\346\244\331\222"
	.ascii "6\233\35"
	.ascii "6\333\223f\7\200"
	.ascii "6\2\304\252\240T\232n\4L\313v`\25\374!G%\334\331\330\327f\26\354\215F\243w\313?\257{\376\323M\213\23R\210{R\300\374\20\274\30\"\\-\24\240\343\332\356\366.P\371 p\337R?v\326\371]&$\314\246ck\365\311m\6\35\245F\307\316\211\236\277\234\374=\321hygG\205\366FB*\370\6\24Q\356\203\20\324AH\240I\300\267\220\217\316\17\257\365\16\352\352\25\246\355\35\31\375Z!\260\252\274\363\1\3"
	.ascii "5\370n*P\23\20c\340XMg\253\243^g\340\306\211\370H\226\13<\266\332\5\356\237\6X\17\371\344=Z\371\350\27\307\250D\311\331$\24\25\306\301\0!t\274\267\263\272\246^\252\205\314\332\335\324\364\321\334\335(\343\356\301\255\373eUtW\371\306h2\371\32$\244\16\7\322\351\335\37"
	.ascii "4\300\\\304m\30Y\237\247\336f\212}kcq\203"
	.ascii "9v\265\256\327N\356\252\274\226L\316JH\3\16N\213?\304\370\376\356\261\27\324b\306W\14\235;\37p\361-)x\35\16O\213od\374\303"
	.ascii "3\311\32\245\336a\202\256\330\337[u\227\240"
	.ascii "9\215\340\310\264\4MLp\345\330h\227\255\212\230\340P\373\355\275\231.A<\215\240yZ\202\26\230\33\317\211b\231n\235\236"
	.ascii "7\13\200J.\201:\246\270:\32{\350\274"
	.ascii "7x\15`k\2&\320"
	.ascii "4Xl\260\311\340\320\22\244%\203\223\312\244m\26-\331|\236A\333\34\336\346\322"
	.ascii "6O\320\324\212a\\h\326\207e\220\256\352\206\224|\275\0\225g+\366\304^Mo>\245B\14T6*=E\347Y@\35\255`\214\243\263\204m\333\23\355\1\232m=\11\2\332<\245"
	.ascii "7p\200\327\25\270\274u\363\237xoj\354\330\226\345z'Q\361Q\337]\23]\271j\0\312;\277\30\350\1\362\247\340\10\270\376\311\375C\300\200\331\2\216\261\373\15\251s\322\350\235\315\345\32G4Awl)`d\3\231\244\270\4\25W\326<\36\274\2nx\205"
	.ascii "6$\254^\335\334\234I\204&\326\267\35\11\7@>A)B\215\255"
	.ascii "9q\361\260\207\322\31\250\245{\351\256W\317\305\273\236\27"
	.ascii "9\"\367\255\252}\361 q[\216\200\216\251\334\6\242\312\7\327\366/t1\1\317R\315\34\210\276:\334\333g\22\32\353\213\307\306\211\235\267"
	.ascii "3v\300\366\262h\324LH{\\\232\320I\372\341{\330\1\10\247\34\206\326\14\371\231Z\310\207\260\232\315[b:\353"
	.ascii "3\5\374"
	.ascii "05\7\313\315\341\246\237\271\355\331\374,\372\276\254\255\340\16\31<\336\303\315#m\301\364,\216s\26]\234\205-\260\305\203\25\377\306\336t\351"
	.ascii "4\204\224\325\266m\340\211\260\320\255\333\355\360M\320R\25\352x\347\4\204\344\206\206\206 \332k\177]\375\300b;6\364G\10\251\232\6\240fkg\32\356\7\261\337\206\210-\340\341\350\330\362"
	.ascii "2ki\"-\340j9q\251\312p\203;\236\315\327\322{\355\370g\334\17C\222\226\262S\315\375V\272\226\223\254\345\24kqx\266\2bx\246bQ\361\375o=\21u\372\267\211{nk1\305\237\374\261"
	.ascii "5\305\1G\271%\365\323\10NM\343\231qOs\334\240\333\311;\227\6\274\236d AZ\353Xn\206+\367\37?N\246g\363\343\304w\336\177\314\317\212\241H\356\365\226?\23vz\330"
	.ascii "3\34\366,\207\315d\1\226"
	.ascii "8\234\351\312\275\225*\327\377\200Y\370\330\365\370rmQo\270r\7.O\246\221\365\277\345\366r\334,op/O\312\315\236Vn\266"
	.ascii "7\251~\234\31\236\315\217\363L}?s\234\31^Y\375"
	.ascii "89H\360t\234\34\257\254~\234\\\317\346\307\251\351\273\332\247\270\254\374\365\276\323\373\250nJ\330>\16\333\317as\271P\16\277\241\206\240,[\214\313<\232\377\274\324y\24\370a8\7!\343\253\306\335*\265q\2\337\211\347!d\216"
	.ascii "5B\352\343B\37\216\13\20\262b-\205\251\371\10\374Z\14@\310~\330\264[\341+\35(&\372\316Y\372^qdQdY\311\242\225\245\357\207\351\20.\376xei\370\335HaQd\305KK\226/\27vaxIIQ$\274\274tEN\341\207E\205\245\205\341\17\226\221\245(\\\34Y\366\334\24S\311\322\245+#\245P\252\321\21\212\241\4\"\377\1q\30%\34"
	.text
	.section	.gnu.lto__ZN3stk11file_header21__lzstv4_header_coder10dup_encodeEPvjj@12.f43a2577,"dr0"
	.ascii "x\234\215U]L\24W\24\276\347\336\231\235\231\235]\334@\11vH\332F\203\304\264i\372\320"
	.ascii "4\351S\37\372\322\276\364\275\251\315v#k\332H\304(M\372\23\343\362S\324\304X\304\37Tb\321\26P[\204Z\241\374\212[\5*\5v\13(\222\206(m\300\324V\213(\212\333Z\267\347\236\31\306\5"
	.ascii "1\351&;;\367\233\363\235\363}\347\334;+\330\343\237Z\374\366\353\214\205\361\27\322\30\360\362\30cE:\347b{.\213x}\362\352\23\334C+\205V\212\263Ri\245\202\307\246x\270V\377"
	.ascii "2\302\372\344\323\10k\340\267a\235\33\235+\20\366^|\36ac\36\366r\223`?\301\346<\354\263o\300\17 \177\31\260\255\\(\252G\323\15\257\351\363\303V\270\316g8\374\265{\250C\317\255\215D\"\267\212\367\234\310\332\265\367\275\4g\354\16g\360\202\5\253-I\254\203\\\14\334\326\323\325\15\"\7\30\336\267"
	.ascii "5\314\16\232\277\363\4\207\347\344\262\275\342\302\1\217\\rE.\243\367c\177\232"
	.ascii "9_E\"\305\321\263%\312\33\11.\340\30\10\231\362"
	.ascii "8Xp\2,\206\20\203\257!\7\203\37L\304\307T\361\22\245\215O\317|)\220X^\34\375\233\210\12|\263\230\250"
	.ascii "0\250'\342lM\264\335\24\257\23q\367\375\306\351e6\361\314g6\361\344\22\304\6\310\221\321"
	.ascii "3\245\377^6=\245h9 \215\242\303F\360\0c\2\237\215\237\231\351\366\212\267)\353\351\256\233\265i+\217\242\217[\267\367\235\344\345\221#\305\273#\311\344k\220\340*|\273"
	.ascii "0\277\375\201S\260Rz\32H\326\10\361\16%\351\256\277Q\251R\222#\255;\224\13GJ'\222\311ge\202\357\226Lp\232\22TW\324"
	.ascii "4p\361.%\350ii\371\330\346w,\340"
	.ascii "7-\311o\206\225\215\351QT\331\321\327w\316\350"
	.ascii "7\237\1\22%\260\1L\221\27\25d\33< \273\250\201\34\202N,\203\256^\272\232\30\350I\223\227\200\274\244\223\254\14y\233)/Y\264^.o-\272\315\226\267\214Mb/\345V\233\342\\\376\212Q(\216\316\14\313\275"
	.ascii "3\334"
	.ascii "3\233-\202d\247\344\312\310E\215\374L\264]\257\320#)\216\276_\312\21RvN\357xJ\204\210}|[}\243\307\356F{J74h}\2"
	.ascii "7e\326\262\17R-\264\340\267\15\277\350\224F\217mk\307\15\200\217\346\270\312\244\352;\303\271\4\265H\310C\320\335\212W\10j\223\220\306.A\351`\311\\\355j\211a\10Vj\354\351?G\207@]\306\240\303\321"
	.ascii "0\205\33}{\256\240\350d\355\253v\264\212\321\7\252\22]\32E'qB\235n\270\302\272"
	.ascii "3\354\360\332U\217\242\367"
	.ascii "6\237=\260\314\216N\342\311"
	.ascii "9\343\206\253\354"
	.ascii "7\203\372\\9\22\3\322g\357\300\261\243"
	.ascii "7\366\373\211\200\323\355\242\360)4\202R08@[b\216\3\31\253\332c{m\266\275\376\2%\343e\367\6\206\301\256\256\333\346\334\23\256\343"
	.ascii "1:\213\371F\201?b\351\222"
	.ascii "5[\366p\240\311a\31D\204\205Q\206\35\325;\330\351Dy\21\303\334\207.O\315\12\231\333\300\1F\27\347\366\"\253xl[l\360\226\303"
	.ascii "2\35\254\202\326\310\277:\31\37\322%_\243\211"
	.ascii "7\337\257\276\351?\14UE\221Ht}B\26\321\340\7\331\1"
	.ascii "8\7\207\1\371rvc%\323uo\332\371\0"
	.ascii "9Eu\35;i\32\6\206\235\267\273{\15 5\271\212O\272\301\22\17*O\371\20\257\31\272:D\242UlH\17X\312\336\203 \33\255v\36\274\353\303^kl\277%H\371\265\301r\217])Mn\257T\345C\207\352Jh\254\32m\356\311\326\351\16\237\243\374SGy/)\377\221\224\247\321\24uv\333'\310B\262\356\255G\26\334\11\31(\350\202\273A\14\206oW\322\321\33\233\327\21X\254\343\311\205\373\250p@N\356JY,6\352\314 \335\336\226"
	.ascii "5\373\366\327\253\264+p\227\375\224"
	.ascii "29:J\351\366\344F\335\272\31\16\346\326\215O\234\377\334G\376\271\364_\324\327:l,\222\321O2\6HF\6"
	.ascii "9\362\262C\232\355\277\345X\212\177W\213\201Z\6]\377&\253\24\266\377{\256\216\314\377\357?F\205"
	.ascii "3m\377\17]\377Y\230\341q\303Y\266\341\336\370|\241\345\16\346\26j\254\276\373\20\310\260\220\206\177m\373#\341]T7Nu\177\246\272\313\235\276\307\347\353Z\230\360\361\272\226\323h\267n\266\203\271u\237\334\331!*\224M\275\362\311\367\303"
	.ascii "8\224\5\344Kq\216+H\374bdW\3\337\362Od{DOp\363\16\36i\6\303\260\205a\2|1`\27\22\310\222\\?\275\361\257@Q\0\237\11yzD\352\200\31\36\355\21\260\264\361\252\243\"\265\17\14\337f\27\301"
	.ascii "2\232\16C\352\241\302\277*\270\4\226\331T\215\342\24\337\202\203(\377\345F\301\362\326\267\205\360\37\7d]\304V\254\373 ?\274&\274\241`\315\346\302\365A\271\10\346\177\262\271"
	.ascii "0\370~8\224\27\336\364\342\332\215\33\231"
	.ascii "7\24\\[\220\27\16n,\334\224\36\372(/T\30\12~\270A\"y\301\374\360\206\314EP\301\272u\233\303\205\20\206\2(\204|E\202\377\1|44\317"
	.text
	.section	.gnu.lto__ZN3stk11file_header21__lzstv4_header_coder10dup_decodeEPjS2_PKv@12.part.4.f43a2577,"dr0"
	.ascii "x\234mT_lSe\24\377\316\367\335\336\336\365\217,\4M,\17\30\227\205\230\200\301\360\240\217<\372\344\273\201P\232\256\313\204e[X}\341\205\333\256n\1\14\342PX\344\337\370"
	.ascii "3@-\33"
	.ascii "8\207+\223Q\241\203aa\244(\3\21\273A\312@\330\204\305\302h\234\224s\316\335\32\312z\223\336\357;\347\236\337\357\374\316\371\316W%\346>K\360\327i\23b\35\256`\23\240m\33\302\215\6\222W\11\212\326\220\241\0h#@l\324\244\202\215\360\267\234\224\360\317\227\251>cq\207i\232\217\357\304rol\375jMN\12\361\257\24\260\304\3\357x(\376"
	.ascii "0,\306\300\236\361m\307@U\202\300}\254"
	.ascii "3{\331y_\346$\274E\346\251\326\301"
	.ascii "6\235L\251\261"
	.ascii "9~o\257\253\362\240i\206\343\311&\355\303\34&;\2\212(\217\202\7\276\5\217@\227\200\357\240\22\203\233\223ma\227\372\200i\233\317&\23n\13\270\351"
	.ascii "3\13\370}\11`\224\201-\3\375\11P\37"
	.ascii "10\376l\350\241\323\2^b\240\6\307^\5j\2:\241\222\242'#\377_w\352\21,\271\234\12\305\12\273@\7!\354\370\355~\344\257\254\246>f\326\261]\267\333\347U\354\307\270\321\364\226\255v\263\315\214\214\346\363\213\260?p\334b\237m\21=p\2*\210\240\243s\277S\255d\202\354\346\354\304kD\20\36\375"
	.ascii "3\271\35\11\332g\10l\360C\11\202n&\350H?h\3\265\232\11\242\217\273\17\350L\20\377u\267\271\"t\300|\236\317\3\341\177,\201\357a\374\255\323\223\11\207\362"
	.ascii "1\276\273\177\242cF\300\315\207\255\206"
	.ascii "98+@\207\223\305\375\231\241\370\211)>\177\264i\201\362"
	.ascii "3\303\321\226h\227\245\240\375\217-Z\1o\207\336\222\370\30\343\247/\345\17)U\303\4\211\350\370N\233%\341Fr{\221\204S%)\372\230\342\352@v\241Z\313\14M\351\337~\267[MH\266\233+\"\263M\320\341\347\222\4\247\241\242k\276i\346\363\367&\226\226\3\320\251K<\177C\341\253L\343\4"
	.ascii "6\262u\262\355l\33\374.#\257\203\274N\266]@\243\346\26t!D\6_t}28H\270\252\273R\362z\23\302O7\237\37"
	.ascii "9\251\27\17\26\251 \16\352\10u\225\16\207\16\230\246\204\347\15\205\366\203>%\351\16v\355{\362\34\350\376\330\25\25|;\366 \347\330\3\273B\246i\340YOI\200"
	.ascii "3T\36\304a\17\10L\230n\231\326-\264B\2"
	.ascii "1\14a3\306\16\312\210N\214i\272\325<4\222\5+JC\37\362\36\372zG\324Fi\34X\357/\310"
	.ascii "8\214\177\16\5\224&\270\224a,\305B\331\20re\364\334\27.V&IY\350b\357\325\262begY\331\271"
	.ascii "9\312\210\200td\233"
	.ascii "3oZ\36;\13\321\213\263\332-\255\351\202V\3}s\305\31\226\270\261\202\270"
	.ascii "2T\223\372\346p\323<\26\307s\222\351}\324\347*\26\227`q\3s\304"
	.ascii "9\220\240X\234\223"
	.ascii "3;\212\263:\251\265\361\377v\276\377\262\13\211ZO\344\257-'\37f\35\311\\I\31$B\11\22\321\363l\337\204\273 \2\211]p\236E\\@\21\4\27\342.\206\322\344\244!T.\246\244[\210"
	.ascii "1p\323\361\244FR\212\230\4\16\351 x\344\364\231I\205\363\6\24\215\323\367v\365'\265\201U\201\272\372U\215\301u^2\274\265\33\32\203\336\232\200\257*\260\376]\177C\203\230\357\363V\371\202>\357\247u\376\372\252@\225\267"
	.ascii "6P\367\372+\256\372\352\352\306@\320\341\363\222\351m\10\256\207\32\351\177O\372\227A@#\27\324C\355\13`\322\30\20"
	.text
	.section	.gnu.lto__ZN3stk11file_header21__lzstv4_header_coder10dup_decodeEPjS2_PKv@12.f43a2577,"dr0"
	.ascii "x\234\215ViLTW\24\276\347\276\231"
	.ascii "7o\26\25\27"
	.ascii "4@\24\225 \330"
	.ascii "6\215MM5\351\37\177"
	.ascii "5\355\237\376oj3\245:\326F+F\251\215m\214\217E\254\326\242%\265\22p\301\5K[\224\272\203\270\214\212+\212E\20\255\302\210\6"
	.ascii "7\\\251S\220\324J\317"
	.ascii "9\367\315\370XL$\341\315\274\357\235\363\335\363\235m\236&\372\376\255\300\377\6\257\20\263\360\23|\2\344\252Z!2\15)\265\307\261\302\364\270\213'\13\323\247I\307\201\261x\347lx\35\357\34\340%#pJ\235Q\27\243\272B3\15\227"
	.ascii "4\312&\"\354m\215C\330\210\300n\351\261\301\236\10\354\5\240/\2\304b\251"
	.ascii "9\234\272\313p{\274\260\30\356\312v\11\17\177\254\253"
	.ascii "2RJL\323||\243\262kx\336O\237vI!\236H\1o\304\303\370xr\333\12)h\270\347\376\252m\240%\203\300\357\225\333\303\347\274wd\227\204\321t\273?\377T\201N\267\322\301\267\367o\257\367%o6\315\254`M\266\343\375.\251\301/\240\21e)\304\303\257\20/\20\22\360\33$\243qnMA\226O\233\314\264\271Gk\252\7(\307eK\224\343\357\375"
	.ascii "8\226\261\343\322\343\207\252A\373\220\35\203Ok\357y\225\343Yvt\300\266\336\216\16\1\333!\231\254\333s\376\273\344\325sPr\14\11E\205\345\240\203\20:>\273p<\234\240}\304\244\331\241\372\6W\322F$m\271|/\337"
	.ascii "0O\25\347\264tw'vI'\374\321\223\\\375\301\16HB\267gg\273\267h\332\307LQ]v\177\215\223)\202\265\305\346\224\234M\346\363\356n \206\235\375"
	.ascii "2\354b\206\246\203\355\325\36\355\23f\330u\350A\311@\25\304\225^A\354\356\227b\17S\224\204\332\12@\363"
	.ascii "3E\331\343]\233tEq\265&\337e\26D(t\330\253(\"\225f\202}Lp\247d\373F\257\366\31\23\204\227\207\37\14\264T\254"
	.ascii "5\247dFT\350P\321\217\177\245\362\317i\16;\264\0\373\337*\272^<\210\374\315\226\320\367y\30\200i\5 `\177?\4U\220T>$hvw?\271\275\272\364]\375"
	.ascii "5\300\342\11I\27\15\250\204N\216QG\300\345bk\203U\273\21"
	.ascii "0<t\361r)|@\35\26\3\324.\203\21v\17\301\213g('y\30\231\305\22"
	.ascii "8\234\300\21\14\306\341W\235:\305\235@\340H\262\31E\227D\346\33\315\322\306\360u,\31$1\234L^\343\310,\205\\S\351\211\20\255\330V4s7\245\244O\255\21\262\202\273\326\274\203\311X\361h\331"
	.ascii "0\355s\316K\351\322\262rU\230`\215\275;\274p\240\277\322\366\354\\:\233\242\206\203\370\217\362)'\24\32%\204\33\32"
	.ascii "3y\10\333\32\37w\342\320\\\201\254\216\345\17\233\237\2\201\235\322\211d\327Z\317\327\31"
	.ascii "4\265^\346\336\363t\303\203\1\353\240(\323"
	.ascii "4\203\337\242&\364\202\303t8\4a\35\10T`v\261"
	.ascii "7\235\204\14D\31Z\332\321\234oQ\352\12\313~\252\253{\27BH[\276\341\237\347@\247\10\234\334#\310\327\10\222Y\252\210\305%.B\316\345\354\315\345\343-'\364(\274t3\254\221\207\13Sp\324\222\177\23"
	.ascii "5<\216\325\210?\267"
	.ascii "6t\310:3Y))m\256=\301Jt\334\256\307\320\203Bs)\23\3\255\242g\356\241"
	.ascii "3\15\322\22\274\270&\205!5r\321\\8Qo\265\305\260"
	.ascii "4\24\332i\35\344\266\304\205,q\36\204\354\213\317\300\355r\234\305e\231\227\242YB\213s?\254\337\353^\220\301\371\364\20.\340\4,\340<\275':\345"
	.ascii "8D\321*\257\246\360\10K6\272A\300\311\310\371\267B\353\255\363\275h\32U\261\203Tx\311$\277\275\243d\20av\11Z\237r~\211\272:\245\17Nq9Oc9\311\237"
	.ascii "3\177\270\374\3+O\350\263e\365\317eN\242\360\341H\235\211f\336!\352\335Z\23\344\306P[uJ\372\325X_\237\267].\372\327\374\316"
	.ascii "4\272\344\200'\22\267'\324\300\"T\344\353\224"
	.ascii "1\330:]r \373:\305:\237\306'\225L|qP4o>\314\333\331\350A\272\330\351\324\270S\33\357\354\265"
	.ascii "2=\30\315\317\267\34[\351\343N\225$-\363t\305\5"
	.ascii "7J\3\253K\317\261\254Z\352RN\333"
	.ascii "3\313u\10zsE*\365H\251\21\244\334"
	.ascii "7\345\206\356\204\255\324\16E\314\256\335@\355\347m}\312^C\325\0\335\212\206\25\213.u\205[\263\7qX<\316\255\25\217\252|\266\260\376\344\260\352\372\204"
	.ascii "5\34\275)\210pnk\234BF08\264\347\221#\270M\213\12'\331!\252\371\216\223\215o[5\267\27\271@\343*\307XU\276\300U\36\301yu\211"
	.ascii "6]\25\341\366n[\271"
	.ascii "3\267V\255pq\25\320\276>Z\5C\234qXU\270\33\221\33\377R}\15}\364%\240y\237\264'\260\232}v5\11JM\355\253\250\271\310j\22"
	.ascii "8>\267(\236l-\202\266\310\"\210S\213\340\306\312\354+n^\4\23\4"
	.ascii "4\332\212\250~\25\213\316\225.s,\374\232\231\343\324"
	.ascii "0^\202\205j\35\24F\327\201m\376\333\"\363?\262\327\374\217B\10\11\363\227TT\14\344\246A\252\313\326\374\267\277l\376G\251#\377\262\315\377"
	.ascii "0B_\314{[d\336\23\361Q\317yO\264Vx\333\337\226\311h[I0cF\217\252\\Q+[\371W\222\377h\325\367\35m\373-\377"
	.ascii "1\212\":[:n\333\253\266\224\261\327\30\25\330\363h`c\25\206\315\333\344TH\22\203\211=\243M\342\244\266[I\265 ^XM[\7\365S\356\236\33\252\211\253\235\244"
	.ascii "6T\347^\253e\343\354K\216~\336\232\243-\353\21\227\223U\313v<\210\264l\312K7E\250O\313\246\242y\237\226Me\15\207\213&\331!n\331\360\253\264\354"
	.ascii "5\26\221\312\361y\371% \4\231"
	.ascii "1Xs\334\225\267\0\37\341K*\375 \352\317\352\332"
	.ascii "5{!\360]\7Z \336h\250\7\273bz5\272\16\361\356\263\315i\364\330\263\266\271]#\300\205\0\276o\0\35\201Fcg|1;050'}\352\374\214Y~\272\361\317\376f~\206\177f mz`\336\233\323\346\316\25C\322\374\323\323"
	.ascii "2\322\374_\315\231\226>=0\335?;0'\266\27\224>c\306\374@\206'\315O\267\376\271\31\363`6\244C@N\233 \247\275\5"
	.ascii "3\35\4\377\17\223\254>d"
	.text
	.section	.gnu.lto__ZN3stk11file_header21__lzstv4_header_coder11plain_priceEj@4.f43a2577,"dr0"
	.ascii "x\234eQ\317K\224Q\24\275\347\276"
	.ascii "7\223\244\240\270\20\372\332D2H\20mrQ;\227\376\21\3_\203\363E\322"
	.ascii "0JN\20-\362"
	.ascii "93\355\302T\\H\253"
	.ascii "2\324\254\311\261\37\233~\301T\10\202\230\330\357"
	.ascii "6\"4Fm\262!A\6\262\257{?\335H\17\36\357\236\373\356\271\367\234\367\14\375\277N\312\236\5\321i9\21#\360\310\33\242\241\6f[=D\356\240)u\222k2\260\273i\13h@\240A6\26\203\370\301"
	.ascii "5\306\317\321\325g\15\35S\316\271_\17\277^\31\36?Sg\242\337L8\356\341\230\247\345\323\350\220\272?\353+\237c&\1\222\370\311\334\326r\343w\256"
	.ascii "3\216(|:\266"
	.ascii "8\21W\310V\341\312fm\322$n\273\221|\345K\301v\327\331`\6F[\336\201\207Yx$)\302]$\264\272V\334\371\324\30/\312\374\26\35+\363\356!.\236\250\334Zqa\370h\370e\322B\30\304\210(T\225\"\365\261\301\254\247\371\210|\345\305s\265\362va\353\260"
	.ascii "9\25),\254\275{\177\240\375\226s\371\312\322M\327U\234t\177\303\20u\266(\355\227\262\273\366\353\300}\264G2D\314\234\210\21\270-\303>\240\270\\\10\27Ys\202\205S^Xz\25\31\267\315\204\362^\267\252\230+u\232\15y\14\225\267\206\241\26\332fq\364\15\20\316\352\215\351B\263r\344\37"
	.ascii "0\17\217\257]m\323G[\177}\275)J\313\305\3x\346qL:A[\210\337\243g{3A2\310\366%\7r\347}\5~\346\362@\316?\27\244\322\301\205\23=\375\375\324\232\272\224N\345R\376\305lO_:H\373\231 \213\314?\344\242\254"
	.ascii "2"
	.text
	.section	.gnu.lto__ZN3stk11file_header21__lzstv4_header_coder12plain_decodeEPjPKv@8.f43a2577,"dr0"
	.ascii "x\234uUmL[e\24~\317{oo\277\200\362\341f\326\375\320H\310\262\304\230\231,\352\37\343\22\243!1\376\360\237?\226\324\206\326\314\210\214lu?\374\263\333\17!.l2\262\30\250\216\217\31\330\324\216\312\260\270\255:;\31\272d\2A\35"
	.ascii "3\6+Y\12N\35_Z\201\376\30\365\234s/Ma\254I\337\336\367\271\347y\316s\316\271\367\255\"\356\377<\213_\237&\304+\370\13\232\0\331:&D\320&\245\222\331!t\207\32\333+\364\22\5,\6\254\256_X\0\350B\200"
	.ascii "8*\25\325\2G\341O\271$a\376\344D\322\266\253W\327\365\305\333sg\341\304\251\327rR\210\177\245\200\307\335\260\333M\204>\330\205\201\211\273\255\347A\251\1\201\327\227\372\263\243\316;2'\341Q\332^n\273\336\256\321V\252\274\275\373GgI\315\307\272\36J\215\206\325\332\234T\340,($y\16\334\360\11\270\5B\2>\205\32\14n\36\271r\15\224gX6\265:\366\267\323 \36\177\227\210*|\266\231\250\12\210A\15E/E\356\335rj\21t^N~\321\350y\320@\10\25\357\375"
	.ascii "8\222\335\251<\317\242\341\364O?[\253{Pt\361\366@L\266\352\335\241\223z>\377\34\344\244\5\372"
	.ascii "7\312\33\37\210C5\22{\323\177\265\203\362\2\213\304\26\7\317h,2\335>\334f\325\333\273#\323\371\374#9\251\301\347\206\304z\267X`\200\5\356\364\366\367"
	.ascii "8\225Z\26\310\36\313\316\225\261@j\354#}_\360\214\276\226\317\3\361/l\301\37"
	.ascii "4\370\221\337\262\252\362\22\363':\357\325\32\371\243\233\362\177\261\5?\1\325\361\312\24V\231\314}\360\303\236\235\17\3"
	.ascii "6N(@\235\263\260;\215c\254\10[m\264\330\271h\7\257N\240\321\224\262\213"
	.ascii "2F\\\274\226S`\5-\225\270\330\252\30\334F\373\355\264\10\221\301!\320#6#%\375*\223\20Ju5=\205\356[\26\336{Hy\231\13"
	.ascii "9\327\34\213\33\235L\335\350\326\367E\326\33a\207\241\255f\261q\316\224\21\276\304/\226@\366\250\10\36;\326|\21\207\217\267V\360\321\372\25B\313\307\306:.\0\201+\322\202\"\277g\306'l\364\210\332Y3\261\332"
	.ascii "5Wz\32>\14\352z\352U\354\"\262\340\22%\205\313p\32\4:\327\7\231M\231P\1%\303\253M\223\35C\246\244\251\32\357\372o\15HU\303\347"
	.ascii "9\211\374I\220\314J\20K\23"
	.ascii "7!\362Kx\241e\267IBF\260/\331b%\206\3s}e\226"
	.ascii "9\203\236"
	.ascii "3;\24\264\235n\236-\330\266\232y\323\232\261\267!\204\12\321[3Y\205\24\254\330\254\257"
	.ascii "9gHO\26\314b\304\350\361\316!\373\221\0\227e#\\\300\25"
	.ascii "8\302%\274(V\344"
	.ascii "6D1\352\304\215\350UC'\17\2\276A!\316?\337\321i\346\267ch\241\240"
	.ascii "8\25dg;M\313\205"
	.ascii "68\20"
	.ascii "3=\24\205"
	.ascii "9H\251mi\274\307EXq\363\225\373\232\377\26\276\205+\322\11)n\376Ul>\361\251%\252\210\355Ux\222\351\350?f\276Rz\23\242}a\27O\222\237\247\314\305\205d\211!f3\7\371-k\15\33\203"
	.ascii "4|\15\222\257R\243\302\331\350z\205e\204m\260^F\25N5\315G\247\314\20\27b\305'\234\25\317\237k\233\13v\31\302\313\321\365\321\225o\32]\5B&-\244\337|\320\254*\214Y\215\24\315j;\241\205\331\254\25\234W\342-\12\312"
	.ascii "6MY\14\244\212A\327FcU<\211\201\251\302$\36\334\372\357\270\365U\334z\13\277\276i\10\226\243\5<Qg\1\212\33\217\177!\360=\270\225\226\304"
	.ascii "4\375\203\214O\17\277_\302"
	.ascii "8\336\271\16n\365\324\323x\24\0i\340\201\360\330\353o\324\373\367\373\33\16\356?\34x\323C\33O\375;\207\3\236\3~\257\317\177\350\211\272\306FQ\351\365\370\274\1\257\347\355\206\272\203>\277\317S\357opx=t\355i\14\34\202zY\267G\326=\11\7T\202\376\7\315\1C\217"
	.text
	.section	.gnu.lto__ZN3stk11file_header21__lzstv4_header_coder13pattern_priceEjj@8.f43a2577,"dr0"
	.ascii "x\234uRMh\23A\30\235"
	.ascii "7\263MKSm\21\24\\\17\212!\224\202x\261x\351\241\36\275\212\36\13kHV,\206\244\230\24\244\227N\262\253\320K\333\210\202(\324\250\264Z\215\215"
	.ascii "5\25\255b\11j\265\20\253Tk=XJ\16\251\324\203\305\330B\311A\327o6\36\374\35Xf\276\267\357\275y\337\314\10\366\367\330G_;g\354\10\315\250a\340\203\257\30K\324q\256\225\266"
	.ascii "3Y/2\255L6\10hUX\3\324\202\201\365r\241\241\27\237x\231c55\367\250\256yXJ\371\345\353\375\7\333\372\317\35\255\220\343\32g\330\243\243EW\374\21"
	.ascii "4\23"
	.ascii "1\361\374\345@\255\360\203\321zrl}\326\273\302+\34\273T\371\360\354\314\5\217*\271\246\312\241djh\223\377\232\34L\346?X\332\301\12\27\270\16\241,o@\307(tF\20\303M\370\211|\251ou\312+\332\\\333\304\304\231\5^\25\216\236\256\12o\375C\230\201_\261\313\366\267\367^\217M\311\233T^\12z\33\36\320\234\335\222\227\216\223+\245V\366\243\6\244a\34j7\1W\312JDV'\261\314\271\232\305\2\222\371\363/T\217o\246\327w\210Cn\26k\351\355|\255\357\212\224\311|!-\17\330W\345w\307A\205k\30\373=Ru\220b\361q\371Y\275"
	.ascii "8\354\252sS\237\207"
	.ascii "7\273\352t\301\322f\322v\321qv*\361\235\377\210\177i\6Y\370"
	.ascii "0\16\237\333\17uu\227\272\"h\203\322RRy\31.2\256\20\301\336\301\236\265r\375-\12#\6"
	.ascii "9e\247\13O\334\313\320\32\31r?\367(\21"
	.ascii "5\323*\226\351\202T\307KH4\261\15N\207\365\21 \315\334\305\21\253Qi\350q`\2:_\234,*\257\327\305\247\3\15.N\177\356A\27v\33YAy\320\31\356>\326\31"
	.ascii "6;\314H\264#\26?a\250\302\10\367\304\342\306q3\20"
	.ascii "2O\356\15vu\261\255\201S\241@<`tG\202\321\220\31"
	.ascii "2\202\321\356H\334\374\23"
	.ascii "5\303\261\316\36\23a\230?\0\347\326\345\322"
	.text
	.section	.gnu.lto__ZN3stk11file_header21__lzstv4_header_coder24check_pattern_match_costEjjj@12.f43a2577,"dr0"
	.ascii "x\234\255VYl\224U\24\276\347\336\177\366}\312\226\26\227H\260j\242\276\371\240\17\372h|\363\305'\222\246)\243\22\233\322\224\222(/N;\205\262\305\226R\255\2\226\"\213\10XD\226\26\332\302\320\322E\12\224\262\224\226\245\216\332\216\10\262"
	.ascii "44N\21d<\347\334i;S\206\30\210\223\314\375\357=\367\234\357\277\347\234\357~3J<\374\271\201\337w\235B\264\341\23"
	.ascii "2\4\310\312SB\224X%\30z\242\364\344\250\325\220ju\247\20A\273\251\314\"\202N\223"
	.ascii "4/\317\306\225\215F\247YZye\341\225\5\254:\330\12"
	.ascii "6=\261I\7\357\333y\337\16\16mv\200KO\234zr\324\352\222N\375\26"
	.ascii "7\277\305-=\347^\305\225\277\371i\\y\244\217Q\274\214\342\5\237\16\366\201_O\374\0"
	.ascii "4\21 >\225\312"
	.ascii "0\231-V\233\335\341t\271=^\237\37>U\206\316\330\245\37\177\310\21\11\7\353GO:\256\312\273R<+py\250\252\353K3-\301\240\345\332\332X\243%{k0\30\274\375k\323\237"
	.ascii "3+\253\353pK\212;R\300"
	.ascii "6\310\204o!\223^\266\35\262\321\267\252\262d\225\241\346\2\305Ek\243+\\s7\7+K\303\267B\306\333w\245\202\357@%\207\241I\300\16\230\213\316\265;Z\317\201z\211\3\353\267U\324\333u\340\206\245:pg\232\300]\34\270\351\332\346}\26\365:\7\36\37Zv\335\241\3/'\2\277O\23X\17s\311{\244\354\237\13\16s\31\346\345\245d0\207\335`\6!\24\356\205GFJ\255\352\35F]\331"
	.ascii "7V\356\231\263)\30,\215\\\377\255\312\32\354\252+\213\304\343\317\334\225\6\374\220\212\256?\260\7\346`\330\327W\32\13\325{\214\260z\340\350&\305\10u7BFR\374\217i\343\367r|\264f\244\333\246\346"
	.ascii "1\300\356\350\312\3v\15\260bi2\300\276\264\0\373a\316n\177"
	.ascii "8\30\217\337\271\265\246\353y\371\24"
	.ascii "0\246\344\15\305s\203G\23[\314<Z\200\352b\5*\253\215s\260\3\365\306\301\236N\36]X?\223\233\247\36\232zy\352\343\321\317(\31<N\343q:\271\314\340\351L\232\316\302AR\13\314Y4\314\246A\210!\254<\222|\30\31UfQ}P\32>[\376\32\246\274\261jK\275T\271\234~{C\303'\272\1W\247"
	.ascii "4\340@\272\374"
	.ascii "1\342\332\256\272"
	.ascii "5\16\225\307\321\353\273V]\262\352\342\375\221R\375\306G\4_\332r~\227Y\25q\360\371\13k\306\\:\370ZJ\360\241G\4'\261\12\32`\16\34\304o\23~\261\240T&\252\6\23\15\333\324\214t\303\355\230\264\10\314;8\0li\"\213U\\\204\320\27\313\6k\253\315d\214I\33z\221\271\17${\355!/\33\305\205\7:g\263\251\201Lv6]*\177\231M{\265I`y\225@E\241\372z\351\224\367#=\375&U\2\234\343/[\307\32l\230ceid\260m-\326"
	.ascii "7\230\310RAKZ~\35f\202\226\377~e\217\223d\302\210[\4\34\301mD\217\264wf\23\346\231\366\321,U\255\361C\203g\317Y\270\206\341\356\272\340[e\337\4\37\304\343@E\14\247\205?\212e\"8,A\325\262\232[\233?\320%p\304$]\315u\27\206G\25\275\326\204\221\255\374V9\231\254CGul\374\33t\224"
	.ascii "3\206=\221"
	.ascii "0\34\355"
	.ascii "9c\360aK\306\342q\217\200\266\244H\256\234\223\313d\10\324N]&\15\250\204^\260\17\210\363Pv*\324T\361\242\6\7>'~\242\0Xhy\242e\10\237N\265\372\310\250\212\202\"\323\345\226\253\22\217\245\356\267\214:\21\337D,G\220\201\320\365\11\20<\336\317C=\275V>\36\346\177,Q\212a\274\37\255j\242g\217\335\246v}\344DW\36\277\21)l\216\14?\30"
	.ascii "3\23$\363\366\216\204\251d\357\240\255N&v\27\326\264c\242^'\333\272"
	.ascii "1\325\256\361Tw\267w\267\362\257\213\201]\370)\361\262!\274\3\277\200\32F\206c\306\27\241t\260\274\346\336oY\272@\256\230\324dH\334\5"
	.ascii "7\233Tj\343\335\324\204L\304\357]\267-\344!|\324r8\16\231\346\372\323\21\372\221\353\211\264U0]\315\230h7dZ\366\231\260\302\266\204\352\214\267\333\20\343\345.\351"
	.ascii "8QaQ_h\12\217m\370+dp\355\361"
	.ascii "7\260QV\6\353J+Q_\337\4\252\376\211\264\325?\251\357\361"
	.ascii "8\334\372\25"
	.ascii "7\17;\324.\15"
	.ascii "7|\270\177\225\231\341\202\10%\227\207\21\212\220N\245E\352\231\320\210\360\347O\330\307\313-#\307\354\252U\277}\357\341\33[\335Z\323\272S4\255\367?Y\20\276\327\331\1t J/\301\4"
	.ascii "9\225\11\247q\373\14m\237e6\234\303\26\235\236(F\270\246"
	.ascii "3\233MgtVD\220\320\336\317^$\33\272\214"
	.ascii "3\"\12\6\266\330\204\267\311mm>\322\254\220!v\242\306"
	.ascii "0\336p\354\30"
	.ascii "3\344\346\306u\11Fxb2+\231!^6\31\251\14\361ji\370kcmB\32|\254\251\336T/\237\366j}A\373\370\361\16k\241M\222\12?'\262v\245\26\331\375\332\204G\316\"\276\331.\37\214H\"\230\275\354\15$\230"
	.ascii "3Ew\37\373\16\237Oha\222\264>\256\234\366\245\310\351\252\245\11"
	.ascii "9\315\210IS\212~r\36\31\332-\272}\\?\247\305\244|X,\247\261<\271\222\304\222\243M\311b)\265X\356\254N\350\234\234\24KTD\277cuo3>\247"
	.ascii "9O\364\222X\232\310\264\241\227\304"
	.ascii "2\303\331\334{\233\304\322=!\226M\223 \223\352\350\21[\215'\257\354\5}\306\377K\35"
	.ascii "7\217\230\11\362Q\352\330O[\3|\37.b\21\373'\12\244\325\361\242\316mR\16\275\242J\"\331}\224\242\226\303\212\366\204\34N\217\311\331\311d\237\301&Sj\37gP\231g\23\37=\244\177\304G/\13\236\177R\360\330\321LP\325\313j\276Zj\321p3\321\246\257\1\276\365\317\4\13f\241]\14\302\370\212\300\361ir\343\375\234\341\273\337\333H\367\23\20\31\377\314=\367\376\202\374\300\274@\301\302y\213\212?\312\241EN\376\222E\305"
	.ascii "9\37\6r\347\7\212^\311+,\24Fn~\240\300\223[\230[\\\34(*\310\311[\270\270\240"
	.ascii "80\271\16\344/Z\260$\340\30_\242\257\251\260hA^\300(\12\24\346C\261;\325\317\235\12\343\317\375x~nqn\316\342\202\274\205\363\3\363)\32\362\247O1j\327\251V\215\7\201\177\1\335oyr"
	.text
	.section	.gnu.lto__ZN3stk11file_header21__lzstv4_header_coder14pattern_decodeEPjS2_PKv@12.f43a2577,"dr0"
	.ascii "x\234\215V[LTW\24=\373\336;\17fF \274*\203\304\7!\306\246i\332\237\376"
	.ascii "4i\374j\372\333\277~\220\216\4\306hJ\300(\232\306\37/\314\24RkiKLJh\361E\260\266\245L\5\37"
	.ascii "3*8\242(\255:\10\264h,\216\244\1\244"
	.ascii "5\200\324)\217&2\335{\237;\223\313#\245\223\314\231{\366"
	.ascii "9k\235\265\366>\347\334Q\305\312\317[\370\235\261\13Q\206\277`\25\240|\36\21\242\312\256(j\257K\350\16\255\367\232\20\272K\5\213\214k\211\7\13\0=\10\20\207\24U\263\300!\370C\231Q`\352\213\376\313\366\255-\272\256?\353~t\356\245\272\243;\26\24!\236+\2^q\303"
	.ascii "67\1N\303V\234\370\304?pES\13A\340s\250-v\327"
	.ascii "9\241,(\260\211\272\227\352{\33\254\324U4\352><\322\374\324Q\330\254\353\325\341>\237\366\316\202\242\302"
	.ascii "7\240\22\345\31p\303\267\340\26\30\22\360\35\24\342\344\232\337\273\233\327\251o2mc\367\203r\211k\370H\342\276_\5\327\312\270\332\236\256\33\240\276\313\270\360|\344\251S\2\177c\240\6?,\7j\2\332\240\220f\317\370_\334wZ\375\350"
	.ascii "8\235|\242\301\0XA\10\13\216\15\364\304\362\324\"&\365E\7\177\261\25\234D\322\221\251\261z\273\336{\302?\22\217o\\P,\360\343Rr\371\201\263P\200\260\341\316\231\33\16\365}\246\350\350\232lIe\212p\344\204\276\335\177J_\214\307\201\30\332We\350`\206\226\350\237\15\240\356`\206\326g\35\247\254R\304|O\275MoH\210\260\302"
	.ascii "9I\221\250\22\23\234g\202\211\226\266\223N\265\204\11b\207c\223\11\11_\353\333\253\22\22\254pa\25\374E\211\367?\212i\352N\306\337{\361\244\335.\5\374\323R\207\2\364\244\200\340*\4!(\10d\204\365x\374\371l\375\304\313j\1`\346\205\12\224z\13\313\263\362\34\33\206mvjR\260\261;\330\272\223[\27P\201Si,\215s\232\16\264S2(\220IM\26!\262yn\16\267\353)\232\313s\335l!\217\333\15"
	.ascii "4/\237\303\33i\306&j6S\263\205\32!F\261\366t\"\306\24\205~\325!\250\16?\376\344\15"
	.ascii "4}d\372\343,u\27\373?S\333\32\220\5\10\337"
	.ascii "6\227"
	.ascii "0\5.\255V\302\245\333\213\326&\205p\31\277h\236d\221}\336q\230\255+\270\357ph\16w\365C\250\236=\34\11\264\3\5\347\24\332\213\217G\373\372\355t\252R\230\367\374\374\361\311uM\360U\225\256\207\337\303\374#\12:ia\350\202&\20\250^\357`4\255\204\14H\351\233\257\31\12\34"
	.ascii "5(\15\326\300\361\277\27\201X\255x\224\256\"~\10\24F\205\10e\25\277\202\377\201o\372\313m\6\10\21\267\232&\332"
	.ascii "5B8@@\330\260:\206\232{]*\312\216\326\216'e\333\214u\243V\331\267c\210\316\365\375\261\230J\14"
	.ascii "6L\330"
	.ascii "5^\263Z\17%\305\342\214\273\237\36\273\220r\240\222m\331).\240\33\16\260\205\267\305\234\262\21\243"
	.ascii "8\253\356v\343"
	.ascii "5\311\23G)\327\221\210\327\237\12t\31\353\247\340T\6\31\353;0d\366lA\317"
	.ascii "7L\236;\310\263\203\20\365"
	.ascii "5\263\201s\6\213\23c\210\352o<\355Kc\24.\326\263\34\345\244\265\353g\342\3i\24"
	.ascii "3\227K]Q\256\17\221cNq\301M.\327-,\227\304\373\242"
	.ascii "57\203\211\334\245\242\366\265\223\223*\223\323kJ\316&\212&\223\21\11\36"
	.ascii "3\10\323p(\251\371,iNc\315g{\6\23\232W\212L7D\376\304\"\323\270\322\232\300w\212,\365TRn\306\262Rgb\310\374*\260\341\205\373\363Zn2\245\233\333&7\233)\232t3\33L\224"
	.ascii "6\13\207\314\245\315\306\320\312Zf\313Z.\6\23\265\314\301\330\312\342\345\310D\334\371\217D$\252u\207\23\221#\253\25\11%\354\257G9kWk\275\364w\327\344o\13E\223\376\206B\211j\345\342\320\322j\345\312K!\32\372\313\230\342"
	.ascii "6o\312\24\276\236F\203\323\227]R\267\335\270\23\",\273O\336\11\222\356\"\321\321\212\276\341\232\361P\320\240\313\223\214}#\327?s\361\205\200\207\363\236)S\214\312"
	.ascii "3\216XR\347\6\31\363\305j\206-2\222\317\301\334\245\342\363)1\341\316\272\255\346\20\237\230\276\377\261\373\372"
	.ascii "9\351\371\274\373,|9G\241*\35\263\207\257\351q\0s\36\360\377\14\14\200[\275"
	.ascii "23\242\230\335\10\34\31\4\267\346\337\217\27=\20\7^\367[v\356.\363\26y\313+\212\366U~\340\241\216\247\354\340\276J\317.oq\251w\357\253%{\366\210\354bOiqe\261g\177yIE\251\267\324SR\261\277\274\322\273<\352-\333\267\373\240\327Q\354\241\256gO\345^(\3\257R\362\232R\362:\354\322(\370/\334\377.\204"
	.text
	.section	.gnu.lto__ZN3stk11file_header21__lzstv4_header_coder20check_dup_match_costEjjj@12.f43a2577,"dr0"
	.ascii "x\234\255T[L\224G\24\236"
	.ascii "3\363\337\366\276\200h\304\244"
	.ascii "6%\204\370P\333\327&}\350K\223&}i\372\330\230\20\"kkJ\220(&\332\304\370\13\253\30C*\242\15\255\265\210\326\13V\13\305\33PQA\244\250\10+j\353%\210k\302\2V\223\252\220\256[\300\355\231"
	.ascii "3\13\354*>\320t\223\375\377\231"
	.ascii "3\363}\377"
	.ascii "9\337\234o\4{\365w\23\377\357;\31[\217oHc\300+{\31\333dq\320\324@\250A\273\245qQ\321\305\230\355\324\203&\263\335:7\266\346\342\314!\237n\203[43if\202\245\300\26"
	.ascii "8\324\300\1.5p\252A\273\345\342NE\347&:7\367\334|\7g\376\326"
	.ascii "7p\346\341>\242\363\22\235\27|\12\354\3\277\32\370\1\344\200\1\333\310\205\246\33\246\345p\272\334\36\257\317\17\33\205\246\12s\251\327C\376\224CK\375X\217k\204\307"
	.ascii "8{\223\341\364\327\252K\337\32r\12\232\234\356\254\211"
	.ascii "6\233\271\7m\333~R:^\267\240rW-.q6\312\31\34\202,8\14Y\362Su\220\213{\33{z\376\366\210\34\220\270;\3\17\317xs~\264+K\333\36\225i\37\305\270\200# \222a\30b\360\23\344\340\346=\375#\337\10\361.\1w\364m}\346V\300\232\315\12xt\26\340"
	.ascii "1\2^\31\257)5\305{\4\264\373\333'-\5\14%\200?\317\2\254\207\34\271\373ip\362\226\313\10b]~Y\14\326\320\0\6"
	.ascii "0&\25\371\341^s\261\370\220H+\356\264\357\23\331\373l\273"
	.ascii "4\374p\270\312\262/\325\6\303\361\370\342\30\327\340\227Tr\365\203F\310F\330P\365\323n\207\370\230(\32\206\266\235v\22E\355D\271\226Dp|V\202\23\220\335\220\336f\307\343\243\217w\326ek\213\200"
	.ascii "89-\10\32k\364\324)b\320\323\4\251\207\5\262"
	.ascii "8\7HQ\235\264\307EO7\26\256{h\350\305\241\341\223s?\315\323\10\236N\317\14z\316\223\213\231"
	.ascii "4\234/\207\13\360\301\27J\230\324\317`l\20\305\302\256\214`\23\4M\361\7\224\266\235\15-\305"
	.ascii "2\367V\35\250\347\342\23*\271\263\251i\275\22\355\336K\242\235\234\255fD\14\337\217\324{\305\247\204\336\334"
	.ascii "2\362\247K\11"
	.ascii "6\220\"\330\351\327\200;\276\213~\357\20\237\21\270\271v\323\230\245\300\367S\300\315\257\1'5\2\234\202lh\302\177\13\376Q\35)\2\365\5\36\313\257\330\35\270\24\345&\303\232\355>\240H\213\214X2\322\326\27ZL\241S2\344\240\320\215\355oS\250Q\205\30\212&\30\32[\252\346\227\337\236\10\207n\353\"@\211?8\370\274\311\201\211W\226\206ow\355D\321\354D\352\2\316\314\332(\255\324i\345\303\367\32\335\322\256Z\334dp\26\227\221<\334\331\225+9\257w\216-\22\353\210\276l\340\306M\223ti\353\256\265?\10\356\267_\304\343 \205"
	.ascii "97+\373y,_\262\335\205\262\252-\325\217\16\177.+\211rg\224\13d\333}+2&\344WuD\266\321G\371L\251N\205\32:\367\17(\224+\212:s\210\14\205\256k\224\353\246\347\361\270\217A{\22\222ts\221H\32\303\13L\211\244\10\5S\23\332\3\354w\10\366\226\35\335\273D\221\3\345\211\277!\0\224\231WLN\340\333%\256N\216\211!\20"
	.ascii "2\264gr\204cZ\242ur\314\215\374\272\354\\$\271Svf\232\4\323\273?\30\352\263(=\254\377BB\212\10\366\374\5"
	.ascii "1}bs>\245\16\225r\342P\346~\20)\35\32\216\214\307\14II\375"
	.ascii "8\312\341\345\6\276(\227:\251a\177CM/N\353\325\323\321\275}\211\214\251R\33:\273/\320%\257\341)t%>6\210\275\375\0D\4\33\32+\276\13\245\3\345\325\177\15/R\2\271\243x\13\310c5\324\334C!\221z\360\36y\10\13\221\277o\367\241"
	.ascii "2\237\344\307+\25.A\226Q\177-,o\326P\270c;u\253\201\205^\206,\363\244\216\12;\22"
	.ascii "7\311\324qk\254\37"
	.ascii "6\327\365\17\356-R\337\362\"\262\346\306\327\365|\303\270\275\325\266b\334\34\305\333\207\301\25\330\300\320\220\350\300\30\346,\23"
	.ascii "6\25\300\207\230\344d\375\24\322R\223\365\253.\35"
	.ascii "8\177<\321\245i\304\345H\355\310"
	.ascii "4rr,\341\344\23*\204UjX\274\216}\346\261&&[\5\26\341Lq\366\234\373\244;\341\267$\367\316\325\262WS,\373\242<a\331\364(\327S<JE\244\253m/\316Oy4#\312\371\253\206\314 \13\270\222\14Ih=\331\220\\\31"
	.ascii "2:\345%>cHt]\232\243"
	.ascii "5>\210\357\14\347D\\\32R\227\241\253qi\310t\347\343\370\23iH\367\264!\17\37\230&\231q\240\207\35\324\376\273\262=*\307\377\311\201\235\373\237\31\222\362u\16\354\225K!r\340"
	.ascii "5\24\261wZ \345\300k\252\266\31\313yY\25G\313\371d\211\312r\333.',7/\312\263\222\273"
	.ascii "8\223Bz\352"
	.ascii "9fJ\231\263\244\307<\322c\322T^2\225\177\306T\264\321\220T\273\266TW\34I\230d>\306\224\13\360\253\23\211.X\200q6\0S3I\216o\335\215\235\236\351;\266\243E`\312\200\314h\277\267V\254,\14,\13\24\255Z\266\246\344\313<9\311+\374jMI\336\27\201\374\202\300\352\245\313\213\213\231"
	.ascii "3\277\270"
	.ascii "0\177eQ^a\240\310\312/X[,\7.\32\254Z\261bM\240D/^\275ry@[\35(.\204\22"
	.ascii "3\261\301"
	.ascii "9\263\236\236\277\256 \277$?om\321\362U\5\201\2\271\12\205\377\2+\226\254\34"
	.text
	.section	.gnu.lto_.symbol_nodes.f43a2577,"dr0"
	.ascii "x\234U\320;\12\302P\24\204\341\271"
	.ascii "9\347\232\304Wz\33"
	.ascii "7\340\36tg\3W\20-\14V\326\222\35\270\5[\301-X\13"
	.ascii "6\276\342\33\14h\341\231\362\343\257F\0\14\34\276\213^J`\266\1H7-\22DG\245\373\1\362E\5\301"
	.ascii "32E\251\24S\14=\325\24"
	.ascii "7\245"
	.ascii "7\305\330\263f\212\207"
	.ascii "26\305\304"
	.ascii "31\305S\231\232\342\240\254\33"
	.ascii "8)\33\6\316\312\246\201\213\262e\340\252l\33\270+\263\177\220\352\230b\264\355\210D(v=\361\212\260\354K\\C\230\227\261\244\11\302\372\355$\363X\345\373.>2B\\7"
	.text
	.section	.gnu.lto_.refs.f43a2577,"dr0"
	.ascii "x\234cf```d\200\2\0\0=\0\5"
	.text
	.section	.gnu.lto_.decls.f43a2577,"dr0"
	.ascii "x\234\255V{LTW\32\277\347\236\201\31f\6\320\330b\303\37\273d7!kjy\327h\263I\335"
	.ascii "5Z\302nl\233\335\246\211iv\226\0]ADV\6M\366\237^@\5]\4)\"\276\252\324\345\251\240\203VE\36"
	.ascii "2B;@\21\324\202\312C`\254\200R-\217\26\20\26\225\375\316"
	.ascii "9\367\316\\\344\216:to\370\270\363}\367\373~\347\367=\356\271\7s\34\267\332\205\343f\341:\257\347\270\37\341\367b\260\275\17\202@\312"
	.ascii "8v-\2\251\7\261\200\264\200\\\7\271\5\322\11\322\15\322\13"
	.ascii "2\10"
	.ascii "2\4"
	.ascii "2\2"
	.ascii "2\11"
	.ascii "2\15\342\12 n z\304\315\273\10\236\16\344,\210\7\10,\317\255\7q\7\337%\210\255\355\5\22\6\242\6Y,b 1\366\371\313\"b(\341IX\4"
	.ascii "7L\304z\15\344\242\30\313\213\361J\270-/\340Y&b:\342\331\242\200Gj\347\376\12<_\7iV\300\345E\14%l\322\23\227\347\260%\\\211\323-\205\270Nq\15\245"
	.ascii "8/\270\267\313\352\324\351\0\243\373\27\324\251[\1\257\367\25\353$\307\223j&q\355u\200=\250\300\325\12\262N\304\221\363\15\25"
	.ascii "9K\\\7\25\360\310\334{:\300+\23"
	.ascii "1\27\213"
	.ascii "8\22&\301'\274\227\302\275_\306y\310\301\32\344\275zYoG\24\342&_\220\253\304-L\306\311K\206"
	.ascii "7\251\200"
	.ascii "7\375\12<\246\25\342\\\305|\245\230\247\262\270P\21\217\\X\364\35q\200C\366\223\205\346\343\246\260\17\221\275\311\355%\274\344\357\0\26c\10\277N\5~c<\272tz\274E\367\200G\36Z\37\242V~\336x\320\25T\275VE\324\332\313S\26-\346\21\371}\317\234uO\267\374\244 \10i\202\271\3\331!\222\12\253\322\325\20\23\252\245j\337\221\351|7\252\222\255\332\23L|\246\305rX\217|\265\371\20<Zj*A\202\240BeH\213\212\21F%h9I\231D\223+M\20\222\311\237[\243\7\207\12\221"
	.ascii "7*B\336\34*E\276\324\3\235\4\313)b\201pX\354\370\216\31\263+\376\230\22\254\33\250\315\321\300\302\213\265\302\254x\241\317\300\336\366\254\265\36Q\373g\204L\325\256\341\235*\221\214\265y\203\6\235\5\"\247\355D\26\333\211\200C\226\200\337\340\320ro\264\14\326,\7\26\344"
	.ascii "1:\3,L\300\2\320[\367\246_\300\370o\224A\336h\371\250^\305s\350\34\302\254"
	.ascii "69\215\246"
	.ascii "4O\260P\276h\3-\352\275\232\214\34\15\265\255\327\243\363\210\332\322.\224]s_\232C\227L\22\26!J\212\256\212\276\2\17t\21-\5\377\13\360\223\302V\34\317\266\272\342\30\272h\366\256\207mz\\\216\250\322^\325<\311\343\6\224$\320vf}\331{X\207\333$\325|q\342\214zY\221\220'\214\236I\265x\222.\274\357\205\252l\271\333Z\372dx*\206\371\315\334\257\341E\277J\360\253F\313d~.ig\213\213xt\10qK\226\370\372\346\"T\213\226p\350w\336\360"
	.ascii "0KLe\365?m\325\273\2\325\3\7T\203\226\321\337u\310\227\324\373"
	.ascii "2\211Wp\257{\201{>\245\226zv\225\260\357\357\324\351\22p\253\221q\343Hw\315"
	.ascii "5\302\11\15\207\314\342sB\16\0\330\215\345"
	.ascii "9\335\375\355\200\332\347\230`6\215V\227\264\372f\354\313K\22\236\301\330\10<\251"
	.ascii "8\252\260Eq\344"
	.ascii "7{7\353\221\17D\36\316"
	.ascii "9Q\342\216k\331\253"
	.ascii "1]w\306\302\343\253L\31;q\354\231\13`\346\231\204\14!\17\221Y\24\341\276\226\301}#\301Y(\334\253MN\361\315'\245\256"
	.ascii "6[#\33\235\35\346\307\365Zi\234\232\230m\342\362\235\315\312\323\324@\246\251\231N\323\267\322"
	.ascii "4\365\265\347\375\12\247c\312\376\213\201\335\17t\264\"\246\352\222\"$\257\10D\241\253\262\24\256J)\264\320\24\356\264\356\230Q\343\333\14\246\241.\277\220\307\203Li\376j\347\23\367y\25!p\255"
	.ascii "2\270k\22\334\365\5W\344;\226}Q\331X\252N9\375\33$\375v\232~\233\224\376\271\206\376\\7|RE\271\366\246\35\33P\1\327\353\220\177\323\303"
	.ascii "9\371C\30\272)#|S\"|\213\22\266\366[\307\\\360#\6\263wO]\211\12O2\245"
	.ascii "6\327<\244\1\314\321"
	.ascii "9\371\23\270\333"
	.ascii "2\270\16\11\256\223\302\245\36\31\36Q\341r\27\212\220\321\233}\230\247]\311;\330\224\242*\26\314\263\263\265\202\200h\21\273d ]\22H7\5\331w\251\266\317\5O1\220\312\276*\213\6\247\270R\345Zf\327\247\212-\271#C\353\221\320z\35\264\344|~\313\200\273~\217}\313\246m\220vm\16Y\221^|\323\352\256U\34@\264Q\353\364b\357J\255W\37xP\23\270\241\273\254w\246\342\272\357y\233\361{f\354\271}\373\226J\271\241}\244\241\375\264\241\367\244\206\356\256\353\6\206\365,\321\206\361\343\1\342<7\375\314\313\373\11Qh@\226\355\200\224\355 \315\366\250\245\260@\215"
	.ascii "3\324\24\345\326\310\221.->\304\224\332\314\232\37\324\363\212G\340\356\313\340\36HpCN\314sz\362\251\36\7\337\201\37H\246\217h\246\17\245L\253s\332\273"
	.ascii "0\356a\264\256\\h\35\321\341!\246\24\334\255\315\303t\346L\325C\273\324\202"
	.ascii "82\210B\240\37e<\207%\236#\16x\276\264uc\254KG\207\306\253\264\312\334G\11\367\237)\367\237$\356S\331\231m*\\\250\241t\17\344X\277\321\341sL\231\311\275;\316\352\13=;\"r\177\227\2\240q\31\363\11\211\371$e^P\177\371'-\236`\30\245\203-\245\236"
	.ascii "8\305\215*\367\223+O\270I\305\330\2=c3\300\336\301\307"
	.ascii "2\304)\11q\232\"V\335O\356T\343z\6r\272\247~;\234\"\302\264$\301)\333\351\242\251\355\332u\27j'&59aLLT\236\324 \255/=A\314;\312<\203oY\30"
	.ascii "9D\314\200\345\11X\330\251\350X\"\371\314>\205\222\375\327~\26\11\323\332>U\13\331\17\5\236\32[/|\227\313\333\214I\314\230ZQ1\343!\357\326S[\267fI\267Rx\322\255d^\354\326\321\246+e\30"
	.ascii "7\263R\334+xtG\213\373\231b\271\224b\"_\14\23|C\233\36\307\367'\11\373\5\353\354\354\257\5AC@\320\16\336^\337\235\274X\337]<\375\210N7U\361\270\\Kq\12\363S\257#lfJ\311\227\303&W:\2\243\325\273\253\242m\240\364]G\251"
	.ascii "2\310"
	.ascii "4\11r7\205\354\273\221[\240\303i:\212\322\323n\356\360\304_0\245\245lz\310\205\362\264v4dKS\265\210r\334#\3\374\267\4\230N\1\323G\246\272"
	.ascii "4Z\361T\232\366\262S\351^\236\234Jsot\\T\341A\266\256t<\366b\307\343\214\346\303W0Ug\311c\276\273\310\12}\247\303\222\374\334q\363s\336\227F\241L\336\33\355\343\245I9XC\317\317Y\274\26e\360\266Q\361\262\217\312\335\361\266\377\240"
	.ascii "9\273"
	.ascii "2\361\265\357\312\331<\335\225\311\235|\376\312\223\212\365v\357PzT\261;\357\27\235\367Sg\341\353\324SH\356\334<\307"
	.ascii "9Gt\316\241\316"
	.ascii "7R\312}\345\276\355s|\17\210\276\7\250o\341\243C\215\356r\347\376"
	.ascii "9\316\271\242"
	.ascii "3\271k\22\243\343\214\301A\6\243\346\275\365\37\371\254y\363M\356\217k\336\361\377\320\10\177o\373\275\355\27\340\377\327-[b\23\374"
	.ascii "7G\307\375c{\310\252 Cp\220\177\364\212\225+\336\332\276\"\344-j$\206\270\210\330\304"
	.ascii "\310(\377\4c$\200\371m\344\\\341\266\322`\324\31\14`\212\10\217\215"
	.ascii "5\30\326\31"
	.ascii "6\254\17N0n\12\14\374"
	.ascii "4:6\312\260"
	.ascii "1*<2jkP\240\301\20\373\257\4\343\266\20\321`\210\330\2\377\3\203\342c\303\243\343\14QqD]\373\301\266\230\325+\375\342\303\267\32\375\2^W\14\320\311"
	.ascii "01,\362[\242\177\22\25\267\345\23?\177?\366\347o\214\336L\30n2\220\37\300\321\307\346C\214\24\200 \213(\340\360\233\27;D\304\307sz9\317w\177a\206a\316\304\207\304\207\33\215Q[\345\10"
	.ascii "1\253\3\203X\225\2=\346>]\363\177@\376\203\23\30\253\"\23\343\15\361[\243#\242\326\306\330Z\27\344f\263\276\263p,\247\306(\200\304*\25(Xk\177\342T\333\24\20\235j\33\215\217\214b\361"
	.ascii "1\177\11"
	.ascii "2|\360\247m6V!Z\373S\247Z\346\0U\307f\214\26\357\367\316\340\5\312\2\327\306\254\16\21\307\234\255\340\314 Hcn\343F\210\255t\227&\214.\340T\375\203\347\204\322\211P\213\373\327\33\21\33\243\"6\31$\207\315\341\306\210\215\20\225`\374\263\23\13\4\205"
	.ascii "8B\201\265H\267mo\26K\351\275\5\275Y\363[\365\32[\226\364\321\276d\250"
	.ascii "3\304\3\224\20D\322\352D\266\37\377\17\222\310n\263"
	.text
	.section	.gnu.lto_.symtab.f43a2577,"dr0"
	.ascii "__ZN3stk11file_header21__lzstv4_header_coder12plain_encodeEPvj@8\0\0\0\0\0\0\0\0\0\0\0\0\306\0\0\0__ZN3stk11file_header21__lzstv4_header_coder14pattern_encodeEPvjj@12\0\0\0\0\0\0\0\0\0\0\0\0\320\0\0\0__ZN3stk11file_header21__lzstv4_header_coder9dup_priceEjj@8\0\0\0\0\0\0\0\0\0\0\0\0\331\0\0\0__ZN3stk11file_header21__lzstv4_header_coder10dup_encodeEPvjj@12\0\0\0\0\0\0\0\0\0\0\0\0\336\0\0\0__ZN3stk11file_header21__lzstv4_header_coder10dup_decodeEPjS2_PKv@12\0\0\0\0\0\0\0\0\0\0\0\0\351\0\0\0__ZN3stk11file_header21__lzstv4_header_coder11plain_priceEj@4\0\0\0\0\0\0\0\0\0\0\0\0\357\0\0\0__ZN3stk11file_header21__lzstv4_header_coder12plain_decodeEPjPKv@8\0\0\0\0\0\0\0\0\0\0\0\0\366\0\0\0__ZN3stk11file_header21__lzstv4_header_coder13pattern_priceEjj@8\0\0\0\0\0\0\0\0\0\0\0\0\371\0\0\0__ZN3stk11file_header21__lzstv4_header_coder24check_pattern_match_costEjjj@12\0\0\0\0\0\0\0\0\0\0\0\0\6\1\0\0__ZN3stk11file_header21__lzstv4_header_coder14pattern_decodeEPjS2_PKv@12\0\0\0\0\0\0\0\0\0\0\0\0\11\1\0\0__ZN3stk11file_header21__lzstv4_header_coder20check_dup_match_costEjjj@12\0\0\0\0\0\0\0\0\0\0\0\0\14\1\0\0"
	.text
	.section	.gnu.lto_.opts,"dr0"
	.ascii "'-fno-trapv' '-dD' '-malign-double' '-momit-leaf-frame-pointer' '-m32' '-mfpmath=sse' '-mpreferred-stack-boundary=8' '-mmmx' '-msse' '-msse2' '-mthreads' '-mtune=generic' '-march=i686' '-g' '-g' '-O3' '-fno-use-linker-plugin' '-fverbose-asm' '-fstrict-aliasing' '-fwrapv' '-funroll-loops' '-flto' '-fexceptions'\0"
	.text
	.section	.text.unlikely,"x"
	.align 2
LCOLDB0:
	.text
LHOTB0:
	.align 2
	.p2align 4,,15
	.section	.text.unlikely,"x"
Ltext_cold0:
	.text
	.globl	__ZN3stk11file_header21__lzstv4_header_coder11plain_priceEj@4
	.def	__ZN3stk11file_header21__lzstv4_header_coder11plain_priceEj@4;	.scl	2;	.type	32;	.endef
__ZN3stk11file_header21__lzstv4_header_coder11plain_priceEj@4:
LFB646:
	.file 1 "file/eno/stk_file_lzst_header.cpp"
	.loc 1 12 0
	.cfi_startproc
LVL0:
LBB36:
	.loc 1 19 0
	cmpl	$16, 4(%esp)	 #, axdata_uncoded_len
	sbbl	%eax, %eax	 # D.29171
	addl	$2, %eax	 #, D.29171
LBE36:
	.loc 1 22 0
	ret	$4	 #
	.cfi_endproc
LFE646:
	.section	.text.unlikely,"x"
LCOLDE0:
	.text
LHOTE0:
	.section	.text.unlikely,"x"
	.align 2
LCOLDB1:
	.text
LHOTB1:
	.align 2
	.p2align 4,,15
	.globl	__ZN3stk11file_header21__lzstv4_header_coder12plain_encodeEPvj@8
	.def	__ZN3stk11file_header21__lzstv4_header_coder12plain_encodeEPvj@8;	.scl	2;	.type	32;	.endef
__ZN3stk11file_header21__lzstv4_header_coder12plain_encodeEPvj@8:
LFB647:
	.loc 1 26 0
	.cfi_startproc
LVL1:
	.loc 1 26 0
	movl	8(%esp), %eax	 # axdata_uncoded_len, axdata_uncoded_len
LVL2:
	movl	4(%esp), %edx	 # a_code_ptr, a_code_ptr
LVL3:
LBB41:
	.loc 1 37 0
	cmpl	$15, %eax	 #, axdata_uncoded_len
	jbe	L8	 #,
LVL4:
LBE41:
LBB42:
LBB43:
	.loc 1 43 0
	sall	$4, %eax	 #, l
LVL5:
	.loc 1 44 0
	orl	$3, %eax	 #, l
LVL6:
	.loc 1 45 0
	movl	%eax, %ecx	 # l, D.29180
LVL7:
	.loc 1 46 0
	shrl	$8, %eax	 #, l
LVL8:
	.loc 1 47 0
	movb	%al, 1(%edx)	 # l, MEM[(uint8_t *)a_code_ptr_4(D) + 1B]
	movb	%cl, (%edx)	 # D.29180, MEM[(uint8_t *)a_code_ptr_4(D)]
	movl	$2, %eax	 #, D.29179
LVL9:
LBE43:
LBE42:
	.loc 1 51 0
	ret	$8	 #
LVL10:
	.p2align 4,,10
L8:
LBB44:
	.loc 1 40 0
	leal	0(,%eax,4), %ecx	 #, D.29180
	.loc 1 41 0
	movl	$1, %eax	 #, D.29179
LVL11:
	movb	%cl, (%edx)	 # D.29180, MEM[(uint8_t *)a_code_ptr_4(D)]
LBE44:
	.loc 1 51 0
	ret	$8	 #
	.cfi_endproc
LFE647:
	.section	.text.unlikely,"x"
LCOLDE1:
	.text
LHOTE1:
	.section	.text.unlikely,"x"
	.align 2
LCOLDB2:
	.text
LHOTB2:
	.align 2
	.p2align 4,,15
	.globl	__ZN3stk11file_header21__lzstv4_header_coder12plain_decodeEPjPKv@8
	.def	__ZN3stk11file_header21__lzstv4_header_coder12plain_decodeEPjPKv@8;	.scl	2;	.type	32;	.endef
__ZN3stk11file_header21__lzstv4_header_coder12plain_decodeEPjPKv@8:
LFB648:
	.loc 1 55 0
	.cfi_startproc
LVL12:
	.loc 1 55 0
	movl	8(%esp), %edx	 # a_code_ptr, a_code_ptr
LVL13:
LBB45:
	.loc 1 73 0
	movzbl	(%edx), %eax	 # MEM[(uint8_t *)a_code_ptr_3(D)],
LVL14:
	.loc 1 75 0
	testb	$3, %al	 #, c0
	je	L12	 #,
LVL15:
	.loc 1 84 0
	movzbl	1(%edx), %edx	 # MEM[(uint8_t *)a_code_ptr_3(D) + 1B], l
LVL16:
	movl	4(%esp), %ecx	 # a_data_uncoded_len, a_data_uncoded_len
	.loc 1 86 0
	sarl	$4, %eax	 #, D.29184
LVL17:
	.loc 1 85 0
	sall	$4, %edx	 #, l
LVL18:
	.loc 1 88 0
	orl	%eax, %edx	 # D.29184, D.29186
LVL19:
	.loc 1 89 0
	movl	$2, %eax	 #, D.29183
	movl	%edx, (%ecx)	 # D.29186, *a_data_uncoded_len_11(D)
LVL20:
LBE45:
	.loc 1 92 0
	ret	$8	 #
LVL21:
	.p2align 4,,10
L12:
	movl	4(%esp), %ecx	 # a_data_uncoded_len, a_data_uncoded_len
LBB46:
	.loc 1 79 0
	shrl	$4, %eax	 #, D.29186
LVL22:
	movl	%eax, %edx	 # D.29186, D.29186
LVL23:
	.loc 1 80 0
	movl	$1, %eax	 #, D.29183
LVL24:
	movl	%edx, (%ecx)	 # D.29186, *a_data_uncoded_len_11(D)
LVL25:
LBE46:
	.loc 1 92 0
	ret	$8	 #
	.cfi_endproc
LFE648:
	.section	.text.unlikely,"x"
LCOLDE2:
	.text
LHOTE2:
	.section	.text.unlikely,"x"
	.align 2
LCOLDB3:
	.text
LHOTB3:
	.align 2
	.p2align 4,,15
	.globl	__ZN3stk11file_header21__lzstv4_header_coder13pattern_priceEjj@8
	.def	__ZN3stk11file_header21__lzstv4_header_coder13pattern_priceEjj@8;	.scl	2;	.type	32;	.endef
__ZN3stk11file_header21__lzstv4_header_coder13pattern_priceEjj@8:
LFB649:
	.loc 1 96 0
	.cfi_startproc
LVL26:
LBB47:
	.loc 1 104 0
	cmpl	$16, 4(%esp)	 #, axdata_uncoded_counte
	sbbl	%eax, %eax	 # D.29189
	addl	$2, %eax	 #, D.29189
LBE47:
	.loc 1 107 0
	ret	$8	 #
	.cfi_endproc
LFE649:
	.section	.text.unlikely,"x"
LCOLDE3:
	.text
LHOTE3:
	.section	.text.unlikely,"x"
	.align 2
LCOLDB4:
	.text
LHOTB4:
	.align 2
	.p2align 4,,15
	.globl	__ZN3stk11file_header21__lzstv4_header_coder24check_pattern_match_costEjjj@12
	.def	__ZN3stk11file_header21__lzstv4_header_coder24check_pattern_match_costEjjj@12;	.scl	2;	.type	32;	.endef
__ZN3stk11file_header21__lzstv4_header_coder24check_pattern_match_costEjjj@12:
LFB650:
	.loc 1 111 0
	.cfi_startproc
LVL27:
	pushl	%ebp	 #
	.cfi_def_cfa_offset 8
	.cfi_offset 5, -8
	pushl	%edi	 #
	.cfi_def_cfa_offset 12
	.cfi_offset 7, -12
	pushl	%esi	 #
	.cfi_def_cfa_offset 16
	.cfi_offset 6, -16
	pushl	%ebx	 #
	.cfi_def_cfa_offset 20
	.cfi_offset 3, -20
	.loc 1 111 0
	movl	28(%esp), %edi	 # apattern_elsize, apattern_elsize
	movl	20(%esp), %ebx	 # alen, alen
	movl	24(%esp), %esi	 # apattern_counte, apattern_counte
LVL28:
LBB48:
	.loc 1 115 0
	movl	%edi, %ecx	 # apattern_elsize, pattern_len
	imull	%esi, %ecx	 # apattern_counte, pattern_len
LVL29:
	.loc 1 118 0
	cmpl	$1023, %ebx	 #, alen
	jbe	L17	 #,
	leal	-1024(%ebx), %ebp	 #, tmp112
	movl	$4198405, %edx	 #, tmp114
	movl	%ebp, %eax	 # tmp112, tmp155
	mull	%edx	 # tmp114
	.loc 1 119 0
	leal	2(%ebx), %eax	 #, price
	subl	%edx, %ebp	 # tmp113, tmp115
	shrl	%ebp	 # tmp116
	addl	%edx, %ebp	 # tmp113, tmp117
	.loc 1 120 0
	leal	-1023(%ebx), %edx	 #, price
	shrl	$9, %ebp	 #, tmp111
	andl	$7, %ebp	 #, tmp118
LVL30:
	.loc 1 118 0
	cmpl	$1023, %edx	 #, price
	jbe	L28	 #,
	testl	%ebp, %ebp	 # tmp118
	je	L18	 #,
	cmpl	$1, %ebp	 #, tmp118
	je	L91	 #,
	cmpl	$2, %ebp	 #, tmp118
	je	L92	 #,
	cmpl	$3, %ebp	 #, tmp118
	je	L93	 #,
	cmpl	$4, %ebp	 #, tmp118
	je	L94	 #,
	cmpl	$5, %ebp	 #, tmp118
	je	L95	 #,
	cmpl	$6, %ebp	 #, tmp118
	je	L96	 #,
	.loc 1 119 0
	leal	4(%ebx), %eax	 #, price
	.loc 1 120 0
	leal	-2046(%ebx), %edx	 #, price
L96:
	.loc 1 119 0
	addl	$2, %eax	 #, price
	.loc 1 120 0
	subl	$1023, %edx	 #, price
L95:
	.loc 1 119 0
	addl	$2, %eax	 #, price
	.loc 1 120 0
	subl	$1023, %edx	 #, price
L94:
	.loc 1 119 0
	addl	$2, %eax	 #, price
	.loc 1 120 0
	subl	$1023, %edx	 #, price
L93:
	.loc 1 119 0
	addl	$2, %eax	 #, price
	.loc 1 120 0
	subl	$1023, %edx	 #, price
L92:
	.loc 1 119 0
	addl	$2, %eax	 #, price
	.loc 1 120 0
	subl	$1023, %edx	 #, price
L91:
	subl	$1023, %edx	 #, price
	.loc 1 119 0
	addl	$2, %eax	 #, price
	.loc 1 118 0
	cmpl	$1023, %edx	 #, price
	jbe	L28	 #,
L18:
	.loc 1 120 0
	subl	$8184, %edx	 #, price
	.loc 1 119 0
	addl	$16, %eax	 #, price
	.loc 1 118 0
	cmpl	$1023, %edx	 #, price
	ja	L18	 #,
LVL31:
L28:
LBB49:
LBB50:
	.loc 1 15 0
	cmpl	$16, %edx	 #, price
	sbbl	%ebp, %ebp	 # D.29207
LBE50:
LBE49:
	.loc 1 123 0
	leal	2(%ebp,%eax), %eax	 #, price
L20:
LVL32:
LBB51:
LBB52:
	.loc 1 100 0
	cmpl	$16, %esi	 #, apattern_counte
	sbbl	%edx, %edx	 # D.29207
LBE52:
LBE51:
	.loc 1 128 0
	addl	%ebx, %ecx	 # alen, repl
LVL33:
	addl	%edi, %eax	 # apattern_elsize, D.29207
	.loc 1 130 0
	cmpl	$1023, %ecx	 #, repl
	leal	2(%edx,%eax), %esi	 #, D.29207
LVL34:
	jbe	L23	 #,
	leal	-1024(%ecx), %ebx	 #, tmp102
	movl	$4198405, %edi	 #, tmp104
	movl	%ebx, %eax	 # tmp102, tmp156
	mull	%edi	 # tmp104
	.loc 1 131 0
	leal	2(%ecx), %eax	 #, repl
	.loc 1 132 0
	subl	$1023, %ecx	 #, repl
	subl	%edx, %ebx	 # tmp103, tmp105
	shrl	%ebx	 # tmp106
	addl	%ebx, %edx	 # tmp106, tmp107
	shrl	$9, %edx	 #, tmp101
	andl	$7, %edx	 #, tmp108
LVL35:
	.loc 1 130 0
	cmpl	$1023, %ecx	 #, repl
	jbe	L29	 #,
	testl	%edx, %edx	 # tmp108
	je	L24	 #,
	cmpl	$1, %edx	 #, tmp108
	je	L85	 #,
	cmpl	$2, %edx	 #, tmp108
	je	L86	 #,
	cmpl	$3, %edx	 #, tmp108
	je	L87	 #,
	cmpl	$4, %edx	 #, tmp108
	je	L88	 #,
	cmpl	$5, %edx	 #, tmp108
	je	L89	 #,
	cmpl	$6, %edx	 #, tmp108
	je	L90	 #,
	.loc 1 131 0
	addl	$2, %eax	 #, repl
LVL36:
	.loc 1 132 0
	subl	$1023, %ecx	 #, repl
LVL37:
L90:
	.loc 1 131 0
	addl	$2, %eax	 #, repl
LVL38:
	.loc 1 132 0
	subl	$1023, %ecx	 #, repl
LVL39:
L89:
	.loc 1 131 0
	addl	$2, %eax	 #, repl
LVL40:
	.loc 1 132 0
	subl	$1023, %ecx	 #, repl
LVL41:
L88:
	.loc 1 131 0
	addl	$2, %eax	 #, repl
LVL42:
	.loc 1 132 0
	subl	$1023, %ecx	 #, repl
LVL43:
L87:
	.loc 1 131 0
	addl	$2, %eax	 #, repl
LVL44:
	.loc 1 132 0
	subl	$1023, %ecx	 #, repl
LVL45:
L86:
	.loc 1 131 0
	addl	$2, %eax	 #, repl
LVL46:
	.loc 1 132 0
	subl	$1023, %ecx	 #, repl
LVL47:
L85:
	subl	$1023, %ecx	 #, repl
	.loc 1 131 0
	addl	$2, %eax	 #, repl
	.loc 1 130 0
	cmpl	$1023, %ecx	 #, repl
	jbe	L29	 #,
L24:
	.loc 1 132 0
	subl	$8184, %ecx	 #, repl
	.loc 1 131 0
	addl	$16, %eax	 #, repl
LVL48:
	.loc 1 130 0
	cmpl	$1023, %ecx	 #, repl
	ja	L24	 #,
LVL49:
L29:
LBB53:
LBB54:
	.loc 1 15 0
	cmpl	$16, %ecx	 #, repl
	sbbl	%ebp, %ebp	 # D.29207
LBE54:
LBE53:
	.loc 1 135 0
	leal	2(%ebp,%eax), %eax	 #, repl
L26:
LBE48:
	.loc 1 138 0
	popl	%ebx	 #
	.cfi_remember_state
	.cfi_restore 3
	.cfi_def_cfa_offset 16
LBB55:
	.loc 1 137 0
	subl	%esi, %eax	 # D.29207, D.29207
LBE55:
	.loc 1 138 0
	popl	%esi	 #
	.cfi_restore 6
	.cfi_def_cfa_offset 12
	popl	%edi	 #
	.cfi_restore 7
	.cfi_def_cfa_offset 8
	popl	%ebp	 #
	.cfi_restore 5
	.cfi_def_cfa_offset 4
	ret	$12	 #
LVL50:
	.p2align 4,,10
L17:
	.cfi_restore_state
LBB56:
	.loc 1 122 0
	testl	%ebx, %ebx	 # alen
	.loc 1 118 0
	movl	%ebx, %eax	 # alen, price
	movl	%ebx, %edx	 # alen, price
	.loc 1 122 0
	je	L20	 #,
LVL51:
	jmp	L28	 #
LVL52:
	.p2align 4,,10
L23:
	.loc 1 134 0
	testl	%ecx, %ecx	 # repl
	.loc 1 130 0
	movl	%ecx, %eax	 # repl, repl
	.loc 1 134 0
	je	L26	 #,
	jmp	L29	 #
LBE56:
	.cfi_endproc
LFE650:
	.section	.text.unlikely,"x"
LCOLDE4:
	.text
LHOTE4:
	.section	.text.unlikely,"x"
	.align 2
LCOLDB5:
	.text
LHOTB5:
	.align 2
	.p2align 4,,15
	.globl	__ZN3stk11file_header21__lzstv4_header_coder14pattern_encodeEPvjj@12
	.def	__ZN3stk11file_header21__lzstv4_header_coder14pattern_encodeEPvjj@12;	.scl	2;	.type	32;	.endef
__ZN3stk11file_header21__lzstv4_header_coder14pattern_encodeEPvjj@12:
LFB651:
	.loc 1 142 0
	.cfi_startproc
LVL53:
	.loc 1 142 0
	movl	8(%esp), %eax	 # axdata_uncoded_counte, axdata_uncoded_counte
LVL54:
	movl	4(%esp), %edx	 # a_code_ptr, a_code_ptr
LVL55:
LBB61:
	.loc 1 155 0
	cmpl	$15, %eax	 #, axdata_uncoded_counte
	jbe	L117	 #,
LVL56:
	.loc 1 167 0
	leal	0(,%eax,4), %ecx	 #, t
LVL57:
	.loc 1 166 0
	movl	12(%esp), %eax	 # axdata_uncoded_elsize, tmp107
	subl	$1, %eax	 #, e
LVL58:
	.loc 1 168 0
	orl	%ecx, %eax	 # t, t
LVL59:
	.loc 1 169 0
	sall	$4, %eax	 #, t
LVL60:
	.loc 1 170 0
	orl	$7, %eax	 #, t
LVL61:
	.loc 1 171 0
	movl	%eax, %ecx	 # t, D.29220
LVL62:
	.loc 1 172 0
	shrl	$8, %eax	 #, t
LVL63:
	.loc 1 173 0
	movb	%al, 1(%edx)	 # t, MEM[(uint8_t *)a_code_ptr_5(D) + 1B]
	movb	%cl, (%edx)	 # D.29220, MEM[(uint8_t *)a_code_ptr_5(D)]
	.loc 1 174 0
	movl	$2, %eax	 #, D.29219
LVL64:
LBE61:
	.loc 1 177 0
	ret	$12	 #
LVL65:
	.p2align 4,,10
L117:
LBB62:
LBB63:
	.loc 1 157 0
	movl	12(%esp), %ecx	 # axdata_uncoded_elsize, tmp106
	.loc 1 158 0
	sall	$2, %eax	 #, t
LVL66:
	.loc 1 157 0
	subl	$1, %ecx	 #, e
LVL67:
	.loc 1 159 0
	orl	%ecx, %eax	 # e, t
LVL68:
	.loc 1 162 0
	leal	1(,%eax,4), %ecx	 #, D.29220
LVL69:
	movl	$1, %eax	 #, D.29219
LVL70:
	movb	%cl, (%edx)	 # D.29220, MEM[(uint8_t *)a_code_ptr_5(D)]
LBE63:
LBE62:
	.loc 1 177 0
	ret	$12	 #
	.cfi_endproc
LFE651:
	.section	.text.unlikely,"x"
LCOLDE5:
	.text
LHOTE5:
	.section	.text.unlikely,"x"
	.align 2
LCOLDB6:
	.text
LHOTB6:
	.align 2
	.p2align 4,,15
	.globl	__ZN3stk11file_header21__lzstv4_header_coder14pattern_decodeEPjS2_PKv@12
	.def	__ZN3stk11file_header21__lzstv4_header_coder14pattern_decodeEPjS2_PKv@12;	.scl	2;	.type	32;	.endef
__ZN3stk11file_header21__lzstv4_header_coder14pattern_decodeEPjS2_PKv@12:
LFB652:
	.loc 1 181 0
	.cfi_startproc
LVL71:
	pushl	%ebx	 #
	.cfi_def_cfa_offset 8
	.cfi_offset 3, -8
	.loc 1 181 0
	movl	16(%esp), %ecx	 # a_code_ptr, a_code_ptr
LVL72:
LBB64:
	.loc 1 185 0
	movzbl	(%ecx), %eax	 # MEM[(uint8_t *)a_code_ptr_3(D)],
LVL73:
	.loc 1 186 0
	movl	%eax, %edx	 # c0, h
	andl	$3, %edx	 #, h
	.loc 1 187 0
	cmpb	$1, %dl	 #, h
	.loc 1 188 0
	movl	%eax, %edx	 # D.29224, D.29224
	.loc 1 187 0
	je	L122	 #,
	.loc 1 199 0
	movl	12(%esp), %ebx	 # a_data_uncoded_elsize, tmp123
	.loc 1 197 0
	sarl	$4, %edx	 #, D.29224
LVL74:
	.loc 1 201 0
	sarl	$6, %eax	 #, l
LVL75:
	.loc 1 198 0
	andl	$3, %edx	 #, e
LVL76:
	.loc 1 199 0
	addl	$1, %edx	 #, tmp113
LVL77:
	movl	%edx, (%ebx)	 # tmp113, *a_data_uncoded_elsize_12(D)
LVL78:
	.loc 1 203 0
	movzbl	1(%ecx), %ecx	 # MEM[(uint8_t *)a_code_ptr_3(D) + 1B], c1
LVL79:
	.loc 1 205 0
	movl	8(%esp), %ebx	 # a_data_uncoded_counte, tmp124
	.loc 1 204 0
	sall	$2, %ecx	 #, c1
LVL80:
	.loc 1 205 0
	movzbl	%cl, %edx	 # c1, D.29225
LVL81:
	orl	%edx, %eax	 # D.29225, tmp116
LVL82:
	movl	%eax, (%ebx)	 # tmp116, *a_data_uncoded_counte_16(D)
LVL83:
	.loc 1 208 0
	movl	$2, %eax	 #, D.29223
LBE64:
	.loc 1 211 0
	popl	%ebx	 #
	.cfi_remember_state
	.cfi_restore 3
	.cfi_def_cfa_offset 4
	ret	$12	 #
LVL84:
	.p2align 4,,10
L122:
	.cfi_restore_state
LBB65:
	.loc 1 190 0
	movl	12(%esp), %ecx	 # a_data_uncoded_elsize, tmp120
LVL85:
	.loc 1 188 0
	sarl	$2, %edx	 #, D.29224
LVL86:
	.loc 1 192 0
	sarl	$4, %eax	 #, tmp111
LVL87:
	.loc 1 189 0
	andl	$3, %edx	 #, e
LVL88:
	.loc 1 190 0
	addl	$1, %edx	 #, tmp110
LVL89:
	movl	%edx, (%ecx)	 # tmp110, *a_data_uncoded_elsize_12(D)
LVL90:
	.loc 1 192 0
	movl	8(%esp), %edx	 # a_data_uncoded_counte, tmp121
LVL91:
	movl	%eax, (%edx)	 # tmp111, *a_data_uncoded_counte_16(D)
LVL92:
	.loc 1 195 0
	movl	$1, %eax	 #, D.29223
LBE65:
	.loc 1 211 0
	popl	%ebx	 #
	.cfi_restore 3
	.cfi_def_cfa_offset 4
	ret	$12	 #
	.cfi_endproc
LFE652:
	.section	.text.unlikely,"x"
LCOLDE6:
	.text
LHOTE6:
	.section	.text.unlikely,"x"
	.align 2
LCOLDB7:
	.text
LHOTB7:
	.align 2
	.p2align 4,,15
	.globl	__ZN3stk11file_header21__lzstv4_header_coder9dup_priceEjj@8
	.def	__ZN3stk11file_header21__lzstv4_header_coder9dup_priceEjj@8;	.scl	2;	.type	32;	.endef
__ZN3stk11file_header21__lzstv4_header_coder9dup_priceEjj@8:
LFB653:
	.loc 1 215 0
	.cfi_startproc
LVL93:
LBB71:
	.loc 1 218 0
	cmpl	$15, 4(%esp)	 #, axdata_uncoded_len
LBE71:
	.loc 1 215 0
	movl	8(%esp), %edx	 # axdata_uncoded_offset, axdata_uncoded_offset
LVL94:
LBB72:
	.loc 1 218 0
	ja	L124	 #,
LVL95:
LBE72:
LBB73:
LBB74:
	.loc 1 219 0
	cmpl	$255, %edx	 #, axdata_uncoded_offset
	movl	$2, %eax	 #, D.29240
	jbe	L125	 #,
	.loc 1 221 0
	cmpl	$65536, %edx	 #, axdata_uncoded_offset
	sbbl	%eax, %eax	 # D.29240
	addl	$4, %eax	 #, D.29240
	ret	$8	 #
LVL96:
	.p2align 4,,10
L124:
LBE74:
LBE73:
LBB76:
	.loc 1 224 0
	cmpl	$255, %edx	 #, axdata_uncoded_offset
LBE76:
LBB77:
LBB75:
	.loc 1 220 0
	movl	$3, %eax	 #, D.29240
LBE75:
LBE77:
LBB78:
	.loc 1 224 0
	jbe	L125	 #,
	.loc 1 226 0
	cmpl	$65536, %edx	 #, axdata_uncoded_offset
	sbbl	%eax, %eax	 # D.29240
	addl	$5, %eax	 #, D.29240
LVL97:
L125:
LBE78:
	.loc 1 229 0
	ret	$8	 #
	.cfi_endproc
LFE653:
	.section	.text.unlikely,"x"
LCOLDE7:
	.text
LHOTE7:
	.section	.text.unlikely,"x"
	.align 2
LCOLDB8:
	.text
LHOTB8:
	.align 2
	.p2align 4,,15
	.globl	__ZN3stk11file_header21__lzstv4_header_coder20check_dup_match_costEjjj@12
	.def	__ZN3stk11file_header21__lzstv4_header_coder20check_dup_match_costEjjj@12;	.scl	2;	.type	32;	.endef
__ZN3stk11file_header21__lzstv4_header_coder20check_dup_match_costEjjj@12:
LFB654:
	.loc 1 233 0
	.cfi_startproc
LVL98:
	pushl	%edi	 #
	.cfi_def_cfa_offset 8
	.cfi_offset 7, -8
	pushl	%esi	 #
	.cfi_def_cfa_offset 12
	.cfi_offset 6, -12
	pushl	%ebx	 #
	.cfi_def_cfa_offset 16
	.cfi_offset 3, -16
	.loc 1 233 0
	movl	16(%esp), %ecx	 # aplain_len, aplain_len
	movl	20(%esp), %ebx	 # adup_len, adup_len
LVL99:
	movl	24(%esp), %esi	 # adup_offset, adup_offset
LVL100:
LBB90:
	.loc 1 242 0
	cmpl	$1023, %ecx	 #, aplain_len
	jbe	L131	 #,
	leal	-1024(%ecx), %edi	 #, tmp110
	movl	$4198405, %edx	 #, tmp112
	movl	%edi, %eax	 # tmp110, tmp154
	mull	%edx	 # tmp112
	.loc 1 243 0
	leal	2(%ecx), %eax	 #, price
	subl	%edx, %edi	 # tmp111, tmp113
	shrl	%edi	 # tmp114
	addl	%edx, %edi	 # tmp111, tmp115
	.loc 1 244 0
	leal	-1023(%ecx), %edx	 #, price
	shrl	$9, %edi	 #, tmp109
	andl	$7, %edi	 #, tmp116
LVL101:
	.loc 1 242 0
	cmpl	$1023, %edx	 #, price
	jbe	L143	 #,
	testl	%edi, %edi	 # tmp116
	je	L132	 #,
	cmpl	$1, %edi	 #, tmp116
	je	L209	 #,
	cmpl	$2, %edi	 #, tmp116
	je	L210	 #,
	cmpl	$3, %edi	 #, tmp116
	je	L211	 #,
	cmpl	$4, %edi	 #, tmp116
	je	L212	 #,
	cmpl	$5, %edi	 #, tmp116
	je	L213	 #,
	cmpl	$6, %edi	 #, tmp116
	je	L214	 #,
	.loc 1 243 0
	leal	4(%ecx), %eax	 #, price
	.loc 1 244 0
	leal	-2046(%ecx), %edx	 #, price
L214:
	.loc 1 243 0
	addl	$2, %eax	 #, price
	.loc 1 244 0
	subl	$1023, %edx	 #, price
LVL102:
L213:
	.loc 1 243 0
	addl	$2, %eax	 #, price
	.loc 1 244 0
	subl	$1023, %edx	 #, price
LVL103:
L212:
	.loc 1 243 0
	addl	$2, %eax	 #, price
	.loc 1 244 0
	subl	$1023, %edx	 #, price
LVL104:
L211:
	.loc 1 243 0
	addl	$2, %eax	 #, price
	.loc 1 244 0
	subl	$1023, %edx	 #, price
LVL105:
L210:
	.loc 1 243 0
	addl	$2, %eax	 #, price
	.loc 1 244 0
	subl	$1023, %edx	 #, price
LVL106:
L209:
	subl	$1023, %edx	 #, price
	.loc 1 243 0
	addl	$2, %eax	 #, price
	.loc 1 242 0
	cmpl	$1023, %edx	 #, price
	jbe	L143	 #,
LVL107:
L132:
	.loc 1 244 0
	subl	$8184, %edx	 #, price
	.loc 1 243 0
	addl	$16, %eax	 #, price
	.loc 1 242 0
	cmpl	$1023, %edx	 #, price
	ja	L132	 #,
LVL108:
L143:
LBB91:
LBB92:
	.loc 1 15 0
	cmpl	$16, %edx	 #, price
	sbbl	%edi, %edi	 # D.29267
LBE92:
LBE91:
	.loc 1 247 0
	leal	2(%edi,%eax), %eax	 #, price
L134:
LVL109:
LBB93:
LBB94:
	.loc 1 218 0
	cmpl	$15, %ebx	 #, adup_len
	ja	L136	 #,
LVL110:
LBE94:
LBB95:
LBB96:
	.loc 1 219 0
	cmpl	$255, %esi	 #, adup_offset
	movl	$2, %edi	 #, D.29267
	jbe	L137	 #,
	.loc 1 220 0
	cmpl	$65536, %esi	 #, adup_offset
	sbbl	%esi, %esi	 # D.29267
	leal	4(%esi), %edi	 #, D.29267
LVL111:
L137:
LBE96:
LBE95:
LBE93:
	.loc 1 251 0
	addl	%ebx, %ecx	 # adup_len, repl
	leal	(%eax,%edi), %edi	 #, D.29267
LVL112:
	.loc 1 253 0
	cmpl	$1023, %ecx	 #, repl
	jbe	L138	 #,
	leal	-1024(%ecx), %ebx	 #, tmp100
	movl	$4198405, %edx	 #, tmp102
	movl	%ebx, %eax	 # tmp100, tmp155
	mull	%edx	 # tmp102
	.loc 1 254 0
	leal	2(%ecx), %eax	 #, repl
	.loc 1 255 0
	subl	$1023, %ecx	 #, repl
	subl	%edx, %ebx	 # tmp101, tmp103
	shrl	%ebx	 # tmp104
	addl	%ebx, %edx	 # tmp104, tmp105
	shrl	$9, %edx	 #, tmp99
	andl	$7, %edx	 #, tmp106
LVL113:
	.loc 1 253 0
	cmpl	$1023, %ecx	 #, repl
	jbe	L144	 #,
	testl	%edx, %edx	 # tmp106
	je	L139	 #,
	cmpl	$1, %edx	 #, tmp106
	je	L203	 #,
	cmpl	$2, %edx	 #, tmp106
	je	L204	 #,
	cmpl	$3, %edx	 #, tmp106
	je	L205	 #,
	cmpl	$4, %edx	 #, tmp106
	je	L206	 #,
	cmpl	$5, %edx	 #, tmp106
	je	L207	 #,
	cmpl	$6, %edx	 #, tmp106
	je	L208	 #,
	.loc 1 254 0
	addl	$2, %eax	 #, repl
LVL114:
	.loc 1 255 0
	subl	$1023, %ecx	 #, repl
LVL115:
L208:
	.loc 1 254 0
	addl	$2, %eax	 #, repl
LVL116:
	.loc 1 255 0
	subl	$1023, %ecx	 #, repl
LVL117:
L207:
	.loc 1 254 0
	addl	$2, %eax	 #, repl
LVL118:
	.loc 1 255 0
	subl	$1023, %ecx	 #, repl
LVL119:
L206:
	.loc 1 254 0
	addl	$2, %eax	 #, repl
LVL120:
	.loc 1 255 0
	subl	$1023, %ecx	 #, repl
LVL121:
L205:
	.loc 1 254 0
	addl	$2, %eax	 #, repl
LVL122:
	.loc 1 255 0
	subl	$1023, %ecx	 #, repl
LVL123:
L204:
	.loc 1 254 0
	addl	$2, %eax	 #, repl
LVL124:
	.loc 1 255 0
	subl	$1023, %ecx	 #, repl
LVL125:
L203:
	subl	$1023, %ecx	 #, repl
	.loc 1 254 0
	addl	$2, %eax	 #, repl
	.loc 1 253 0
	cmpl	$1023, %ecx	 #, repl
	jbe	L144	 #,
L139:
	.loc 1 255 0
	subl	$8184, %ecx	 #, repl
	.loc 1 254 0
	addl	$16, %eax	 #, repl
LVL126:
	.loc 1 253 0
	cmpl	$1023, %ecx	 #, repl
	ja	L139	 #,
LVL127:
L144:
LBB98:
LBB99:
	.loc 1 15 0
	cmpl	$16, %ecx	 #, repl
	sbbl	%ecx, %ecx	 # D.29267
LVL128:
LBE99:
LBE98:
	.loc 1 258 0
	leal	2(%ecx,%eax), %ecx	 #, repl
LVL129:
L141:
	.loc 1 260 0
	movl	%ecx, %eax	 # repl, D.29267
	subl	%edi, %eax	 # D.29267, D.29267
LBE90:
	.loc 1 261 0
	popl	%ebx	 #
	.cfi_remember_state
	.cfi_restore 3
	.cfi_def_cfa_offset 12
	popl	%esi	 #
	.cfi_restore 6
	.cfi_def_cfa_offset 8
	popl	%edi	 #
	.cfi_restore 7
	.cfi_def_cfa_offset 4
	ret	$12	 #
LVL130:
	.p2align 4,,10
L136:
	.cfi_restore_state
LBB101:
LBB100:
LBB97:
	.loc 1 224 0
	cmpl	$255, %esi	 #, adup_offset
	movl	$3, %edi	 #, D.29267
	jbe	L137	 #,
	.loc 1 225 0
	cmpl	$65536, %esi	 #, adup_offset
	sbbl	%edx, %edx	 # D.29267
	leal	5(%edx), %edi	 #, D.29267
	jmp	L137	 #
LVL131:
	.p2align 4,,10
L138:
LBE97:
LBE100:
	.loc 1 257 0
	testl	%ecx, %ecx	 # repl
	je	L141	 #,
	movl	%ecx, %eax	 # repl, repl
	jmp	L144	 #
LVL132:
	.p2align 4,,10
L131:
	.loc 1 246 0
	testl	%ecx, %ecx	 # aplain_len
	.loc 1 242 0
	movl	%ecx, %eax	 # aplain_len, price
	movl	%ecx, %edx	 # aplain_len, price
	.loc 1 246 0
	je	L134	 #,
LVL133:
	jmp	L143	 #
LBE101:
	.cfi_endproc
LFE654:
	.section	.text.unlikely,"x"
LCOLDE8:
	.text
LHOTE8:
	.section	.text.unlikely,"x"
	.align 2
LCOLDB9:
	.text
LHOTB9:
	.align 2
	.p2align 4,,15
	.globl	__ZN3stk11file_header21__lzstv4_header_coder10dup_encodeEPvjj@12
	.def	__ZN3stk11file_header21__lzstv4_header_coder10dup_encodeEPvjj@12;	.scl	2;	.type	32;	.endef
__ZN3stk11file_header21__lzstv4_header_coder10dup_encodeEPvjj@12:
LFB655:
	.loc 1 265 0
	.cfi_startproc
LVL134:
	.loc 1 265 0
	movl	8(%esp), %eax	 # axdata_uncoded_len, axdata_uncoded_len
	movl	4(%esp), %ecx	 # a_code_ptr, a_code_ptr
	movl	12(%esp), %edx	 # axdata_uncoded_offset, axdata_uncoded_offset
LVL135:
LBB106:
	.loc 1 285 0
	cmpl	$15, %eax	 #, axdata_uncoded_len
	ja	L233	 #,
	.loc 1 287 0
	cmpl	$255, %edx	 #, axdata_uncoded_offset
	ja	L246	 #,
LVL136:
	.loc 1 294 0
	sall	$4, %eax	 #, t
LVL137:
	.loc 1 300 0
	movb	%dl, 1(%ecx)	 # axdata_uncoded_offset, MEM[(uint8_t *)a_code_ptr_7(D) + 1B]
	.loc 1 296 0
	orl	$2, %eax	 #, t
LVL138:
	.loc 1 297 0
	movb	%al, (%ecx)	 # t, MEM[(uint8_t *)a_code_ptr_7(D)]
	.loc 1 301 0
	movl	$2, %eax	 #, D.29280
LVL139:
	ret	$12	 #
LVL140:
	.p2align 4,,10
L233:
LBE106:
LBB107:
LBB108:
	.loc 1 320 0
	cmpl	$255, %edx	 #, axdata_uncoded_offset
	ja	L247	 #,
LVL141:
	.loc 1 327 0
	sall	$6, %eax	 #, t
LVL142:
	.loc 1 336 0
	movb	%dl, 2(%ecx)	 # axdata_uncoded_offset, MEM[(uint8_t *)a_code_ptr_7(D) + 2B]
	.loc 1 329 0
	orl	$11, %eax	 #, t
LVL143:
	.loc 1 330 0
	movb	%al, (%ecx)	 # t, MEM[(uint8_t *)a_code_ptr_7(D)]
LVL144:
	.loc 1 331 0
	shrl	$8, %eax	 #, t
LVL145:
	.loc 1 332 0
	movb	%al, 1(%ecx)	 # t, MEM[(uint8_t *)a_code_ptr_7(D) + 1B]
LVL146:
	.loc 1 337 0
	movl	$2, %eax	 #, D.29280
LVL147:
	ret	$12	 #
LVL148:
	.p2align 4,,10
L247:
	.loc 1 322 0
	cmpl	$65535, %edx	 #, axdata_uncoded_offset
	ja	L248	 #,
LVL149:
	.loc 1 327 0
	sall	$6, %eax	 #, t
LVL150:
	.loc 1 340 0
	movb	%dl, 2(%ecx)	 # axdata_uncoded_offset, MEM[(uint8_t *)a_code_ptr_7(D) + 2B]
	.loc 1 341 0
	shrl	$8, %edx	 #, o
	.loc 1 329 0
	orl	$27, %eax	 #, t
LVL151:
	.loc 1 342 0
	movb	%dl, 3(%ecx)	 # o, MEM[(uint8_t *)a_code_ptr_7(D) + 3B]
	.loc 1 330 0
	movb	%al, (%ecx)	 # t, MEM[(uint8_t *)a_code_ptr_7(D)]
LVL152:
	.loc 1 331 0
	shrl	$8, %eax	 #, t
LVL153:
	.loc 1 332 0
	movb	%al, 1(%ecx)	 # t, MEM[(uint8_t *)a_code_ptr_7(D) + 1B]
	.loc 1 343 0
	movl	$3, %eax	 #, D.29280
LVL154:
LBE108:
LBE107:
	.loc 1 355 0
	ret	$12	 #
LVL155:
	.p2align 4,,10
L246:
LBB110:
	.loc 1 289 0
	cmpl	$65535, %edx	 #, axdata_uncoded_offset
	ja	L249	 #,
LVL156:
	.loc 1 294 0
	sall	$4, %eax	 #, t
LVL157:
	.loc 1 304 0
	movb	%dl, 1(%ecx)	 # axdata_uncoded_offset, MEM[(uint8_t *)a_code_ptr_7(D) + 1B]
	.loc 1 305 0
	shrl	$8, %edx	 #, o
LVL158:
	.loc 1 296 0
	orl	$6, %eax	 #, t
LVL159:
	.loc 1 306 0
	movb	%dl, 2(%ecx)	 # o, MEM[(uint8_t *)a_code_ptr_7(D) + 2B]
	.loc 1 297 0
	movb	%al, (%ecx)	 # t, MEM[(uint8_t *)a_code_ptr_7(D)]
LVL160:
	.loc 1 307 0
	movl	$3, %eax	 #, D.29280
LVL161:
	ret	$12	 #
LVL162:
	.p2align 4,,10
L249:
	.loc 1 294 0
	sall	$4, %eax	 #, t
LVL163:
	.loc 1 310 0
	movb	%dl, 1(%ecx)	 # axdata_uncoded_offset, MEM[(uint8_t *)a_code_ptr_7(D) + 1B]
	.loc 1 296 0
	orl	$10, %eax	 #, t
LVL164:
	.loc 1 297 0
	movb	%al, (%ecx)	 # t, MEM[(uint8_t *)a_code_ptr_7(D)]
	.loc 1 311 0
	movl	%edx, %eax	 # axdata_uncoded_offset, o
LVL165:
	.loc 1 313 0
	shrl	$16, %edx	 #, o
LVL166:
	.loc 1 311 0
	shrl	$8, %eax	 #, o
LVL167:
	.loc 1 314 0
	movb	%dl, 2(%ecx)	 # o, MEM[(uint8_t *)a_code_ptr_7(D) + 2B]
	.loc 1 312 0
	movb	%al, 3(%ecx)	 # o, MEM[(uint8_t *)a_code_ptr_7(D) + 3B]
LVL168:
	.loc 1 315 0
	movl	$4, %eax	 #, D.29280
LVL169:
	ret	$12	 #
LVL170:
	.p2align 4,,10
L248:
LBE110:
LBB111:
LBB109:
	.loc 1 327 0
	sall	$6, %eax	 #, t
LVL171:
	.loc 1 346 0
	movb	%dl, 2(%ecx)	 # axdata_uncoded_offset, MEM[(uint8_t *)a_code_ptr_7(D) + 2B]
	.loc 1 329 0
	orl	$43, %eax	 #, t
LVL172:
	.loc 1 330 0
	movb	%al, (%ecx)	 # t, MEM[(uint8_t *)a_code_ptr_7(D)]
LVL173:
	.loc 1 331 0
	shrl	$8, %eax	 #, t
LVL174:
	.loc 1 332 0
	movb	%al, 1(%ecx)	 # t, MEM[(uint8_t *)a_code_ptr_7(D) + 1B]
	.loc 1 347 0
	movl	%edx, %eax	 # axdata_uncoded_offset, o
LVL175:
	.loc 1 349 0
	shrl	$16, %edx	 #, o
LVL176:
	.loc 1 347 0
	shrl	$8, %eax	 #, o
LVL177:
	.loc 1 350 0
	movb	%dl, 4(%ecx)	 # o, MEM[(uint8_t *)a_code_ptr_7(D) + 4B]
	.loc 1 348 0
	movb	%al, 3(%ecx)	 # o, MEM[(uint8_t *)a_code_ptr_7(D) + 3B]
LVL178:
	.loc 1 351 0
	movl	$4, %eax	 #, D.29280
LVL179:
	ret	$12	 #
LBE109:
LBE111:
	.cfi_endproc
LFE655:
	.section	.text.unlikely,"x"
LCOLDE9:
	.text
LHOTE9:
	.section	.text.unlikely,"x"
	.align 2
LCOLDB10:
	.text
LHOTB10:
	.align 2
	.p2align 4,,15
	.globl	__ZN3stk11file_header21__lzstv4_header_coder10dup_decodeEPjS2_PKv@12
	.def	__ZN3stk11file_header21__lzstv4_header_coder10dup_decodeEPjS2_PKv@12;	.scl	2;	.type	32;	.endef
__ZN3stk11file_header21__lzstv4_header_coder10dup_decodeEPjS2_PKv@12:
LFB656:
	.loc 1 359 0
	.cfi_startproc
LVL180:
	pushl	%ebx	 #
	.cfi_def_cfa_offset 8
	.cfi_offset 3, -8
	.loc 1 359 0
	movl	16(%esp), %ebx	 # a_code_ptr, a_code_ptr
LVL181:
LBB116:
	.loc 1 365 0
	movzbl	(%ebx), %ecx	 # MEM[(uint8_t *)a_code_ptr_3(D)],
LVL182:
	.loc 1 366 0
	movl	%ecx, %eax	 # c0, h
	andl	$3, %eax	 #, h
	.loc 1 368 0
	cmpb	$2, %al	 #, h
	je	L258	 #,
LVL183:
	.loc 1 406 0
	movzbl	1(%ebx), %edx	 # MEM[(uint8_t *)a_code_ptr_3(D) + 1B], tmp152
	.loc 1 403 0
	movzbl	%cl, %eax	 # c0, D.29297
	sarl	$6, %eax	 #, l
LVL184:
	.loc 1 406 0
	sall	$2, %edx	 #, c1
LVL185:
	.loc 1 407 0
	movzbl	%dl, %edx	 # c1, D.29300
	orl	%edx, %eax	 # D.29300, tmp142
LVL186:
	movl	8(%esp), %edx	 # a_data_uncoded_len, tmp153
	.loc 1 429 0
	andl	$48, %ecx	 #, c0
LVL187:
	.loc 1 407 0
	movl	%eax, (%edx)	 # tmp142, *a_data_uncoded_len_12(D)
LVL188:
	.loc 1 429 0
	jne	L256	 #,
LVL189:
	.loc 1 430 0
	movzbl	2(%ebx), %ecx	 # MEM[(uint8_t *)a_code_ptr_3(D) + 2B], MEM[(uint8_t *)a_code_ptr_3(D) + 2B]
LVL190:
	movl	12(%esp), %ebx	 # a_data_uncoded_offset, tmp154
	.loc 1 433 0
	movl	$2, %eax	 #, D.29295
	.loc 1 430 0
	movl	%ecx, (%ebx)	 # MEM[(uint8_t *)a_code_ptr_3(D) + 2B], *a_data_uncoded_offset_16(D)
LVL191:
L253:
LBE116:
	.loc 1 437 0
	popl	%ebx	 #
	.cfi_remember_state
	.cfi_restore 3
	.cfi_def_cfa_offset 4
	ret	$12	 #
LVL192:
	.p2align 4,,10
L256:
	.cfi_restore_state
LBB117:
	.loc 1 436 0
	xorl	%eax, %eax	 # D.29295
LBE117:
	.loc 1 437 0
	popl	%ebx	 #
	.cfi_remember_state
	.cfi_restore 3
	.cfi_def_cfa_offset 4
LVL193:
	ret	$12	 #
LVL194:
	.p2align 4,,10
L258:
	.cfi_restore_state
LBB118:
	.loc 1 369 0
	movl	%ecx, %eax	 # c0, D.29301
	.loc 1 371 0
	movl	8(%esp), %edx	 # a_data_uncoded_len, tmp148
	sarl	$4, %ecx	 #, tmp130
LVL195:
	.loc 1 369 0
	andl	$12, %eax	 #, D.29301
LVL196:
	.loc 1 375 0
	cmpb	$8, %al	 #, D.29301
	.loc 1 371 0
	movl	%ecx, (%edx)	 # tmp130, *a_data_uncoded_len_12(D)
LVL197:
	.loc 1 375 0
	je	L259	 #,
	.loc 1 385 0
	cmpb	$4, %al	 #, D.29301
	je	L260	 #,
	.loc 1 393 0
	testb	%al, %al	 # D.29301
	jne	L256	 #,
LVL198:
	.loc 1 394 0
	movzbl	1(%ebx), %ecx	 # MEM[(uint8_t *)a_code_ptr_3(D) + 1B], MEM[(uint8_t *)a_code_ptr_3(D) + 1B]
LVL199:
	movl	12(%esp), %ebx	 # a_data_uncoded_offset, tmp151
LVL200:
	.loc 1 397 0
	movl	$2, %eax	 #, D.29295
LVL201:
	.loc 1 394 0
	movl	%ecx, (%ebx)	 # MEM[(uint8_t *)a_code_ptr_3(D) + 1B], *a_data_uncoded_offset_16(D)
	.loc 1 397 0
	jmp	L253	 #
LVL202:
	.p2align 4,,10
L259:
LBE118:
LBB119:
LBB120:
	.loc 1 376 0
	movzbl	3(%ebx), %eax	 # MEM[(uint8_t *)a_code_ptr_3(D) + 3B], D.29300
LVL203:
	.loc 1 378 0
	movzbl	2(%ebx), %edx	 # MEM[(uint8_t *)a_code_ptr_3(D) + 2B], D.29300
	.loc 1 380 0
	movzbl	1(%ebx), %ebx	 # MEM[(uint8_t *)a_code_ptr_3(D) + 1B], D.29300
LVL204:
	movl	12(%esp), %ecx	 # a_data_uncoded_offset, tmp149
	.loc 1 377 0
	sall	$8, %eax	 #, o
LVL205:
	.loc 1 378 0
	orl	%edx, %eax	 # D.29300, o
LVL206:
	.loc 1 379 0
	sall	$8, %eax	 #, o
LVL207:
	.loc 1 380 0
	orl	%ebx, %eax	 # D.29300, tmp134
	movl	%eax, (%ecx)	 # tmp134, *a_data_uncoded_offset_16(D)
	.loc 1 382 0
	movl	$4, %eax	 #, D.29295
LBE120:
LBE119:
	.loc 1 437 0
	popl	%ebx	 #
	.cfi_remember_state
	.cfi_restore 3
	.cfi_def_cfa_offset 4
	ret	$12	 #
LVL208:
	.p2align 4,,10
L260:
	.cfi_restore_state
LBB121:
	.loc 1 386 0
	movzbl	2(%ebx), %eax	 # MEM[(uint8_t *)a_code_ptr_3(D) + 2B], D.29300
LVL209:
	.loc 1 388 0
	movzbl	1(%ebx), %edx	 # MEM[(uint8_t *)a_code_ptr_3(D) + 1B], D.29300
	movl	12(%esp), %ecx	 # a_data_uncoded_offset, tmp150
	.loc 1 387 0
	sall	$8, %eax	 #, o
LVL210:
	.loc 1 388 0
	orl	%edx, %eax	 # D.29300, tmp137
LVL211:
	movl	%eax, (%ecx)	 # tmp137, *a_data_uncoded_offset_16(D)
	.loc 1 391 0
	movl	$3, %eax	 #, D.29295
LVL212:
	jmp	L253	 #
LBE121:
	.cfi_endproc
LFE656:
	.section	.text.unlikely,"x"
LCOLDE10:
	.text
LHOTE10:
Letext0:
	.section	.text.unlikely,"x"
Letext_cold0:
	.file 2 "C:/Qt/Qt5.5.0/Tools/mingw492_32/i686-w64-mingw32/include/stdint.h"
	.file 3 "C:/Qt/Qt5.5.0/Tools/mingw492_32/i686-w64-mingw32/include/stdio.h"
	.file 4 "file/eno/stk_file_lzst_header.h"
	.file 5 "file/eno/./../.././time/stk_time.h"