	.file	"stk_journal.cpp"
 # GNU C++ (i686-posix-dwarf-rev1, Built by MinGW-W64 project) version 4.9.2 (i686-w64-mingw32)
 #	compiled by GNU C version 4.9.2, GMP version 6.0.0, MPFR version 3.1.2-p9, MPC version 1.0.2
 # warning: MPFR header version 3.1.2-p9 differs from library version 3.1.2-p10.
 # GGC heuristics: --param ggc-min-expand=100 --param ggc-min-heapsize=131072
 # options passed:  -fpreprocessed stk_journal.ii -malign-double
 # -momit-leaf-frame-pointer -m32 -mfpmath=sse -mpreferred-stack-boundary=8
 # -mmmx -msse -msse2 -mthreads -mtune=generic -march=i686
 # -auxbase-strip debug\stk_journal.o -g -g -O3 -Wno-write-strings
 # -Wno-multichar -Wno-unused-variable -Wno-unused-parameter
 # -Wno-unused-value -Wno-unused-label -Wno-unused-but-set-variable
 # -Wattributes -Winline -Wshadow -Wunknown-pragmas -Wall -Wextra
 # -std=gnu++11 -std=c++11 -fno-keep-inline-dllexport
 # -fno-use-linker-plugin -fverbose-asm -fstrict-aliasing -fwrapv
 # -funroll-loops -flto -fexceptions -frtti
 # options enabled:  -faggressive-loop-optimizations
 # -fasynchronous-unwind-tables -fauto-inc-dec -fbranch-count-reg
 # -fcaller-saves -fcombine-stack-adjustments -fcommon -fcompare-elim
 # -fcprop-registers -fcrossjumping -fcse-follow-jumps -fdefer-pop
 # -fdelete-null-pointer-checks -fdevirtualize -fdevirtualize-speculatively
 # -fdwarf2-cfi-asm -fearly-inlining -feliminate-unused-debug-types
 # -fexceptions -fexpensive-optimizations -fforward-propagate
 # -ffunction-cse -fgcse -fgcse-after-reload -fgcse-lm -fgnu-runtime
 # -fgnu-unique -fguess-branch-probability -fhoist-adjacent-loads -fident
 # -fif-conversion -fif-conversion2 -findirect-inlining -finline
 # -finline-atomics -finline-functions -finline-functions-called-once
 # -finline-small-functions -fipa-cp -fipa-cp-clone -fipa-profile
 # -fipa-pure-const -fipa-reference -fipa-sra -fira-hoist-pressure
 # -fira-share-save-slots -fira-share-spill-slots
 # -fisolate-erroneous-paths-dereference -fivopts -fkeep-static-consts
 # -fleading-underscore -fmath-errno -fmerge-constants
 # -fmerge-debug-strings -fmove-loop-invariants -fomit-frame-pointer
 # -foptimize-sibling-calls -foptimize-strlen -fpartial-inlining -fpeephole
 # -fpeephole2 -fpredictive-commoning -fprefetch-loop-arrays -free
 # -freg-struct-return -frename-registers -freorder-blocks
 # -freorder-blocks-and-partition -freorder-functions
 # -frerun-cse-after-loop -fsched-critical-path-heuristic
 # -fsched-dep-count-heuristic -fsched-group-heuristic -fsched-interblock
 # -fsched-last-insn-heuristic -fsched-rank-heuristic -fsched-spec
 # -fsched-spec-insn-heuristic -fsched-stalled-insns-dep -fschedule-insns2
 # -fset-stack-executable -fshow-column -fshrink-wrap -fsigned-zeros
 # -fsplit-ivs-in-unroller -fsplit-wide-types -fstrict-aliasing
 # -fstrict-overflow -fstrict-volatile-bitfields -fsync-libcalls
 # -fthread-jumps -ftoplevel-reorder -ftrapping-math -ftree-bit-ccp
 # -ftree-builtin-call-dce -ftree-ccp -ftree-ch -ftree-coalesce-vars
 # -ftree-copy-prop -ftree-copyrename -ftree-cselim -ftree-dce
 # -ftree-dominator-opts -ftree-dse -ftree-forwprop -ftree-fre
 # -ftree-loop-distribute-patterns -ftree-loop-if-convert -ftree-loop-im
 # -ftree-loop-ivcanon -ftree-loop-optimize -ftree-loop-vectorize
 # -ftree-parallelize-loops= -ftree-partial-pre -ftree-phiprop -ftree-pre
 # -ftree-pta -ftree-reassoc -ftree-scev-cprop -ftree-sink
 # -ftree-slp-vectorize -ftree-slsr -ftree-sra -ftree-switch-conversion
 # -ftree-tail-merge -ftree-ter -ftree-vrp -funit-at-a-time -funroll-loops
 # -funswitch-loops -funwind-tables -fvar-tracking
 # -fvar-tracking-assignments -fverbose-asm -fweb -fwrapv
 # -fzero-initialized-in-bss -m32 -m80387 -m96bit-long-double
 # -maccumulate-outgoing-args -malign-double -malign-stringops
 # -mavx256-split-unaligned-load -mavx256-split-unaligned-store
 # -mfancy-math-387 -mfp-ret-in-387 -mieee-fp -mlong-double-80 -mmmx
 # -mms-bitfields -mno-red-zone -mno-sse4 -mpush-args -msahf -msse -msse2
 # -mstack-arg-probe -mvzeroupper

	.text
Ltext0:
	.section	.gnu.lto_.profile.f43bf232,"dr0"
	.ascii "x\234cf```c\200\0F\206i,\373\31\1\4\205\1e"
	.text
	.section	.gnu.lto_.jmpfuncs.f43bf232,"dr0"
	.ascii "x\234mS_HSa\24?\347\273wn\273s\256\177OF\335A\354!B\251W)Hb\23c\270X\177\250L$\360-zI\311^\304\33"
	.ascii "3\244\247 )\226\22\4\301\346\262\262\315tNSS!z\10LzH\21\324\300JX\5aTbd\347;\367\336\271\207.\227{\357w\316\371\375"
	.ascii "9\337\371\256\2\377\277n+\0M\364\326\0\21\333Q|\27\270\321\363\365\267\266*\326\5\334\20\200\11,\7\16?Xx;\351\345\260\241\2&),\30\2\240\312\364h\352\356+M\307\373F\334\277.\20(\262\266\222\31,k\333"
	.ascii "0\342\206k]\10\354E\35\0S\330F\270\375\4\246\212\277\351\211_\245\222R!\215G\304H\27km\316\215Nz\364=&\231*\311\36f\227=6\227\3\373\230\353\261\344\2f2\346cW\364\303f}\211\254\277\263yo\300g\3\234\370\204\1O\11\240\230\200\330j\357\246\246\37"
	.ascii "5\21.\211\270\336\227\313"
	.ascii "8l\204\33\373\31\361LJP\362\313\273\236\21v\252"
	.ascii "9\0\323rK@JS\357&\335\317L\242O\345\315\331\5\230A\263\275\251\317\303\211\22=djx\244Fg\272\177\15m\215R\34`\215\347\244\1\222\220n\313]>\236\357t\352'L\244W\"\27\346\347\14\257\215,\303AF\16Y\356\272\337\177\374\241\260;\32X\266\340\216\307\362&\325/d\312gPn\230r\226\304\237\216\261EU?Y$\361\355\323\353\274\266%\221c\211\21\236W\266\250cE\242\227Vff]\222v\33\325\214\362\344d\370\303\310\322\315"
	.ascii "2\31\336\336Aj/\354\243S\10\203\14\217QX\225G\307A\7Hi\27||\222]\371\214\320\317\24M0;\221K:\267&8\316v&\254\216g\226\247o\361<\310\23\276\264\366{\266;\21\363q\20\1'\331\224\252\264\242"
	.ascii "4-\354u\361\2\315\361\25\346\325\325i,h\372y\323\303\16\351ah\321\30w\331\36v\342\24{\230.\232\27"
	.ascii "2\177\11"
	.ascii "7\202Bi\345\177\212\267\11-1\333\200\24\332W\16N*\245\245K>\335\346\267f\375F\36\353m\336\260\273\276\271\271\271\345RU\325\361\310\351h]u\270"
	.ascii "1T\33\16^=Xy\250A\203\275\301h4\22\365\37\213\6\253O\325\326\325\370\255\312p\244F\26\201r\361\0"
	.ascii "8*[\256\265\200;p\256\"p\271\"\320\4\342\2\210FP\274\32h\365\201P\203W\13\234=\2\377\0N\277\21\260"
	.text
	.section	.gnu.lto_.inline.f43bf232,"dr0"
	.ascii "x\234}R-O\3A\20}3;\367M\333#i\2!$'\201"
	.ascii "4\251\3\311O\270\177\200\207?\200FTT N\"\20U(\22L\5\301\300\17 !T\341"
	.ascii "0\210\312\"q\314~4\245i\313\212\235\267oo\336\274\231[\203\365\353\222}\314\201vE\340x\326G\376r\352X\263\5P\330\31\23<\23\221B\360\356\365-\241|=s_q\241\367M\35\265\1\321cSS>g!-EM\355\242\321\350\305\232\332\6\345C\226\275\360\234^\5\271\15\31\377+\31\225\11~\5b\234[s\305\326V<\252\30"
	.ascii "4M\304\357\326x\204\303\343\320P:\356!\37\367\\?\213F\202"
	.ascii "9\325\\\306\241\364F\357\341\24Ku\257B\334\231<dh=\335\210\223\17#\261\35\222\7\326.!\356\220/0H\254\202\235"
	.ascii "8\22\30v\300\333\327\225\256"
	.ascii "0\331\12\223\243\330&\203\213o\246\317\257\267\367t\312?\334\325\"w\264\247\303\300\371\34\370\331\310\250B:\353\273\261\224\214hxP\206\277*\266\211\2\335#+\266>;1\217;\310>N\226\262e\270_\12x\320\326\206\25\313\237G\262\10N\34\277\36\222SN"
	.text
	.section	.gnu.lto_.pureconst.f43bf232,"dr0"
	.ascii "x\234cf``\220d\200\0\36\6)F\11&)\26VV)6)v\6\16\6N\6.)n)\36\11\0\21\340\1E"
	.text
	.section	.gnu.lto__ZN3stk9__journalC2Ev@4.f43bf232,"dr0"
	.ascii "x\234\225\222\313OSQ\20\306\317w\356\245\\i\253\215\313\256HH\203\13\333n\215+\366n\374\3"
	.ascii "4\204\20\">x\204\226\304\15\341\224\324\304\210"
	.ascii "1\210\22"
	.ascii "0\210\342\203\207\242\200((\305\307\305\225\33\37\4\37\211\30\255\11\276\22\211\205j\340\6\264\316\234\242\201\272\221&\267\347"
	.ascii "13\277\371f\346\30\342\337\237\237\276"
	.ascii "6C\210\275\264\302\20\220-O\204\210Y\22\340\215\200h\224h\304\27"
	.ascii "9/\321b\17t\270\213{\224R\251\213}j\267\15G\12\221\226Y\16zQL>/F\276&<F\21\4\355\307\7\277?v\177\226\216D!\37\23\255\217:\\|\224&\37\373\306&z\13\2\227TKS\262\177a\262\304"
	.ascii "6\35i\240\17\6\1\321\17?\256\300/\350J\340*\2\354?\37\377\371\312\355\212Sv_6)\6\340\2\255C[m\225\311|JH\217\1v\266(\314t\323_\236\20\263\344\310u|\220\222W\343%\232|\14;\323<\275\222gl\323"
	.ascii "2\333\324\307}E\27\264\216\225\22;\336\255~e2T\232\13\327\326\213Y\255\363:\212(\250{\346\331\244\227\213\311W\246\300 \231\337 \236\234r\216\357\312\221\312*\305z\375\311\236\346\0c\4\206\340JK\344V\207a\16\301\15\270\26\245\233l\347\246O\14\312\206euTY\216\264\322Rj\7\214\240Agv\344&\361\32M\255\357\3\314#\377w\263O\247,\326V\240\23\37\213]\376\226\337\205\316\230\317\221\356Ej\362M.\206\14\247\236\237>\351\11\16PN\342\232\270\205.,\350ib\24AJ\315\324\324p\373\216U\354\377q<\30\323\34\236\14n#\270\266W\36\356\325\35\212bp\252=\264!\260\27\343\32\254G\237\320\340\277\205z\351j\";\3{>%\231\273(\255\334\326mN\323s\22\270K}#\323r\347\334R\201\236\340\21\32\362=\356\343\226l\37"
	.ascii "7\246\313\304}\255\313`]\17\270qV\266\276\263;s\347a\352\350\321\245\363s^\306*eow\244\217\2`3\31\223\4Z\353\357\243\273\207dy\213\230\375\303\314\276$~\323\340\267L}(\254\255\253)\257\210DJ\17\324\324\327U\227\35\332\23\211\36\374\263\17\225\327\326\12"
	.ascii "3Z\271?\222_VZ^S_\35\15\346z\207\302\241P8Zq8\32\326\273\252\212\252"
	.ascii "0\3h\15U\212\337\35\22c\33"
	.text
	.section	.gnu.lto__ZN3stk9__journal6createEv@4.f43bf232,"dr0"
	.ascii "x\234\225W\15PT\327\25\276\347\276\335\267\313\356\212H\260DP\27J\10&\272\273j\224$\244?:\31\233"
	.ascii "1u\342\204"
	.ascii "1\235v\232\224\241\312$\244\374"
	.ascii "8\260\326d:\214\17X\304\264"
	.ascii "1\305\324\30\254cb\32\3Z\33\11(\32 &kl\22S\177\342O\20\210V\261\25\"JT\362T\372\24\335\236s\337.\273.\313\10\14\\\356\236{~\276\363\235\363\316\273+\261\241?\331\370\327"
	.ascii "5\206\261"
	.ascii "1\300\30D1\340U\207\31+5s.\255Jc\212\305@\253M\2\243.6\4"
	.ascii "6F.{\1\317MG\16"
	.ascii "2T\220\301\254\313M\201\215\31\200"
	.ascii "6\14\330\12.\31\214\262\311\14+\240\207\367qh\332~\365\220\365<\327"
	.ascii "8Kb\370\261\371\365\375\325"
	.ascii "2}\4\3}\254\331\334[aJ{OQ\312\256\34\253\375m\325\332Mx\302\231\312\31\324@\2\324B\2\371\334\2i\250\332\332\320\333l\223R\200\314jw\265\324XR\337U\252\312\224\252*\262\221`+H\241f(b\360wH%\355>\317\255"
	.ascii "6\253\354Q\24%\206\\\243\307m #\1\254.\326\253\370|;\336\336{\5\246\1\232p\31\27\203\11\310\320\214[\243\205\26+.\262\215v\321\264\304\320"
	.ascii "2\216d\261\264\213\303\305"
	.ascii "4\36\27s<.Q\23H\226H\313DR\231D;;-\311\270X\322(\310\24\\\254\354\2\7\316.q\202\241rx\355\300\5\257\221\321\7v\16\21\22\227]H\4\376\227N@Y\14e\261\376O\307\7\214\322/D\376o(\335\317\247\274\203\351_9\366\305:\263\262_\361t\372|v\215\333\340\37w\322\240\377\300\373\220\202Vg\233\317\274\22M\334\217\361\240\312v<>\5\236\316z\355\325\237\343awU\363\5\263\364\33\341\376\317\325"
	.ascii "7\326K\350\37\253\362\267\236\225!\376\215P\27\311?\232\374qs\375&\233\364\242"
	.ascii "0\257o}o\247L\346J\347\201\346"
	.ascii "9^\317&\345\266\317\7\32\217\206\372a\254C*\4\37@\12"
	.ascii "4@\212(R\330\241\367\215FN\271"
	.ascii "0\330\1\262\212\374\204\25\27v\222\11"
	.ascii "4\202\334\317\247\340\331[\307_\333\316Kn*\253\24\263\306\307\252\330%\244\0\273\240D\244\257\361\30v\2"
	.ascii "89\243\250h\203\204\254\364\276yK\"Q?\227\303]\214S\271\1\375\357F{<:s\356\253\243f\242"
	.ascii "3\26e\37B\202\36s\220\344{\210\344&\212\22"
	.ascii "7\30\245A\324a\303\241-\257\30^^\216\204`\14\222"
	.ascii "3h\206\227Y+x:\312w<\30\214]Z\323\362\252\211\\Q\320\26?_]\330\330\253\322\244o\240lW_M\256\256l\16E3^\257G\351\346\313\246\215\260\241"
	.ascii "4F\343?\350\347&\370\210\354\361\340/_\257]csL\245Z\356\201\215\360=\27\15\362"
	.ascii "180\367\12\245\25\4\236\360\304\343UnD\255O0q\214\206\211j\374^F\20\352k\237\324!X\356\36s\33\326\310Lq\275\301\270{E\\\203\356\303\32\36v\202\312\251\236\237\212\260\26\215'`\314\362jY\327\266\241\10m\320\\\216\210"
	.ascii "9Q\345&4\336'\214mx:\340\331s\332`\317\333\250T'i|\"\351_\352\336\177\321\202\372\325\244?\11\376\11v\275\32\237A\11\236\376\265\255\353\252D\214\312X\310\317\251\220\223\5\377\206\0\377k\246\351H\242G\310\367\27\301\274\367\373\371~32\337v\225\233Q\353K\201\235\334\267\34\334Z\307\11K\222\202`\376E`\222E\1\216\372"
	.ascii "1\304\214\202\377\3A\34\7C\371\37"
	.ascii "7\14\377\207\4\214\230"
	.ascii "0\376cQ\204"
	.ascii "6w\343\377\260"
	.ascii "0\216\305\323\213\325\27+M\366\302\20\376Ov\264+c\202\374\177\25\340\377\10\224\204\22n\24s\20\263\275^y\272\321\244G\217\33q\276?\204\243\"_\320GM\327\7\355ky\311\37ph\303"
	.ascii "1L\236\301q\4\350\177>\361\370\360Gk\16\230\245\"1\307\312*\352\6,b\14v\356\331"
	.ascii "978\307L\360u\304)\333J3$N\14\325\276\312k\373f\337"
	.ascii "1\235:\273\326M&\15\377\354\212\32"
	.ascii "2\273N\210\331\325\26\201\311\24\225[\304"
	.ascii "1\264\13"
	.ascii "2\343"
	.ascii "4~\37B.\363"
	.ascii "65J~\330\303AM\35\6jG(\324\313\345\217\335\11\265\242-\235"
	.ascii "4\374P\255C\240~#\240\236\244:\214\17\7{\277\212o!R\200S\1\260i\324\251\257\277\363\260\37\353\310\312f\206\177\213\262\211\367\365ip`(&Z\340R\343\14\275\5\342G\354k\12\234\21\276\244\320\26\270\251\237EA\247h\203\263\210\366\24T*\353#w\363\3*\307k\23\374G\344D\221\257"
	.ascii "7\324l3\210\227i\34\203\377B\2\212>\375\366\303\32\331\336\4z\207?H>*\353\353T\10t\370T8\27\350\360.(\301\204"
	.ascii "4>M\237\242u\317\351)M\30\341$\351\16>\301\337\352\223d\313\221\370\210\270\35*\217F\255\363\2\367\4\204\256q\247\210\331W7_\217\231"
	.ascii "8\212\311\321\23\214{!trL\34fr\\\24a\23\303&\307$\24\241\315\335&G\257"
	.ascii "0\236\204\247\345\347\267\370,\366}~b]dP\272\255\251\301\30 v:|\27 \366\222\30\335\275\307"
	.ascii "74\333\304\350\306K\325e}\222\10\242w\376R\207`\37E\322W\202I\367\211\244\215\272\217\344p\334"
	.ascii "3T>\26\225\276\27\270)\202\322Q^d\377\322\17{\246\270\270\371\326\357\30\213\372\367j\374!P\3\240\257B\211\306g\211\247\344\354\264Q=%\26\270&\320\31\10\335uzJ\222\351\36\321^^;5\10r\360j`A\245\376\301{\204\314\274 \341\4\360\266\366H\21\353"
	.ascii "0[\305\13\22\203\377\351\327\35_{\313^\253\375\220?\233t\22\275\273\273\323\32\250\301\303\240\5\322\271A\351<\202D\225{\333z\"\277\340\36U\361\315\301\340&\272\326x\206\200cb\370\345\2\361TzO~\27\31\317c\252\270j\15\350xZ\266\256\373\334b\357\365\343\371\21\211\324s\15\215\321\1@?\206[\1@\267\361}\362\0=\241\267\353?\351\27}\361\223\4\6>\272\262%k\374\247!\343\177M\345\341\16\233\264\212\213\371\177\355\306\256\217#\15U+(<\322P-\345\376;$^\252\337_\235q\347L\375\354d<)\370g\352=Cfj\231x`\312\371\320\264\347\250<N\34\203\207Sg\341\345kn7_!\36\342\335\23\365"
	.ascii "2\247\215\242c*\370`\307\254\344\16\301\275Y\274aOCi\14\372\307\27e7@h\337`\363C%O\220\17\256\306\33W\232i`\265\11\277\245\0\331\340I\322\322\242\302\305"
	.ascii "9\305\305Y/\26.+*\310\316{\266\330\375\273\300\336\271x\351Rfp\277\220[\354\10\327r\272\234N\227;\347%\267K\354\362s\362]d\210\377\235/0Sv\326\342\302e\5nk~\341\222ey9Y\5\331\371"
	.ascii "9P\314\263\30\177\226\31\263\26\345\346\347\314y<\303\365\264\33\177g;g;\247\273\26\25\26\346\25\273\362s\13\236_>\353\321\231Y\17\315t\345\246?\222\356X\236>\313!\204$(X\234\267lI\216\313\215\326\30\"*\365W\216\324|G\352\22ft\272_r3){*\233</3saf\322\343\231\363\346.\232\377\324\23I\305\305\10)#c\301\302'~6\177\301<\226\370k\277\340\311\205\317d>5wA\26I\177?\335"
	.ascii "9\343"
	.ascii "9\13"
	.ascii "3fg-u\27\375\37&\22,\212"
	.text
	.section	.gnu.lto__ZN3stk9__journal10get_streamEv@4.f43bf232,"dr0"
	.ascii "x\234eOMKBQ\20\235s\357\353)\351BZJ\13!\304\225m\373"
	.ascii "3A\204\24}\221\242\266\366*\266i\365*\27A\10Q\246\225\245\320B\310\210j\327\246\"(\202\26\265"
	.ascii "1(\20\312\14\304E\330\14\24\4]\30f\316\235"
	.ascii "9s\316h\372\377\374\34# \12q\206&(\347\212(\355V\200\24\4J)\244\360\252Z\12G\225\317K\317\213\352*\12\20\303\372\312\305\232-\20\226\300b\241\271\350\12m\33\223y\337\254N:\271\15\356(j+B\21~\224 B\330A\210G\357\16\233u\257\36\202\320J\265\343b\177p\313"
	.ascii "8\31\343"
	.ascii "8\302\321\330\205\376K\343/\302\36\202"
	.ascii "2\335\312~\335{\354\254"
	.ascii "1\306'\253yc\31"
	.ascii "6\273\247\352\300\231\351\365\332'\347\216m\261w\36\327$\372\324\340\220K\236\31p\326\17\310\324Z\247\203\302\353(\315+\237\32\327"
	.ascii "7n9\303\"QXJ\27\336\\y\254\247}]\325\327Q\12\373\342\234\33\253\267\271eo\270\314\322\356\256\262q\200<>\304\1\241\202"
	.ascii "0=\2?+I4!Z\334\15\304\342\321\310D\"16\23]\210\317\217\317\215&\222\263\277\365p$\26#+95\235\370\6\367Sy\323"
	.text
	.section	.gnu.lto__ZN3stk9__journal10write_lineEPKc@8.f43bf232,"dr0"
	.ascii "x\234\215UoL[U\24\277\347\276\327\366\365\321\12\214\241\263\352 !dF\323\326\214\215\251\211\211\211\211\361\253\311>\230\250!\13"
	.ascii "6\16\355\200\14\346>\30\334\243T+J\264\14b\230R\346"
	.ascii "2\5&\10\3\4\6\233\3\305!:G\305\15D%X\223\301f4\321\332e\344\5\227z\316}m\6eL\232\366\276\373\356\371\367\373\235s\356\251\304\326~\12\360g\265"
	.ascii "0V\207O01\340\301I\306\252\25\316\345\31"
	.ascii "7\323Tix+\323l\22\310\306\261\14@\33\6\354\20\227d8\4\277\363(\207\241\256k\27\322\256r\235\263\\\206\257\303\207'\232\314\364\12"
	.ascii "2\275"
	.ascii "6\264,\235\262l\373X\323\264\277{{\332\355\301\306\17Q\304Y\214"
	.ascii "3h\5\7\264\201\203\34\266\303"
	.ascii "6\324\235\356\375s\330&\345\1\331\265\15\234nU\363\217kA\237\26\14\222\215\4'@Zi\206G\14>\201|T\356\274Q\33\260K\367\13\303\332\367F\342\26"
	.ascii "4\324|\243\241\32\371)\235\313\320\221j(3\350\204|\322\216\372o\374\230f\366#\274\14\302\204P>\5"
	.ascii "3\340\3e\375z\350'\233\344\22^\233\303W&\324\274c\250\27i:\36P\264\11\315\37\211\307s\220\12t\255\366n|\240\33\362\272"
	.ascii "7\215j\361x\337x}\373\3\260\5"
	.ascii "0,B\241\270f\334\232,BE\1b`\305\3\263\212\213\305\216\213\222\216\213"
	.ascii "5\223\224\262h\227M\13c\227\21\35e\177\1\263\207Oi\16\374\243=o\270Vs \237\202\2\"8\11\346%nFy\313\305w\272x\325\262\366\246\246\350\\\215q\242\327\3Ul\211\313:Oc?\203o\336bh[\320\200\315\0\247"
	.ascii "7r\205'l\32\374\263"
	.ascii "5W\352L\11\15\310"
	.ascii "3(.`\366\207\267Jh|=0s\344\25Cj\305h\277^\16O)T\177\33\243\304\275U\375\321_\226\20|P\235\241s\373\22W\240\227rD\215q\251\261\336\346\354@\324\210\352\16\350\203\20\374C\5 \331\302\311\331F^\365*f\5>\3'\302\355G\270\11\\(\236<S\177^\221v\211\302\370^\357\376W\24\306\27y{\254aEa\314"
	.ascii "0p\313\302\14\22-+\303\364E\226O\34\355\224V%0rn1\"\221\212H_\14S\235\322#pJ\344v\10\327\324\314\246\307\260GI\14\303\"\271V\235g h\337\350\340xa\2\370\272`3\327\1{z\5X\275e6\5\354\302\342U3\251$\300\312k\300\236\21`?\247\322\250\251p7\305\270I(\300\331$\334,\352\205\303\307v%\320n\254t\26\30\21\245\3\302;\12N\14\305DW,\36i6\33ma\337\260\263\315\360\205p\306W\366\301\262!S\340K\321\13c\10w\16\2\332Q\341}M\31\262c\234H\177%HQ\344\353\275\255\35"
	.ascii "25\344\235\233\31\234\3\7\305\14h\277\250"
	.ascii "9\257\205\264\246\\\235\337E.\6\346\265\263\12\272h\"\27[`\34r\204s\370\32\252\220\220\316\357&N\3\321\311\337\12\14J\351\377O\351A\274\266"
	.ascii "0!\350H\224\233o\20\375\34\310\206}\346:\367\362[\3"
	.ascii "6\335K\342"
	.ascii "8rk\216\216\30^L\6\347\15e\303\333\324\373\255"
	.ascii "5\351\202&0\370\16\34\210Q\347\367\10\330=\341)\253\21"
	.ascii "6k\203\260/\334\204=)`\7\264\20\334\16J\330\230'8?\214\330Y\311\330\321p41\\\262"
	.ascii "7\30\373\373\233\261\247\22\261\353o\33\373\7\214M\377\30\15\177\364\362\234Z0\252z/\35\15\216\14\265Y\222U\275\17.&\253z\11\252P\32\216\214\275k\23\31\303\213"
	.ascii "7\215\27O \317&\344"
	.ascii "4\337d1f\347\241:\3\231am\26\1p\370\361\346\276k\200sP\252\353/\307\231\14\244\204\335\232[\276\277\254\330SQQ\364R\331\201\375\245{\274\317UT\276\234\334\273\212\313\313\231\\\271\267\244\302\264\307[R\352Qh)\362zJME\273K\366y\36\177\342Q\367\323\225\370\335\351\332\351z\310\275\273\254\314[\341\336WR\372\342\301\35\217l/*\330\356.)|\270\320y\260p\207S\34\322Ai\261\367\300\13\36w%Z\273\366"
	.ascii "2\365\331\374'\237\267\253\371\317<\306$\273\312\376\3W\202\225R"
	.text
	.section	.gnu.lto__ZN3stk9__journal19write_formated_lineEPKcz.f43bf232,"dr0"
	.ascii "x\234\225TmL\233U\24\276\347\276\237\224\262\302\24\331\370\343\222\206\314\304\0\272\215\372\361\303h\374\243?411\376"
	.ascii "2i\32\300\15\5J\332\316\375\"\276\224\312\310b\14c\323\341t\313\10\23P\34\310\306\30cc+c\14t|\214m\260\315\220\255"
	.ascii "34JbRjgj\263,x\316}\31\260Z\25\337\264\367}\357\275\347<\347\234\347<\367J\354\357\317\233\370\377Lc\354(\276Ac\300\33&\30\253\321"
	.ascii "9H\364\1\22\227?\31a\314\260\250\1\215\31V\31\24s_1\367\7u\25\200>\30\260\217\270$+*\340\313D\236\347Q\16\247;\357\215\247\377\312\23\234mb8\355o\34mRi\12"
	.ascii "2M\367\35\216\367i\233\277"
	.ascii "6\14c\341\347\223Gl\15\373\217\340\26g1\316\240\25r\241\15r\11\271\35"
	.ascii "6\243\355\364\361\337\372\255\222\35\310\257\255\367L\253%\257\305h\360\33\15\15\344#\301"
	.ascii "7 \255v\303%\6\337B\36\32\17\37\233/\222\236\22~\365"
	.ascii "3\341Q\33\372\31\376\340\345Z\371\265\4\227\241#\331Of\360\35\344\221u4\360\340F\272\32\300\354"
	.ascii "2)%\314\344\30\250\300\30\325\365\307\344\255\3\212\364\254@]\30\233\230H\263"
	.ascii "7\33A\177\350lK\235n\214\32\201\320\342\342\223\11\256@\347\243\350\346\3]`\247\"\346\367\364+\322s\2\242\245\363|8\35!\14\177\350\334\320\356U\20*|\237\22\242\33\354]\353\203\376\305\305\330\215\275\365\16\330(c\346\232\2T\262\212\237\272Fs\35\250\24\213\260\266\322j\6\15"
	.ascii "6\332\312\242!\233\206\34\34\370\6\34\322\30\233\303*\261\317s\330\203\200&\205\221C\354\255"
	.ascii "4\13\37\267\367En\312I\224\20\33,\211'*\215\242"
	.ascii "18N\233p\2G\264"
	.ascii "8|\355\323N^}\337\250"
	.ascii "7\364\4\267\304"
	.ascii "8\222\10=PM[\301{=]\264e\320V\272\360''8\11\325`\317Mp+\373\11\374\215\335w\356n\245\365"
	.ascii "8v\14Mh\255\27\314\5\25A\356\314MN\351$\253\14\221\320\236\232\243\21\355\20|Y\223\231\340\353\342\330\206^\"\216\364v}\377^k\376\323D\353)8\4\277s\301e\37\344\257\6\324\326\204\240\301i\201\0\204\320\217\10"
	.ascii "3\300\311\37m\276\350\350k\341\322\313\242\261W\352f\353"
	.ascii "4\263\261\235C\373V5\326\6gR6\366,\330"
	.ascii "1\5D\363\7\37\324M\302\22d(zu!]z]@\316\17\264"
	.ascii "5\255K\5\231\11\3)!\317\21\244\232\14\31\211t|\256Ko\10\310\261S\341\1[*H\31\316\247\204\14\22\244\236\14y08^\237!\275# \273/\336\17\310\251 \25\30L\11y\201 e6\13\273C\7F\346\232\32\325G\224\25\32\216,l$\33\12M\25\21QB_1\24k\262"
	.ascii "2\207\204\370.R77$\313/+\206\267\5\31\300"
	.ascii "0*\20\271Fn\260\26\214\235\340\353I\7\267"
	.ascii "5S\7\26t~\330U\322"
	.ascii "4\256`v\201\366?#A)\245\260\37\213a\376\14.\375\273\260G\240:\301\37\307@\265\215u\227\276z\311\214eEp\364\231:\330Zk#\35\343"
	.ascii "5\3\243\310\15\311\362n\266i\223\361\337\272\354"
	.ascii "0\243\251\360\303\212\272\177DmNC`\242\326\262\34*C0\36\306l\361n\227\350|E\347\232\323\226\232\270\326\20\227WB\214A~\334<\250\275\335\341\251\245\203j[\343"
	.ascii "1\32_9F\23\230\352,(\246\177V2\275\331"
	.ascii "1\256\240\321\244\350\232\15\3&\370\23\242\14e\271\214\346e)\256\255\12\15\256\254D\237\242*\262\260\212\13"
	.ascii "7\243a\227\350\272yQ\33\203\267\342\252\243\307\250\7T/\203\253\340\20aU\272#\311Z\371g\333khK\264D\177\211\246\321\225\30\347\331\377#\271\353+\311M/Q#0r\222\251\311\211q\22\374\214\240F\301 \11\224\356m\200%sF7;`\272\330\256MU\36wq\251\327\353|\337\275\323S\351*\177\327\353\373\340\341wAqU\25\223};\312\274\272\313\371\236\333S\341\362)U.\217\253B\367Vy\312*}\245%\272\323\351\365yJ]\25\222\323Y\211\23\323\310\352t\226\273\213]\345N\227g\373\207\257\274\372b\341[>\374\25\25\24\25<S\370\266\333]\356-\254(\253\334\276k\333\13[\234[\267\24\226"
	.ascii "9\236w\344\357rl\313\27\213\264PY\\\276\263\244\264\320\353+)s\27\354`\177\1\266\360\317v"
	.text
	.section	.gnu.lto__ZN3stk9__journal14get_first_lineEl@8.f43bf232,"dr0"
	.ascii "x\234cf\300\4R@,\302\310\300\240\7\244\31\231\31\30\231&\234c`h\344`bd\4"
	.ascii "1\30\30\31\352\231\30\353\31_2}db\334\271\356\313Y\356\27L?\231\30\24\30\200\334]\223N\314`\3q\31Y@\334\311\363\276\357`W_\332\320\320\360a\323\356\7\274\23\246,\0J11|fb`\\\306(\305\270\234\21d\23\343\12Fu\240\332\253\233\336\354\342aVf\4\351[\276m\367"
	.ascii "2.\325\305\15\23\232\32&L\0\351af\\\311\310\214\254\15(\304\300\270\212Q\25\250\370\350\207\215\273\270\231"
	.ascii "5\300\32\17]o\376\316\1\322\330p`U3\213\307O&\26\306\325\350\32Y\30\30\327"
	.ascii "0\252\202T\177l\371{\235\233\255\5\350<\1\220\233\200NY\313\310\6\364"
	.ascii "7\303z\241\3\15\377\377o~7q\205\25#P\374\11\20\203|\376\24\350v \315|\217\261\361\300\305\343|`\325j /<ab\4I\0\225)\24\24\345'\247\26\27\307g\345\227\26\345%\346\304\24\227d\303\330z\311\5\5\14,%\31\231\305l\211%%\231\271\251\0\321mrM"
	.text
	.section	.gnu.lto__ZN3stk9__journal13get_next_lineEv@4.f43bf232,"dr0"
	.ascii "x\234cf\300\4R@|\33\210\325\201\230\221\231\201\221i\302"
	.ascii "9\6\206F\16&FF\20\203\201\221\241\236\211\261\236\361%\323G&\306\235\353\276\234\345~\301\364\223\211A\201\1\310\335"
	.ascii "5\351\304\14"
	.ascii "6\20\227\221\5\304\235<\357\373\16v\365\245\15\15\15\37\16\355}\300"
	.ascii "3a\312\2\240\24\23\303g&\6\306e\214R\214\313\31A61\256`T\7\252\275\272\351\315.\36feF\220\276\345\333v/\343R]\334"
	.ascii "0\241\251a\302\4\220\36f\306\225\214\314\310\332\200B\14\214\253\30UA\252?\266\374\275\316\315\326\2\264E\0d4\320\304\325\214l\214@z\275\320\201\206\377\377?\177\233x\302\216\21(\376\4\210A\36x\12t\2\220f\276\307\330x\340\363q>\260j5\220K\236"
	.ascii "01\202$\200\312\24\12\212\362\223S\213\213\343\263\362K\213\362\22sb\212K\262al\275\344\202\2\6\226\222\214\314b\0\234\215^7"
	.text
	.section	.gnu.lto__ZN3stk9__journal9read_lineEj@8.f43bf232,"dr0"
	.ascii "x\234eO1K\202Q\24\275\367\275\257OK\243htQ\12\261\251\255\306\346~D &B\226\251\370\351(>\315\206\232\276\242\302%(*\255,\205\242(\203t\253\245\240 Z\"\32\12\14\34\222\32\372(\261\373\204 \352\301\345\336\363\336"
	.ascii "9\347\235\313\341\377\261Q\15#\300\20u\344\200L\277\2H\232\31\242\34\0!\301"
	.ascii "0\201/\254\316\360\244\360~i\251"
	.ascii "2\203\201\3\10\226\26.2\252\204\250H\230\335\250\315\230\\\233B\244^o\312_\235\372\342*=1xc\200Y\264a\16\345O\270\205.\342\336\356\327JV\336\207R\227;:\315v8\327\205\236\22\272.5\34\267\221\377\226\321\25\340\16:\211|\177\336"
	.ascii "84\361\376\226pym\366\272\275%\254\344\247\225\21\203)\230\377+T\0w\321)\331\365t\343\316\242\246\205\20\335"
	.ascii "2\23E\331C\225\366\206bOE4\233\7\315\371j/\305\205'*\271\371"
	.ascii "3\1\352\374\1\223\225\245"
	.ascii "9\253d\223\313q\343\343\314l\37\\\21\31\207\301\332Z\361\37g\313]\361O\221\21f\203\251X@;Y\27"
	.ascii "1\16\322\12\245\5\31:\302\221\220\327\247i\356\211P,\22\364\4F\265\350\344\317<\340\15\207A\211\216\373"
	.ascii "5\253'\340\17\372\334\301\330\324\230/\202\360\15D\325\205\271"
	.text
	.section	.gnu.lto__ZN3stk9__journal5closeEv@4.f43bf232,"dr0"
	.ascii "x\234\225\221\317k\23Q\20\307\347;\357m\222&\21\202\7\17=HAJ.\306\213\347\376\3\376\15\202J\21\374\205\15M=\206\276\324\34\304\203\254\261\207B\250\26\324V\215\246\265\332\24+B\360b/\215\24-\242\210B\211\240\240\330\30\245.\"uf\323\252\240\7]\330}\357\315\373\316g\276"
	.ascii "3k\350\317g\257\274y&J\313\12\217\300~\203\250\20c6\345>rq\373%E.i`;a\13\350\206@\303l,\206\361\216[\14\277^\31K\244\257:\347\326V\227\233\306\215\36\14\204\330\346N\5L\"-\242\225\331\367\13I\263\13$\373{\325\317K\211\267\34"
	.ascii "0z\364\270PZ\34\213\350\221\255\36\247j\367'\343\275\227\235?\342|\177B\302\6S0\202\303"
	.ascii "5t\343:\272IB\204\33\350Uu\253\370\375Y\"R\224\342\251NIT\20\201\254\323\333\353nc\243\375\250\264\230\346.\3\325[\311\264Q\371xDM\321j/o\230u5/0Rk-\225<M_g+\344\327\315\307\313"
	.ascii "1\265\25!-t\266p\345ct\34\345B*\340\350\272\230\272)N\364\342\302\323\321\363\311LE\34\304\4\217[\30\307\247\260wT\221\241\25\24\237\237\336\361\27\252\25\301\264\"HM\30*\367\231\227(\272y\250V\271\27\237\234\253r\376\233;\243\334X\233\245)\314 O\302\11\270+\314\262[\326\327f\32\253\241\365\377"
	.ascii "0z\373\227\321YdB/\341\20\32\17"
	.ascii "7\207\20\375g\230\207;!L\347\216\273\322\265Z\232\330\271i\350g\313^\230"
	.ascii "9\367\365\322\207m\212t\256\276;\340\270\24\302\234RQ\23\310\357\372\270\304\346\345\346\25\12\365\7\373\302\271\220\376"
	.ascii "9h\333\342\274';8\320\177"
	.ascii "8\227;pl\340\324\340\311C'\366\347\206\216o\355\367\364g\263d\207\216\34\315\375\0\333?\356\31"
	.text
	.section	.gnu.lto__ZN3stk9__journalD2Ev@8.f43bf232,"dr0"
	.ascii "x\234\225TIOTA\20\356\352~\357\315\302\200\304\203\32\16JB\10\7\235!^8\370\13\274x\361\340E\23B\10\11\256\20\30\23/\310\3\307HHD\20\17D\1q\1D\224EY\4\267\21eS\31c\24q\10(1\210JT\30\7\205\321\30\254\352"
	.ascii "7 \303\22q\222y\335\325]U\375\325W_\267`K\177;\360/4\306v\343\10&\6\274\320\303X\216\231sq\266\213"
	.ascii "1\335\252\375"
	.ascii "01\335&\270\322\235\200\226\332\273\36-\5T\303K\5\315\230h\0"
	.ascii "4a\300\262\271PT\15\262\341\23\367q(t\327\226\204\305U\352\272>yq@9\276!\300\31\363s\343d\250\202"
	.ascii "8t\351\277\361\271\335&b\200\341\274\255n\252/\354#\17p\210&\263\375tO\211F&W\310\254n\271]e\215\275\244\27\346\216\324T\226\233]\333\3\\@5\10L\10W \12j \212\341\22\203\253\20K\376>\327\357\201"
	.ascii "0\315\205\207G\32\207B-h\200c\375Z\267>;\373\241=6R\0"
	.ascii "9+\30\246h\370Q-\364\261\321\207\215c!\354+'\177?\207\322\376\31@\13\263\0Z\5O\306\335*\232\202"
	.ascii "1\356'\27\362b\243\270K,\274G7\34\305 \344\266\264\371\256\356\\\4\205P`\304"
	.ascii "5\320\246\271\202{oG\237=7S\225\270\212f~\316\345\11S\31\234\313\211\14p\323"
	.ascii "4Vx\35\313\242\215\342\227g\212l\366Z\314aF\270P\7e\360MR\11\365`g\375\340\362\36[\267LV\5\35\32(\5#d\202a[\305+\310\215\244\224\25}M/\327\304\\\220\214v\236"
	.ascii "2\273zt\327\310\354\354\246ex\15\266\254\21b\20\222q\330\304\31"
	.ascii "5\244"
	.ascii "2\367p\376\26r\220\245\371\221\203\305u\337\220u\337\224\10\27@R\330\261\255b\10\\\356\326\307v\332\245\270\362\27\5u<\353\227\236G\265\232\375\210\207\202\241\11\262\30\6\7\270e\214gS\254*\313A\242'\33<\357T\212\306\340\346\231\363_\302\211A\311T\10\207\245S\305\336"
	.ascii "5\177"
	.ascii "9l\16rhdo\1\273\204E}\363y:T\3\252\355?2\252\320*3B0\343-l\14\201\253\330\30\204"
	.ascii "6\337\25U\6\207\346\265\342a\320Fy\241\35\323,t\267\342\332m\311\330{\224\311\234\270|\3\35\302\350\270\366o\341l&xw$<y\27\356\"\266W\300)\36}\212Nx\274"
	.ascii "6\261K\336\302\357?[\356YQ\25\272\241\12}^\25apoYU\334'Uh\14{8\322x\375\344\266\220\276\217\214\326\2"
	.ascii "9\4U\241,Q\205[\252\342\301"
	.ascii "2}\267\371\21"
	.ascii "1mC\207\354\273\26\340\341c\374\250\354\366\20v\333@\276\272\373\22\1\17e\351\202\360>\2\373Br#p\251s\256\357Cs\224ZVIiW\260\343\230\244;\204\322\377\246\261\207h\264\254@ce]\257 \217\25y\354\225<>^\211G\332\206'\222G\213\344"
	.ascii "1k\20:^7\16\257]Lca\250\304\341\251!E\375\201wZKh\322\363\0w\31\364A\2\243W\204\36\263)\322\323\33\0\343a\243w\20H\242\270\32\235\236\221\226\234\222\231\231\270/\355p\306\241\244\3{2\235\373\347\346\216\344\364t\246"
	.ascii "8S\367f\332\27{9\342\35\216xg\312\21g\274\234\35L9\30O\201"
	.ascii "8:R\231\232\224\230\356\314\370\3?\255"
	.ascii "6\320"
	.text
	.section	.gnu.lto_.symbol_nodes.f43bf232,"dr0"
	.ascii "x\234U\216Io\323P\24\205O\336\343\270iK\233tL\322!n\233"
	.ascii "5\277\361\6\311"
	.ascii "8\10\244\202\212\200%,\274`j\1\321\201\241e|\244\20\20,\220\272\253\4\310R7\21\313\256\20\340\1K\327\336\234\363}\357\335\347k\1\334\264\310?s\207\2\\\375\2\210`\375v\25\346.\245R\210\260;\12s\217b\364\215\312{\212\315\5\272\27\223\211\373\224"
	.ascii "3\245'\36PX\22\233\24\257$\266(#%\361\220R-\211G\224\321\222xL\31+\211'\224\361\222\330\246\234\325\233Wv(\23\305\242\335d\361]\312\244fG\251i~C\251k~M\231\322\374\212"
	.ascii "2\255\371%eF\363s\312\254\346g\224"
	.ascii "9\315\7\224y\315\373\224\206\346w\224\246\346\267\224\226\346\27\224\5\315O)\213\232\367(K\232\17)\313\232\373\224\266\346\1\305\327\374\221\262\242\371\23eU\363\7\312\232\346\317\224\216b\213I\270\357\177\316W,&\340~\244\305\24\306,!\310\315\"\202\360\264\227\224"
	.ascii "9\270\360t\304\232Y\4\275"
	.ascii "4\27\340z\377\17\202K\371\201\313\262\205\350\362\360V\335\232&\342\274"
	.ascii "4\340\326\263"
	.ascii "2\217\340\312\320\317\336\312"
	.ascii "2yk#\315\31\270\215\354\302"
	.ascii "4\242o\327\253\326L\301eYG|\355(=\250!\272q\344[\266\21e\13\262\205xg\273j\331D\324\357\207\211h 8\314J\33./\313\210\213\22\15\12\223\25o\15\321\376\257s\326[M\246O\216/\30\353\255$\343'\307\264\236\17"
	.ascii "7\370{\220*\342g\266\377X\7\361\357"
	.ascii "8\371\351x\7\321\346\327$k\210\303d\357"
	.ascii "4{C\37\377\0\321e\13;"
	.text
	.section	.gnu.lto_.refs.f43bf232,"dr0"
	.ascii "x\234cf``\20e\200\0FFf \301\304\304\314\300\310\15\"x\230\271\31\30\0\4\312\0R"
	.text
	.section	.gnu.lto_.decls.f43bf232,"dr0"
	.ascii "x\234\245{\13X\34\307\225.\325"
	.ascii "5\3\303"
	.ascii "0@V\212c\257"
	.ascii "67V\264^m\234"
	.ascii "8~\333\327\336o\357F\211\255\254bge\307\211w\277xw\277\11\206\301&A\240\5d;\273\337\275\31\36\2$\361~\211"
	.ascii "7\3\2\204\0\361\26o\304\0\22 !\361\22/\11I\14/\201\20O\1B\200\20\367TU\367L7\314\330_\24\244COU\237>\365\377\347\234:U\335\323`++\253\337Y[Ym\302\317\314\377\261\262\12\267\265\262\262\203\276\17@\236\2\311\7\251\2\251\6\261\7\321\203"
	.ascii "4\200\264\200\264\202\\\5i\7"
	.ascii "9\0\322\3\322\13r\35\344\6\310{ \223 \263 \213 K \337FV\364\347"
	.ascii "9\20"
	.ascii "5|\376\24\344\277@\16\203\370\200\370\202\4\203\204\203\304\202$\203\244\201d\202\234\6)\4)\7\251\5\251\3\271\0\322\6\322\5\322\15r\15d\10d\12d\1d\5d\3\204\343\254\254v\202|\27d\17\310\363 ?\4y\13\344m\220\177\342\254\266\375\20|\177\305\373\302\1D\5\362\23\320[\205\343A\220}\34\363\317O\341X\2\272\237\200\374\12\344}\304x\376\14\372s\341X\14:2\220\217\340\363\257A\16\202\374\33b}d\214\203\34\343T\210\266c \276\371\231h|\27\304"
	.ascii "0\330X1\34\304\357\37@{?\364\177\310\261q\305\330\276B&|\277\342L\361p\340Lx?\202\317\233p\374W8~\14\362;\316\24C5|v\342X,\327Ag\17\211\31\264\227\341\350\2G\15\310\34|~\36\304\225"
	.ascii "3\345\300\4\264?#v\220)G>\347Ly\323\1\375n\234)\237Z\241\375{h\327\303\321\235\223\346\334\37\240}\210\364\301"
	.ascii "9\271\25\363\335oA~\3\362\1\357\317\247x_ys&\177\222x\223\270_\343s\203\344\301W\34\313\211\377\313\261\374\230\342\363\245\213\317\243\13|^\5p,\307\266\376\220\34\265"
	.ascii "1\23\17\301\227\304\377\344\262\203\374\321\307\214\15\222\343\337\23\331\370\212\267\361?\310|<\217\302\361Y\321\30\337\24\203|\321|#q\10\204\276]\"\337\223\274\333\352?\5\217\213\314\15s>\372\256\231\371A\346\351_\233\341\21\4\362\12\307\346\201\220\243$\177N@_\10\310q\21\227P\36o\30\34\337\4\211\4\211\0\211\2\331\13\22\15\362\377\310\374\265bs\347#\336\377dl2ou\374\34\376!?\247}\315\370;\234\317\233\255"
	.ascii "8\235yN\210\327\331\372\23\313\317\321\255\327\11\327\304\232\271&yK~\374\17\177M:H&H\226\350\372d3\327\223Z'\324_q\315\371"
	.ascii "6\357K\301o\331\320\367\217\34\253-\304\244PS8\336\206\271zFj\250\343\237i\233\324\22a\356\275\317\373C\30K\250g\326\274m2\367\204\261\205\371C(\236\336\202e\201CU\5KW\355&9\344\240\334M\232\325Q\255\361\326\320T)e\244Y\233],\307\34\"\37G\365\221\243v/\344j\265\332`\255\276\25\231,\370f\327\204\330\300%\7\224\264"
	.ascii "9\224\264\232iK\233d%s\204..u\274\245N\201\224{\203\265Z?\362\337\266\325\301\12e\243]\350"
	.ascii "4\332e\205\316\242\275\364Z\224\13=y\320\223\11c\314\347>8\371\264V+C\371H\211r\20Fg\320\13$XD\221F\15\372a\260\326\274\224\337\341\217\11>\331\\\327\243*{\264k\227ro< |\370,*FJ+\362Q?\271\271\371\247M\366\23nC\273\1\210Vk\210\324\342g\254\320\13\273\320\363\200\242\4P\220SV\250\10`\24\12"
	.ascii "0\252q\0\"\375\250\0a\251\343\222N\26\314\311\225\274\245\340\257\265\4\332\203\307\"\375\35\250\233\7\250"
	.ascii "7/\257\216N\310\251\237\377\206"
	.ascii "4\37\27\327\257\250h\223j\207\337?S\244b\266\231\273\340\204\321aV\250\202Z\377\301.T\316\214\367tW\254s;\"\210"
	.ascii "6\374\332\315\0\227\201\372"
	.ascii "9\252^\211v\10\27\21\355\324\274\271A\231X\273\324\242"
	.ascii "6\252B;\340\212\376\314\371"
	.ascii "0;\325qS\364H\277\10O5R\321\230\300\21\264\257&\30\312\30\325yJ5<z\243\224\243\334\276G\375\226\326?kO\233\377\213"
	.ascii "4\323\37\207\335u\260L\365\274@\265\216Q\335\210\367M\264\335J\265\6\324k\251z=\5\177^\240z\252\263\360\254\303V\252\346\265\221\236R}\24\272\274\351(\241\252\227Pm\340\251"
	.ascii "6P\252\11+W\232\35)\325g\310pa\5\231\213\216\224\32&\315\304\376\361%L\233\34i\336m)]\263\267\314\364\242\300\364\2c\252\257\36\213\221oe\332\10\352MT\275\231b\277(0\35\353]\35\346\266"
	.ascii "25\257\215Z(\323\370\276\365BiP[$L[y\246\255\224i\316H{\224=e\372\3"
	.ascii "2\334\364\265\244j\226\257r\322\324m\244\24~\15\265"
	.ascii "6\201\332iFm\255,'\312a+\265K\240~\231\252_\241`\333\4j%y)\206m\324\314k\243\253\224Zx\327\350\21\11\263\253\22f\355<\263v\312\254\252"
	.ascii "8b\225\245\353\1"
	.ascii "2\332@\353\311"
	.ascii "7(1[\322\312\214\215\313g\323TA\232+\307;\336\265L\263[\240\331\305G\360rB\264\365V\232\35\240\336I\325\257Q\340\335\2\315\354\364\253\253\326[i\232\327F=\224f\320j\351\13\22\232=\22\232\275<\315^J\263m\344\341\242\212\322\374\26\31m3\373\374\31\205e*\375\2\225\347)\223\313\372\216\267\30\264y_\201H\37b\251j\205\6(\264~\201H\372\235\374u,\326.\265\250\215\256S\"aIE\205\266\22&\327%Ln\360LnP&'\364\3\351"
	.ascii "2\354JkK\220\377L\276"
	.ascii "5\366\"\237\255\257?x\\\216Q\2\262\332\263s\347\336\275'\21"
	.ascii "2\240\235\204\3\\\251#XVG\353\235\374\243\264\231\337E\357)\321MXR\340\274i\25\"z\350\207D9\222w\312>\37\321\"5\14E\235\350\303"
	.ascii "2\204F\340\363m\264\207\364\21T\267\310\230f/\32\371\206\213\310\12\243/\320f(\254\320\20\250\15"
	.ascii "2L\344"
	.ascii "4;\220\325\\\253\323\352\23\265\272}\224\16Ua+\241i!\252?\377X'\307\365\210:\344\346JF\241\2\267\260Fc\360\345\"\225\304\257b\312Vh\234\371\25V\350\344\276\321\30[\244\332kI\27M\0|^\235\242>\201\21\272\203Th\314\264"
	.ascii "4\363\247\251\275\314\236\342\2\356\353\354\335\225\332"
	.ascii "3\204\236\266\323\"4\11\26GM\26\357\10\26\311\11Ruz\26\27\354p\27#'l;l\244\333\16\33\323\266\343z\320\362\234\35\332\253\244\13\371\252\377\346\1\177\355>4\13\311"
	.ascii "8e\32\302\206\337O\230\337\232\314\0J\242\201\356A\317"
	.ascii "4\351\231\245\333\216\211\363\323Z\216N\246\17\311\330\241k\13W\35h\225P\222\346u\337\301\7_\263\244-\10s\253\223_\275#r3\35\267\226\211"
	.ascii "9P\237\247\352\367\351|Y0V\303\210\222\2\273\255e\302\274"
	.ascii "6Z\244\263k\254\177\352\212\275$\13\26%\263k\211\237]K\324\307"
	.ascii "5W\316\24"
	.ascii "2jZN\274?T\261\375aa`\345\250\22\367\263\20\244\205\\\214R\340\233\254\261\321SxG.\31\206\360"
	.ascii "0\15\263*$\33\32\274"
	.ascii "29\213\360(\273l\350\352f(\302\223\254q?l|R\216gX\243\344TV\271-E\262\217"
	.ascii "4\273\363\373\33\355\361\";WT\237w\214\235\373\35-\3\217\365\23vx\225\235\23*\235\212U\272\301\272\221\247\361&;5\247\253\36R\342`\266\241\255"
	.ascii "9Y4\245\302\21"
	.ascii "\264a\177\246!h\335\32\355\331\3\263r\357\236={w\356\334\3?\264lT\237\351VE\370\352F\20)\33\376\34F\241\234(\217}9\302m\3\11UFW\257\363\333w\1\23]\255y]Zc\240:\301)\276:\221"
	.ascii "9n\250.\323\356\323\323^\364p\353$\7\303~\206\232r\275L\17\226\301\217h\15m1m\252^\4\204\341|\11\323\5\24\217\315\252n\242]\302\314\253\356\326\276\253@!\374\270\4\25\234g\7\241\30B\242\221\272\266\14&\36\20\23'\270\275\324&\251k\301\360\371\30\267\7E\200\204\203\34\7\11\4\211\4"
	.ascii "9\12\22\6\2\372\304h\20'\24\312\255\6\203\377\2\203\324"
	.ascii "9\227E\316\11"
	.ascii "0\357\367M!F~\272:\26#\242\374\310\254{L\361"
	.ascii "4\324\232\\\271nV7\333\24\373Vc\354\375\314c`\272P\232\212\14m\371"
	.ascii "2\264s\257YoD\377\5\336\240!\275\342\245@Q``\305T\347\214\1\205\304\317hY\203\312*\236\251Q\234xY\210\341XA\200#h\267\207\206\224c|\223\315\31\335|\361\274J\306Y\241X\16"
	.ascii "3c\253\321\307b\255Y\275\240\233\336\241\225\241F\33:\373^&\315\246\250\254\7r\262\11&\215\310\364\333\211v\370>\7\273\2\272?\252X.\264y\376"
	.ascii "4d\377\374\354\211fGr\267\367\301wP\"'\315~P\214\210Y9&\307\251\230\32\11mN<\253\304Y\254Qp\253\351K0n\255$~|H*?\372\23t_\272\326\321)\247\375\244\313\206x\274"
	.ascii "0a\322\337\270\30\344\16\244\322\341\322"
	.ascii "9%J1\216\7\352\306\305@\273}1\320A(\210\6J\345v\241"
	.ascii "4\216\324n.7\246\270\317\216\335\331\232\271\342\324\326+ht\352\303\311R\227\1C'\233\206\6$F\272S\371\17~\202\213\30\301\314\266\210\4D\335\233C\333\365\11si\254\270=E\232\261m\225\267\224\264\371m\322\314yp\255\352kvu9\234\260\17\247\350QX`\202\377\266\15j\26`\315\246\331z\206\333!\\D\357\33\365s\255\30\327"
	.ascii "3\\\315W\273\306\30.\35]&\322G/\267\261e\342"
	.ascii "9Zh\333O\34C\370\32\323\255K\230\15\266\301}\254\221\327_\272`\213o\261\306\245\252\323\231"
	.ascii "2<\306\32\301\267C\223Tx\232"
	.ascii "5\242\247#;\34\361\22k\314e?j\260\306\353\254\21\27q\371\201\12\373\313hc=*oA\216O\260\306FF\342%\5\216\246\15\207\206\362\231J\204H=\207r\16\377\310\317\316\235\264\242\327\26/\331'\350\374\370Y]\2Ah\262\\\246\233"
	.ascii "8\361&RW\343\377\\\353[\344\262\242\255\227m)\34\272ZA\263\330\254\246P\201\241\364W6Y\7<CU\316r\333+\277\326p\351T\340\1-\263U\276\325\326\3d\4K\223\253\362T\320\276\0\204.\360\306\232X9o\22f?\265Wo\262Wf\236\274\210\306y\201F\251yUQ\371\253\22T\13\314"
	.ascii "26.O\272jA\261\320\254\242\270\242\12\232\347\314\217\316\274(\256\242y\220\276\371p\16\325\300\344k\342\253(\371\254\207J\331\0R\5R\15R\1R\17r\36\244\21\244\26\244\216U\322\312\255\13\225\321h\335_h\224\244yA\360"
	.ascii "1\351}w\223\244\372^\344\204}\322l\320\211\337\342[,\267\317\316t\265(\361\2k,\255\236N\267\305k\254Q\177\376a3\354i\344\244\301\205"
	.ascii "77'\252\204*w\346\234\341#\270#AmPj.q\333\36\241\231\337\362^\346\266<\215#\333\335\201G\221\30\367\320!\320\255\202\230O\360\10\375\254\272R\266\321\257@db\301\354\332K\346\332^\262ij\234\277[\261\364\225/\275\327\202E\4\265\300\340]\26\262\26\324\365\206\244\344\243"
	.ascii "2}\3&\25\7\345\362\312B\35\22\347D\244V\17"
	.ascii "1\321\323\230\234\204\363\361\344\374\0 &\27$q\317\243^\370|\35|\336\1\322\3\322\16\322\17r\15\244\33d\200\305\242\217\5\330\214\261\336'4FX\33r\316\233v!W\315s6\356B\32\15i=L\233\204\347\212y\355\15\223v\362\0\323\206\364@\315[\265\305\223\201\226\224\204\2\255\354\31\252\223\0\272@\306TRN\372\356&'LE\255\321\220*\302\335j\36I\266i\303\230@7\214\235\274\355.Va\272D\25FoH\354d\6\311\"\227\271\325\240\251\30\220\247\201\315\253:\351^\244K2\33n\30gCyLL<\7[\17\332\207>\241\217\247"
	.ascii "7\247\227K\345\317\304\221\231j\360\325~\13\221\375\3}\12\213\342"
	.ascii "8\231\25\272\311=\3\352\203\344#\301Gv'C\247_\307\21\326"
	.ascii "4\221#&\372;\254q\12k\244\237\352\367\347v\247ju\272\371\231*\335\177\215\372jc\264\223\233\233\317R#\350\226\221\250\25\272\315\261\7\301h\210\333\15\27\266T\264-9\342>f%+\342\366\15"
	.ascii "9\36e\215\361;\201\253\266\324\244"
	.ascii "6L\253C\272\315\315?Qc\6\221\261a\301\330\10"
	.ascii "5\366p\352\361/v\362\205GgiOh\365gm\10\301jLHO-\226\370xT\342\343"
	.ascii "1\243\217\267o\357\314y}\351\312T\36\26{\35\14\360n\37'\276\236\240n\277#r\373\225\261\346j9^\267\346"
	.ascii "7~-e\327\32\24\330\317\206=\244\350\250\214Ct\204\203\302\0\371Q5\321\12\241k\212\243}1wc{\255i\337\36%\272\307\372\342\306\"7U\264\17V\210i\326"
	.ascii "7[\336\372P\376t\254\11\34\234b\17\346\341\346\235{\32~\317p2\306-+z4D\205\323\30\214\202\216\371\25\31\211\226v\322"
	.ascii "7J5\277\271\351H\324\321\234\20 \341\3\271\301l\337\14\262\247\201"
	.ascii "5\324\225\275\255\367\323>\332\334\304\224"
	.ascii "6\354\210L\261\275K\256@\363\334nrCN\303[{4\300`\203\313\330\200\355\1=\353\12\\\317\32\331A\307\333U\304d\221n-Y\273\217\232\364\327\302"
	.ascii "6\221\30\275/2\272(\340Y\242\26k&\374\256\333\340a\33\361f\370=\13\233\341\367L\233\341\345\345\352\\\205\305m\353*\344\332{d\11x\0Uq\205\337\266\302jR\373{_XM\36\302\234^6\255&\357\231\366\255\333\263\247#\"w]!\311\274R\311"
	.ascii "3\201uc\346M\334\37n\262\245\241\\7\346\331JO\367\246\265"
	.ascii "1\367\36\261\370"
	.ascii "6\27m\334w\24'\37\301\303\222o\215d\334c\232|\33\242\344\353\236,\216t\304w\231\217\222W\33\203"
	.ascii "9\274\304\32\353\265y\251"
	.ascii "6\340u\3\231\364\371\252\366d-\13&B\304\14\332\24\371]\213y\277\373\342\335f\251\16\344\324d\312\4\2\264\247s-j\247\21\275?\246\350s\232#\33\221y\364~\240\201\216b\202>\0\233\320\317\216\367\316\312q\274\202\2\256\235\314\31G8\237"
	.ascii "5R\357\215\335G\24}\321LU\245=\324\30_\355c\12\36\254\240@l\2\37$\200\17\266\0\276v\244\264MN\261\222\212\315\274?\30\265\244"
	.ascii "5y\377"
	.ascii "8\303\237\237\177\265\325\2\376c\4t\10\305\177B\204\277*\255\261E\206\7\30\344\273\267\213"
	.ascii "7l\361\4k\14_X\14q\0\374EE\272\301&\234\243\325on\376\204\30@\241\"\350a\2\364p\13\320\315\25\250\310\341Gq\234y\224\21\4Z\24E\31)B\331\233[\37\212p\250-\273Mml\352\266\307I\254\341[Q\233\254d(\247\215(\301\0\212\26\241\214\21P\306Z@\31\333Z\24\354HQ\266\31\35\34\225q\363\254\302\210\374$spi"
	.ascii "FC\277\275\30\372\272\261\266\306\21\274\11\24z\274\10\372\251\323\17\37"
	.ascii "9`=C;{\266>\\\206/\263\306Tw\335U\216B7l4\305\331h\31xj\3%\212\320'\11\350\223)\372\334{\363wTx\212\331X;\23{O\205\347Y\243\244\344b\3\246\31g\10\33\217\342\15\326k\21[$SD"
	.ascii "&S\5\223i\26\34by\345\326\21n\351x\353\312}e\266\315\317\26\207(Y\271\274p?\25\341\4\326(\315\215>J\313q\221\341\314\305p\202\312@i\202\15\224!\302t\12\233\352q&\205\265R7\23c\215\213\231\231\222\202k\361v\370<kL\246\367\275BM\322\245[O\226nb.Kd.[\240x\332\2\305\205\265{y,3\311w\330,\346\327\307\202"
	.ascii "2\220xu\"[.\306;\207\360\316\305d\205:\203\371\25\252"
	.ascii "3\377d\222\3\356S\362\353fzJo\235=\276)4[\27\12[0{~ri\320\260/\0\212"
	.ascii "3x1\37K7|\240"
	.ascii "8\323\36\32+\307\241v\254\350\265\227?\246eCkH\354{\273\321\227_\275`d\224\7\227\236\305\364RT \320+\374"
	.ascii "3\350\235m4\\\220\320;(\260+\"\354J(\273b\201\335\371;\367\343\35q\246\35O\247^\337;\257dt\6n\31\276\362gtJ\267\323\11]\211\250T\340>FG;Q\21\356\310\350\244T\233\350\224\360t\312x:\347\4:\345\26\350\230\331\206\350\6\37=\266\21\263"
	.ascii "1\346h\5aSE\331T\12l\252\352\242\33exZ`\223p\271\276F\206\27\30\310\354\276\314\223v\14dZ\245\11$X@\325\"\220"
	.ascii "5\2\310Z\12\262\261"
	.ascii "2\277\223\233\340\360:\340\254\263\0;\263\377a\215B\214\221<\302a \317\23\220\365\24\344'<\306\201\240\265|\31\16RQP\361sE\307U8T\305\3NM\232]\224"
	.ascii "1\367\237Y\310\374#\357\376\206\355\356\217\255\271\266\340\210+\231\221\272\330\331"
	.ascii "9\31c\226Wfb\6\303\"=\\\332\310"
	.ascii "3k\22\230]\240<z\373\312\313\35p;3q6\255,\215$\22\272\210-\256\245\227j+\352\35\314\206\242\231\260l\245,[\204P\370\207\370\17\332\342\1\201Y\223aV/\303Cl\264\351\351\370"
	.ascii "4\25\3\\Xd\2\14\26\320%\21\340\313\2\340"
	.ascii "6\12x;Fs\33\226\321\232\200U\7c\337UV\321\333\326\363\317J\240\307\30+\372\25\202\275\203bo\27\260\247\367\347\302\315\340\12\3{N\333\20\344@\301\316W\237\31q\36\363\215\10!\305\355Yz\25\352\304\306\247E\344"
	.ascii "3\303\333E\361.W-\37\263\201\324\271\1\220\273iO\316\205\306\22[\350\271\13=\327hO]f\323\274-\336`#\215\227\207\206\223\325\36\365\10\4\203\32\22\202\344\2e\324\313\310\230c\255[\33\\\265\247}\244\230\365"
	.ascii "3\305\330\245\323Y\26\12]\37a}\235\262\36\20X\37\367[\331\224\341\243\366|\304\12\207\202\243\35p\210\320l\366+\273\251\304"
	.ascii "1\366l\7\27`\350W\22\\7\5\244\31\267co\220\305\25\15\22\244\267\30\200\246\210\370^Z\27\"\346\253\226\213\376@]7\2\256\363\327\352^ \243\243\33\202\367\320m\2\350\206\340\300!\13\1O\11\12\273\346 \271"
	.ascii "93\367\250\311\352I\36\11\315\366\336\237\222\276t2\214\305"
	.ascii "7h#X\330&/\237\32\311\261\241\276\206>\336\377'\13\33cLY7\312\350W&\206,\230\252\363\30\353l\17i\271\212\214\221\32g\235\341\325\301'$\371\231o\254 \6\342\230\11\32\251;B\244\6\343\202\317"
	.ascii "9\340\233BhZ6\303\242T\202\357\331\272\220;w\232\255/E\265\305\225\216a\332am\4\331\226RKh\322\350\365\273\304\370\244\340\365)\13^_\\K\376\7\341\201v\360"
	.ascii "7>\217G\231S\305~6\22ONc\361\15\307\214\321\223e\27\226#\330\226w\306\350\311\232\215\0I\275\277h\234\251\367\10\330"
	.ascii "9\352\211Y\301\23\23\17\37\365qx\234ee\333P\372\31\314\312\312\314\251"
	.ascii "8\33]<\277\327\202k\320\274h\236\316\13\204\27,\20n(\33\253\266\226"
	.ascii "0 _R\230\30,\32\31\364.=l`w\277\213F\6)s\247\362\260\230B\272q\347{\237PX\246\24\226\4\12y\241\303eJ|\237Q(\237\367m\245wCZ\335Z\223\377n\306\200\\\201\36\210\10<\20\10\254X `ZH\337\23\266\5\1\203\201\17M\25b\225\345]\340\360\355i\225\371\12\361\220@]\247P\327\4\250\267\322O\372\331\343"
	.ascii "5\6u\342\214\301\317\232\325\305c\253c\342\272\10W\241G\"\270\217\4\270\33\26\26\320\320\322D_\231y\30\217\11\214Mi\241\252^z8m\215/8\360\351_\331\223\221\213"
	.ascii "1\4\211"
	.ascii "4\364W\217\347\361\325\372\322`\331o\357\230P\201\21\244\225\231"
	.ascii "6W\276"
	.ascii "2\36\225\237\314<*\277\213\327\27\224x\230\332\345*\364\245\21\12\341\241n\373z\321s9Z\255\2\5\312\224(@f\274\17\247o\34\222\37"
	.ascii "3\357"
	.ascii "6\36\225\231y#q\354Qn\260\2\347"
	.ascii "8\262\257\231\352J\342\225\222\254#\346MY\27,\23\336\24\271S\243\217\225\243\275*\36L\355\337W\22"
	.ascii "0\307e*\24d\2\303\253[YY\262\210\216\1$\243Q\224m\250\310g93k\334K\346\7]\211bIC\214\237\220\321\316\342"
	.ascii "3\355wY\316\223WEBXgGdr\215d\255\231"
	.ascii "5V0\177\320@a2\22\302P\31\37\302kU\27"
	.ascii "3\225\270\200\21\357L\232\223\343\6\366y\322\367B\26]\361\"d|\30\216\227'\302=A\33;\335\336\323c\260\345\303\273\231o\177\254\311_\27\37|\1*\333\263d\4\24.\320G\221d\320(!\304\321"
	.ascii "4\304\337\264\276\306"
	.ascii "0*~\341\217g\31\351\30\343\372Z\325\225]ag,\345qLqi\244\334\317\301\330y\222u\226\236\314\250gw\231?W\241x\326\27\32>y]i\276\274\307\22\234\211\324"
	.ascii "9\11\202s:g\223\342\35p\356\267\370\374\16X=\31\315s\256\276\264(^E\213^\"\227\242$\231i\256%\11\224\223-d\265\271\335\303\321(\277;\234y|)\4_\32\305\227*\340Kn\364\363\300\305\2\274\362\254\200v9>\367-\32\237\371\256\245a\271"
	.ascii "0\375&\235E\323\17l \235h\372\245\13@3,\0"
	.ascii "5wos\257\245\263\312\264xf2\357Nv\6&Z(b\247\10\372l\212>K@\37\335\325\334o\215\257\10\360\263\363\203"
	.ascii "78\334\303\340\353';n\330\362"
	.ascii "72\242\373"
	.ascii "2\260\200N\213\260\347\10\330\317P\354\327\23"
	.ascii "3\262\24\260\255\213'7\217"
	.ascii "2\363\25y\275\277\264V\211\347\330"
	.ascii "03M\265g\25x\205"
	.ascii "6\270\266\236\332[h\313kZ\342\267vP!L\323U\323kZ\363a\261Un\344\316\240\0\246\344Y\323|\177\337\364\346WP\\\307\240P\37\14u>\12T\14\252\371&\325\2s\245A2f\221iLr\227\262"
	.ascii "1\275\311BA\14\261P\334"
	.ascii "8}\264\306\264\343)a\241\270\271x+\303\336\30\263R\326\231\23t\263\331\306\30\264"
	.ascii "2\326\231\177\267\365\276\215\271G\304(\217\304\254\234\306\354\234\20\263\13\13\213\261"
	.ascii "2|\351\257\250\367\2{o\25)\204\371P\240\272\234\254e\201B\210\\\206*D\263\241B\10T%K\262xC\22\331\177'\220;G\13\201"
	.ascii "27\373+J\323\262Tf\301V\23\260\265\24l\215\0v*\355l$\302\3\14\354pej\36\273"
	.ascii "7+\252>V\201\311NL\313vbp\25\252\23a\255\23\260\236\247\310\226\26\33\7\214\217m\203-~)\203\352e\344\5\221\345\265\252EGe\260I\373\353\336\355Gz\31y\201\256\357v\352\244\350K\320\3\364~]\364\226\265\214\177\313\232\16\220\37\322=,\27+\347J\224\33y\345F\252|-_7"
	.ascii "\352\200\207\230\7\372\242+\2"
	.ascii "1u\350s\273\330k\322ua\261\366x\212\235M\314\324\335\245w\22\27\205z\377p\344\350\14)P\250\11\234sA&C\315,c\222;\7\367\30Ku\13\353[\14\214/\225\233}\326\321J\2sI&y\326q\"\330\220\215\361\6\33\270\244<z\30\356\274w\320F\306f\332Q:f\233\200\342\354h}\224\2g\262\323\21m\13\377\312\36Q\17\334ZR]O\326\352}3I\302\371^@d\14t\331\270\354\\!\303^\5#\364\27\271\247\244\301\\\365\233N\226n(3$\33\312\16\336}\35\324}qae\217\245\337\25\221\357dM\332\235\274v'\325\256\232>\327b/\216\14Y\10M\312]\274r\27U\16\16\335H\263\21+oJ\302\330\315+wS\345\355\353\245\271\305\243\346R\374"
	.ascii "1\311\346\355\200"
	.ascii "09\256\21g\364\322\30\364\10\223#%\354r\250\203\204[\257\4n\37\217\240\217\"\250\236\275\271\2+!\213\302LF\325\214\352\331\222\35)Z\5+\251\351Y\247Xb\15\310\236\245=1\247\303K\310\334E\375\20\220\353dH\262\232.\237\361S\12,\320\15\226"
	.ascii "8\246\15\362\1\345\266/\274`\341\276)\333\362\205\27$\326-\326\267\261\362 \326\326l\316\15\22\276C\224\357m\201\357xW\177\34'\341;$\341k\340\371\32(\337\224\250K-\322\310\257K\342"
	.ascii "3\314k\17S\355\225\371\370e\231D{Y\242=\302k\217P\355\231\214\24V\"\314\334\306m{I\12\364\265\343\251Y\322WVG%\333\321"
	.ascii "1\336\372\30\265\336P\221\366@\212|N\202e\234\327\36\247\332\275\263\303}\322\357\244&$\332wx\355;T{`=\243V\232"
	.ascii "3\327%\332\23\274\366\4\325\16\233"
	.ascii "8Z/\235k\35\22\355I^{\222j\37ml\\\222~\367\335*\321\276\313k\337\245\332kC\206\5,\236>\365\22\345)^y\212*\7u\246u \263\23\203l4\321=\351\246/\273\255{C\32\314{\222D\231\346mOS\333\272\213\272\217\305"
	.ascii "8\252$8fx\335\31\26\370\253e\317\233{lGv\372"
	.ascii "2\361\223\311\340\326\321\0\16\227\355\340wF\347\364\343\313\30\237\27\232\211q~\347\370G\303\325\230|\337"
	.ascii "0/\23\375"
	.ascii "5\26(d-\235\317\262\303\215l\262"
	.ascii "6\327\307\371\223\215\240.R\33\26\341\24L\36\336\303`h\16&\346\202\214\355\242\356\13\13\336\242\205\245x\261\373X;\333Jw\30\267\35}\203GG%Kq\206\361\346z\211x\365\1e\264,x\265"
	.ascii "4k\355"
	.ascii "8\302\335\14\323\245\26\337^zs]4_[\234\363\354\15R\307\3h\35\17@\344B\264\"Z\216WH\21_aE\374\241\5\200m)!g\331\316f\314\10\260\265<=\305\321\374\3\214U\2p\235\2\\\23\0\236_\36Y\267\301\375\374"
	.ascii "2\224Y\177\237n?\213\14\267[N\332h\343\365\364\273\235\357\323\253\320#\21\272G\4\335#\206n\303\2\272\302\260\210>kaiE\217Y\365\272\36"
	.ascii "8\35\350h\366!\356&A\247\225K\236\247\327\326\215]\303x\330\322\"\331\233\362xX\201\27\330\351\336\331\300"
	.ascii "4%\363\356\300\255\34\373\1\323*\11\336\5\273\310W.\254\222~r\30\312_\216\351/\376\333\240\0"
	.ascii "9a\261"
	.ascii "6\235\324(Y\314\322$\223\340\250\234%6\34A\271\351Nt\233\364-\256D\211v \257\35H\265\307\242\317\31\214\177\210\341g\361{p\24D\265O\324\335\271io\177Bd\373}\225\370^\\n\317g\375tt\303K4\5h\27Y\37\306\3\256Y[\230o\307\251{\217\311\5\367f^\272(%\0\12\242QN\360\4NPH\276\213\206\273\322\277$!\273q\223v\10\257\35B\265gS\363"
	.ascii "6\220\204\256\331?\5@\241T;\241\250\264RZ\276\313%\256\14\343m\207Q\355\344\364\374x$\220\346\363~*\302"
	.ascii "0c\366\213\32\320\212\240\264\303\5\332M\323\303I\322\7\35\21\22\332\221\374`\221t\260{IW\342%;\317l\11\262(^9\212*w\347\5\7:\210\225\311;\4&\345h^9\232*\233v\246\177\307v\246\301\371\341p\233\361\220\345s\277\276,S\201"
	.ascii "7\205\362gR\376[\246<{v4\321\206\277\32\235\224\263\27#t\5\271l\177\24\7\211\35\317:\273\32K\\\350\235-t%\310\331\246d(W\337)lJP\214\\\206\22\231n\302\260\377\260\235q\227\233\304:s\206*z\315\337+%\223\211\224\"\227\334+\325_Y\352\263\307\201;->\34\216\253\35\231\344\330v\266\372n\241j\302W\33\242#\317\23t\12b\12\245\32\247i\32\261\236J\246)\371\5\35::GC\346\36\336PX\270\327\330\366\346\"J\227\223{\215o\370S\267\14"
	.ascii "9\377R\364\17\350\326c:,\245N\311\336\211"
	.ascii "6\30\377\326MH\246S\362\35\302\25\364n\342\312\346]{\261n\251\5]\224)\247\177\211\243\213\351\227\376\211\14\364\213\240d\361)\222ES$\310\277"
	.ascii "9Z\232\252\265\222\354\313\346\265\263\251v\303x\377#\305\367\323\310M\372LU\346S\253Z\262S%\337s\263u\356\264\374\373V\326\336n\377\255Q\373(\376\371\340\307\273\337\371\321\217\254~\366\316?\274\364+\37\370\377\306\213o\274\370\362K\277\361\364t\367~\351\220\233\307g_\276\376\366\253\352\327^}\311\355\315\267\336\374\361\227o\276\376c\332I:<\234\335\217\270h^R\323\216\27?\267\222"
	.ascii "9\177\356\344e\367\217\237\36qs\367\371\261\233\307?Y\331\35\370\305\301_\377\346\247\7\337\331\257V[\37\361"
	.ascii "8\342\255q\331\377\304\303@\373K7\17\27\215+\214ds\340_>x\367\343_\356\267"
	.ascii "5\16 \177\367\337>\370\350]\331\317\177\361\313\375\326j7\317O\217\270\312\324\207}\274djg\17\37\271\372S'o\215\\\355\352\356\364\31\374vs\327(\324\4*(\331\250\341\27x\302V\355s\350\260\253\207\323!\315O\237\30\240\267\217\213\233'\200\263S\253\341\243\263\223\273\273Zm\253V\377\336\363\210\227\207\223;\366\366\371\303\337\37\366\362t\326x{\13}\377\361\342\177\274\10\377_\362q;D.\377\203\232|\0\13\326\344\250\366Q\252i\307k\257\252}\34\\\325\316G\274\274"
	.ascii "4\36>\264k\247\264\251v\362vv\343|\16Y\373\34R{k\234\311\1\300\331\300\341s\30\210\34\17\271"
	.ascii "8\375\221v{\322\356?j\234h\367\227\320M\333pT\300\321\315\333\305\333g\337\23{\200\207\277\25\235\233\207\253\247\302\25\234\342\245q:d/|P\23o+\216\270y\370\20\202O\236~\304\355\36>0,X\206`\272j\274\324$\265\301c_z\271\371h\370\276\357mu=q7\377\31\256U\251i\216\250\235}<\275v?\255\376\344\340kp\376mc\360\336yu\377\27\373^\337\375u6\234\17\37&V\234=\17\35\266h\345\25b\305\332\31\330\373h\276\273\355\364\233\354\4\321\371\266Z\375\331W_\251\17k\274\274=\341\214\233\317\37\325_\274\254\374L\343\303\373\356\373\333.~\345e\323Yb\301\206\367\253\222"
	.ascii "9\301\335\315C\363\267f.2\235\335\377\341\373\316\373\336\332\311:\\=\275\16\1\24\27z\346G\333\257{\333\214\32"
	.ascii "1\360\337\16\4\205\253\233\227\267\17\355\373\273\355\227\276.\325\330\357\276\357-{\322\345\241\371\212\365<\267\375\232\327$\12\204\236-\360d\303>\273M\375m\343"
	.ascii "\271\375\277\337\367\226\334\331\335\323[\363"
	.ascii "7\333\264\336\240\375\304\226\20{\27\363Q{\227\304\376-!\264\226\224Hh\337\222\303\234\367t\226"
	.ascii "9C\30~\264m\252\277\364\"Lt\340@':QQ\37\361qs\367\206\344\373\16o\356u\322\373\6\265\1\310_\307\207"
	.ascii "4\207~l\331\14\375\4*\324\36\34\301\320"
	.ascii "S\274\241\327\240i\262#s\365\322h\304\247^'\35\373?\4\352rp\254\363\347\330\331\323c\257\331\201\334<\31ZO\17oOw\215x\4\350z\203^\14\274_\206*\347\354\242q\206zg}\330\13\22\317\373i\221\332\233\254\213\246\207\334\325\363\260\306\303\306\303\323\303\343\210\273\273"
	.ascii "5\320uv\362\201\246\317\347^\236_\312\334"
	.ascii "5N\256\177I\35\200q>\3\214\12\370\344J\12\217J\15\36prg5\324\206\257\245\326\4\365\227.O>\216\213\233\227\306\231\324\33|\310\363\213g\304\241{\15:\366\177\350L'\222\354\235\3?\375\350\311\327\22X\351hM\223\377\362\303_\377\346\243\35\377\254\361\371\27O\227#\356\232\237\303\342u\220\254R\266.\356\356n\207\16{z\371<\265\375\344\276W^=\360\304C\273\273}\352\356\351\344\242\361r:\354F\326\"W:\327\261\273\306C\222\247\257A\7\255\31\257\333\300|#\271\266K|\372\177\363\235\340\17\230\204"
	.ascii "6_8\301\204\364\366q\200\272\346q\304Y\315"
	.ascii "7\237<\10_\0@W2w\300\342!o\365\27\336\36"
	.ascii "4\313\\\255]\351\264V\322\261\351:\260\3\346\212\206d\264;\324P7o \247q\204$\364r\"\23\331C\363\345\356\177\377\317\357\250\325\333\225\324j\271\372\23\17\247\337\333\270z\354\366>\254qF\257\330\202\12\340\200\202\7k\271\213\243\372\223_\373\274m\354\372BF\322\313\326\230p\246"
	.ascii "1\\4\356\32\37\215\265\372\23\27\367\17\277\260f%\223M\23W[#\356\377\17\305_\6\341"
	.text
	.section	.gnu.lto_.symtab.f43bf232,"dr0"
	.ascii "__ZN3stk9__journalC2Ev@4\0\0\0\0\0\0\0\0\0\0\0\0_\1\0\0__ZN3stk9__journalC1Ev@4\0\0\0\0\0\0\0\0\0\0\0\0b\1\0\0__ZN3stk9__journal6createEv@4\0\0\0\0\0\0\0\0\0\0\0\0q\1\0\0__ZN3stk9__journal10get_streamEv@4\0\0\0\0\0\0\0\0\0\0\0\0t\1\0\0__ZN3stk9__journal10write_lineEPKc@8\0\0\0\0\0\0\0\0\0\0\0\0\201\1\0\0__ZN3stk9__journal19write_formated_lineEPKcz\0\0\0\0\0\0\0\0\0\0\0\0\210\1\0\0__ZN3stk9__journal14get_first_lineEl@8\0\0\0\0\0\0\0\0\0\0\0\0\217\1\0\0__ZN3stk9__journal13get_next_lineEv@4\0\0\0\0\0\0\0\0\0\0\0\0\225\1\0\0__ZN3stk9__journal9read_lineEj@8\0\0\0\0\0\0\0\0\0\0\0\0\234\1\0\0__ZN3stk9__journal5closeEv@4\0\0\0\0\0\0\0\0\0\0\0\0\237\1\0\0__ZN3stk9__journalD2Ev@8\0\0\0\0\0\0\0\0\0\0\0\0\244\1\0\0__ZN3stk9__journalD1Ev@8\0\0\0\0\0\0\0\0\0\0\0\0\247\1\0\0___gxx_personality_v0\0\0\2\0\0\0\0\0\0\0\0\0p\1\0\0__ZN3stk4cstr5allocEj@4\0\0\2\0\0\0\0\0\0\0\0\0\257\1\0\0__ZN3stk3mem5allocEj@4\0\0\2\0\0\0\0\0\0\0\0\0\266\1\0\0__ZN3stk3mem4freeEPv@4\0\0\2\0\0\0\0\0\0\0\0\0\274\1\0\0__ZN3stk3con5getchEv@0\0\0\2\0\0\0\0\0\0\0\0\0\304\1\0\0__ZN3stk3con6printsEPKcz\0\0\2\0\0\0\0\0\0\0\0\0\313\1\0\0_fopen\0\0\2\0\0\0\0\0\0\0\0\0\321\1\0\0_strftime\0\0\2\0\0\0\0\0\0\0\0\0\352\1\0\0__localtime32\0\0\2\0\0\0\0\0\0\0\0\0\361\1\0\0__time32\0\0\2\0\0\0\0\0\0\0\0\0\367\1\0\0_getcwd\0\0\2\0\0\0\0\0\0\0\0\0\375\1\0\0__ZN3stk4cstr3movEPcPKc@8\0\0\2\0\0\0\0\0\0\0\0\0\2\2\0\0_GetModuleFileNameA@12\0\0\2\0\0\0\0\0\0\0\0\0\23\2\0\0__ZN3stk4cstr3lenEPKc@"
	.ascii "4\0\0\2\0\0\0\0\0\0\0\0\0\"\2\0\0__ZN3stk4cstr7reallocEPcj@8\0\0\2\0\0\0\0\0\0\0\0\0)\2\0\0___ms_vsnprintf\0\0\2\0\0\0\0\0\0\0\0\0"
	.ascii "8\2\0\0_fclose\0\0\2\0\0\0\0\0\0\0\0\0>\2\0\0"
	.text
	.section	.gnu.lto_.opts,"dr0"
	.ascii "'-fno-trapv' '-dD' '-malign-double' '-momit-leaf-frame-pointer' '-m32' '-mfpmath=sse' '-mpreferred-stack-boundary=8' '-mmmx' '-msse' '-msse2' '-mthreads' '-mtune=generic' '-march=i686' '-g' '-g' '-O3' '-fno-use-linker-plugin' '-fverbose-asm' '-fstrict-aliasing' '-fwrapv' '-funroll-loops' '-flto' '-fexceptions'\0"
	.text
	.section	.text.unlikely,"x"
	.align 2
LCOLDB0:
	.text
LHOTB0:
	.align 2
	.p2align 4,,15
	.section	.text.unlikely,"x"
Ltext_cold0:
	.text
	.globl	__ZN3stk9__journalC2Ev@4
	.def	__ZN3stk9__journalC2Ev@4;	.scl	2;	.type	32;	.endef
__ZN3stk9__journalC2Ev@4:
LFB711:
	.file 1 "process_journal/stk_journal.cpp"
	.loc 1 16 0
	.cfi_startproc
LVL0:
	pushl	%ebx	 #
	.cfi_def_cfa_offset 8
	.cfi_offset 3, -8
	subl	$504, %esp	 #,
	.cfi_def_cfa_offset 512
	.loc 1 16 0
	movl	512(%esp), %ebx	 # this, this
LBB30:
LBB31:
LBB32:
	.file 2 "process_journal/./../text/./../mem/stk_mem.h"
	.loc 2 78 0
	movl	$512, (%esp)	 #,
	call	__ZN3stk3mem5allocEj@4	 #
	.cfi_def_cfa_offset 508
LVL1:
	subl	$4, %esp	 #,
	.cfi_def_cfa_offset 512
LBE32:
LBE31:
	.loc 1 21 0
	movl	%eax, 44(%ebx)	 # D.29981, this_3(D)->f_write_buffer
	.loc 1 22 0
	movl	$512, 40(%ebx)	 #, this_3(D)->f_buffer_size
	.loc 1 23 0
	movl	$0, 32(%ebx)	 #, this_3(D)->f_stream
	.loc 1 24 0
	movl	$261, (%esp)	 #,
	call	__ZN3stk4cstr5allocEj@4	 #
	.cfi_def_cfa_offset 508
LVL2:
	subl	$4, %esp	 #,
	.cfi_def_cfa_offset 512
	movl	%eax, 36(%ebx)	 # D.29980, this_3(D)->f_stream_name
	.loc 1 25 0
	movb	$0, (%eax)	 #, *_8
LBE30:
	.loc 1 26 0
	addl	$504, %esp	 #,
	.cfi_def_cfa_offset 8
	popl	%ebx	 #
	.cfi_restore 3
	.cfi_def_cfa_offset 4
	ret	$4	 #
	.cfi_endproc
LFE711:
	.section	.text.unlikely,"x"
LCOLDE0:
	.text
LHOTE0:
	.globl	__ZN3stk9__journalC1Ev@4
	.def	__ZN3stk9__journalC1Ev@4;	.scl	2;	.type	32;	.endef
	.set	__ZN3stk9__journalC1Ev@4,__ZN3stk9__journalC2Ev@4
	.section .rdata,"dr"
LC1:
	.ascii "%Y-%m-%d\0"
LC2:
	.ascii "a+\0"
LC3:
	.ascii "ERROR CREATING ssstk::LOGFILE\0"
LC4:
	.ascii "[ssstk::JOURNAL_FILEv0.1]\12\0"
	.section	.text.unlikely,"x"
	.align 2
LCOLDB5:
	.text
LHOTB5:
	.align 2
	.p2align 4,,15
	.globl	__ZN3stk9__journal6createEv@4
	.def	__ZN3stk9__journal6createEv@4;	.scl	2;	.type	32;	.endef
__ZN3stk9__journal6createEv@4:
LFB713:
	.loc 1 30 0
	.cfi_startproc
	.cfi_personality 0,___gxx_personality_v0
	.cfi_lsda 0,LLSDA713
LVL3:
	pushl	%edi	 #
	.cfi_def_cfa_offset 8
	.cfi_offset 7, -8
	pushl	%esi	 #
	.cfi_def_cfa_offset 12
	.cfi_offset 6, -12
	pushl	%ebx	 #
	.cfi_def_cfa_offset 16
	.cfi_offset 3, -16
	subl	$496, %esp	 #,
	.cfi_def_cfa_offset 512
LBB33:
LBB34:
LBB35:
	.loc 2 78 0
	movl	$260, (%esp)	 #,
LBE35:
LBE34:
LBE33:
	.loc 1 30 0
	movl	512(%esp), %ebx	 # this, this
LEHB0:
LBB46:
LBB37:
LBB36:
	.loc 2 78 0
	call	__ZN3stk3mem5allocEj@4	 #
	.cfi_def_cfa_offset 508
LVL4:
	subl	$4, %esp	 #,
	.cfi_def_cfa_offset 512
	movl	%eax, %esi	 #, D.29992
LVL5:
LBE36:
LBE37:
	.loc 1 35 0
	movl	$260, 8(%esp)	 #,
	movl	%eax, 4(%esp)	 # D.29992,
	movl	$0, (%esp)	 #,
	call	*__imp__GetModuleFileNameA@12	 #
	.cfi_def_cfa_offset 500
LVL6:
	subl	$12, %esp	 #,
	.cfi_def_cfa_offset 512
LVL7:
	.loc 1 36 0
	testl	%eax, %eax	 # D.29985
	je	L4	 #,
	.loc 1 37 0
	movl	%esi, 4(%esp)	 # D.29992,
	movl	36(%ebx), %ecx	 # this_7(D)->f_stream_name, this_7(D)->f_stream_name
	movl	%ecx, (%esp)	 # this_7(D)->f_stream_name,
	call	__ZN3stk4cstr3movEPcPKc@8	 #
	.cfi_def_cfa_offset 504
LVL8:
	.loc 1 38 0
	movl	36(%ebx), %edi	 # this_7(D)->f_stream_name, D.29986
	.loc 1 37 0
	subl	$8, %esp	 #,
	.cfi_def_cfa_offset 512
	.loc 1 38 0
	movl	%edi, (%esp)	 # D.29986,
	call	_strlen	 #
LVL9:
	movl	$95, %edx	 #,
	movw	%dx, (%edi,%eax)	 #, MEM[(void *)_12]
L5:
LVL10:
	.loc 1 45 0
	leal	4(%ebx), %edi	 #, D.29990
LBB38:
LBB39:
	.file 3 "C:/Qt/Qt5.5.0/Tools/mingw492_32/i686-w64-mingw32/include/time.h"
	.loc 3 242 0
	movl	%ebx, (%esp)	 # this,
	call	__time32	 #
LVL11:
LBE39:
LBE38:
LBB40:
LBB41:
	.loc 3 238 0
	movl	%ebx, (%esp)	 # this,
	call	__localtime32	 #
LVL12:
LBE41:
LBE40:
	.loc 1 44 0
	movl	%eax, 28(%ebx)	 # D.29989, this_7(D)->f_current_time_info
	.loc 1 45 0
	movl	%edi, (%esp)	 # D.29990,
	movl	%eax, 12(%esp)	 # D.29989,
	movl	$LC1, 8(%esp)	 #,
	movl	$20, 4(%esp)	 #,
	call	_strftime	 #
LVL13:
	.loc 1 46 0
	movl	%edi, 4(%esp)	 # D.29990,
	movl	36(%ebx), %eax	 # this_7(D)->f_stream_name, this_7(D)->f_stream_name
	movl	%eax, (%esp)	 # this_7(D)->f_stream_name,
	call	_strcat	 #
LVL14:
	.loc 1 47 0
	movl	36(%ebx), %edi	 # this_7(D)->f_stream_name, D.29986
	movl	%edi, (%esp)	 # D.29986,
	call	_strlen	 #
LVL15:
	leal	(%edi,%eax), %ecx	 #, D.29986
	movl	$1954051118, (%ecx)	 #, MEM[(void *)_29]
	movb	$0, 4(%ecx)	 #, MEM[(void *)_29]
	.loc 1 48 0
	movl	$LC2, 4(%esp)	 #,
	movl	36(%ebx), %edx	 # this_7(D)->f_stream_name, this_7(D)->f_stream_name
	movl	%edx, (%esp)	 # this_7(D)->f_stream_name,
	call	_fopen	 #
LVL16:
	.loc 1 49 0
	testl	%eax, %eax	 # D.29991
	.loc 1 48 0
	movl	%eax, 32(%ebx)	 # D.29991, this_7(D)->f_stream
	.loc 1 49 0
	je	L10	 #,
	.loc 1 53 0
	movl	%eax, 12(%esp)	 # D.29991,
	movl	$26, 8(%esp)	 #,
	movl	$1, 4(%esp)	 #,
	movl	$LC4, (%esp)	 #,
	call	_fwrite	 #
LEHE0:
LVL17:
LBB42:
LBB43:
	.loc 2 83 0
	movl	%esi, (%esp)	 # D.29992,
	call	__ZN3stk3mem4freeEPv@4	 #
	.cfi_def_cfa_offset 508
LVL18:
LBE43:
LBE42:
	.loc 1 55 0
	movl	32(%ebx), %eax	 # this_7(D)->f_stream, D.29984
LBB45:
LBB44:
	.loc 2 83 0
	subl	$4, %esp	 #,
	.cfi_def_cfa_offset 512
LVL19:
L7:
LBE44:
LBE45:
LBE46:
	.loc 1 56 0
	addl	$496, %esp	 #,
	.cfi_remember_state
	.cfi_def_cfa_offset 16
	popl	%ebx	 #
	.cfi_restore 3
	.cfi_def_cfa_offset 12
LVL20:
	popl	%esi	 #
	.cfi_restore 6
	.cfi_def_cfa_offset 8
LVL21:
	popl	%edi	 #
	.cfi_restore 7
	.cfi_def_cfa_offset 4
	ret	$4	 #
LVL22:
	.p2align 4,,10
L4:
	.cfi_restore_state
LBB47:
	.loc 1 40 0
	movl	$256, 4(%esp)	 #,
	movl	36(%ebx), %eax	 # this_7(D)->f_stream_name, this_7(D)->f_stream_name
LVL23:
	movl	%eax, (%esp)	 # this_7(D)->f_stream_name,
LEHB1:
	call	_getcwd	 #
LVL24:
	.loc 1 41 0
	movl	36(%ebx), %edi	 # this_7(D)->f_stream_name, D.29986
	movl	%edi, (%esp)	 # D.29986,
	call	_strlen	 #
LVL25:
	movl	$92, %edx	 #,
	movw	%dx, (%edi,%eax)	 #, MEM[(void *)_18]
	jmp	L5	 #
LVL26:
	.p2align 4,,10
L10:
	.loc 1 50 0
	movl	$LC3, (%esp)	 #,
	call	__ZN3stk3con6printsEPKcz	 #
LVL27:
	.loc 1 51 0
	call	__ZN3stk3con5getchEv@0	 #
LEHE1:
LVL28:
	.loc 1 52 0
	xorl	%eax, %eax	 # D.29984
	jmp	L7	 #
LBE47:
	.cfi_endproc
LFE713:
	.def	___gxx_personality_v0;	.scl	2;	.type	32;	.endef
	.section	.gcc_except_table,"w"
LLSDA713:
	.byte	0xff
	.byte	0xff
	.byte	0x1
	.uleb128 LLSDACSE713-LLSDACSB713
LLSDACSB713:
	.uleb128 LEHB0-LFB713
	.uleb128 LEHE0-LEHB0
	.uleb128 0
	.uleb128 0
	.uleb128 LEHB1-LFB713
	.uleb128 LEHE1-LEHB1
	.uleb128 0
	.uleb128 0
LLSDACSE713:
	.text
	.section	.text.unlikely,"x"
LCOLDE5:
	.text
LHOTE5:
	.section	.text.unlikely,"x"
	.align 2
LCOLDB6:
	.text
LHOTB6:
	.align 2
	.p2align 4,,15
	.globl	__ZN3stk9__journal10get_streamEv@4
	.def	__ZN3stk9__journal10get_streamEv@4;	.scl	2;	.type	32;	.endef
__ZN3stk9__journal10get_streamEv@4:
LFB714:
	.loc 1 59 0
	.cfi_startproc
LVL29:
	.loc 1 63 0
	movl	4(%esp), %eax	 # this, this
	movl	32(%eax), %eax	 # this_2(D)->f_stream, this_2(D)->f_stream
	.loc 1 64 0
	ret	$4	 #
	.cfi_endproc
LFE714:
	.section	.text.unlikely,"x"
LCOLDE6:
	.text
LHOTE6:
	.section .rdata,"dr"
LC7:
	.ascii "[%F]\15\12%X=\0"
LC8:
	.ascii "\15\12\0"
	.section	.text.unlikely,"x"
	.align 2
LCOLDB9:
	.text
LHOTB9:
	.align 2
	.p2align 4,,15
	.globl	__ZN3stk9__journal10write_lineEPKc@8
	.def	__ZN3stk9__journal10write_lineEPKc@8;	.scl	2;	.type	32;	.endef
__ZN3stk9__journal10write_lineEPKc@8:
LFB715:
	.loc 1 68 0
	.cfi_startproc
LVL30:
	pushl	%ebp	 #
	.cfi_def_cfa_offset 8
	.cfi_offset 5, -8
	pushl	%edi	 #
	.cfi_def_cfa_offset 12
	.cfi_offset 7, -12
	pushl	%esi	 #
	.cfi_def_cfa_offset 16
	.cfi_offset 6, -16
	pushl	%ebx	 #
	.cfi_def_cfa_offset 20
	.cfi_offset 3, -20
	subl	$492, %esp	 #,
	.cfi_def_cfa_offset 512
LBB53:
	.loc 1 72 0
	movl	516(%esp), %eax	 # aline, tmp98
LBE53:
	.loc 1 68 0
	movl	512(%esp), %ebx	 # this, this
LBB58:
	.loc 1 72 0
	movl	%eax, (%esp)	 # tmp98,
	call	__ZN3stk4cstr3lenEPKc@4	 #
	.cfi_def_cfa_offset 508
LVL31:
	subl	$4, %esp	 #,
	.cfi_def_cfa_offset 512
	.loc 1 73 0
	testl	%eax, %eax	 # line_len
	.loc 1 72 0
	movl	%eax, %esi	 #, line_len
LVL32:
	.loc 1 73 0
	je	L13	 #,
LVL33:
	.loc 1 76 0
	leal	4(%ebx), %ebp	 #, D.30014
LBB54:
LBB55:
	.loc 3 242 0
	movl	%ebx, (%esp)	 # this,
	call	__time32	 #
LVL34:
LBE55:
LBE54:
LBB56:
LBB57:
	.loc 3 238 0
	movl	%ebx, (%esp)	 # this,
	call	__localtime32	 #
LVL35:
LBE57:
LBE56:
	.loc 1 75 0
	movl	%eax, 28(%ebx)	 # D.30013, this_8(D)->f_current_time_info
	.loc 1 76 0
	movl	%eax, 12(%esp)	 # D.30013,
	movl	$LC7, 8(%esp)	 #,
	movl	$20, 4(%esp)	 #,
	movl	%ebp, (%esp)	 # D.30014,
	call	_strftime	 #
LVL36:
	.loc 1 77 0
	movl	32(%ebx), %edi	 # this_8(D)->f_stream, D.30015
	movl	%ebp, (%esp)	 # D.30014,
	call	__ZN3stk4cstr3lenEPKc@4	 #
	.cfi_def_cfa_offset 508
LVL37:
	subl	$4, %esp	 #,
	.cfi_def_cfa_offset 512
	movl	%edi, 12(%esp)	 # D.30015,
	movl	$1, 8(%esp)	 #,
	movl	%eax, 4(%esp)	 # D.30011,
	movl	%ebp, (%esp)	 # D.30014,
	call	_fwrite	 #
LVL38:
	.loc 1 78 0
	movl	32(%ebx), %edx	 # this_8(D)->f_stream, this_8(D)->f_stream
	movl	516(%esp), %ecx	 # aline, tmp99
	movl	$1, 8(%esp)	 #,
	movl	%esi, 4(%esp)	 # line_len,
	movl	%edx, 12(%esp)	 # this_8(D)->f_stream,
	movl	%ecx, (%esp)	 # tmp99,
	call	_fwrite	 #
LVL39:
	.loc 1 79 0
	movl	32(%ebx), %ebx	 # this_8(D)->f_stream, this_8(D)->f_stream
LVL40:
	movl	$1, 8(%esp)	 #,
	movl	$2, 4(%esp)	 #,
	movl	$LC8, (%esp)	 #,
	movl	%ebx, 12(%esp)	 # this_8(D)->f_stream,
	call	_fwrite	 #
LVL41:
L13:
LBE58:
	.loc 1 81 0
	addl	$492, %esp	 #,
	.cfi_def_cfa_offset 20
	movl	%esi, %eax	 # line_len,
	popl	%ebx	 #
	.cfi_restore 3
	.cfi_def_cfa_offset 16
	popl	%esi	 #
	.cfi_restore 6
	.cfi_def_cfa_offset 12
LVL42:
	popl	%edi	 #
	.cfi_restore 7
	.cfi_def_cfa_offset 8
	popl	%ebp	 #
	.cfi_restore 5
	.cfi_def_cfa_offset 4
	ret	$8	 #
	.cfi_endproc
LFE715:
	.section	.text.unlikely,"x"
LCOLDE9:
	.text
LHOTE9:
	.section	.text.unlikely,"x"
	.align 2
LCOLDB10:
	.text
LHOTB10:
	.align 2
	.p2align 4,,15
	.globl	__ZN3stk9__journal19write_formated_lineEPKcz
	.def	__ZN3stk9__journal19write_formated_lineEPKcz;	.scl	2;	.type	32;	.endef
__ZN3stk9__journal19write_formated_lineEPKcz:
LFB716:
	.loc 1 87 0
	.cfi_startproc
LVL43:
	pushl	%ebp	 #
	.cfi_def_cfa_offset 8
	.cfi_offset 5, -8
	pushl	%edi	 #
	.cfi_def_cfa_offset 12
	.cfi_offset 7, -12
	pushl	%esi	 #
	.cfi_def_cfa_offset 16
	.cfi_offset 6, -16
	pushl	%ebx	 #
	.cfi_def_cfa_offset 20
	.cfi_offset 3, -20
	subl	$748, %esp	 #,
	.cfi_def_cfa_offset 768
	.loc 1 87 0
	movl	768(%esp), %ebx	 # this, this
	movl	772(%esp), %edi	 # a_format, a_format
	leal	776(%esp), %esi	 #, tmp112
	jmp	L20	 #
LVL44:
	.p2align 4,,10
L26:
LBB70:
LBB71:
	.loc 1 97 0
	movl	%eax, 40(%ebx)	 # D.30028, this_5(D)->f_buffer_size
	.loc 1 98 0
	movl	%eax, 4(%esp)	 # D.30028,
	movl	44(%ebx), %ebp	 # this_5(D)->f_write_buffer, this_5(D)->f_write_buffer
	movl	%ebp, (%esp)	 # this_5(D)->f_write_buffer,
	call	__ZN3stk4cstr7reallocEPcj@8	 #
	.cfi_def_cfa_offset 760
LVL45:
	subl	$8, %esp	 #,
	.cfi_def_cfa_offset 768
	movl	%eax, 44(%ebx)	 # D.30029, this_5(D)->f_write_buffer
LVL46:
L20:
LBB72:
LBB73:
	.file 4 "C:/Qt/Qt5.5.0/Tools/mingw492_32/i686-w64-mingw32/include/stdio.h"
	.loc 4 545 0
	movl	%esi, 12(%esp)	 # tmp112,
LVL47:
	movl	%edi, 8(%esp)	 # a_format,
	movl	40(%ebx), %eax	 # this_5(D)->f_buffer_size, this_5(D)->f_buffer_size
	movl	%eax, 4(%esp)	 # this_5(D)->f_buffer_size,
	movl	44(%ebx), %edx	 # this_5(D)->f_write_buffer, this_5(D)->f_write_buffer
	movl	%edx, (%esp)	 # this_5(D)->f_write_buffer,
	call	___ms_vsnprintf	 #
LVL48:
LBE73:
LBE72:
	.loc 1 96 0
	addl	$1, %eax	 #, D.30028
LVL49:
	cmpl	40(%ebx), %eax	 # this_5(D)->f_buffer_size, D.30028
	ja	L26	 #,
LBE71:
	.loc 1 103 0
	movl	44(%ebx), %edi	 # this_5(D)->f_write_buffer, D.30029
LVL50:
LBB74:
LBB75:
	.loc 1 72 0
	movl	%edi, (%esp)	 # D.30029,
	call	__ZN3stk4cstr3lenEPKc@4	 #
	.cfi_def_cfa_offset 764
LVL51:
	subl	$4, %esp	 #,
	.cfi_def_cfa_offset 768
	.loc 1 73 0
	testl	%eax, %eax	 # line_len
	.loc 1 72 0
	movl	%eax, %esi	 #, line_len
LVL52:
	.loc 1 73 0
	je	L21	 #,
LVL53:
	.loc 1 76 0
	leal	4(%ebx), %ebp	 #, D.30033
LBB76:
LBB77:
	.loc 3 242 0
	movl	%ebx, (%esp)	 # this,
	call	__time32	 #
LVL54:
LBE77:
LBE76:
LBB78:
LBB79:
	.loc 3 238 0
	movl	%ebx, (%esp)	 # this,
	call	__localtime32	 #
LVL55:
LBE79:
LBE78:
	.loc 1 75 0
	movl	%eax, 28(%ebx)	 # D.30032, this_5(D)->f_current_time_info
	.loc 1 76 0
	movl	%eax, 12(%esp)	 # D.30032,
	movl	$LC7, 8(%esp)	 #,
	movl	$20, 4(%esp)	 #,
	movl	%ebp, (%esp)	 # D.30033,
	call	_strftime	 #
LVL56:
	.loc 1 77 0
	movl	32(%ebx), %ecx	 # this_5(D)->f_stream, D.30034
	movl	%ebp, (%esp)	 # D.30033,
	movl	%ecx, 508(%esp)	 # D.30034, %sfp
	call	__ZN3stk4cstr3lenEPKc@4	 #
	.cfi_def_cfa_offset 764
LVL57:
	subl	$4, %esp	 #,
	.cfi_def_cfa_offset 768
	movl	508(%esp), %edx	 # %sfp, D.30034
	movl	$1, 8(%esp)	 #,
	movl	%eax, 4(%esp)	 # D.30028,
	movl	%ebp, (%esp)	 # D.30033,
	movl	%edx, 12(%esp)	 # D.30034,
	call	_fwrite	 #
LVL58:
	.loc 1 78 0
	movl	32(%ebx), %eax	 # this_5(D)->f_stream, this_5(D)->f_stream
	movl	$1, 8(%esp)	 #,
	movl	%esi, 4(%esp)	 # line_len,
	movl	%edi, (%esp)	 # D.30029,
	movl	%eax, 12(%esp)	 # this_5(D)->f_stream,
	call	_fwrite	 #
LVL59:
	.loc 1 79 0
	movl	32(%ebx), %ebx	 # this_5(D)->f_stream, this_5(D)->f_stream
LVL60:
	movl	$1, 8(%esp)	 #,
	movl	$2, 4(%esp)	 #,
	movl	$LC8, (%esp)	 #,
	movl	%ebx, 12(%esp)	 # this_5(D)->f_stream,
	call	_fwrite	 #
LVL61:
L21:
LBE75:
LBE74:
LBE70:
	.loc 1 104 0
	addl	$748, %esp	 #,
	.cfi_def_cfa_offset 20
	movl	%esi, %eax	 # line_len,
	popl	%ebx	 #
	.cfi_restore 3
	.cfi_def_cfa_offset 16
	popl	%esi	 #
	.cfi_restore 6
	.cfi_def_cfa_offset 12
LVL62:
	popl	%edi	 #
	.cfi_restore 7
	.cfi_def_cfa_offset 8
LVL63:
	popl	%ebp	 #
	.cfi_restore 5
	.cfi_def_cfa_offset 4
	ret
	.cfi_endproc
LFE716:
	.section	.text.unlikely,"x"
LCOLDE10:
	.text
LHOTE10:
	.section	.text.unlikely,"x"
	.align 2
LCOLDB11:
	.text
LHOTB11:
	.align 2
	.p2align 4,,15
	.globl	__ZN3stk9__journal14get_first_lineEl@8
	.def	__ZN3stk9__journal14get_first_lineEl@8;	.scl	2;	.type	32;	.endef
__ZN3stk9__journal14get_first_lineEl@8:
LFB717:
	.loc 1 108 0
	.cfi_startproc
LVL64:
	.loc 1 113 0
	movl	$-1, %eax	 #,
	ret	$8	 #
	.cfi_endproc
LFE717:
	.section	.text.unlikely,"x"
LCOLDE11:
	.text
LHOTE11:
	.section	.text.unlikely,"x"
	.align 2
LCOLDB12:
	.text
LHOTB12:
	.align 2
	.p2align 4,,15
	.globl	__ZN3stk9__journal13get_next_lineEv@4
	.def	__ZN3stk9__journal13get_next_lineEv@4;	.scl	2;	.type	32;	.endef
__ZN3stk9__journal13get_next_lineEv@4:
LFB718:
	.loc 1 117 0
	.cfi_startproc
LVL65:
	.loc 1 122 0
	movl	$-1, %eax	 #,
	ret	$4	 #
	.cfi_endproc
LFE718:
	.section	.text.unlikely,"x"
LCOLDE12:
	.text
LHOTE12:
	.section .rdata,"dr"
LC13:
	.ascii "\0"
	.section	.text.unlikely,"x"
	.align 2
LCOLDB14:
	.text
LHOTB14:
	.align 2
	.p2align 4,,15
	.globl	__ZN3stk9__journal9read_lineEj@8
	.def	__ZN3stk9__journal9read_lineEj@8;	.scl	2;	.type	32;	.endef
__ZN3stk9__journal9read_lineEj@8:
LFB719:
	.loc 1 126 0
	.cfi_startproc
LVL66:
	.loc 1 131 0
	movl	$LC13, %eax	 #,
	ret	$8	 #
	.cfi_endproc
LFE719:
	.section	.text.unlikely,"x"
LCOLDE14:
	.text
LHOTE14:
	.section	.text.unlikely,"x"
	.align 2
LCOLDB15:
	.text
LHOTB15:
	.align 2
	.p2align 4,,15
	.globl	__ZN3stk9__journal5closeEv@4
	.def	__ZN3stk9__journal5closeEv@4;	.scl	2;	.type	32;	.endef
__ZN3stk9__journal5closeEv@4:
LFB720:
	.loc 1 135 0
	.cfi_startproc
LVL67:
	pushl	%ebx	 #
	.cfi_def_cfa_offset 8
	.cfi_offset 3, -8
	subl	$504, %esp	 #,
	.cfi_def_cfa_offset 512
	.loc 1 135 0
	movl	512(%esp), %ebx	 # this, this
	.loc 1 139 0
	movl	32(%ebx), %eax	 # this_3(D)->f_stream, D.30045
	testl	%eax, %eax	 # D.30045
	je	L31	 #,
	.loc 1 139 0 is_stmt 0 discriminator 1
	movl	%eax, (%esp)	 # D.30045,
	call	_fclose	 #
LVL68:
L31:
	.loc 1 141 0 is_stmt 1
	movl	36(%ebx), %edx	 # this_3(D)->f_stream_name, D.30046
	.loc 1 140 0
	movl	$0, 32(%ebx)	 #, this_3(D)->f_stream
	.loc 1 141 0
	movb	$0, (%edx)	 #, *_7
	.loc 1 142 0
	addl	$504, %esp	 #,
	.cfi_def_cfa_offset 8
	popl	%ebx	 #
	.cfi_restore 3
	.cfi_def_cfa_offset 4
	ret	$4	 #
	.cfi_endproc
LFE720:
	.section	.text.unlikely,"x"
LCOLDE15:
	.text
LHOTE15:
	.section	.text.unlikely,"x"
	.align 2
LCOLDB16:
	.text
LHOTB16:
	.align 2
	.p2align 4,,15
	.globl	__ZN3stk9__journalD2Ev@8
	.def	__ZN3stk9__journalD2Ev@8;	.scl	2;	.type	32;	.endef
__ZN3stk9__journalD2Ev@8:
LFB722:
	.loc 1 145 0
	.cfi_startproc
	.cfi_personality 0,___gxx_personality_v0
	.cfi_lsda 0,LLSDA722
LVL69:
	pushl	%ebp	 #
	.cfi_def_cfa_offset 8
	.cfi_offset 5, -8
	movl	%esp, %ebp	 #,
	.cfi_def_cfa_register 5
	pushl	%ebx	 #
	subl	$500, %esp	 #,
	.cfi_offset 3, -12
	.loc 1 145 0
	movl	8(%ebp), %ebx	 # this, this
LBB80:
	.loc 1 150 0
	movl	32(%ebx), %eax	 # this_3(D)->f_stream, D.30049
	testl	%eax, %eax	 # D.30049
	je	L37	 #,
LVL70:
LBB81:
LBB82:
	.loc 1 139 0
	movl	%eax, (%esp)	 # D.30049,
	call	_fclose	 #
LVL71:
	.loc 1 141 0
	movl	36(%ebx), %edx	 # this_3(D)->f_stream_name, D.30050
	.loc 1 140 0
	movl	$0, 32(%ebx)	 #, this_3(D)->f_stream
	.loc 1 141 0
	movb	$0, (%edx)	 #, *_12
LVL72:
L37:
LBE82:
LBE81:
LBB83:
LBB84:
	.loc 2 83 0
	movl	44(%ebx), %ecx	 # this_3(D)->f_write_buffer, this_3(D)->f_write_buffer
	movl	%ecx, (%esp)	 # this_3(D)->f_write_buffer,
LVL73:
	call	__ZN3stk3mem4freeEPv@4	 #
LVL74:
LBE84:
LBE83:
	.loc 1 152 0
	movl	$0, 40(%ebx)	 #, this_3(D)->f_buffer_size
LVL75:
LBB86:
LBB87:
	.loc 2 83 0
	movl	36(%ebx), %ebx	 # this_3(D)->f_stream_name, this_3(D)->f_stream_name
LVL76:
LBE87:
LBE86:
LBB90:
LBB85:
	subl	$4, %esp	 #,
LBE85:
LBE90:
LBB91:
LBB88:
	movl	%ebx, 8(%ebp)	 # this_3(D)->f_stream_name,
LBE88:
LBE91:
LBE80:
	.loc 1 154 0
	movl	-4(%ebp), %ebx	 #,
LVL77:
	leave
	.cfi_restore 5
	.cfi_restore 3
	.cfi_def_cfa 4, 4
LVL78:
LBB93:
LBB92:
LBB89:
	.loc 2 83 0
	jmp	__ZN3stk3mem4freeEPv@4	 #
	.cfi_def_cfa_offset 0
LVL79:
LBE89:
LBE92:
LBE93:
	.cfi_endproc
LFE722:
	.section	.gcc_except_table,"w"
LLSDA722:
	.byte	0xff
	.byte	0xff
	.byte	0x1
	.uleb128 LLSDACSE722-LLSDACSB722
LLSDACSB722:
LLSDACSE722:
	.text
	.section	.text.unlikely,"x"
LCOLDE16:
	.text
LHOTE16:
	.globl	__ZN3stk9__journalD1Ev@8
	.def	__ZN3stk9__journalD1Ev@8;	.scl	2;	.type	32;	.endef
	.set	__ZN3stk9__journalD1Ev@8,__ZN3stk9__journalD2Ev@8
Letext0:
	.section	.text.unlikely,"x"
Letext_cold0:
	.file 5 "C:/Qt/Qt5.5.0/Tools/mingw492_32/i686-w64-mingw32/include/vadefs.h"
	.file 6 "C:/Qt/Qt5.5.0/Tools/mingw492_32/i686-w64-mingw32/include/_mingw.h"
	.file 7 "C:/Qt/Qt5.5.0/Tools/mingw492_32/i686-w64-mingw32/include/stdint.h"
	.file 8 "process_journal/stk_journal.h"
	.file 9 "process_journal/./.././time/stk_time.h"
	.file 10 "process_journal/./../text/stk_cstr_utils.h"
	.file 11 "process_journal/./../io/stk_console.h"
	.file 12 "<built-in>"
	.file 13 "C:/Qt/Qt5.5.0/Tools/mingw492_32/i686-w64-mingw32/include/c++/bits/exception_ptr.h"
	.file 14 "C:/Qt/Qt5.5.0/Tools/mingw492_32/i686-w64-mingw32/include/c++/i686-w64-mingw32/bits/c++config.h"
	.file 15 "C:/Qt/Qt5.5.0/Tools/mingw492_32/i686-w64-mingw32/include/string.h"
	.file 16 "C:/Qt/Qt5.5.0/Tools/mingw492_32/i686-w64-mingw32/include/direct.h"
	.file 17 "process_journal/./../sthreads/stk_threads.h"