	.file	"stk_compression_huff.cpp"
 # GNU C++ (i686-posix-dwarf-rev1, Built by MinGW-W64 project) version 4.9.2 (i686-w64-mingw32)
 #	compiled by GNU C version 4.9.2, GMP version 6.0.0, MPFR version 3.1.2-p9, MPC version 1.0.2
 # warning: MPFR header version 3.1.2-p9 differs from library version 3.1.2-p10.
 # GGC heuristics: --param ggc-min-expand=100 --param ggc-min-heapsize=131072
 # options passed:  -fpreprocessed stk_compression_huff.ii -malign-double
 # -momit-leaf-frame-pointer -m32 -mfpmath=sse -mpreferred-stack-boundary=8
 # -mmmx -msse -msse2 -mthreads -mtune=generic -march=i686
 # -auxbase-strip debug\stk_compression_huff.o -g -g -O3 -Wno-write-strings
 # -Wno-multichar -Wno-unused-variable -Wno-unused-parameter
 # -Wno-unused-value -Wno-unused-label -Wno-unused-but-set-variable
 # -Wattributes -Winline -Wshadow -Wunknown-pragmas -Wall -Wextra
 # -std=gnu++11 -std=c++11 -fno-keep-inline-dllexport
 # -fno-use-linker-plugin -fverbose-asm -fstrict-aliasing -fwrapv
 # -funroll-loops -flto -fexceptions -frtti
 # options enabled:  -faggressive-loop-optimizations
 # -fasynchronous-unwind-tables -fauto-inc-dec -fbranch-count-reg
 # -fcaller-saves -fcombine-stack-adjustments -fcommon -fcompare-elim
 # -fcprop-registers -fcrossjumping -fcse-follow-jumps -fdefer-pop
 # -fdelete-null-pointer-checks -fdevirtualize -fdevirtualize-speculatively
 # -fdwarf2-cfi-asm -fearly-inlining -feliminate-unused-debug-types
 # -fexceptions -fexpensive-optimizations -fforward-propagate
 # -ffunction-cse -fgcse -fgcse-after-reload -fgcse-lm -fgnu-runtime
 # -fgnu-unique -fguess-branch-probability -fhoist-adjacent-loads -fident
 # -fif-conversion -fif-conversion2 -findirect-inlining -finline
 # -finline-atomics -finline-functions -finline-functions-called-once
 # -finline-small-functions -fipa-cp -fipa-cp-clone -fipa-profile
 # -fipa-pure-const -fipa-reference -fipa-sra -fira-hoist-pressure
 # -fira-share-save-slots -fira-share-spill-slots
 # -fisolate-erroneous-paths-dereference -fivopts -fkeep-static-consts
 # -fleading-underscore -fmath-errno -fmerge-constants
 # -fmerge-debug-strings -fmove-loop-invariants -fomit-frame-pointer
 # -foptimize-sibling-calls -foptimize-strlen -fpartial-inlining -fpeephole
 # -fpeephole2 -fpredictive-commoning -fprefetch-loop-arrays -free
 # -freg-struct-return -frename-registers -freorder-blocks
 # -freorder-blocks-and-partition -freorder-functions
 # -frerun-cse-after-loop -fsched-critical-path-heuristic
 # -fsched-dep-count-heuristic -fsched-group-heuristic -fsched-interblock
 # -fsched-last-insn-heuristic -fsched-rank-heuristic -fsched-spec
 # -fsched-spec-insn-heuristic -fsched-stalled-insns-dep -fschedule-insns2
 # -fset-stack-executable -fshow-column -fshrink-wrap -fsigned-zeros
 # -fsplit-ivs-in-unroller -fsplit-wide-types -fstrict-aliasing
 # -fstrict-overflow -fstrict-volatile-bitfields -fsync-libcalls
 # -fthread-jumps -ftoplevel-reorder -ftrapping-math -ftree-bit-ccp
 # -ftree-builtin-call-dce -ftree-ccp -ftree-ch -ftree-coalesce-vars
 # -ftree-copy-prop -ftree-copyrename -ftree-cselim -ftree-dce
 # -ftree-dominator-opts -ftree-dse -ftree-forwprop -ftree-fre
 # -ftree-loop-distribute-patterns -ftree-loop-if-convert -ftree-loop-im
 # -ftree-loop-ivcanon -ftree-loop-optimize -ftree-loop-vectorize
 # -ftree-parallelize-loops= -ftree-partial-pre -ftree-phiprop -ftree-pre
 # -ftree-pta -ftree-reassoc -ftree-scev-cprop -ftree-sink
 # -ftree-slp-vectorize -ftree-slsr -ftree-sra -ftree-switch-conversion
 # -ftree-tail-merge -ftree-ter -ftree-vrp -funit-at-a-time -funroll-loops
 # -funswitch-loops -funwind-tables -fvar-tracking
 # -fvar-tracking-assignments -fverbose-asm -fweb -fwrapv
 # -fzero-initialized-in-bss -m32 -m80387 -m96bit-long-double
 # -maccumulate-outgoing-args -malign-double -malign-stringops
 # -mavx256-split-unaligned-load -mavx256-split-unaligned-store
 # -mfancy-math-387 -mfp-ret-in-387 -mieee-fp -mlong-double-80 -mmmx
 # -mms-bitfields -mno-red-zone -mno-sse4 -mpush-args -msahf -msse -msse2
 # -mstack-arg-probe -mvzeroupper

	.text
Ltext0:
	.section	.gnu.lto_.profile.f4395b3d,"dr0"
	.ascii "x\234cf```c\200\0F\206"
	.ascii "9\354O\231\1\4\364\1\226"
	.text
	.section	.gnu.lto_.jmpfuncs.f4395b3d,"dr0"
	.ascii "x\234\215\225\313k\23Q\24\306\317\271"
	.ascii "3y\30\27#\270\250\350\"\3\322\235.E\355J\304\342_\340\306\255\246\20\320\24j4\253\222,\304G\27\25\301E\240h#\202\265ZS[_M\252\255\317Zm\353\253F\255\317\1\305\26q#J1\324\202\347\234\334\270\312\205\33\2C\316w\276\271\347\367\315\275\23\7\32\177\16\205\1\266\320"
	.ascii "5\2\210\230E\200\332"
	.ascii "7\244~*\\:\321}6\32\307\323\271\274_U\0T\351"
	.ascii "9\367\253gE\347R.\237\213V\25\342y\214Sw\37v\322\15\330"
	.ascii "0\262\374g,\32\337\\3(6\364\5\307\307\275\272\301\301\13b\350'\3\267\27\276\314W\274\5UU\356F\300\213\270\226\356\202\\?3\333]Td:\306\246\320\262\342\372%^\304\250\16\220\32\26\200F\35\214t\231:\354\240\212"
	.ascii "2\343\240=\324\25"
	.ascii "1\14i\250o\3\337\247P\240\266\2\16\233\241x\250\253F(V\257\221\32"
	.ascii "3B\321\354x\235:\320\311\324\227(\34\11\216\272\274t\370o\23\340\15Z[\312Ay\272"
	.ascii "7*\345\334*\300\233\365r\327Be2V\353\366\0G\250l\227OIp\313\366\371\214\212\341\226\316\247T\374=\263R\362\361\1o\233\363a\276"
	.ascii "1c>\254\216\223\352\31\363q\250\343\16u8\265}\256/v\210we\342{\366\210\367\305\360@#.\216\16M\204\5q\16\1\37\232\31y\306\11##\253\217H]M\23"
	.ascii "9\331\306\224.\365L\376\337\5vt\217e\330'\366tSb\230\326t\371\362`WD\350v\3\316\230\341x\264\247F8V\237\221\332\344\322\23D/\213\6\300\20\365=\347\263\353d\260\366\10\25\256\347"
	.ascii "5\225\20\333"
	.ascii "2\277\20\204\227\366\314\263bx\245\231\277\236\14\26\345\10\271\275\364D+fh\36\367\265\21\232\325"
	.ascii "7\244\256\323\320Y\303\336\245w2\276\345\245\353\214\232\332\311(\320\0?\206\17\237R<Qd\15\340\234\365\341}'X\357\355s\370 \206\217:\207j\241\177>$9\224(\207O\346\34\230\340\263"
	.ascii "1\7V\3V7\355h\335\276kg\213\337|\240\305oM\245\23\35~\333\301\324\236t\262=\305\265m\315{\375}\311Tb\203\337\326\336\341\323\217tr\177\"\306\377O\377\0\32\21\"\213"
	.text
	.section	.gnu.lto_.inline.f4395b3d,"dr0"
	.ascii "x\234cf\300\16\344\231 4;\3\203\352A\6F\6&\311\31M\214\14\234"
	.ascii "7\314\300\342L\334\14\14\214\23\374P)6~\6\6V\206\11~\14\14P!\6f\36\240Z\20\301\310\300\306p\206a\256<\320\234\254\25\257\16"
	.ascii "03\360\35"
	.ascii "8\257\202"
	.ascii "0\211\1\257V.\6\275\363 \27\310b\270\0\346\16\210:d\22\257\201\374\14\337\31\256\231\2u\257g<\327{\224\225\201\177\302S%$CYx\201\252'\370\201 \22\23\257\211\302\14\267\31N\261"
	.ascii "3\2\1P\244\215q\335\206\2\6\256\11\255\314L\14L\27\370Y0\234\213\327(q\26\253\35\214\214L\314@\223\230@\246\231O\232.\300\300\336\241\316\304\300\262@\236\5-\310@\16\3\231\2\322\312D\320\225\322,V\207\201N\4\33m\371\360\253\0\3\347\365VF$\217\243\231\302\0"
	.ascii "6\35\257\211\14\0{\12B\362"
	.text
	.section	.gnu.lto_.pureconst.f4395b3d,"dr0"
	.ascii "x\234cf``\20f\200\0N\6)V\11\266(\256(>\11\376(\341(\361J\351(\0\30\263\3\34"
	.text
	.section	.gnu.lto__ZN3stk11compression17__huff_compressorD2Ev@8.f4395b3d,"dr0"
	.ascii "x\234\225VmPTU\30>\357\271w\357\336]vc\221\370\210>v\33b\360G\364O\233\261q\246it\352g\177\372U\315Nc\313\310$\37#\370\247f\207\13l\346\327\30AM\214\204#\221H!\32\12\244H\272Z*fJ(\310G \240\2\366"
	.ascii "1&.I7\334\241\367=ww\331\326\305rg\366\354}\317}\337\367y\336\347\274\347\234\225\330\375\237\327\361+Y\30{\17\177Ae\300+/2V\246r.\365\245"
	.ascii "2\315j\352z\236i6\211\313Q\226\14&\303\311\304\225\200\3\247\315u\253qZ\1\263"
	.ascii "1m\6\240\7\6\254\224K\262I1C)\374\302g8T\372\233k\22\262\367j\232v\373P\213\366\252\37t\316X\200\33D\240\21\262\321\247\377\320\357\235"
	.ascii "6i90|>z`\366B\302M\256sp\221\331Y\325]\243\220\311e2\367u\34k\264f5h\225\345\343\303\263\233U\337+:\227`\37H\230\20\232 \3\276\204\14\206S\14\276\202,\362\237\361\5\7\22\24\37\242;\14Ph\6\5\30"
	.ascii "3\5"
	.ascii "9\13r0F\364;x\263\255#Q\312\21\14\374\223c=Jf\275\246\225\217\217\16oW\265n\315"
	.ascii "7\276\260\340\324\271\14\373\377\215\24*\242\5"
	.ascii "2\17.\363k\13\13\323\277\361t\20\266\214,L\12\16\212\212\203\331\202\203j#\323N\203\3\210_\22>Z\222iH\241\201\375\312\201\263[\34\331!U\330\177>\221\321#\273\201\264I\332I\316\351W\32\206\362\273\333n\265\257@\246\237W\17\371T\351\5\301z\317\304\336VY\260\366\317W\310Q\234\17\304\343\34#\15\251\22;\11\7!\223Ja\360"
	.ascii "5\275\204VP\346\270\214>\273/\357<\300\275\363\332\26M\325\271"
	.ascii "5\210\264(r\354FO\257J\13%\13\263\251\314\367\31\324Am\231\246\371\233%\24\3\16\201\27\16\23\1h\303\27\254\37|\203\322b\322\262\306c;\314\24\236\200\16\355!\236\223\270\222}\251\322\10\370\226\33\236J,\274-@\360\320\1^\366\337\314\254\302\374\273\341\23\273A\14\235\354\360\15\322:Bx\364jG\347\31\13\306S4\34E\226\204\312\240\23\274:\177\204\30\17\205\30+\220\31f(\263s\12"
	.ascii "2\14\275PcY$\6\260\6\6\307\220\240\316\35S\274\24\227\357\222b8[\320\237\241]%p0\362l\373\335&%\34\231\24\344\306BE\244I\22\346\236\256\221Q\210\24\240B\27\26\360\255\320\365"
	.ascii "8NcV\26\326\353>I\226\5hu\340\304\203\324\212\221\307\277\224<'#\362\234\"y\222\205\30&\321\241W\240\\\253\263\322K\352!\14\374`\376\314\200\342\344uZ\215K\347\217R\252\236\353\301&\302\256\241d)\360\35"
	.ascii "8\221\327\367\310\213b\253\23El\213\210\355\335\325X\221(\372\12w\326idB\36\177&GyLM\357\336+\216\10S1\245\16\334\333<\24)K\206"
	.ascii "3B\232\263Fj\7\13\305\304u\352F'j\313\212;\331\241\5\211G\23\247\347\336\277\275\325J\210\251"
	.ascii "62w}\272\275\305F\232U\222\233\11\316\241f?\204"
	.ascii "4\273V\265?\222@\206\363\324\371\14~D\207\323\221\36WX\300!4\323\323\242\252\212\253\320\5dH!\346\260\316FAsxhP\37\325\337"
	.ascii "3\33\235e\213m\246\264 \235+\321\315\224\26\247\231\24\270\210\314z\204\30?\21\325a\250\250\12"
	.ascii "5\253\35\263\302"
	.ascii "3\31\2g\302\300Y\22$6ko$\353%\321\242vl\321\364\270\35\232\36\300\36bp\331\350\320\371\17w\326\253\316"
	.ascii "5F\337<F3\265\15\201ZKX\225\14\350\3\247\321\203\375\340\235\23\7\371\221\340_\307U\347\273F\310\343\342\312\30\337z\"1\34\362\4\\\11\207\14\200\227\250^\237\356\27\355\245\344"
	.ascii "0\30\204\14$\247\363'\215}\332\321\332\226c\24\237\24}\214<%j\334V\366\305\37f\252\321\241s\347\34w\300Ph\305\253\373>\376\310\226\323\254\211\332-0\214\25\337\21\327\35\374\14"
	.ascii "9\264"
	.ascii "7\265"
	.ascii "7\343\226\356\12p:fG\260t\4\324\371\323!\22"
	.ascii "3a\22\311\17\201:*P\351\376\200\253\377\7uL\240&/\242\266\266\257"
	.ascii "6PS\36\2u\\\240\212kv\"\204\352}\20\352"
	.ascii "5\201\232\22F=58\323\16t\333DC\212=\265\10\12\327\21\3\337k'\207\346\224\225m\332\26\374?\341dp\3V\212\375M\27\331,\235\270W\1\214K\215M\1,\275\223c\267\356\344\222[w\312\330\272\323\340"
	.ascii "5-\225\17n\202W\31\331\276\300\361\316\6\332\241\250D\326\272\302\374\242\215\236\342\342\274\302\202"
	.ascii "7\212K\336qG\331\356\365\233rs\237[WT\304\344\222\365y\305v\267;7o\203\307]\360V\276\307\355VC\226{\305\232\265/\275\366\362*WV\361*\327\332\202\22\317FW\356\246\202u%\30Os/f\275\355\332\220W\340y\326\225[\270\321\205FI^\276\307J\377\303\376\1\242\5Tm"
	.text
	.section	.gnu.lto__ZN3stk11compression17__huff_compressor10initializeEv@4.f4395b3d,"dr0"
	.ascii "x\234\225W\377ST\327\25\277\347\276\375\306\333\205%\201FA)\33\220\301\357\306\211\14~\211\3\326\332\366\37\310o\235\322\216\205\221IDG\360G\352\3V\374\332H1m\231\30-\306hHD\11\251\242\361+\244D\255\21)\211F@\202h\200\250\321(B\300\25Vz\316\271o\327\5\241);\303\345\335{\317\371\234\317=\367s\356{W\23\317\377\32\361o\305\13Bl\300\377\20)@\226\\\26\242\300!\245v\345%a\350\266S\251\302pi\322\22\322\263H\267\20\233\35Vei\5\233z\260I{\233\23\215\34G>\23he\7\207\32w\200\256\36\302\324C\235C\227a\225\15h\243;;\311\322\11\341"
	.ascii "4\16.\365\277\316\21.]j>\202\347#\0h\\\270\5\210\15R\263XmvG\230\356t\205G\270a\203\246\13"
	.ascii "0$\377\341/\\\300"
	.ascii "0\360\37\376\356\310\36\11%\265\7\313\234\311\373\15\303xx\353\376\33\306\333\277\367\241a\257T\213\207\3\220\214"
	.ascii "6W?\271w\302\245M\7\201\317\237\36\356kp\336\226>\11\36\352\236(\275Pf\243\256\264P\367\203\232\223\7\364\244}FI\241QRR\216\303\32|\0\32\302A\5\304\302\207\20+pH\300G\220D\326=^\377"
	.ascii "5\247\315\213\261#UH8\10"
	.ascii "6\244f\365K\341\307i\11U\267\217\324\270\265"
	.ascii "9\34\271\266\353F\243-q\257a\24v\370Z\267"
	.ascii "9\214\13\206\267cx8\336'-P92\206I\376\20$\242[\337\246\252\353vm\11C\354\336z\246\316B\20F\307Psz\255\367=\343\351\360"
	.ascii "0\370\244\25\16\217\211P\305\10m\247{\352um)#|\324~q\207\213\21j\253\312\215\364\20\204\217\307D\250\206\304\252\27k\215\341\341\336cu\315\266\25\300\254$#k\334Z\270\265\262\245\216\331\261\271\260\261G`\343pc\23\26E\335hj&\1\345m2>\352"
	.ascii "1\330"
	.ascii "8)\227\316)\324\235J\323q\324\215\247\256\7\33\371"
	.ascii "25\11\324\235FM\22"
	.ascii "5\311\34k:=\316 \353\231\324\314\242\356lz\232KO\363\230\311+\324\237O\375W\11g\1"
	.ascii "5)\324M\245f!5\213\250YLvK\350\351"
	.ascii "5zZJM\32GIg\234e4\265\234\32qW\202&\276\227\244<\20R<\300'\350\223\264\353\235\330\240\220\273\260\323)\264V(\354\337z\371X\12&\373\275\235-^\207\226\306\211/\277\271\277\232\267\256\260v\260\310\22\262\367\237\214\225\367\221\342\362KM)\12\376\11\211\264\1D\220\350\261\340\220\317\21\260\15H\35\235\366|\365\326a\231?hl6\34>\351\362\243\250\11\352Fgc\223\203D\256\272\25\5\336wa7\354*@\21\34\324p\313\340(\344C\15\5\207c8!\256\202\267Y{\6Zp\340\344v;\271\207\243\301q\223c\27\326A\234\326\6\336\351\312\320"
	.ascii "5:zD/\345\12>\205|\361\323\304\\\334}\262\357\257\341\212\27\32\271\341\4\262:I\341hj\373\211sa\350O\336p\12IRT\1\247!\337'#\211p\213I\330\5\211\1\202\26\341@\202\346x\304h\22/\364\322\346\301\31\344\347\223/v\23\331.iE\27\334\300/m\312\311\215~\2\373\245\34\16\21\316\37\355\257\260\5\20\242\374RmU0AQ\334-?\325\366\15\4\327\21\6gq\35\265\234\335:\34FT\21H\333s\231\211\356\305\264\12\370\354\177%mT\226\376"
	.ascii "5^\226\352\203Y\372\234\262\364"
	.ascii "3\316\211\215$\372"
	.ascii "5\24\32\273u\232#A\241\337\246\301s\327l\361r\267Q\346\361\311\227\10\251\361[\177\5\205.#\254Ip\16\342\221\326y\244E\276;\335\354\253\316\247\246w\16\24\271Y\\X\20\27\220\10Y\374\30\25b\321\375\335\236\375|\306\332r\11\272w\250\270%\270*\13\374\233"
	.ascii "3sQAG\6N\275"
	.ascii "1\215\276@#\322f\321\243ds?\306\242\211\303\3\33\37n\321)\342d\27u\337\371\373\266C.JY\11\231\331\340\22\246\254\301L\331\255\322\312 \200\5.\223\374\5"
	.ascii "4\242\301\205\240\320\355\302\315)\363M\12Y\324\230\11\372\17\22$\17\207\231e\265\234\1\324\26\211h\357\220]\311*j\264\222b\374$\277P%\305\214\241$;4!\257/9\25_\21\321V(*5\225\32\215\250"
	.ascii "0-\226\343\334Tq\306\15"
	.ascii "2\32\365J\20\365*\353"
	.ascii "3\32\365"
	.ascii "9yLy\306\366\222\6\341k%\317\301\35o\355u\304\377F\251f\12\215\354\332\327\273+,\220\224\251p\15\342\225\0\233!\177\200\337\207\307\375\217\317"
	.ascii "8\342\377\244\\\342\370\215\333\261\345\254;\340\362sh\11\270\264B>I\247\362\356\27@\371\260/\22p\35b\221\234O\306\223Rj\375\353y7\350$\244\212\357\6\30_\17\243\5\320"
	.ascii "6\256\0\276Q\2h\207|\333xxp\3\362\355\357\356\30\226\270\321a\2?d\350\304\250\251\256\337k\236"
	.ascii "4\223C\17"
	.ascii "6\17\307\330Z\360\376\3;\305\217\364\311\227\7\20\250\303\14\276\363\312\333\177q\315"
	.ascii "9h\360N\350p\23\243?\342o\27\270\5sh3\333M\311\304\14\340i\205\373\375"
	.ascii "7s\277"
	.ascii "1\23"
	.ascii "1\241\237/N|\17\177\13\264\377Ee\246\311\24\244\202\206\254\222\342zsp*\342\240_i\313\361\323\254"
	.ascii "3\373"
	.ascii "0\276\306;\331\261\260}S\233i\25\207\206#\316\275\340zt\246}\364\361?\356\233gPm\254O&`0\350b\5u\263\202\342\310\271\246\247\376\246S\341\305O \7\337q\16\370"
	.ascii "5{\233s\20\324\270G\255"
	.ascii "9\310]\22\367;j\321\201\274 \262\207\337\243!\211@z\361"
	.ascii "8\243j#\305\\Q\350\22~\307KH0\227p\227\227\20\303K\250\376|\257U\201L\233\300\22\276\347%\360\7\341=\265\204\0\225$\4R{R\370\260c\322\30Tf2\225$\223\312}\4\12=b\23\360\210\375\1\314-\355OU\230\311jK\203FV4z\300\347\260\14T\10\32\361\271\244\13\374\320"
	.ascii "6\17&\36\226t\236"
	.ascii "6\230\302%\224\262]\276"
	.ascii "3\234\\+}g?Tg`7\"%\306:\232"
	.ascii "5\304\11[\210"
	.ascii "8N:\337p\330\202\303z[\365\373\262\33\346\241\363\311K\37VIV\25}\261\367@\254NA]\\#*h5\5\265*u\\\12\24\314\364\11\244\366\321\263\12\351\35Y!3\24pP\11"
	.ascii "3qhtI\314\302`8\243\304>\4jp\366\0\276sC\305\376\274\272g\231\373\321\307\322\230\255\244\321Pg\362\237;\1\376?>Sw\277\222F\200\357+\10<\232\357|\4\307\31\245\334\350"
	.ascii "1\350Mez\363Mz\3Lo\206\222Gk\214\302x\225pg\214(\222\5"
	.ascii "8:\272HR8\324\202\237\12\225b\206z\34\14\205\231\270\34(\222\324\11d\302\367\254H\236\214,\222\205\10\244v\251\250\254\270\315\242\6\27\361 \247\242_WC\213C\30\2\263[d\262\33"
	.ascii "4\337\216e\305}&\346\22v_\20\352\376\332s\356KL\367\241\300\313\265\370\236\31})FC\17\225\235\324q\353v\241\11\340\347\354,U\30?\4\326\225\206B\243\227\321\265\256>\215\253\4\213\344\351\350BM\13=\361\322Q\323#j\231\353'\235k9\234j\31F\224UHak\241\205m\305\250g\237\354\361Z9\352S\215.\320facI[\234\310"
	.ascii "5\315\205\35\353\200\234G\235t\27\5\210"
	.ascii "0o35\325\215M\341\12h\331\4\366\327\220A\245\27\310"
	.ascii "9\352\304k\14\224\330\261\222\315\305\234\3\375\261\233|"
	.ascii "\257\227"
	.ascii "4\234\16\244r5\247r\31\24JJe\221\344#\260\345|\345F~\321%\14\343\17\217&\257:Ek\252\257\24\230\344\226O\200\334F\31\24_\261I\256\274!@n\213\267\352\"\177t\350CL\356P\373\371;v\223\334*&\267\34"
	.ascii "61\271\315\212\334\266R\177\23;$ >^\34\267\340d;\24\324\266\374J\335\317(\233n!\264f(\210\24tg\304\357\377\212\343\355Wa\274;\200\25\261\267\312\377\377\16\260M\216s\7\330.\3w\200?K\276\3t\202\201\22\341K+\340\376b\6\222V\256Y\275v]fnn\366\232\234\337\346\346\275\221\21\322\317X\265>+k\356\312\265k\205%oUvnxFFV\366\233\231\31"
	.ascii "9\177X\235\231\221\1\331\220\351"
	.ascii "0G2R~\271\342\27\257\377z\261')w\261gEN^\346:O\326\372\234\225y\210Ac\351I\177\364\274\231\235\223"
	.ascii "9\333\223\265f\235\7;y\331\253"
	.ascii "3u\272H\377\27\32=\32q"
	.text
	.section	.gnu.lto__ZN3stk11compression17__huff_compressorC2Ev@4.f4395b3d,"dr0"
	.ascii "x\234\225\226mlSU\30\307\317s\356\355\355m\367V6-l\"\255\216\5>\210\337\210\11\306\304\30\210~\364\213\337L\32\203[\230\262\261l\343\213\246\341v\253\203\1\301"
	.ascii "94L\346x\21\30\303\361\"\10\10\343\255*\216\241\300\4"
	.ascii "6`\23X\7\333\30o\1V`^G3\237\347\234\266\224\322\252,\331\351}\356}^~\347\177\237s\316U\330\323\177%\370\277\321\306\330\247\370\13v\6\274\356\24c>\235s\245\313\311\14\273v\360"
	.ascii "5f\244+\\\215\263T\216\376Kt\213\364\264\200&/4n\15"
	.ascii "9\320Ioz\3\235\254\240\313\333:\0]0\33\3\266\210+\252E\263\352"
	.ascii "6X\4\327\371=\16u\201\326\206\264i\233\14\303\270;\262\305x7\0&g,\304%\32"
	.ascii "4\303"
	.ascii "4\364\351\336u\253-]\231\16\14\257\367o\277\177"
	.ascii "2m\230\233\34\334d\266\325w4hdr\225\314\315{\17"
	.ascii "4\333\13"
	.ascii "6\30uU\301C#5\272\377\35\223+\260\31\24L\10-\220\7[ \217\341-\6\337A\1\371\337\363\207\317\247i~\254\356\220E\241\25"
	.ascii "4`\314\22\346,\314A\216\350\267cx\367\336,e\206 \10\14\366uj\371\353\15\243*\330\321\273L7:\14\177p|\334er\25\266>Y)2\211m\220\277#;`\214\217_\353\344\223A\330*RX4\34"
	.ascii "4\35\7\253\15\7=\203\314L\32\262q\260\345\0A:\351"
	.ascii "2\227\6v\203\203\302nr\240\224\214\263;x\5\367"
	.ascii "9A\17\340@\12\17\242\205\277J/T=\\\332\276{&\302~\273\262\307\257+\257\13\360u\375\233v\252\2<0V\255\306aoO\206\375\244:\260\3\362\11\\\10\204\0\337\203"
	.ascii "6\312U\364Ysv\305v\356\35"
	.ascii "3\226\30\272\311\355a\324\226\"\373\6:O\353\364ZTa\266\370\374\337@\23"
	.ascii "4\372\14#\320\252\340\324a'xa\27\325\202\37\360\1\353\6\377\5\345qR_\363\201\345V\12OC\207\335\21\244A\314\335\345T.\202\177\272\364\324\22\313\247\207H\35\330\3^\366\337dva\376\275\341\253\14\11\206N\31\260\27\261~\244z\364hy[\273\15\343)\32\366!%Ue\260\37\274&\317$\342\236\10\261\6\371QB\225\35\327\220"
	.ascii "0\362@O\244\310\12\321\373\202"
	.ascii "6\4"
	.ascii "4\271c\210h\7\271\205b\360\225\235\321d\224\15\3\31\332\365\242 \246"
	.ascii "8\266\347a\213\26M1!\314\345\313\211i4A\230\353\16^\274\4\261\231\350p\0grP\10|\10ocV\26\25\356)m\262C\244\15\34\376"
	.ascii "7\331\22t:\222J\247@L\247\237H\247\34\241\212&\272\362\34T\31MvzH\315\204\201\213\307\332\317k.\336d4\270M\376\34\245\352\274\32n\241\332\15\224\354y\370\31\\\310\365\13rQ\354\312,\21\273M\304\236^\335\\\235%\32\14W\301Q$!\217\7"
	.ascii "9q\36C\327\326l\22;\203\245\202R\207\36\325\364\304\246\245\302\257B\232v\231\332\301\"1I\235\216\241\23\365g\365\310\264\310\13I\206\211\267G?\273[k\247\212\266t2W\257Z\266-\235"
	.ascii "4\253#7\13t\240f\307#\232]\251\337\32K\240\302o\264\4\30\374\216\16Gc\315ne!\207\320\314\234\30"
	.ascii "7\253\244\12\235@B\12\321\243:\313\11\215b\177Q\37\255\177d\225\235\225\221\330L\316"
	.ascii "0\265`|39\223"
	.ascii "4\223\6'\221\354\224\20\243\223P{\241\272>\322\254\231\230\25\246\346\211:\375\262N\312\"\211Y\377\210e=-Z4\23[tR\322\16\235\30\242\215\4\316\310\16\35\373|\305z\335"
	.ascii "5[\366\315$\272\323\270!\324h\213\252\222\13g\301%{\260\13\274\243b\377\336\27\376\353\260\356\372D\206\344\211\223\"X{$+\32\362\2tGC\316\201"
	.ascii "7\376\224\321\334\14\316C\36\302\231|2-\241\300\252\7\31r\352\331\211\224/\206p-3\270 )\227\16ww\210n\230\362(\213A\17\344\231\334%_G_ta\307\366\"\267\320g\251o\343\35+\351\343"
	.ascii "0\371K\243<\7z#\335\262\262\353\313/\322g\264\32B\267\227\341OTkD\234\220p\21f \210\340\372z0Sr9Sp]\222\\\301\266\23kE\321)x\346\301\345"
	.ascii "8\256\333Q\256\377\13\322'@\304\201\24$\20\247\0i4# \271)@\372%\310\272\232\340bU\12"
	.ascii "4\221\301\225\307 \375w\236\25\344\252\0\21\347\367\0\201\344\12\220\246=\220\264\233\362C\234\216\260A\304\300\234&\237\312.\203/\260\326\"\217"
	.ascii "66\4\220z\215'.\352\241\224\213\372\232\\\324\303\340\325R\345\203\353\340\265.\257\35\347\270v\361\203J\271\0>\7\243#\35\351[\356~\224j\263\266b\344\215g\330\254o\246\332\254o\305"
	.ascii "6\353\333r\263\36\0\352\11\361E\1\264\227\240\242\5s\27\224\224\225\27VT\24/(}\277\242\362cO\234\355\231\267\260\250\350\325\271eeL\255\234W\\\221\341\361\24\25\317/\364\224~PR\350\361\350\21\313"
	.ascii "3s\366\234\267\336{{\226\273\240b\226{Niea\271\273ha\351\334J\214\247{o\26|\350\236_\\Z\370\212\273hA\271\33\215\312\342\222B;}\342\374\3\324\22\216\34"
	.text
	.section	.gnu.lto__ZN3stk11compression17__huff_compressor11reconstructEv@4.f4395b3d,"dr0"
	.ascii "x\234\225XkpTE\26\356\323w2s33\311$\344\311\204%\201\200\301\7\370\2A\5\3*b\251\245\226.\250\250\25QBI\251H\11\376\332Jy\303\204\210\210\20\1w#*\17\21\304\25a\21A$\1\203\17\300]\2\213\240\200\"\204G\"*\212\220\220aL\206\331sN\367Lf&\3nR\225\256\356\323\247\277s\372\353\257\37w\14\321\371\357o \304\322l!\246c\35z\10\220U;\205(7\245"
	.ascii "4\366f\13\313i\257\35,,\267!mQ-\233\314\23b\206\231\244<\223\300\256*v\351"
	.ascii "8\350B'\363\243\317\4z9\300Tv\23\334\252\222,\235"
	.ascii "3\212\320\301E\245\333\11.ev\251\376-\246[&\257\254\307\241\316\224\343\4\220\2\231d\207THS\216\36U\331b\246I\317\254m\344\230^\341@\307t\231Ay9\273Q\216\356n\220\241\334"
	.ascii "3\324\370-f\246LU\270Y\214\233\5\335\31"
	.ascii "7[\346p:\271\234N\16\344\252a\271\252{\213\331]f\253a^\36\346\5 \273\310\23 ^\220\206-\311\356"
	.ascii "0\223\235.wJ\252'-\275[FfVvNnwo\36\274\220\344\26\20"
	.ascii "2\370\37\377"
	.ascii "2\261\2\374\217\177\335\243{\322\4\234\17\205T]\374$OK\250\252{\277\332U\264\314\262\254\337\217\236mH\261\346?\26\220B4K\265R\260\34\212\320\351\233\17Ont\33\375@`\375\223U-\365\256\23"
	.ascii "2 \241\200\232\33\347n\257\266SS\332\250\371\356\372\232\345\316\276K\255\252iVU\325b4\33\360.\30\10\7+\300\13\357\201W\240I\300?\241/y\237\256\10\356s\331+0x\232\12\11\357\203\35\263"
	.ascii "6\203R\4\261[\302\352\23\37\255\367\30\375"
	.ascii "9r]\343\341]\366\302%\226"
	.ascii "5\255\341\223m5Pe-\236Ve\205B\305\20\220"
	.ascii "6X\31\33E\247\377\1\24\342\300\226\27W\177\357"
	.ascii "0nd\220\372\312\352cR\201\324\376"
	.ascii "8\333\264\266/\256h\10\205\362\3"
	.ascii "2\11V%\204X\315\20\7"
	.ascii "7\235\376\302i\14c\210\265\233\177]\226\312\20u\233\27[\303+\336\266\220S \204\177%DX\243\20^o8g3\212\31a\303\341\320Y\207B\370*\26\341\303\204\10k\31\241\376\325\252\17R\215\21\214\260xz\343f\305E\335\216X\204\217\22\"\254c\204\257\277l\311"
	.ascii "3na\0\337\241={u\12\273b\1\326'\4\370\30\12Ww\253C\272\233\367\315;Ql\224\2\223+\231\37\203K\33\227I<_;\227\16\316\334\344"
	.ascii "2\35\27\336\236\201\205#\13\13"
	.ascii "3\33\213d\22\203#\217\212\236@\222\310\307\252\263\0\13W/\252\365\246Z!\25}\250y\11\25ET\364\243\342R\352\270\214\212\313\251\350\317\21\7p\16WR\377Ud\275\232j\327P\355Z,\344@*\6\221\355:\262\15f^\206P\365z2\336H\335C\251\30F\315\233\250\243\230\263\37N\325\21\314\302\315\324u\13\265o\305\302=\222#\336F\203FQq;u\337A\305\235<\362.\252\336M\305=\344~/\325\356\243\342~*F\363\350"
	.ascii "1\354\371\0\31\36$\340\207\250"
	.ascii "6\226\215\17S\365\21"
	.ascii "2>J\265\22\366\177\214\2\215\243\342q2\216g\243\370Y\202!~\221\264\351AHq\12k\320\"iW\35\307\"Y4b=\331\370\16\246\265\316\334Y\263\337\216\32x{\336\201\12\323\30\251\4ud\331\32\233\322C\273\317\266\335\322\273\302\6\33\22\311!v\357\6\245\241"
	.ascii "6,|\2\205$\13\312\207\226\203f@\24\23o\274\267"
	.ascii "1\265\215`\367\313t\4X\270g\366*Y\326f\315\260\314\200L\11\342\371A\260\207\217\357\332m\322y\242\232+\312+\336\204\267\340\215r\313\252[i\240\204\240\6\312\240\226\22\201M\330!\276\201\212\375F\7h\371\362\232Y\16\32\236\212\16\233u\276\215x\344\30\306A\250\350\247\34"
	.ascii "3\342\243{\232\211"
	.ascii "6\370\24\312\304\237'\226\302\315?\226\276\226\242\362B\247"
	.ascii "4\250\303\254\266P8\352\232\265qk2\216\247\321\360\31&IQ\5|\16e\1\231N\11\37\320\11g@a8A\334<\230\240\266g\305'\321\255\231\326\21\276\300\374\2"
	.ascii "2\243\211\222m\224\270\323h5\277\266\253A\331"
	.ascii "8N`{.\207C\204m\353ZW\330\303\10\231A\251\226-BP&7\27\327\36\374\1\"\363H\206/q\36[\231\335mhFT\21\246\255\23"
	.ascii "3Y\315H\253\200\355\27#-\216\245\257.\304\322\277#,\375\207X\312fN\354(\327oa\232\265\310I]\244-\34\366b\333\326}\366|\371\226U]\20\220"
	.ascii "9\4\264\353Xp\5E\256&\250\\\330\1\371\230U=fEc_\363\360Xu\17\354^\260\334\347am\341\326\330\211y\220\207?#\312\243\351\307\205\313\370"
	.ascii "6\263O!\350\346\366\312\3\221I\331`\27\23\363_\5\235\26\276]\22:\355F'\222\246\257\265H/G\242"
	.ascii "4\321\354\237\376\373KN\212\330\335M\315\5\377x\371\3"
	.ascii "71VEnv\370\32\31\333\243\31;:we\4\300\6{I\375\2\276A\207\235\21\235\343\211\313\224\265\345DM*!A\337b\202"
	.ascii "4\302T$\253\331\370QY$\241#\355\16%*o\274\216\274A\22_\264\216\274\11t\344\200}\230\326~f\342\0\345\371\35\370\346j\235\346!*\364\361r\234%AG\"\261F\202\304\243~\27A\375\236\325\231\207\352\314M(\316\274fR \34T\342l\233"
	.ascii "3{\211\231\177\267\22M\17\262\274\261\264\371\215\344"
	.ascii "0'\177\201\37 _\311\357\20\224\371\371\341\261!xn\263\231_\1jLO~\333"
	.ascii "4\274\364\251'<&\37\16\207\307"
	.ascii "4@\31\366\266\326\254\331\312\322q\34@u\35\1/\246\27\220\5$\225\272\340\354l^\17\365\226\210\234$I\230\341Q\226\241\344n:1\251-\232\0.\254\230x\211\34\273\240D\216+\211"
	.ascii "4B\231\375Bx\320\4e\216"
	.ascii "7\375-W\242\24\222E\205\203N\224\365k\216\37\323'Q~t\272\275"
	.ascii "8\304\314\362wN9(|Z@\366\366\313\236\360\243\216=o\357\374W\335\375\337\267x\255\234p\2\203\237\341g$\374\4\375I\1\177\327\12(\360Kzy\276\263\373\360n\203i\300\303\357g E\370\252\265K/\14\215\216$\222V\247"
	.ascii "2\365\216N\305\311\21\327\235[\364+\35/\364l\301"
	.ascii "1\360\13K\343\244\276\26v\372\262;F\256Zpf\216\12v\36_+\277F6\214S|f\30\224[\345\316\332!\312\35w\201=>\237>\234O\241\22m\216\326l8<\335M=8\205>:\205\337X\235\275\5\223\331\370y\222\2\271\244\13\354\235b\366\370.\377]\261\27N\245\10\201T*\276\352\312\223"
	.ascii "6e\354\307\306\30\276.\355DP?\235\335\351\360\216\254l\321\303/S\356\221\363"
	.ascii "1\11\25|F1p\250r\207N\377r\364\213l\334\1\11"
	.ascii "8\270\202\243\24\351(\315\314\301\345*\320\241\332\201\12\244?\221{&V\363h\345\265p\221\376\324Y\304\326$5\266\265F\317|\0\352&f\354j\362\32@\333\5\343\332\223"
	.ascii "1\\\177gm\340I\204r\213Wb\240\354\372\304\346\21\222\324Q\357k{K\213\\\206\365\320\204\270\270\377\314\355\10"
	.ascii "7\300"
	.ascii "5\244\11C\204\233I.@\330\24<,\321k$\231\335\355\201wd\23\334\211$|\177\264\376u\311\274Y\370Rj\301>\232Njx;\235>yLSxe\27\24p\266C\1\255\261\373\347*?~U\305\11\364j\4"
	.ascii "\307\236h\1\\\323I\0W\353\245\361G\4\20^\333k\11\362Rot\224\201h\345\27_T\224A\34e`t\224\353:E\31\244\243\234\213D\331\253\243\14\306\244pDd\375\326\321j\14\346\240\225\337n\372\253r\32\342\307\203>nv\327s\334!\352nJ\264\375.\343\310\327\353\310\1\226\336`>z?\336\245^\0k)\226\203u\346\21\370%opfM\233\364\246/\366K\23"
	.ascii "1\317\373\366\254\7^I\374J\16y\4\374\21%7\206(f\210"
	.ascii "4\201\337\345Z`l6\265\316"
	.ascii "7U\203\2\274Q\1\276W\267\250\7\177\35\207\370\263\33\332 \206\344\241\350\30O\362"
	.ascii "0\236\354\320h\222o\352D\362"
	.ascii "0=\325\366\370\303\356&\232"
	.ascii "8k\331\304\371\246\236"
	.ascii "30e\317\216\266\311\230t\272\22\244o~e\353\246k\224\367p\364\321\311\37\254l\327\251\217@;m\364\360\274?\246\11\216P\317\231\320B\275\226#\324M\305lt\23\323\245Rz\213\317\243\272o\356\202\322\203\35J?\37\253\364[0\267x-\334\212\340\330\23\375\244\270\215\334b\325;\12\255\21b#\307\344\355L\355(|5TZ\315\220\360\341P\330\314\327r\10\37\16\354\217\341F\4d\37u\224\237]\252g\177G\27\246g\311\310\364\312e\314Q~\27\2\251\251\\T\326w\351\265\236&\225\254\231\351\263>\227\2\271\273\13\251\370d\344N\256\210M\345\36\4\322\254\"]\372`\274\227\215\212\256\265\27\245k\272$\272\356e\234\16\272Z\227j\240\373\272\220ceG\216/\306\346x?\2E\350\362$\240\313\313t\335\257\351\232\301t\31\254\320\14-\375\271\225\347k5\332h\354\243GQ\303\347s\334\274\343\361\350~I\306].\243\243e6\206N\246Nw\327\30\16\220\211\27\16D]8\216\350\13\307\340\13Gs\341\350\270mpo\216L\301\34Gg`\3\367\341\235\324\30\223AxY\352\246)\241]\226\331\36\234\212\246\354\310}\322\36~\236=\320\5^gv\360\372\262\214\331e\17\372\361\255\30\267\313\36Bp\354\341Chf\370`\30\33\307wO\346\373!\315\367,\14\300_T\305\35\247\345X%\204`X\10\17w!\341W8a\376Upvl\302\217 p|\302\217\"8\366\374\231"
	.ascii "8\36\325\311\316aq\330\324K\340\324\"\275\255\307F\275\14s\364\313\20/\211O\207\252\356\307\310#\366\234\31\207\326\370\3\374qNe\234J%+A*\212\267\307u*U:\25\12\232\333\241\323\315\32m<\255N\247W\317xv\357\336\241:\266\332\242\205f\353\20\232\315/K\262"
	.ascii "0\310\370\\\32\345Em\35\202\362\272\320=\352'\31\262\345\11a\354\207\362"
	.ascii "4A\277\30\341'\377\212\15\277\35\361^\350\263\237~\306yU\376\377\237\375s\345\5>\373\347\311\360g\377|\311\237\375\307\301\302\271\360OV \222q\355\373>\361\354"
	.ascii "3\223\237+\235"
	.ascii "2e\342\263\223\36\231"
	.ascii "2\365\251\222\250v\311\223\317O\230"
	.ascii "0\340\211\311\223\205m\352\223\23\247\244\224\224L\230\370ti\311\244q\317\224\226\224\300D(\205\247`\2<mj{\311\240[G\336<z\324\15\5}\247\334P0r\322\324\322\347\12&<?\351\211\251\210D\266\341}\307\27<=qR\351\25\5\23\236}\256\0\33S'>S\352\244\337\322\376\7Z\31\352"
	.ascii "9"
	.text
	.section	.gnu.lto__ZN3stk11compression17__huff_compressor6updateEa@8.f4395b3d,"dr0"
	.ascii "x\234\225XipT\307\21\236\236\267\332]\355\241\25\272\265\6$$dq\211\33b\250\24\30\10\225J~\245R\345\374p\271\242P \305$\346\10\22\25\252\22\25OH\10\220\11\210\303"
	.ascii "1\341\260\205\271\304a07\26`\26\354H\30\203"
	.ascii "07\2\231\33\31s#a\211"
	.ascii "5,Jw\317[iwYAL\25\217\231~\323\337t\177\375M\357<4\361\342\237?\200\20;c\205\330\206cxM\200,\253\21\242\320*\245v:A\350"
	.ascii "6\363\276_\10\335\241IS\300\314$\223\204\230m\215P+#\300\254\6fi\251\263\343\"\353\216C\2WY\300\252\354V\31\311\316"
	.ascii "6v\216\4\233"
	.ascii "2\333\300\256\6vp\320\0\34"
	.ascii "2\361\220\206\353\234"
	.ascii "5G\310\337\11Q\352}\224t\317\255F\213\315UlA\273[\331G\270d2/\264E\223\227#Y\241\214\210\226\35fg\242"
	.ascii "5\206\236\216\16\20\243@bd,\233\343\330\34\13q\312\34'\343\331\234\300\346xHP\346\4\25\333Ak\"\0\15D\222\0"
	.ascii "1]j\246\10\263\305\32i\263;\234QnWrt\207\230\330\270\370\204\304$\230n\262+6\243\4<oii\321x\342P\266\37\344#\11e\236\215K\354\231kt]\177\330\260\363V\224\276\370O^)D\243TK`-d\342\242"
	.ascii "3\333\356V:\264n p\374\371\346\307\307\354\267\244WB*M+\27\36^b\246\251"
	.ascii "4\321t\335\256\275km\31\253\364\262\31zYY9\232"
	.ascii "5X\7\32\302A\5\270a=\270\5\232\4l\200\14\202\255n>\2Z\26\303\36\273\377x\271$G\335\263\357K-\311+M\260Q9\366rCwr\213\20\260\11"
	.ascii "2h\355\243b\337"
	.ascii "9\273\271\30c\216V\221\302\247`F\271X|R\370\360\265\204-\267v\354ri\277dd\317\315\313\307\315\351+u}\306\225\312U{\241L/\237Q\246\267\264\14\7\257"
	.ascii "4\303\346\340\340\214\254\267@::\326\337\272V\345\324~\313 3w}6\337\242@\276\271>\317\252\37./\276\322\322\222\342\225\26\370,,\304V\206\230\265aVK\244\366{\206\250.\273]\33\305\20\236\243\345\372\233\305\237\350X\21 \204ma\21\266"
	.ascii "3\202\257\372\343Z\263\366"
	.ascii "6#\254\257\337q\334\256\20\276\13F\330\21\26a'#,(m\370\217S\373\243*^\371\314\212H\225\306\321\220"
	.ascii "4v\205\205\330\15\351[b<H\327\366\272\5\25\275\345o\200\311\221\214\255\361\323\304O;\26\310\352\244*\271\360\21\31\215\17[\34M\343\351\221\4T\361d\34\332\251\222\216\216@\245\354D\303\316\354\236B\257Ri\336\205FilL\247aW2f\320\350u\32e\322\243;>d\17z\364\244\27\275\310\226E\243\336\364\350\303Q\367%c?\232\367g*\7\320p \327e\20\275\32L\363"
	.ascii "7\10c\10=\206\322t\30\275\30N\243\21d\33I\217Q4\35\315\361\210\333\22"
	.ascii "4qG\2\21#\244x\200#x,I\200"
	.ascii "7\360\321C\334\304q\17\355\2\314h*=\273\354\254\31\371\376dQm\261U\313e\356\313\257\256\331jR\325{Zd:\254\33\314\233aO8\346\321\241\345\342\345\3\232"
	.ascii "6\211\235\353j}\325\232Q\270\242EA\205\253l\307\375\340"
	.ascii "5\317b\227\366wv\337sd\305\356\360\312\331\327\216w\300\31\363IM\35,\370\34\322\251\374D\"qJ\244\20\327\260\27\377\356G\202\350\34\"7_\200\271Y\332\21\344\243S\363"
	.ascii "6\313\202\247\372l\335\352\225N\37\266\10\202\276|\343\370\11+\265\14"
	.ascii "3O+\12\213\227\303\12XV\250\353W*\257\377\5u\4\7\240\0<\24\15\34\304"
	.ascii "7\342\14\24\237\327\332P\13\327\356\235k!\377(\\p\310\10\372&\266\25\207V\7\305\335\324Bg\350\366\256F*\34|\11\5\342\325\221"
	.ascii "9y\372\323\252\17\234*0\\\24\15_aT\377\245\355\350\325\334\312\252H\364'o\250\302 iW\1\325P\340\225\35(\340Z#`'\244\373\3"
	.ascii "4\11\23\6h\330]\241A\304"
	.ascii "4\222\222\340"
	.ascii "0\306\347\225\261\365\24\354M\354y&\322\323I\263r\212F?\201\363\205\274\35\365\224\235M\25f?B\234O\252\332\265\22\24\307\323\362}u\337Ak\36"
	.ascii "6\370\32\363"
	.ascii "8\302\354~\203fD\25~\332^`&\276\21i\25p\364e\244\205\260t\254=\226jZY:N,%0'f<0ga\206\276\302F\257H`\324"
	.ascii "5\237V\235"
	.ascii "3\247\310\25\372\222T\257L$\240\343\327}\25\264\363\22\202J\202o!\5\243:\201Q\221\357\"\27\373\252\246}b\351\332\"\27\213\13\17\347I\214\203V\374\30\33\260\242\376\373\217\326\360/\226"
	.ascii "5\217\240\33\237\225\324\266&e\206SL\314i\5\35\355\377)\10\273\350\14.\"i\26"
	.ascii "5d\32\345\10\27&\232\233g>\234c\243\35\223\35"
	.ascii "4]\372\341\373\237:\210\261"
	.ascii "2Zf\205\263\310\330"
	.ascii "9\203\261k\13"
	.ascii "7\265\2\230\341<\251_@-.8\331\252s\213"
	.ascii "03e\336\304\200\244\302\22t\1\3$\17\253\"Ye\323\214\312\"\11\255|fQ\242\212\13\325\221\333G\342\13\324\221;\214\216\"\340\"\206U\307L\220\31A\213\26\32:\215GT\350\352\346}\256\252}\332\335$\24\365R+\352eVg<\252"
	.ascii "3)\254"
	.ascii "8_k$\5\302\25%\316\247\363\347\255\264\246\374C\211\246#Y\226\255j\\\26\351\347\244\23\\\205\24%\277kP\320\314\267\204=\276'_XS\266\202\362\351\314\367\227+s\16\270\374>)p\335\357s\3\12\360\355\222\312-\245LH\304\333\2n\202\33\243\363\312TJs\327\243\33\13\372\251\344\223\3\33I\27\316\261\264p\365\3\13\345\30\355\225i\315X\237z\243\334\213N/^\340\310\332\250s\356v\370\36"
	.ascii "3n\340\253\27\334\202,\302m\262)P7.\336]6\273D#P\373\23\27"
	.ascii "9_,;\266\237N\36\365q\334\26~`\326n\33\35\263\246(\252\315\265\352\353\325\317\370\322f\301K\340p\1w\224\232\352\1\332Wm\250L\357\266+\323{J\246\367\241\300\334\36\36<\200\2\313\246\335\17\373\240\34#U\243\366,\252\276\13a\13\233\336\210\215O\300C,,\222\345\225]Y\305"
	.ascii "6\365\333ziV\375\362\13\206\316:5c\245Iw%G;*Kg4\"\\\323\221"
	.ascii "5;\234*_\274\245<\342"
	.ascii "6 \371\270\354\247\23\320\231\1\355\342\224\320\220\203\321h\260\341NZB\335\231ihw\210\315\26P\347\205W\233D\320\204\252\275\365\336\202\10\265a\312\317(o\3\227\227\257\17\215\\\336\242\177\33\211\244\"0\256_}\342\362\11\256\260\5oU\217\201\16P\321\22cI\27\334\253Y\211\255\251\364\264T\306\264@\255\331y\317\235O>\276g\364cOwVF\27\370\221\225\321De\242\316\361V\33\23i\252\203"
	.ascii "5\316\213h\3\254\255\336"
	.ascii "4\323\354\27K\13\266\321f\277ZL\315r\264\35\317dZ2 ONQl\321\2\250IS\324<>h`\245\377\14j\236\264)\337\33LMW\4\16\345\"\3\301\361M\340\1y= uu 2\214\264\177\362"
	.ascii "7\247\222g\6k\231jy\353O\205\5s|\12\356\240_\326@\32{\5\341=\343\266\224ILzj\253\271?\320\5\310o\272"
	.ascii "8+\236M;\25%$\264(\201\337j\6Sl\226F<\6Q\335\321B\337"
	.ascii "8\1Y\367@+_\310\2\262\356\311Y\367\10\314\272\327\13Y\367"
	.ascii "4\242\364\265\266\201\204\326\244{\251"
	.ascii "*J\214\313Y\21\201;\270\357\356\317\307\273\253[\340w,\334\304\273EhAY\34w\346\33qJ\225\20]w\223\305E3zD\213n/8\324\24\255\217"
	.ascii "3\326ct\233\227"
	.ascii "6\314W\222~\216'\361y\353\257X\7\21G\236\236\17K]\241t\305\264\202\262QS\262\252\272fD\221\365"
	.ascii "3d\325\302\262\342OD]f\5\222\331\33\201\374\22*\365\13\243OH\341{3\245\275\15J\13\245q~\262"
	.ascii "9\342\335\24\\\37\256\371\262#A2\240:\226"
	.ascii "4U\374S\201\366\305\24B\5\334\217K\331\327\330\335\270\22\366\17\331}\30\357\336\317\330}\206\177\367\351\274\325v\332\252?c\226<\257xG!\14\340\244\372\6'50lR\3\14\330\242\340\244\266\22\354@\243\341\31\31r:g\327\377N\301\15BSh:\203\271"
	.ascii "7\15R\277\367\211aNP7\336s\260\261g\261\244\23\244\221X\216\25=X\34\321F\276\247\322\267H\265\36\37\252e\246"
	.ascii "4\372\216\206Z\212\246\276\323a\337\11\352\320\261(\36>A\227\326\177k\204\360\6\205\25|\206\206\240"
	.ascii "5\364\14\15\345H\207\250H\317\205;\354\25\32\307:\324\210\265\304\210\225\204\31\207\302$\307\255"
	.ascii "5\15\21a<;\6\251e\26;\16\344\235\36\325"
	.ascii "4X^\331Wf\263C\177\203{\243\20\314}\325\6\203\373ah\12\345~8g4\354U\334\17"
	.ascii "7v\231\303\273\244)\356\327}`p?\320\317"
	.ascii "5f\31\357'\367+\267z9\202\336\7S;\22\255\241\324\216\342@F\276\232\332QF(\245F(\264i\202\237\332"
	.ascii "3/\241\326\257\331\367\331\261\217\242\366\314K\250\365\237\235\271\262\255e_4\32\316~\325[h\363D\274Y\\\202B\317\336j>\211\212\206$!\264\363P\30-\350\13\37\257+\25\347\357\237w\267\367\221D_\275\377\222\377\377G\322<\331\316G\322|\351\377H*\223\374\221t\3tT\3\367\\\20=\260\223e\214\235"
	.ascii "4a\362\224\234\274\274\361\223&\276\223\227\377\327\354\200y\366\273Sss{\217\235<Y\230\362\337\35\237\27"
	.ascii "5f\332\270"
	.ascii "1\371c\262\247N\34;i\\\316"
	.ascii "8gvv\356\370\367r\262'\216\231\220\223\235m\311\303\365"
	.ascii "9\323\376l\311\235\362"
	.ascii "7\372W\243"
	.ascii "1\331\306N\235b5Vf\363K4h\370w\320\257F\217|\353\327CS3\362\206\246\216\236\230\237"
	.ascii "3%5\27\201\363q[\262\275\231"
	.ascii "1.\365\275\361\23sz\245\346N\232\222\212\223\374\361\23rl\364\37%\377\3Ex\36v"
	.text
	.section	.gnu.lto__ZN3stk11compression17__huff_compressor6encodeEPaaa@16.f4395b3d,"dr0"
	.ascii "x\234\225W{PT\327\31?\337\271\313\356\335'h\242\"\212\254\2b\214X\247"
	.ascii "3MS\377\351c\232I\377\354t\246\375\253"
	.ascii "3[\"8a\252H\1;\375\207\311\345\215J,\22"
	.ascii "54\276P\243!\25P,\370\202\350\212\21\215(\26\243\2\201 &@\210\22\321,\262\254\274\372}\347\334\335\254\270\264Sf\270\334\363\235\357\371\373~\337\271\7\205\275\370S\213\277U\16\306\256\340_\10g\300K[\31\313Q9Wn\317g\232\305\330\370S\246\331\24n\10Z\31\270\235\261b5Lj\206\201Q\276\30\271\251\333\212Jj]\23C-\23\250R\256\202Y\276\230\271\245"
	.ascii "8\1\25\254\364\264Y\300*\305V\356(\301\350\232\305\226oB\271C\252\377\322\6@\177\231\235\1{\207+\206"
	.ascii "0\243I5[\254\16\233\35\336\341f\231\374\267\374\11\207G;\332\32\324\204#\232\246=nj\37\231\267}\347\237|\234"
	.ascii "1\17g\260*\12^\211\242\272\216B\2*\336"
	.ascii "99t\316\246\254\0\206\357gkFnX\7\271\217\203\223\226\347\312\256\226\33i\311\15\264\374\350T\303QK\374a\255"
	.ascii "4W+-\255@\261\2\37\201B.+!\12>\206(\206\"\6\377\204xT.\272|\376SP\22\205\333\317N\14_\263\241\241\226\353>\233g\370\215\217\33\340\330LC\3\203*ax\351\341\323\327\225\327\205\335\330\261\253\315v\12\250\271\37\\R\"}<\14\252\245\235\254\301\307\215\14j\204\325\235+\336k\240\274)\314n<\32\331\313\245\331\201\313\322\354\370\13f' \236t\237\344O\266[\215\371\10S\4\201\203\250\324\202\21\30"
	.ascii "3Mr6\211\333\34\216\17\326\235\12W\376 <\273\373\357\335"
	.ascii "4\306\36\304Bz/\\n\200R\255\"\267T\233\236\376"
	.ascii "9\370\270\11N>_\222\374\201\177A,\32\356>}-WU\222\205\223\272\336\17\267[\311\211\326{\255`\233\252]\255\310\357\235\236\216\361q\25\352B\272\250\27.J\206\267\274\254\374Ex\330\353}\327\13\302CEK\201!\310\376TH\373\323\302~\377\266\203"
	.ascii "5f\345\257\302\301\256\273\367\232\244\203\336\353\375[MZ\271\337\5\203"
	.ascii "3\301H\351\16\316\12\7\37w?u;\24\15\204\207K\357\266\265\332\320\203[\353\35\354/\304\"\264@\22\347B&\321\0\261\307\347\272\21,OO\331\340Z\376c\20\320pQ\235\"\236\6\221i\230\10\247b\223\314\26\352\224\15\37\26;>\254sh9\227\36\363\200H6\37_m\13\200:\31\211\257|!=\250\273|\21\355,\306\207=Zx^BF1\370p8E\214\245\"\306"
	.ascii "2R\210\245G\34\351\307\323\333r\241\237@\372+i\375*\20\277V\341kx\"\11W\3\261t\215\260g\17"
	.ascii "8\17c\354!\27\264aLa\303\34\30\37\21k\326\207O\234\334~\\\345\233\224/ wt\353\324\261\16#Bw\350\275\316|U)\222"
	.ascii "8V\334?Rk\20\214rO\344\31\2(\232\240"
	.ascii "1\24\212\317\23v\222+\222\245\360\11\304\22\232\224;\325G\331\21\340\202\314\230\333y0z\271J\34\370|{\15\317\36\327\212"
	.ascii "5\325\307\321\336 \\\336\353\273\331\246\322\230\233\304\262"
	.ascii "2'\177/\354\203=9\232\346\256R\260\17p\1\262\301MI\300E\334`w \277C\371\301i\316\321\206\22\23\231\317A\205&=\327~<\11\12\270\322\15\371+\244\246ef\370\271\36D\213\301%\310f\377;\263\10\261|vx\227]&\206J/\301\247\230\326e\212G[%\347\232\315hO\326\320\214YRT\6W \333\307_\246\214;\365\214-\20\353\317\320\300\256"
	.ascii "3\314P\337\260\315\314b\236\207:\11W1A\37\237?@\331\366c\303\321\6\273y\313(\255\354h\310p]&\2\242\213+\365\243\225F\277\213\5\223\\v-\200\321\2\261\254h\354\376\22\2\225X\341"
	.ascii "3\254\344\232\0\270\5\305\350\225\371\201{\1\233H\17\"\313\340\372\177\203m\6N7f\303\251"
	.ascii "5\200\323M\302i\241@\305H|\275\13\271\332\1\13\355\21\267\350"
	.ascii "8\37on7\306\360}Z\271\323\207C\206\222\233_OVR\350r\362\265\10\376\15"
	.ascii "1\230V\33\246E\266\273\302\205\255<\374\332>8\232\27.\370\205C\177\13\23!\15\357KA\32\3\337\354?\">4\346Lr\355\231(\354\14Te\202\317\5"
	.ascii "2\267\245\353\10\377\221\32R\351\16*\21=\363F\23\364~\204J\23\305\336\202\307[,\24q\261\215\226\37\274\277\255\332F\220\225\222\232\31\356\"d\355:d_\225U\5\34\230\240\203&\200A'*\334\12p\335\304\212@`6\276 \250\252\220\10}\201\31\222\211\252\303,\353\361\"\273\210E\367'L\222WsfR)z\222\10\30L\245\350\20T2B\27&\326-\260 1:\315+\323\251:\27\275B\\\224\210sp\322\24\212\257\201 3\275\366\4\274\336\23\4\235\213\4\215\14\311\317%\36\"!\364J~\216\377}\373A5\246\24$obH\264\347\260g\217\331\217\212\23\356C\214\244\340W\220\355\25\37\334"
	.ascii "3\223c\347\325\230f\335f\251\270y\364n\271\20\356\267Y\6_\373m\372 \33w\373v\364\216\212S\302x\0\11\326\17Q\230\237\217\307R\241\247j\373\17\375L\226??\370<\211\23Un\315\371p\330DUF\370x\274\227\317\203\1\275\345\357\335\336\271\303\226xL\23\325\333\340\33\254\371{q\252\303 $\222\337\36\275M\221^\234\350 \214\27\242\10\355\313:\317|\"z\304\247\361\333\366-\20\350y\273u\35Lo\241"
	.ascii "8\323QV\256\313\26a~\270C\256G-R\264"
	.ascii "88_\233H\253~\354\300w4\330x\335X\216"
	.ascii "6\360@t\344\241\354s \247h\264\305I\341\202\211\365\304\255h\32\34\367\373-\321BD\37\210X1\204\356\177\264\10 \365\17| \32\25:D\276\7\0f\37\241\231"
	.ascii "3\363\335\254"
	.ascii "3\363H\316\314"
	.ascii "0d\33g\363\7\217!\333"
	.ascii "4\321>\362#\34\15"
	.ascii "3\303+\256>\33g)\377"
	.ascii "0}\360O\323\302\240/De\234@\354.l\256\376\235\254}\11\356K\216\347\215\25\216\30\244"
	.ascii "0\6\365\210\351\373\6O\32\250<\7\262\344\211\304\177\244\260O\357\200S\30\307\4\200\23\261\234\242\267\205\255\325\277\225JK1\227\340\3\15?\373\360\275"
	.ascii "8\320\270\37GT\242\23\250"
	.ascii "5\357\341\356"
	.ascii "0iD\261w4_\274k'\13u\12/8\36yp\14\0\307\336\250U\235\225\16/_\356h\354\252\343\3`\300\336\250\215\235C8dNGI\327\11e\0\302\250\31\352\365\316\11\224-u\354\355\252\0\4\311\302\212\23\10#w}\313\227\340o\265\374\266\365sk\20\202\2'E\20\244\250\247\272\34dR\313\244,@J\324Y\26|\343\267\343ml\344y\216\306\11\216\306\6s4\376\5R\306\351\244|\352'e\321\220\336\5\334\214\177\236\226\313\305w9\257a\267\376\5^\216\336.<\333\237\37&fy\12'g\324\17\224\202"
	.ascii "0\232\1\313\263Tu\15\331\361r\345`\370\337\21\364\343`\310\333UO\321Tu\272t\223@3\331\15\5Zf\310\3*\301C\267"
	.ascii "6\360\342\1\205#\217\352>\276B\234\211\265#M\242cts\222\255G\257\255"
	.ascii "5;\365\362WRg\203\306l\225\227\277\32\274ND\21\206-\327\36\277\25"
	.ascii "2\356+\36Nw\261"
	.ascii "1\21w5\352\243\302\340H\367~\5\25\304"
	.ascii "9\263\222\2\313s\315\207\243\24\213\347\304J\237\214QV\373"
	.ascii "\364\220\16\322\32\231FSG W\364\243]\354\364\32_\253\323\212\261\11*\203g\360\32\353\1\275\323k\4#\360\177S\245\3r\"\30]O\361rQ9v\374~\324l\27\14\274\7\302\370\377q\301\230\230\355\202"
	.ascii "1\31\270`L\311\13F\37\340\377Y\\\\\217\1;\207o\361\353"
	.ascii "6mL\317H\311\314L\335\224\366\307\314\254?\273\202\326\256\267"
	.ascii "7\257_\277z]z:3d\275\235\232iI\302\315\344\24WzV\206\343\207W\327[\251Y\216\244\277%'e%\271"
	.ascii "6\247\221"
	.ascii "4\331\356r\255O\335\220\342JK\332\230\342r\331\326m\316\310HI\313r\245\341\236\201\24\314\302\26\355"
	.ascii "2\215\30i\363\206,U7p\375\344\327o\374\352\367o\256u\306g\256u\276\221\226\225\222\341\\\217>\263"
	.ascii "0\27\222\375\">\331\271!5-e\225s\375\246\14'.\262R7\246X\350\362\377\37\243:R\261"
	.text
	.section	.gnu.lto__ZN3stk11compression17__huff_compressor6decodeEPaPKaa@16.f4395b3d,"dr0"
	.ascii "x\234\225W}PT\327\25\277\347\276e\367\355\262\273 \211\210heqA>\224:\235i\322N\246\235\264\235f\222?\373O\247\377dfC\24&L\25\31\300\266\177\224\361\361)Fj\210\321\204\361#\301\30\15V\304/P>\14\22\25"
	.ascii "0F\260~\203!\202\6\320D\23\305%,\33Y\350"
	.ascii "9\367\276]\26\262\264\223\235\331\267\357\336w\316\357\236\363;\277s\337]\205\375\370s\24\277\361\21\214]\304_\210`\300+\273\31+T9W\256E3\315b<\365+\246Y\25n\10\32\31\270\215\261r5LZ\206\201Q\336\30\271\251/\34\215\324\372"
	.ascii "3\14\255L\240\312y\25\314\362\306\314-\345Ih\20NW\253\5\302\345t8\267Wt\242\207\305Zb\302y\273"
	.ascii "4\377\275\25\200~\231\215\1\333\300\25C\230\321\244\232-\341v\253\15"
	.ascii "6p\263\14\376k>\302\341\273\267/\267\250I\373"
	.ascii "4M{|\367\313\211\371[\266\275\346\345\214\271"
	.ascii "9\203\25\261\220\22Ky\355\207$4\274~\354a\263UI\6\206\367Mu\243]\341\367\271\227\203\203\206\315[\317W\31i\310\15"
	.ascii "4\374\370D\313~K\342^\255\262H\253\254\254\306i\5>\6\205 k \26\16@,\303)\6\377\206D4n|\357\314\204AI\23\260\255\235"
	.ascii "7\307\315\350\250\25\265"
	.ascii "5\25\33^\361r\3\34\234\355h`P+\34"
	.ascii "7\266\267\236\3\345\267\302\361\263#\217.X\245\343\270p\14\203C\263\35\303\30\324\11\307\263\17\276\377\265\362\212\360\33?x\276\303F\221jm\7\332\225\30/7\302a\351'\223\367r\23\203#\220H\266#%\276\233\341\306\22$*\222\350A^\216\202\21\30"
	.ascii "3\371"
	.ascii "8\363\341c\16\207\357\327\237\210P\376\"\220\333\206\372/\31\235{0\242\1o{\13Tj\325E\225\332\324\324\213\340\345*\34\233\31\233\374\300qp\242\343\273'/\24\251J\206\0\251\37\370hK8\201h\3\23\245\233U\355|u\311\300\324T\234\227\233\241>$D\203\200\250x\264\351Y%W \354\362\374\313\3\2\241\332Wj\10\362?\21\322\377\244\360\177\177\363\236:\263\362w\1\320}\304=n\222\0\223"
	.ascii "3\0\32C\2"
	.ascii "4\11\200\376\252C5\240\24\202@\330v\256\363"
	.ascii "4\205\320\246\15\224\337+\303$\264\0FsH\214\26p\36\216jC\262\334\236\255\367S\225_\200\240\206\213\354\24q5\210H\303\304r*\26\311b\241JY\361\22n\303\213u\36\15\243\350"
	.ascii "2\37Hf\321xk[\200\27{\214\360_\10TT*o\304\"\262Z\14$\215%\2"
	.ascii "5\16'\"\35\302,^L,\25\313"
	.ascii "8\11\"\201 \22\351\262\214\206It\227,LS\304"
	.ascii "5\25'\346-\7\22h\32\341\256d\324K\337p\324\36{\300\205f\30S\330#\16\214\217\212"
	.ascii "1\33\304+6\356\20\216JL\312-(\32{\263\373p\217\21y\373\360\235\336\22U\251\220$V\337\331w\324 \344\324"
	.ascii "6Ql\10P\250\302\251P\24\316T\253\217+R\242\360\11"
	.ascii "8\211J\12\225"
	.ascii "2\243\274\210m\241d\214\255\25\214\36\256\222\0\256n\251\343\5O\265rM\365\362(\37\366\34A\366\17^\272\254R\227\253bXSX\262\13v\303\316BMk\253U\260\10p\32\12\240\215\202\200O\361\1\273\16%=\312"
	.ascii "4h\341\376\226\12\23\271\317C\203"
	.ascii "3z\254C\270\21\224r\245\17J\222\245\245e\366\362\317\270\221-\6g\241\200\375\377\310\242\304\360\207\275\333m204z\26\316aX\355\264\36=\252h\356"
	.ascii "0\243?yC\7FI\253"
	.ascii "2\350\204\2/\237O\21\367\352\21[\300\351\217\320\200\273;F\250?\260\316\216\"\332M\225\204\363\30\240\227/\30\246h\207\260\340\350\203\325\274b\224^6td8\336*\26D\210\316\206\261\32\243\37\"\306\307e\325\2\34\305\210a\365\251\276/!\220\211\25>\303L.\10\202?\307iDe~\342~\304\315B72\313\340\342\377\242m\26O]s\361\324\35\340\351\22\361\24+X1\222^o@\221\366\201\205\236\221\266hS~\332q\323\30\307wkU\16/_DH\227\276\362\325\320\322U\204\265\30\376\3q\30\326e\14\213|\267G\10_\271\363]\336\261\277"
	.ascii "8B\350\13;\376\12\6B\26\236g\202,\206\357\275\277O\274g,y\4\355\236(\353\15d\245\302U\301\314"
	.ascii "5\11\35\351\337OC\32]G#\222g\361X\222^\217Pa\342\264\247\364\361&\13\255\370"
	.ascii "3+\15w\274\267\371\220\225(\253$3\13\334@\312n\352\224\335\335Z\33\0P\241\207:\200A/\32\\\11h\335\304"
	.ascii "6\202\340\354\351\202\240\254B2t\13#$\27U\247Y\346\343Au\221\212\356L\230\244\256\346\315\226\322\22\37\11"
	.ascii "0XJKBH\311\4_``}\202\13\232F\320\342\255\272T\243\20\25\22b\305:{|\246Pz\15,2\33\365v\0\265_\10"
	.ascii "4\12\5\32\23R\237qn\22!\14H}>}k\313\36"
	.ascii "5n;H\335\210"
	.ascii "3\305\316\275\356\235f?+\361p\7\342\244\4\357B\201G\274m\33}\343\255j\334\347\272\317Rq\360\30\330t:\302\357\343\204\257\374>\203P\200O\275\325\7\356\205\21#\246&\24\330\20\304b|^\236@\211\236"
	.ascii "8:y\345"
	.ascii "9\231~t\360~\222(\262|\263\360\243G&\312"
	.ascii "2\322\313\227y\370|\30\326K\376\316\265mo[\323\16j\"{\33\334\303\234\237\210]\35\356C\32\341\216Y$\350\2"
	.ascii "4>YY^\246\20\250m<\202\234\277\250\354\372\204\332\17O\4I\270,|-x\373FV\243\350\266^\340\30tF=s\241\227\6R@\14\311\273\315\267"
	.ascii "9AL\321\26\356\24\305\272\275\261\273q\22\244\27\246\266"
	.ascii "0\30e\21Na)\252\264\312\327CV#\331M\257(x \253\361\270}_\235\35\37\211\264R\350\15!i|\210\325u\"\364b\4D\263\207\307J\266qJ(\25\337\252\337B\254\227/\27\242"
	.ascii "9\332~6L.\273D\274]\374\321\237\244\350Q\215\303\0s7\334\354\16\373n\316\16{$;\354"
	.ascii "1\24\30\347\302\203\21(0\355\352\37]\211\215dfx\36\326;\251\211\"\11\323\267\11\21\226A\37\10\206"
	.ascii "9\265\303x\331X\343\337d\32q\370\234Z`\367\375c\6\312"
	.ascii "7\22\345\363\4\210\364\342\321\262\213z\256\16a\307g\326\312A6\267\313&\33\177#\215\342\21\211zk\6%\361\242\373\312:\232\376$\215\226bl\301\333\241\31\227s\303\264\223\210~)\355_\335\305\367v\371\227G\217\272\35O\336\22\12"
	.ascii "3O\342"
	.ascii "9iTn;\303\300Q3\352\305\376z|\7%\333O\271\217\360a0`!\324\332\221#\330\242\361\366\211\221\177\14C\30VV}\330_\215\306K\355\25\356j@\312,\254<\211\30kk\350\216\366\347$_\213C<<\210N\221\252\"\372h\244\353\270Y\6\344\374\11\215\363\375t\343\214\311\306\361\13"
	.ascii "7A\2\27\277\253oN\211"
	.ascii "8\25\374\207\303\216GA\217,E\225n\202\13a8\211\301\355\227\24\334\323"
	.ascii "6\21A\303\370\7\337Nw\337"
	.ascii "2\30\27\335\347\365w\337\306A\203tMF\357\231"
	.ascii "5M&\346\273\212\217\357\322\17\4\311\323L+X\7\363\303\221A\216,Yj\335\365\200\307;;\303\277g0\204\257\177q\276\303BO6\335\320\333"
	.ascii "4\5\275"
	.ascii "1\226\253\327>\254\25/\31s\341\304\224\374\300\6\370!\250\344b\341\24\212\254gcG\363m\335=U\237\13\34*\2"
	.ascii "9\32f\344H"
	.ascii "'\264\27\361$\352\341\313\341\251\310sB\354\316\251\372\266\321\374O\211\227FS}P\252m\10\271I\254ps:%\372p\223\300Z\242\271\227\247\311\220n4\377R\"\254$a\336\202"
	.ascii "3=B\225\324\375\10\242}\332\353"
	.ascii "1>_\257\225#\327f\6\223\360<\303\14t\7!&,\211\322\3\205\221\214\16\305x\244\251il\275\23;\327\261\306\204"
	.ascii "1L\375\204c\215\306\347"
	.ascii "8\326\24r\377\261\246\210\213c\315 \340_;.\16\345\200\325\302\273\304U\353\326\346\344f\344\345e\255\313~5/\377\257\256\240\261\353\215\365\231\231?_\225\223\303\14\371od\345E\244\257\311Y\235\236\237\356Z\237\275j\335\352\214\325\226t\27\375\272r\362s\355\323\267\256\327\263\362m.Wf\326\232\14Wv\372\332\14\227\313\272j}nnFv\276+\33M\14dg\26\306h\230g\311\312\316Y\237\357\"XUwr=\367\307\227\376\360\347\227_p$\346\275\340x);?#\327\221\211+\346c@4\367\273\304\325\216"
	.ascii "5Y\331\31+\34\231\353r\35"
	.ascii "8\310\317Z\233a\241\377\35\377\5\310!\203\211"
	.text
	.section	.gnu.lto_.symbol_nodes.f4395b3d,"dr0"
	.ascii "x\234U\220\315k\324P\24\305or{\322L\332\314\233"
	.ascii "6B\26Y\324j?6\376I]u\351\322\177\340\16\22\212 L\335\273\230\266\216Z\277[+~\340\7\25\207\266(\216\33\21\334T(\263S\24\301m\241/\367%\222ds\316\11\347w\336\343"
	.ascii "1\21\255"
	.ascii "0\271\317\277\15!\272"
	.ascii "1\"\22\241\336FH\270\5\332\360\205\361\6\223\252o\21\26\352\275\206x\256H\335k!\371w ~\5\256u[\344oC\270\261t\27\236.\354\243\245\372\36Q\241\376&d\242Q\354\303\327\302\36\246T\237cZ\213[\20"
	.ascii "4\216\330\201\4\15\362\11X\211\317\210UGh+y\37"
	.ascii "2\331(\336\303\204\26>\300\250\16\321\321\342CH\330(>\0\264p\200\31\325C\314j\361"
	.ascii "1\244\325(>B\240\205\217HT?\341\234\276\323;HT\275S7$\357\5d\252\236\237A\246\353\371)$\256\347]H\273\236_AL=\277\204t\352\371\13d\246\236\217 \263\265\314t\221\306\333KL\27h\260\33"
	.ascii "3\315S\276\366\315c:O\371\365_sLs4,5\357\225\271\320\300Q\201\245"
	.ascii "6c\16\12\352\253\307\201R\375\16\7\13"
	.ascii "4\274\314\221+En:*\247\243\252\24-\322\240"
	.ascii "2\343\377\177zj\2:q\306\16\31"
	.ascii "6v\350\337%6v\350\264\315\306\16\35\374\361\330TCf\211\362\237\373\337\377\316\27n\374\333"
	.ascii "9\13\12'\5\270\310I\1\306\234\24\340\17\217\223\12L\14]\35\35\347\366\217m_\341\324\335"
	.ascii "7u\367M\313\373\246U;M\350\344\246\232e\312\373j\26h\260\312\231\303"
	.ascii "2\207e%\226UXf\333\353j\22\332R,\263\247\255\322\31hY\355\230"
	.text
	.section	.gnu.lto_.refs.f4395b3d,"dr0"
	.ascii "x\234%\311\313\21\302"
	.ascii "0\20\4\321\231Y`e\213\217d\11#\214q\376WB\200\20\10\201@(\\E\37_\33\200\7\376"
	.ascii "9@\212F\271\30`\231V\264\1\267\266\276\35|ucpy@\227\331\25\371\33\336#R\321\270w\305\200C\346\241(.<Z\17?!Q\311\230])`\310\34\212\322\27^P\251j<\273j\300\230"
	.ascii "9\26\325\17\374\202F5\343\325\325\2\246\314\251\250=\341"
	.ascii "7\314\324l\274\273\346\200%s)\232_\300\17\13N\12\216"
	.text
	.section	.gnu.lto_.decls.f4395b3d,"dr0"
	.ascii "x\234\275Y\13TTG\232\356\352j\350\246\273\201"
	.ascii "1\32\315z\346\34\35\223\270q\223h4\304\230\331$Cb\234\344\230s\222\354\314d\316\236\234\335\355!\330\211d\24\34@\223\311\356\231"
	.ascii "4/\1\5\5\221"
	.ascii "7B\243<\5\21\344\15\2\315C\36\2\242\342\373\201\255 \"\"6\1\1\25a\377\252\272\267\373^\350\316\242"
	.ascii "3\331>\374\334\256\272\177}\365\177_\375\365\270}\261D\"\211\220K$S\360)Y\"\221"
	.ascii "8\250%\22\5\324}*a\327B\260\"\260R\260"
	.ascii "2\260\365`\345`\37\201UK\330g.\330M\260\36\260>\260\273`&\260a\260Q0)\222H\324`\13\300\26\201-\3[\1\366"
	.ascii "6\330{`\37\200\255\7\373\35\230\33\330\263\320\306\35\256Z\260\257\301<\300\376\14\266\31\314\13\354[\260\357\301\376\7\354o`~`\1`A`\301`\241`;\301\302\301v\203E\202E!\211\350C\342]\302\361t\2\3\332\222\275\340\23\15\226\315\361$\367\337\5k\343"
	.ascii "8\317\1\213\201\373\363H=\\c\301\336\4{\7\312qp}\31,\31,\5\354\23\250{\17L\217fj\370\2\324]\204\353"
	.ascii "9\260T\370\276\20\14\303\367\363`\27\300N\203\311\271\30"
	.ascii "39\215\336\346"
	.ascii "4[\306i(\223Xt ZeM\343G\306\340y\33\374rmp\374\350g\344\331*a\34/p<\11G{.\316\351\374H>\330I,\343\233\7V\304\345\203\360Cr\354\305Y\216\341'O\301\355\247x\25#\246\327\207\2\216D\303\22(\367\13\270\236\346\370*\270x\247s%yO4\370\200\33S>\227K\271\334\27~F\177\202/\321\327\326\230\376\366g\34\327"
	.ascii "2\370\376)\232\311W\316\305;\235\357\357\4\343\313\317\327r\260Jn\236\13?d\335\260\306\327\11"
	.ascii "1\236B\336\377_y,\34_\236\353\5\216\257\324\312\\\35\225X\370\362\353\322Q\260j\304\326"
	.ascii "4\341\207\254\221\257\300ub\32_\331"
	.ascii "4\316\374\374\235\316\231\314\247\371?#w\242u\15\224\247\340j\200k-\330\177\201!\211%\307\325V4 \272\270\11\306\235_\227\353\300\32\20[\327\205\37\262O,\267\241\203\363,\265\230\317\351"
	.ascii "1\207\323\343\347\320\202\327\200\354\203D\7^\33\304\345\204\202\343"
	.ascii "2]\17"
	.ascii "7N\23^\17~\177:\6\326\204\330\36'\374\14IQs\316\276?ah3$\225\335;5Q\356\210\26.T.\215\323\205\350\306\27\241l\244\224\220\257\206\276\251\251\37\246\330g\267\234V\207\350\340c\214\324\341\347$\350\225\205h\331B\11:\210\226\322[\22\224\205\26\242L\264P\222\6>\21\301\272\367%\244\36e ,\356:16\357\236\235\222C\12\371I$\360\16o\210\274\344\334'EN\312,L\312\273\36\337\15T@Y\255|\203\24\313\363F\332U\364\366bR\254\330\323\34gO\357\312Hq\252\344\374uD\213.\244\270\343Q\356$f=\353\374u\16\315Np\3\345A_\207\241/\11*\240}\277\264\20\345\263\256o\204F\15*\237\211 \336\360o1\242tr\301\375\20u?\202\236\341\33\21\357\203\35\347\322\244B\357\34\233\336\250\20=\3-\6v\356\211\224\253w\220X\270p\240^\20O\21\"\211J\257\204KFu\266\302v\360\305|\360/\321\330\7v\355\253\342b7\372\361\261"
	.ascii "3\235%\250\204\306R\314G\336\323"
	.ascii "6u\333Q\350\233c\303\27\225\322\270{\364{\317\333\211\342.\25\305]\306\305]F\343\16(\13\315Q\210\274\347\11\343.\347\234\313\251\363\321\214\2;<\227\244%\352"
	.ascii "6Dv\253^9\10AA&\236\304\226\374\361\313\250\14\223\303\240~\244\244\305k\211\17\322\34h\221\344\251"
	.ascii "3TI\223o6U)\220ri\210\245S\211\271KT\3iF\332\242\243PS\305\345\253\251u4v\201N'C\325\300\275\2aT\211\310\312I\35i|P\17\235\235\10\17+\301\370+\32\240\336T`R\313\244\22d\240\31\16"
	.ascii "5\371"
	.ascii "59\241\16"
	.ascii "4\31\377D\212cA\246P%\315>5)\356,.:\354\200\275i\333\312[U\273\234p \2\271I12\265+A\205#\370\242\241\364\376a\371\262L\235^g\312\15jt&a}:\37"
	.ascii "5\232\243"
	.ascii "2K1Y\320\235\241b\216\343\351\215\377\314"
	.ascii "9\36\3\307&\264L\350XS=\336\250\304W\20\351\\\272\273\261"
	.ascii "1A\215\226*)\357\366\340\230gI\273V\340\335"
	.ascii "2\223\267u\11\217O\227\20\272(Nk\277\351(\32g\2i\31\350"
	.ascii "66\320\340y\351\354P\235=\316\242\253\17\272\334\333\367\320\21\347\262B]yW\237\35.c\205#\7\322K\230\232\256PT\34\251\17"
	.ascii "09\243\245K\342\221d\351\334\271K\226\320\350\307\323\233~\251\213\224\241\263h.j\200\350\317!\362\354\300]\310\252\13\261\30\263+\14"
	.ascii "2C\3&\21\240\23\314\311B\345%\22[\36\211\20\226q\332\220VAR\350u\306}y:\331s\324\237\200"
	.ascii "7\13"
	.ascii "4\225D\352\14"
	.ascii "0\321\15:W_\11\252\3\260z\2v\12t!\336\340\211\316\300\367\13h\11:\15v\36\14\356\221\320:\21\20\260\332\370\314,\33SN\7\5\234:\254r:I9\21g}\226\336\337\225\363m\267\352\373/\13\331\310\234=\27\337\357 \32C\241\257\4]4\217aow\341\16gH~Z\207\276\240\253mc\306\351q\347\347b\270u\344\27\210\344\"]FP-\222I\320e\364\34\270_\"_\211\314\320\240m\260\325\337\1\37e\303]_0\220\247\304-\\\"t\224\305 \12\377\11\217\236\273\247"
	.ascii "2J\301Wu!Z\267\367v\364Y{Z\267D\211\256\261\272\230\236\310)5\255[\257DFV7X\322<n\267 \332\22\331z\313\2w\3-\200\377\327\221\214\21K\217\352\16S\343"
	.ascii "1\26F^\207iL\266"
	.ascii "8\31R\241\317o\217\332\4\313\13qG\335\334\226f\376\2\256-\17\253\212\245\304"
	.ascii "5\337\224\324\36\263h\227N\357\247\203\365\10Q\336\350\212"
	.ascii "97%\350*i\204z\320b\370\177\23-&\13E\325\335\275\366\370\10\246}\372\5%V\331\343\32V\10\275v\252\23ST\35 \"\3l\310\24\257W\200w\213\217\246\217\202\315\\\226l\217\313m2\30\375"
	.ascii "3\306\245"
	.ascii "7\\w\22\341\273,\204\324\343y\260T\215\263B\377\321]\35$\36\243\336"
	.ascii "8\30\363\226\301_715\205)\4\272#\10i\200\17\351.\15\351\332\265L\27\234/\243\10\27zM\331\30W\261\302DEy\260=\241\247"
	.ascii "7VM\254\1\270\307f\270A\1\334=\36\316D\341\232J[G\234\361\35\6\21U\326tQ\211\307Y\241\345Ti\265\202\342Q\271\364D.\2"
	.ascii "6$\0\373\221\7\33\246`\23q\3\5r\234aG\333\7F\346\206\300@\260\202"
	.ascii "1\250"
	.ascii "2F\305\270\346\335\332#\327e\351@\376\337\260\350F\4\200\367y\300Q\33\372\247\4>2\330\343;\14\265\356fM49\277\314Q\352\270\243\325\24\372\1\352;'O\324#Z\377\3Y\243+\267\17\6\311\314k\364\255\323\363\311\32=\1\13\352\270e\215\236cY\243\247\37\312\36\301\372An\243\7"
	.ascii "0w\37\262\5\372zt\370\22:/\10\14\233S\365"
	.ascii "5\306T\271y\26?f\223%\272\340\221?\266\232.c$G\246h\272L\12\322\245+?\241D\206\177d\374\306\242#n8\343\7\234\236;\37u:Q\11MIw\357\374{\217\237n\257\316"
	.ascii "85\265\210\242 \235\324\"\242\237\224\23\321_"
	.ascii "j]\304\343\271\303F\361aiB\264\275\4J\371\245\311\12\317"
	.ascii "6\377~\223\322\\\27$\245\225\372\344\206\2\7Z\11m\321vVyf\314X\353dV$\230Uv\233\212\353\324BE&\370\3\22\12\0\17\24*%\222\204H-\222d7\24>\220\341\\{\252B{D|\222\3.d\5\303\217~\373\345,\345\217\246GY\262\12"
	.ascii "0\320\16\201 ;yA\302l\10\322R\320c\222Y;F[\33\373\274\373\223\235\342\315y\227T\250\336\356\237R\257%)\274SF\353\300\15E0M\14U\355'\220Y\275HVy:9\374\266\332\254\336\36V\371(\250\362\232\15\365\302\211d{\251zQ\2\365\366\215u\335T\343~&\330Hj\260\237\14\17q\205\234\310x%UO?x\14"
	.ascii "3\355\10\0\212\26H\27\303K\27kC:+\273\213\376\362\304\244\\\270C\230\223>\216\4\226 %\233D\274\224\333$\312\253\242\352d\370\240\234;\257U\367\376\30\347\214\17\363\305\32\303Y\223\222\235\312\356T\31\277\13\320\271\22\264$\351\214SY\374\361\232J\31\356\224Sj\31\347\322b\351r\243"
	.ascii "3\246\224\275U\347\307-\255\320"
	.ascii "3J\204\246\373\244\264)J\346\311\245Prg\317\225\224"
	.ascii "8\341\333\14\342PJQ\212\224"
	.ascii "0\325K9\246\35\21\7\37\211\17\337"
	.ascii "9\242Y\263\337<\356\27\262*\323\330 \323:2\354GKk\234\254J\222J$I\243\222\34\340%\11\10\13\270\354\200\207y\15\342\356\345\357P\343\207|19qpX\306$\231\254I\373+'I\306LI\352\215\203\6\31NUP>\3\3q)j&\311\341|\213$\320"
	.ascii "3J\207\246\231\234$Y\274$\331T\222\332\341\33Q\216\224I\271\371h\222\242\13\216\261\267\306\5\274r(\221\203<\221}\217FW\341r\26@\243\177\321\25%ng\205\244@\343y\262\210\240C\274\272U;\17\5\221\343\201"
	.ascii "1\302\224\24~\372\363\353~{\302t7\350\362\6\230(\227\272\241<\"V.\37\342a\32bZtL\256\35}2P\320c\214\251\354\202\3>\315\272\341\37o\226\260\307\233\7\301\241\201JZ\234"
	.ascii "2\357\27d\203(\33*\257F\374"
	.ascii "3N\204\277n\216_\301/\351\241\17\345Ka\21(\226.\245\10\350\210t!*\224r\17"
	.ascii "9\355M1\257\222\215\244\10&\177\201\324\274\221,Q\232\365\237"
	.ascii "9Y\12Mq\251\242\231A\32\263<(!\324J\251|_p\352\245\226\334\355Q\341\313\12n\334\13\323\37\356@\270\233"
	.ascii "1\13<^\24\342\314?\326l\177\201{Z)\237\231\4\307\32;\6\25\270\217\265\212\352"
	.ascii "8\365\300\211%A\342QK\22@\267\250\14\232VpIP\311+|t\366I 8\5VS\26U|\22\214D\324~\212\375\34l\214\273~2\244\337\301\352\270\3\14\252a\343n \342\324\360Q\325\322\250\202C\22\357\332\343h[\270=\367\322G(\325\10\335\256\10\267\20rz!\211T\307\0\353\11`\35\17\330`cm\33zx'GJ\211W\233\27\360Cu\306\6$$\16\313\36\33\301c\4\263\211ro\344\271\237\314\215Mt\302\231\16\334\20\206\217E\224)\360!\26\263\356V\351ng:\30\260\264\215l\274\351\27\21\306m\350\0\202\232\5\353T\13\37\350\361'\10tO\215\361"
	.ascii "1\246u\277U\243"
	.ascii "6\266}\4\205>\254u\346\27\353vVWi*Yl\225O+\341\323A\371\234\340\371T\214\214\17\330\343z\236OC\367a\223\14"
	.ascii "71>\335G\312\376\233\345Vv\222%\267\0\0\235\24p9\305s9m\203K\354\251\13\245"
	.ascii "2|\335A4\201\347\263\11\274\253"
	.ascii "5\241\26\323\"\233\270\227"
	.ascii "3\215\220\370\334\304\25\237\332.\300\244%\255\320Y\230\264\347\314\223"
	.ascii "6\270\223\376"
	.ascii "2q\36\346\335\31\313\244\235o\231\264\326\244\14\256\277\235\301d#\355.2\335\212\342\367\\\265\343\365\275\304\352\202\273.\205Y\34/\263\312\226;;\227\361\232_aU;\372\257\5\313\254n\7\235D\364.*\372U^t\335\243\306f\204o\363\242\33\207\307n\312\361\20\23(3\364R\272=\237D\306\337\367Z\222\10@\320"
	.ascii "5\201\360F^\370\353T\370\200\252\207\365R\34\251\244(!\335\245\205\352\347Su\6"
	.ascii "8[\36:\277:r\257>\14\304\232\372\315\"\362\373\322\15hh^\14%\264H`\272\245\317\223\307\233\240L\203#>\316`&\203\343\212\20\205\321?\330\237\345\32\247\243\241\20\214\36"
	.ascii "1F\17\207q\223bD%\214\35P\341p\25\305"
	.ascii "8p\"-\321\231a4\213"
	.ascii "1z\305\30\275\34\306-\212a\14\10>\245\302\215\14c 7\242\202\305a,o\272\254\10\12\11\320\321l$(}b\224>\16\345"
	.ascii "6E1e\16\365;\341\35j\212\262\373DF\230\214\241T\34\230\206\322/F\351\347P\356P\224\263\303WN9\341f\206\322\223[v\234\361"
	.ascii "1\326\34\233\206"
	.ascii "2 F\31\340P\356"
	.ascii "2U\322\313\376\206C\35)\310\376\241\234\355\16\234\260\351\201vB\214A1\306 \207q\217bT_?vO\215\333\34m\374\306f9\273\255\347S=&\263s\322\321|\352\374\221\245k\326\325\374_[}\210\31\"\331:B\317\234\303\202"
	.ascii "3\347\255\364\202\213\354Q\337xi\242lq\235\277n\222\256\5\340)\370e\311\262G\355\350{x\332\36\237ea\216\355"
	.ascii "7\351\25\300U\247"
	.ascii "7^\275\224\212\14|\6\274\253B&H\347\373\322\305\2\272\243\34\335"
	.ascii "1Jwo}s\273\12\207"
	.ascii "9\261"
	.ascii "3\340\305\332f\31Nd\205\226K\371\205\216\24\324\320\22 k\346 \201\365"
	.ascii "8\7i9\306= \220\350\5XB\36R\320\211\324\270\307\30_d8\225'\306"
	.ascii "2\355Xp\17Xp\201\302\340\340\21]\20\334#.\270\11\212\223|\264\366\262\12'8S\234]91\267\204\361\4\12\343!(\226x\36\233\343\231\244"
	.ascii "8\331\231\351\331NL\334*&\256\345A\337\232\270G\332F\375"
	.ascii "0\276\301\372\275P3\231\353\314\342o\266\"\356\224H\\\35f\361\373a\322\357\201\302;g\325"
	.ascii "8\376\27\24\247w\242\242InK\317)\221\236\376\230\217?\200\342\344\347\355\316w\300\347\31N\377\275\201&\31\213\247\274)q\236.$\300\300"
	.ascii "2\233\13hT$h \27P\20\5\272\234\322\324\245\302\361s\330\257K\361!=,k\14\307g\10:*\22t\273"
	.ascii "9\240`\212"
	.ascii "3\31r\250X\206o0\234\266\213\255\215\334\0W\34\260\22\220\277H\241\20.\240P\12T2\362\270Q\201\223\237\241@\205gb\372\34l\215\260\277H\241\35\346\200vR\234\334\270\344A9\276\316p\202;+\333\324,\240\232cV\2\12\23\5\24\306\5\24N\201L\3Sg\21\326\263w\0\23\373\12\350\242hU\241"
	.ascii "0Q@\273\314\1\355\246"
	.ascii "85]c\327\34p/\303)k\315\355\305\334\24\260\26P\254(\240\10.\240H\12\324\37W\231\255\306\231\363(P\320\215\353\215*[\1\305\212\2\332c\16(\212\342\34l\337\327`\317?\212\205\330\374m\25\355\305\344E\310\343"
	.ascii "3\207{\305\357X\262E\17n\321\230yGS\357"
	.ascii "3#\267+\305\336\344 j\361\216\341\274c\250wk\311\311(\201\367G\364,mq\216\345\234cm@\347\210\274\343"
	.ascii "8\357"
	.ascii "8\352}\263:5Y\315\336\326I\211^}\246\303%\354}\334\213\364\351\240\373x\253\212\26_\240\303"
	.ascii "26fr\262\375J+\11s\257\264\22"
	.ascii "1\375\21#\250\243\240\306q\372\373\270x"
	.ascii "\274\20%`\342\276\17?\303"
	.ascii "7\242\336\372}&\347\351\357\343\254{\243dL\336k\35\33k\251R\211\250B\275 \236\24\216j\12\245\32TW7\202D\336i\"a\364\234\267\236z\353\217\351?\27J\236 \362M\345|S\251\357\335\366\242e6\236U\367c\341\303VHsw\240\24\337\233\307\35\262\212\15"
	.ascii "7\357c\374\200/&\304\370\27s?C\310\21<5c\301{X\270\235>R\235\256\302\217Y^7\326\304\4\330\221\5:\322\374\344\1]\241\3\30\243t\314\316b\31\\{\224\211\311Yl\177tp5\376U\12"
	.ascii "9\240&\265\307\374\247\237\316UB\177\316f>Y\370Wd\347\271\345\177Q\216\303\237e\253\335\325\372oa\350\327+\11\261q\363\357\236-\235\35'\355h=\251\222\223\23\362\375\373\25\7\271\327w|b\10\336=\35\302K\301\231<\261\303X\346`\376\220|\253\323\211\34\222s\261\22ec\363!y=\377\372\16\352\311#\327\301\262"
	.ascii "0{\32t\210\241N\1\302\322_\250\231G\36\15\331xF\177K\201\243Y\310#}i&\274\224\342\7\23p2\321\17\13e\244\207\357\242\204\11\25\237\304!\342X\363\247\307\12\376\367Zw\216\313p<\353\341QE\341\260\35\316b\205\322\342\236.\262J\305\221\23m\362\263\21:\275\177\204\216\374\300\205\12\200\325\21<}\227-\244+L:\202\343Q\21]b\316u%\367\251\204Y\326$\312\262b.\313\212i\226%]8\322\347(t&\233\261\305\271\204s.\241\316\7o\17\337v\22\13g\342\205+\245\302\235z<\254\227\13\341:D}\227qpe\24.g\177F\217Z\14"
	.ascii "7\312\303\225S\270\230\332\253\341Jlb\302\224L\265\245(\251"
	.ascii "0\372\362`\363\252\313\213\"\336)+,\242TRQnT\247%`q_\260\225\261\276\216\322\276\364\321my\12\\>\237\366\25Y~i\324\231\365U\21"
	.ascii "0\243/\361&Xe\351\253\232\366\325<\224Un/\24aJ\244i\15'B\15\25!:{\242\15\11\235\273D\212\31"
	.ascii "8g\3[\263\217?L\20\377\200K2\335\342]\313y\327R\357#\255\15%J1\347"
	.ascii "0\236s\35\345\334wn\260\330\21O0\316\333\263\356"
	.ascii "6\310\30\347\232\240\31\234\305\373l\275\205s\3\345\\l\12=<-5b\371\276\216\321\276\256\364g%\250p\335\2\332\327\325$}\205\3\353\353\301\314\276\304[h\243\245\257&\374\274D\346\276\321\315[\365\366\227[=6\371\276\352\341\371\256\304\336\307\343{\255\306W\361\341'\237/^\373\362\313\222\367\327\376z\305\277\371\302\337\33\313\337X\376\332\212?xym\362Y\261\331\303\363\353o]\336Z\245y}\325\12\217\325kV\277\372\355j\227Wi%\251\360t\337\264u\203v\205\206V,\337(Qi4>\276\33\334\335"
	.ascii "6m\322h\346h4\33\267~\365\225\306\335k\363\26o\255\217\217\227\267\212\377\352\341\345\211}|\377\374\274\240\374\37\313W,\207\277\25\276\36\233\265+\340\236\206|\1D\221\17\251\27\224)>\370(\266zx\372\276\276J\343\373\364\14 j\300\0,\354\343\345\251\372\312[\373\27\315"
	.ascii "6\267M[\265>x\203\333\6\265F\363\245\233\217V\263\301\327\313{\361\253\232/>y\35\2Y\271R\20\311\312"
	.ascii "7g\220\375`\325\272m\256k\346i4_\177\367\235f\213\326\33p\335"
	.ascii "6y\370\376U\263\355\265\27\377ON\356[\266H\240WR\377\204\275\256$\275*=<=|=\240\273\357\265o\316\262\341\312\327,m\0\302\205\347\354\376$\275\257]\305"
	.ascii "5\245\201?YS\22\270\213\312[\353\356\345\351\343\353\275\325\335w\315l#_)hD@\354a$\327h|\355\267n\331\340\346\253]5K\230\325\314}\235\233\353\32{\255\247\273\327\6\355\352\331\266d\356\353>ssss]\271\332~\203\226\24g\33\376j\346\16\255?\373\230\266\227A\366i\361f\355\346E3\246\7T\322\271\1WH\325g\271\36^\207\242\13i\264\356"
	.ascii "3`\357\0\352\3$L@\373-\336\240\204\17\6q\226\314\200\362\360Z\301"
	.ascii "2\317\323\307k\23\231h\13x4\250Z\315Z\256\373\354c\367\357\347\2\336wn\232\257\267\272yo\320xk7i!+d\360\377+:\353V\273h|\345d\252j6\373\310\310\365"
	.ascii "9\16\306\205\24\336\344\356\300\250\274&\302qs\377\313V\17o\355\34Q\335\227^\336\276v\260tx\271\13\231\275Ak\326}\343\352\202"
	.ascii "7{m\373'\301\235\327\241\14\224?\373x\333"
	.ascii "7\256+W\311\267\262a\227\177\351\341\253\201;\213\4\236oru\340\275\21\334"
	.ascii "7~\343\272\352"
	.ascii "5\30\237\17\377"
	.ascii "8\313I\345\262n\333\272"
	.ascii "5\32\272$iV\276?\373\206\342Ie\201x\202\276\327\212\372^\373\4}\213\247\205\5\343\235\331c\230\347\204\245\265\353\23\264\26\314\213\247\222O<5,\20\12\376\13\314\320\247\31A'\215F\353\351\253\365\326n\240\25\357<\21\312J\27qk\327\331\266\266\225\14\37>%\300\364@f-\206"
	.ascii "8\245f\315~\255"
	.ascii "5\366\357\315:x[\351\370\321\323\"L\17\345_g\13d%\253\337\177\362\266\323\273\177w\326\20V\247\305\272\247j\376\324\311hkj\315:\31\247\1L\17\304\1\276\302\31\13\244\202\203\336\6g\315\27\277\367}\313\\\265M\316\235\327"
	.ascii "0\\\5\223q\223\207\247\366\37"
	.ascii "1\33\10\316?$\255\10\320\337\231\32\4\342\357\37\333'R\346'\206\206\340\374/*\276\376H"
	.text
	.section	.gnu.lto_.symtab.f4395b3d,"dr0"
	.ascii "__ZN3stk11compression17__huff_compressorD2Ev@8\0\0\0\0\0\0\0\0\0\0\0\0\345\0\0\0__ZN3stk11compression17__huff_compressorD1Ev@8\0\0\0\0\0\0\0\0\0\0\0\0\350\0\0\0__ZN3stk11compression17__huff_compressor10initializeEv@4\0\0\0\0\0\0\0\0\0\0\0\0\355\0\0\0__ZN3stk11compression17__huff_compressorC2Ev@4\0\0\0\0\0\0\0\0\0\0\0\0\360\0\0\0__ZN3stk11compression17__huff_compressorC1Ev@4\0\0\0\0\0\0\0\0\0\0\0\0\363\0\0\0__ZN3stk11compression17__huff_compressor11reconstructEv@4\0\0\0\0\0\0\0\0\0\0\0\0\366\0\0\0__ZN3stk11compression17__huff_compressor6updateEa@8\0\0\0\0\0\0\0\0\0\0\0\0\2\1\0\0__ZN3stk11compression17__huff_compressor6encodeEPaaa@16\0\0\0\0\0\0\0\0\0\0\0\0\14\1\0\0__ZN3stk11compression17__huff_compressor6decodeEPaPKaa@16\0\0\0\0\0\0\0\0\0\0\0\0\27\1\0\0___gxx_personality_v0\0\0\2\0\0\0\0\0\0\0\0\0\344\0\0\0__ZN3stk3mem4freeEPv@4\0\0\2\0\0\0\0\0\0\0\0\0\37\1\0\0__ZN3stk3con6printsEPKcz\0\0\2\0\0\0\0\0\0\0\0\0)\1\0\0___cxa_guard_release\0\0\2\0\0\0\0\0\0\0\0\0/\1\0\0__ZN3stk4time7time_msEv@0\0\0\2\0\0\0\0\0\0\0\0\0<\1\0\0___cxa_guard_acquire\0\0\2\0\0\0\0\0\0\0\0\0A\1\0\0___cxa_guard_abort\0\0\2\0\0\0\0\0\0\0\0\0D\1\0\0__ZN3stk3mem5allocEj@4\0\0\2\0\0\0\0\0\0\0\0\0J\1\0\0__ZN3stk3mem3movEPvPKvj@12\0\0\2\0\0\0\0\0\0\0\0\0R\1\0\0__ZN3stk3mem7bit_movEPvhPKvhj@20\0\0\2\0\0\0\0\0\0\0\0\0a\1\0\0"
	.text
	.section	.gnu.lto_.opts,"dr0"
	.ascii "'-fno-trapv' '-dD' '-malign-double' '-momit-leaf-frame-pointer' '-m32' '-mfpmath=sse' '-mpreferred-stack-boundary=8' '-mmmx' '-msse' '-msse2' '-mthreads' '-mtune=generic' '-march=i686' '-g' '-g' '-O3' '-fno-use-linker-plugin' '-fverbose-asm' '-fstrict-aliasing' '-fwrapv' '-funroll-loops' '-flto' '-fexceptions'\0"
	.text
	.section .rdata,"dr"
LC1:
	.ascii "\0"
	.align 4
LC2:
	.ascii "compression\\stk_compression_huff.cpp\0"
	.align 4
LC3:
	.ascii "DEBUG: %s: Enter function: %s@%d line, for %d time\12\0\0"
	.section	.text.unlikely,"x"
	.align 2
LCOLDB5:
	.text
LHOTB5:
	.align 2
	.p2align 4,,15
	.section	.text.unlikely,"x"
Ltext_cold0:
	.text
	.globl	__ZN3stk11compression17__huff_compressorD2Ev@8
	.def	__ZN3stk11compression17__huff_compressorD2Ev@8;	.scl	2;	.type	32;	.endef
__ZN3stk11compression17__huff_compressorD2Ev@8:
LFB706:
	.file 1 "compression/stk_compression_huff.cpp"
	.loc 1 42 0
	.cfi_startproc
	.cfi_personality 0,___gxx_personality_v0
	.cfi_lsda 0,LLSDA706
LVL0:
	pushl	%ebp	 #
	.cfi_def_cfa_offset 8
	.cfi_offset 5, -8
	movl	%esp, %ebp	 #,
	.cfi_def_cfa_register 5
	pushl	%ebx	 #
	subl	$756, %esp	 #,
	.cfi_offset 3, -12
LBB2:
	.loc 1 45 0
	cmpb	$0, __ZGVZN3stk11compression17__huff_compressorD4EvE8__time_1	 #, MEM[(char *)&_ZGVZN3stk11compression17__huff_compressorD4EvE8__time_1]
LBE2:
	.loc 1 42 0
	movl	8(%ebp), %ebx	 # this, this
LBB3:
	.loc 1 45 0
	je	L11	 #,
L3:
LVL1:
	.loc 1 45 0 is_stmt 0 discriminator 2
	movl	__ZZN3stk11compression17__huff_compressorD4EvE14__entered_time, %edx	 # __entered_time, tmp101
	movl	$45, 12(%esp)	 #,
	movl	$LC1, 8(%esp)	 #,
	movl	$LC2+12, 4(%esp)	 #,
	movl	$LC3, (%esp)	 #,
	addl	$1, %edx	 #, D.30280
	movl	%edx, 16(%esp)	 # D.30280,
	movl	%edx, __ZZN3stk11compression17__huff_compressorD4EvE14__entered_time	 # D.30280, __entered_time
	call	__ZN3stk3con6printsEPKcz	 #
LVL2:
	.loc 1 48 0 is_stmt 1 discriminator 2
	movl	8(%ebx), %ecx	 # this_16(D)->dad, this_16(D)->dad
	movl	%ecx, (%esp)	 # this_16(D)->dad,
	call	__ZN3stk3mem4freeEPv@4	 #
LVL3:
	.loc 1 49 0 discriminator 2
	movl	(%ebx), %eax	 # this_16(D)->son, this_16(D)->son
	.loc 1 48 0 discriminator 2
	subl	$4, %esp	 #,
	.loc 1 49 0 discriminator 2
	movl	%eax, (%esp)	 # this_16(D)->son,
	call	__ZN3stk3mem4freeEPv@4	 #
LVL4:
	.loc 1 50 0 discriminator 2
	movl	4(%ebx), %ebx	 # this_16(D)->freq_values, this_16(D)->freq_values
	.loc 1 49 0 discriminator 2
	subl	$4, %esp	 #,
	.loc 1 50 0 discriminator 2
	movl	%ebx, 8(%ebp)	 # this_16(D)->freq_values,
LBE3:
	.loc 1 51 0 discriminator 2
	movl	-4(%ebp), %ebx	 #,
	leave
	.cfi_remember_state
	.cfi_restore 5
	.cfi_restore 3
	.cfi_def_cfa 4, 4
LBB4:
	.loc 1 50 0 discriminator 2
	jmp	__ZN3stk3mem4freeEPv@4	 #
	.cfi_def_cfa_offset 0
LVL5:
	.p2align 4,,10
L11:
	.cfi_restore_state
	.loc 1 45 0 discriminator 1
	movl	$__ZGVZN3stk11compression17__huff_compressorD4EvE8__time_1, (%esp)	 #,
	call	___cxa_guard_acquire	 #
LVL6:
	testl	%eax, %eax	 # D.30280
	je	L3	 #,
	.loc 1 45 0 is_stmt 0 discriminator 3
	call	__ZN3stk4time7time_msEv@0	 #
LVL7:
	movl	%eax, -264(%ebp)	 #, %sfp
	movl	%edx, -260(%ebp)	 #, %sfp
	movl	-260(%ebp), %eax	 # %sfp,
	fildq	-264(%ebp)	 # %sfp
	testl	%eax, %eax	 #
	js	L12	 #,
L5:
	movl	$__ZGVZN3stk11compression17__huff_compressorD4EvE8__time_1, (%esp)	 #,
	fstpl	__ZZN3stk11compression17__huff_compressorD4EvE8__time_1	 # __time_1
	call	___cxa_guard_release	 #
LVL8:
	jmp	L3	 #
	.p2align 4,,10
L12:
	fadds	LC0	 #
	jmp	L5	 #
LBE4:
	.cfi_endproc
LFE706:
	.def	___gxx_personality_v0;	.scl	2;	.type	32;	.endef
	.section	.gcc_except_table,"w"
LLSDA706:
	.byte	0xff
	.byte	0xff
	.byte	0x1
	.uleb128 LLSDACSE706-LLSDACSB706
LLSDACSB706:
LLSDACSE706:
	.text
	.section	.text.unlikely,"x"
LCOLDE5:
	.text
LHOTE5:
	.globl	__ZN3stk11compression17__huff_compressorD1Ev@8
	.def	__ZN3stk11compression17__huff_compressorD1Ev@8;	.scl	2;	.type	32;	.endef
	.set	__ZN3stk11compression17__huff_compressorD1Ev@8,__ZN3stk11compression17__huff_compressorD2Ev@8
	.section	.text.unlikely,"x"
	.align 2
LCOLDB10:
	.text
LHOTB10:
	.align 2
	.p2align 4,,15
	.globl	__ZN3stk11compression17__huff_compressor10initializeEv@4
	.def	__ZN3stk11compression17__huff_compressor10initializeEv@4;	.scl	2;	.type	32;	.endef
__ZN3stk11compression17__huff_compressor10initializeEv@4:
LFB708:
	.loc 1 55 0 is_stmt 1
	.cfi_startproc
	.cfi_personality 0,___gxx_personality_v0
	.cfi_lsda 0,LLSDA708
LVL9:
	pushl	%ebp	 #
	.cfi_def_cfa_offset 8
	.cfi_offset 5, -8
	pushl	%edi	 #
	.cfi_def_cfa_offset 12
	.cfi_offset 7, -12
	pushl	%esi	 #
	.cfi_def_cfa_offset 16
	.cfi_offset 6, -16
	pushl	%ebx	 #
	.cfi_def_cfa_offset 20
	.cfi_offset 3, -20
	subl	$748, %esp	 #,
	.cfi_def_cfa_offset 768
LBB5:
	.loc 1 57 0
	cmpb	$0, __ZGVZN3stk11compression17__huff_compressor10initializeEvE8__time_1	 #, MEM[(char *)&_ZGVZN3stk11compression17__huff_compressor10initializeEvE8__time_1]
LBE5:
	.loc 1 55 0
	movl	768(%esp), %ebx	 # this, this
LBB6:
	.loc 1 57 0
	je	L104	 #,
L15:
LVL10:
	.loc 1 57 0 is_stmt 0 discriminator 2
	movl	__ZZN3stk11compression17__huff_compressor10initializeEvE14__entered_time, %edx	 # __entered_time, tmp362
	movl	$57, 12(%esp)	 #,
	movl	$LC1, 8(%esp)	 #,
	movl	$LC2+12, 4(%esp)	 #,
	movl	$LC3, (%esp)	 #,
	addl	$1, %edx	 #, D.30384
	movl	%edx, 16(%esp)	 # D.30384,
	movl	%edx, __ZZN3stk11compression17__huff_compressor10initializeEvE14__entered_time	 # D.30384, __entered_time
LEHB0:
	call	__ZN3stk3con6printsEPKcz	 #
LEHE0:
LVL11:
	movl	4(%ebx), %eax	 # this_23(D)->freq_values, D.30388
	movl	(%ebx), %ecx	 # this_23(D)->son, D.30388
	movl	8(%ebx), %edx	 # this_23(D)->dad, D.30388
	leal	16(%eax), %ebp	 #, D.30388
	leal	16(%ecx), %ebx	 #, D.30388
	movl	%ecx, 464(%esp)	 # D.30388, %sfp
	leal	2060(%edx), %edi	 #, D.30388
	leal	2044(%edx), %esi	 #, D.30388
	cmpl	%ebp, %ecx	 # D.30388, D.30388
	setae	476(%esp)	 #, %sfp
	cmpl	%ebx, %eax	 # D.30388, D.30388
	movzbl	476(%esp), %ecx	 # %sfp, D.30390
	setae	476(%esp)	 #, %sfp
	orb	476(%esp), %cl	 # %sfp, D.30390
	cmpl	%edi, 464(%esp)	 # D.30388, %sfp
	setae	476(%esp)	 #, %sfp
	cmpl	%esi, %ebx	 # D.30388, D.30388
	setbe	%bl	 #, D.30390
	orb	476(%esp), %bl	 # %sfp, D.30390
	testb	%bl, %cl	 # D.30390, D.30390
	je	L28	 #,
	cmpl	%ebp, %esi	 # D.30388, D.30388
	setae	%cl	 #, D.30390
	cmpl	%edi, %eax	 # D.30388, D.30388
	setae	%bl	 #, D.30390
	orb	%bl, %cl	 # D.30390, tmp361
	je	L28	 #,
	movl	464(%esp), %edi	 # %sfp, D.30388
	movl	%edi, %esi	 # D.30388, D.30389
	andl	$15, %esi	 #, D.30389
	shrl	$2, %esi	 #, D.30389
	negl	%esi	 # D.30389
	andl	$3, %esi	 #, prolog_loop_niters.85
	je	L29	 #,
	cmpl	$1, %esi	 #, prolog_loop_niters.85
	.loc 1 64 0 is_stmt 1
	movl	$511, (%edi)	 #, *_80
	.loc 1 65 0
	movl	$0, 2044(%edx)	 #, MEM[(uint32_t *)_86 + 2044B]
	.loc 1 66 0
	movl	$1, (%eax)	 #, *_90
LVL12:
	je	L30	 #,
	cmpl	$3, %esi	 #, prolog_loop_niters.85
	.loc 1 64 0
	movl	$512, 4(%edi)	 #, MEM[(uint32_t *)_80 + 4B]
	.loc 1 65 0
	movl	$1, 2048(%edx)	 #, MEM[(uint32_t *)_86 + 2048B]
	.loc 1 66 0
	movl	$1, 4(%eax)	 #, MEM[(uint32_t *)_90 + 4B]
LVL13:
	jne	L31	 #,
	.loc 1 64 0
	movl	$513, 8(%edi)	 #, MEM[(uint32_t *)_80 + 8B]
	.loc 1 66 0
	movl	$253, 488(%esp)	 #, %sfp
	.loc 1 65 0
	movl	$2, 2052(%edx)	 #, MEM[(uint32_t *)_86 + 2052B]
	.loc 1 62 0
	movl	$3, 480(%esp)	 #, %sfp
	.loc 1 66 0
	movl	$1, 8(%eax)	 #, MEM[(uint32_t *)_90 + 8B]
LVL14:
L20:
	movl	$256, %ebp	 #, tmp197
	.loc 1 62 0
	movl	$252, 492(%esp)	 #, %sfp
	movl	$63, 484(%esp)	 #, %sfp
	subl	%esi, %ebp	 # prolog_loop_niters.85, niters.86
	movl	%ebp, 496(%esp)	 # niters.86, %sfp
L19:
	movl	464(%esp), %ecx	 # %sfp, D.30388
	sall	$2, %esi	 #, D.30387
	movd	480(%esp), %xmm6	 # %sfp, i
	leal	2044(%edx,%esi), %edi	 #, vectp_pretmp.102
	movl	$1, 476(%esp)	 #, %sfp
	pshufd	$0, %xmm6, %xmm0	 # i, D.30391
	movdqa	LC7, %xmm1	 #, vect_cst_.93
	leal	(%ecx,%esi), %ebp	 #, vectp_pretmp.100
	movl	484(%esp), %ecx	 # %sfp, bnd.87
	addl	%eax, %esi	 # D.30388, vectp_pretmp.105
	movdqa	LC8, %xmm3	 #, tmp218
	paddd	LC6, %xmm0	 #, vect_vec_iv_.94
	.loc 1 64 0
	movdqa	%xmm0, %xmm4	 # vect_vec_iv_.94, vect__28.96
	leal	-1(%ecx), %ebx	 #, tmp223
	movdqa	LC9, %xmm2	 #, tmp219
	paddd	%xmm3, %xmm4	 # tmp218, vect__28.96
	andl	$7, %ebx	 #, tmp225
	cmpl	%ecx, 476(%esp)	 # bnd.87, %sfp
	movaps	%xmm4, 0(%ebp)	 # vect__28.96, MEM[base: vectp_pretmp.100_284, index: ivtmp.140_190, offset: 0B]
	movl	%ebx, 500(%esp)	 # tmp225, %sfp
	movl	$16, %ebx	 #, ivtmp.140
	.loc 1 65 0
	movups	%xmm0, (%edi)	 # vect_vec_iv_.94, MEM[base: vectp_pretmp.102_30, index: ivtmp.140_190, offset: 0B]
	paddd	%xmm1, %xmm0	 # vect_cst_.93, vect_vec_iv_.94
	.loc 1 66 0
	movups	%xmm2, (%esi)	 # tmp219, MEM[base: vectp_pretmp.105_294, index: ivtmp.140_190, offset: 0B]
	jae	L99	 #,
	movl	500(%esp), %ecx	 # %sfp, tmp225
	testl	%ecx, %ecx	 # tmp225
	je	L102	 #,
	cmpl	$1, %ecx	 #, tmp225
	je	L82	 #,
	cmpl	$2, %ecx	 #, tmp225
	je	L83	 #,
	cmpl	$3, %ecx	 #, tmp225
	je	L84	 #,
	cmpl	$4, %ecx	 #, tmp225
	je	L85	 #,
	cmpl	$5, %ecx	 #, tmp225
	je	L86	 #,
	cmpl	$6, %ecx	 #, tmp225
	je	L87	 #,
	.loc 1 64 0
	movdqa	%xmm0, %xmm5	 # vect_vec_iv_.94, vect__28.96
	movl	$2, 476(%esp)	 #, %sfp
	movl	$32, %ebx	 #, ivtmp.140
	paddd	%xmm3, %xmm5	 # tmp218, vect__28.96
	movaps	%xmm5, 16(%ebp)	 # vect__28.96, MEM[base: vectp_pretmp.100_284, index: ivtmp.140_190, offset: 0B]
	.loc 1 65 0
	movups	%xmm0, 16(%edi)	 # vect_vec_iv_.94, MEM[base: vectp_pretmp.102_30, index: ivtmp.140_190, offset: 0B]
	paddd	%xmm1, %xmm0	 # vect_cst_.93, vect_vec_iv_.94
	.loc 1 66 0
	movups	%xmm2, 16(%esi)	 # tmp219, MEM[base: vectp_pretmp.105_294, index: ivtmp.140_190, offset: 0B]
L87:
	.loc 1 64 0
	movdqa	%xmm0, %xmm7	 # vect_vec_iv_.94, vect__28.96
	paddd	%xmm3, %xmm7	 # tmp218, vect__28.96
	movaps	%xmm7, 0(%ebp,%ebx)	 # vect__28.96, MEM[base: vectp_pretmp.100_284, index: ivtmp.140_190, offset: 0B]
	addl	$1, 476(%esp)	 #, %sfp
	.loc 1 65 0
	movups	%xmm0, (%edi,%ebx)	 # vect_vec_iv_.94, MEM[base: vectp_pretmp.102_30, index: ivtmp.140_190, offset: 0B]
	paddd	%xmm1, %xmm0	 # vect_cst_.93, vect_vec_iv_.94
	.loc 1 66 0
	movups	%xmm2, (%esi,%ebx)	 # tmp219, MEM[base: vectp_pretmp.105_294, index: ivtmp.140_190, offset: 0B]
	addl	$16, %ebx	 #, ivtmp.140
L86:
	.loc 1 64 0
	movdqa	%xmm0, %xmm6	 # vect_vec_iv_.94, vect__28.96
	addl	$1, 476(%esp)	 #, %sfp
	paddd	%xmm3, %xmm6	 # tmp218, vect__28.96
	movaps	%xmm6, 0(%ebp,%ebx)	 # vect__28.96, MEM[base: vectp_pretmp.100_284, index: ivtmp.140_190, offset: 0B]
	.loc 1 65 0
	movups	%xmm0, (%edi,%ebx)	 # vect_vec_iv_.94, MEM[base: vectp_pretmp.102_30, index: ivtmp.140_190, offset: 0B]
	paddd	%xmm1, %xmm0	 # vect_cst_.93, vect_vec_iv_.94
	.loc 1 66 0
	movups	%xmm2, (%esi,%ebx)	 # tmp219, MEM[base: vectp_pretmp.105_294, index: ivtmp.140_190, offset: 0B]
	addl	$16, %ebx	 #, ivtmp.140
L85:
	.loc 1 64 0
	movdqa	%xmm0, %xmm4	 # vect_vec_iv_.94, vect__28.96
	addl	$1, 476(%esp)	 #, %sfp
	paddd	%xmm3, %xmm4	 # tmp218, vect__28.96
	movaps	%xmm4, 0(%ebp,%ebx)	 # vect__28.96, MEM[base: vectp_pretmp.100_284, index: ivtmp.140_190, offset: 0B]
	.loc 1 65 0
	movups	%xmm0, (%edi,%ebx)	 # vect_vec_iv_.94, MEM[base: vectp_pretmp.102_30, index: ivtmp.140_190, offset: 0B]
	paddd	%xmm1, %xmm0	 # vect_cst_.93, vect_vec_iv_.94
	.loc 1 66 0
	movups	%xmm2, (%esi,%ebx)	 # tmp219, MEM[base: vectp_pretmp.105_294, index: ivtmp.140_190, offset: 0B]
	addl	$16, %ebx	 #, ivtmp.140
L84:
	.loc 1 64 0
	movdqa	%xmm0, %xmm5	 # vect_vec_iv_.94, vect__28.96
	addl	$1, 476(%esp)	 #, %sfp
	paddd	%xmm3, %xmm5	 # tmp218, vect__28.96
	movaps	%xmm5, 0(%ebp,%ebx)	 # vect__28.96, MEM[base: vectp_pretmp.100_284, index: ivtmp.140_190, offset: 0B]
	.loc 1 65 0
	movups	%xmm0, (%edi,%ebx)	 # vect_vec_iv_.94, MEM[base: vectp_pretmp.102_30, index: ivtmp.140_190, offset: 0B]
	paddd	%xmm1, %xmm0	 # vect_cst_.93, vect_vec_iv_.94
	.loc 1 66 0
	movups	%xmm2, (%esi,%ebx)	 # tmp219, MEM[base: vectp_pretmp.105_294, index: ivtmp.140_190, offset: 0B]
	addl	$16, %ebx	 #, ivtmp.140
L83:
	.loc 1 64 0
	movdqa	%xmm0, %xmm7	 # vect_vec_iv_.94, vect__28.96
	addl	$1, 476(%esp)	 #, %sfp
	paddd	%xmm3, %xmm7	 # tmp218, vect__28.96
	movaps	%xmm7, 0(%ebp,%ebx)	 # vect__28.96, MEM[base: vectp_pretmp.100_284, index: ivtmp.140_190, offset: 0B]
	.loc 1 65 0
	movups	%xmm0, (%edi,%ebx)	 # vect_vec_iv_.94, MEM[base: vectp_pretmp.102_30, index: ivtmp.140_190, offset: 0B]
	paddd	%xmm1, %xmm0	 # vect_cst_.93, vect_vec_iv_.94
	.loc 1 66 0
	movups	%xmm2, (%esi,%ebx)	 # tmp219, MEM[base: vectp_pretmp.105_294, index: ivtmp.140_190, offset: 0B]
	addl	$16, %ebx	 #, ivtmp.140
L82:
	.loc 1 64 0
	movdqa	%xmm0, %xmm6	 # vect_vec_iv_.94, vect__28.96
	addl	$1, 476(%esp)	 #, %sfp
	paddd	%xmm3, %xmm6	 # tmp218, vect__28.96
	movl	476(%esp), %ecx	 # %sfp, ivtmp.138
	movaps	%xmm6, 0(%ebp,%ebx)	 # vect__28.96, MEM[base: vectp_pretmp.100_284, index: ivtmp.140_190, offset: 0B]
	.loc 1 65 0
	movups	%xmm0, (%edi,%ebx)	 # vect_vec_iv_.94, MEM[base: vectp_pretmp.102_30, index: ivtmp.140_190, offset: 0B]
	paddd	%xmm1, %xmm0	 # vect_cst_.93, vect_vec_iv_.94
	.loc 1 66 0
	movups	%xmm2, (%esi,%ebx)	 # tmp219, MEM[base: vectp_pretmp.105_294, index: ivtmp.140_190, offset: 0B]
	addl	$16, %ebx	 #, ivtmp.140
	cmpl	484(%esp), %ecx	 # %sfp, ivtmp.138
	jae	L99	 #,
L102:
	movl	484(%esp), %ecx	 # %sfp, bnd.87
	movl	%edx, 484(%esp)	 # D.30388, %sfp
	movl	476(%esp), %edx	 # %sfp, ivtmp.138
	.p2align 4,,10
L21:
	movdqa	%xmm0, %xmm5	 # vect_vec_iv_.94, vect_vec_iv_.94
	.loc 1 64 0 discriminator 3
	movdqa	%xmm0, %xmm4	 # vect_vec_iv_.94, vect__28.96
	addl	$8, %edx	 #, ivtmp.138
	paddd	%xmm1, %xmm5	 # vect_cst_.93, vect_vec_iv_.94
	paddd	%xmm3, %xmm4	 # tmp218, vect__28.96
	movdqa	%xmm5, %xmm7	 # vect_vec_iv_.94, vect_vec_iv_.94
	movaps	%xmm4, 0(%ebp,%ebx)	 # vect__28.96, MEM[base: vectp_pretmp.100_284, index: ivtmp.140_190, offset: 0B]
	paddd	%xmm1, %xmm7	 # vect_cst_.93, vect_vec_iv_.94
	movdqa	%xmm7, %xmm6	 # vect_vec_iv_.94, vect_vec_iv_.94
	.loc 1 65 0 discriminator 3
	movups	%xmm0, (%edi,%ebx)	 # vect_vec_iv_.94, MEM[base: vectp_pretmp.102_30, index: ivtmp.140_190, offset: 0B]
	.loc 1 64 0 discriminator 3
	movdqa	%xmm5, %xmm0	 # vect_vec_iv_.94, vect__28.96
	paddd	%xmm1, %xmm6	 # vect_cst_.93, vect_vec_iv_.94
	.loc 1 66 0 discriminator 3
	movups	%xmm2, (%esi,%ebx)	 # tmp219, MEM[base: vectp_pretmp.105_294, index: ivtmp.140_190, offset: 0B]
	.loc 1 64 0 discriminator 3
	paddd	%xmm3, %xmm0	 # tmp218, vect__28.96
	movdqa	%xmm6, %xmm4	 # vect_vec_iv_.94, vect_vec_iv_.94
	movaps	%xmm0, 16(%ebp,%ebx)	 # vect__28.96, MEM[base: vectp_pretmp.100_284, index: ivtmp.140_190, offset: 0B]
	paddd	%xmm1, %xmm4	 # vect_cst_.93, vect_vec_iv_.94
	movdqa	%xmm4, %xmm0	 # vect_vec_iv_.94, vect_vec_iv_.94
	.loc 1 65 0 discriminator 3
	movups	%xmm5, 16(%edi,%ebx)	 # vect_vec_iv_.94, MEM[base: vectp_pretmp.102_30, index: ivtmp.140_190, offset: 0B]
	.loc 1 64 0 discriminator 3
	movdqa	%xmm7, %xmm5	 # vect_vec_iv_.94, vect__28.96
	paddd	%xmm1, %xmm0	 # vect_cst_.93, vect_vec_iv_.94
	.loc 1 66 0 discriminator 3
	movups	%xmm2, 16(%esi,%ebx)	 # tmp219, MEM[base: vectp_pretmp.105_294, index: ivtmp.140_190, offset: 0B]
	.loc 1 64 0 discriminator 3
	paddd	%xmm3, %xmm5	 # tmp218, vect__28.96
	movaps	%xmm5, 32(%ebp,%ebx)	 # vect__28.96, MEM[base: vectp_pretmp.100_284, index: ivtmp.140_190, offset: 0B]
	movdqa	%xmm0, %xmm5	 # vect_vec_iv_.94, vect__28.96
	.loc 1 65 0 discriminator 3
	movups	%xmm7, 32(%edi,%ebx)	 # vect_vec_iv_.94, MEM[base: vectp_pretmp.102_30, index: ivtmp.140_190, offset: 0B]
	.loc 1 64 0 discriminator 3
	movdqa	%xmm6, %xmm7	 # vect_vec_iv_.94, vect__28.96
	paddd	%xmm3, %xmm5	 # tmp218, vect__28.96
	.loc 1 66 0 discriminator 3
	movups	%xmm2, 32(%esi,%ebx)	 # tmp219, MEM[base: vectp_pretmp.105_294, index: ivtmp.140_190, offset: 0B]
	.loc 1 64 0 discriminator 3
	paddd	%xmm3, %xmm7	 # tmp218, vect__28.96
	movaps	%xmm7, 48(%ebp,%ebx)	 # vect__28.96, MEM[base: vectp_pretmp.100_284, index: ivtmp.140_190, offset: 0B]
	.loc 1 65 0 discriminator 3
	movups	%xmm6, 48(%edi,%ebx)	 # vect_vec_iv_.94, MEM[base: vectp_pretmp.102_30, index: ivtmp.140_190, offset: 0B]
	.loc 1 64 0 discriminator 3
	movdqa	%xmm4, %xmm6	 # vect_vec_iv_.94, vect__28.96
	.loc 1 66 0 discriminator 3
	movups	%xmm2, 48(%esi,%ebx)	 # tmp219, MEM[base: vectp_pretmp.105_294, index: ivtmp.140_190, offset: 0B]
	.loc 1 64 0 discriminator 3
	paddd	%xmm3, %xmm6	 # tmp218, vect__28.96
	movaps	%xmm6, 64(%ebp,%ebx)	 # vect__28.96, MEM[base: vectp_pretmp.100_284, index: ivtmp.140_190, offset: 0B]
	.loc 1 65 0 discriminator 3
	movups	%xmm4, 64(%edi,%ebx)	 # vect_vec_iv_.94, MEM[base: vectp_pretmp.102_30, index: ivtmp.140_190, offset: 0B]
	movdqa	%xmm0, %xmm4	 # vect_vec_iv_.94, vect_vec_iv_.94
	.loc 1 66 0 discriminator 3
	movups	%xmm2, 64(%esi,%ebx)	 # tmp219, MEM[base: vectp_pretmp.105_294, index: ivtmp.140_190, offset: 0B]
	paddd	%xmm1, %xmm4	 # vect_cst_.93, vect_vec_iv_.94
	.loc 1 64 0 discriminator 3
	movdqa	%xmm4, %xmm7	 # vect_vec_iv_.94, vect__28.96
	movaps	%xmm5, 80(%ebp,%ebx)	 # vect__28.96, MEM[base: vectp_pretmp.100_284, index: ivtmp.140_190, offset: 0B]
	paddd	%xmm3, %xmm7	 # tmp218, vect__28.96
	.loc 1 65 0 discriminator 3
	movups	%xmm0, 80(%edi,%ebx)	 # vect_vec_iv_.94, MEM[base: vectp_pretmp.102_30, index: ivtmp.140_190, offset: 0B]
	movdqa	%xmm4, %xmm0	 # vect_vec_iv_.94, vect_vec_iv_.94
	.loc 1 66 0 discriminator 3
	movups	%xmm2, 80(%esi,%ebx)	 # tmp219, MEM[base: vectp_pretmp.105_294, index: ivtmp.140_190, offset: 0B]
	paddd	%xmm1, %xmm0	 # vect_cst_.93, vect_vec_iv_.94
	.loc 1 64 0 discriminator 3
	movdqa	%xmm0, %xmm6	 # vect_vec_iv_.94, vect__28.96
	movaps	%xmm7, 96(%ebp,%ebx)	 # vect__28.96, MEM[base: vectp_pretmp.100_284, index: ivtmp.140_190, offset: 0B]
	paddd	%xmm3, %xmm6	 # tmp218, vect__28.96
	.loc 1 65 0 discriminator 3
	movups	%xmm4, 96(%edi,%ebx)	 # vect_vec_iv_.94, MEM[base: vectp_pretmp.102_30, index: ivtmp.140_190, offset: 0B]
	.loc 1 66 0 discriminator 3
	movups	%xmm2, 96(%esi,%ebx)	 # tmp219, MEM[base: vectp_pretmp.105_294, index: ivtmp.140_190, offset: 0B]
	.loc 1 64 0 discriminator 3
	movaps	%xmm6, 112(%ebp,%ebx)	 # vect__28.96, MEM[base: vectp_pretmp.100_284, index: ivtmp.140_190, offset: 0B]
	.loc 1 65 0 discriminator 3
	movups	%xmm0, 112(%edi,%ebx)	 # vect_vec_iv_.94, MEM[base: vectp_pretmp.102_30, index: ivtmp.140_190, offset: 0B]
	paddd	%xmm1, %xmm0	 # vect_cst_.93, vect_vec_iv_.94
	.loc 1 66 0 discriminator 3
	movups	%xmm2, 112(%esi,%ebx)	 # tmp219, MEM[base: vectp_pretmp.105_294, index: ivtmp.140_190, offset: 0B]
	subl	$-128, %ebx	 #, ivtmp.140
	cmpl	%ecx, %edx	 # bnd.87, ivtmp.138
	jb	L21	 #,
	movl	484(%esp), %edx	 # %sfp, D.30388
L99:
	movl	492(%esp), %ebp	 # %sfp, ratio_mult_vf.88
	movl	480(%esp), %ebx	 # %sfp, i
	movl	488(%esp), %esi	 # %sfp, D.30389
	addl	%ebp, %ebx	 # ratio_mult_vf.88, i
	subl	%ebp, %esi	 # ratio_mult_vf.88, D.30389
	cmpl	%ebp, 496(%esp)	 # ratio_mult_vf.88, %sfp
	je	L25	 #,
LVL15:
	.loc 1 64 0
	movl	464(%esp), %ecx	 # %sfp, D.30388
	leal	511(%ebx), %edi	 #, tmp205
	.loc 1 62 0
	cmpl	$1, %esi	 #, D.30389
	.loc 1 64 0
	movl	%edi, (%ecx,%ebx,4)	 # tmp205, *_36
	.loc 1 65 0
	movl	%ebx, 2044(%edx,%ebx,4)	 # i, *_26
	.loc 1 62 0
	leal	1(%ebx), %edi	 #, i
LVL16:
	.loc 1 66 0
	movl	$1, (%eax,%ebx,4)	 #, *_28
	.loc 1 62 0
	je	L25	 #,
	.loc 1 64 0
	leal	512(%ebx), %ebp	 #, tmp207
	.loc 1 62 0
	cmpl	$2, %esi	 #, D.30389
	.loc 1 64 0
	movl	%ebp, (%ecx,%edi,4)	 # tmp207, *_140
	.loc 1 65 0
	movl	%edi, 2044(%edx,%edi,4)	 # i, *_165
	.loc 1 66 0
	movl	$1, (%eax,%edi,4)	 #, *_50
	.loc 1 62 0
	leal	2(%ebx), %edi	 #, i
LVL17:
	je	L25	 #,
	.loc 1 64 0
	movl	464(%esp), %esi	 # %sfp, D.30388
	addl	$513, %ebx	 #, tmp204
	movl	%ebx, (%esi,%edi,4)	 # tmp204, *_248
	.loc 1 65 0
	movl	%edi, 2044(%edx,%edi,4)	 # i, *_254
	.loc 1 66 0
	movl	$1, (%eax,%edi,4)	 #, *_256
LVL18:
L25:
	movl	464(%esp), %ecx	 # %sfp, D.30388
	movl	$0, 1024(%ecx)	 #, MEM[base: _80, index: _110, step: 4, offset: 0B]
	.loc 1 74 0
	movl	$256, (%edx)	 #, MEM[base: _86, index: _110, step: 8, offset: 4294965248B]
	.loc 1 75 0
	movl	$256, 4(%edx)	 #, MEM[base: _86, index: _110, step: 8, offset: 4294965252B]
	.loc 1 76 0
	movl	(%eax), %ebx	 # MEM[base: _90, index: _110, step: 8, offset: 4294965248B], MEM[base: _90, index: _110, step: 8, offset: 4294965248B]
	addl	4(%eax), %ebx	 # MEM[base: _90, index: _110, step: 8, offset: 4294965252B], D.30382
	movl	%ebx, 1024(%eax)	 # D.30382, MEM[base: _90, index: _110, step: 4, offset: 0B]
	movl	$2, 1028(%ecx)	 #, MEM[base: _80, index: _110, step: 4, offset: 0B]
	.loc 1 69 0
	movl	$259, %ebx	 #, e
	.loc 1 74 0
	movl	$257, 8(%edx)	 #, MEM[base: _86, index: _110, step: 8, offset: 4294965248B]
	.loc 1 75 0
	movl	$257, 12(%edx)	 #, MEM[base: _86, index: _110, step: 8, offset: 4294965252B]
	.loc 1 76 0
	movl	8(%eax), %esi	 # MEM[base: _90, index: _110, step: 8, offset: 4294965248B], MEM[base: _90, index: _110, step: 8, offset: 4294965248B]
	addl	12(%eax), %esi	 # MEM[base: _90, index: _110, step: 8, offset: 4294965252B], D.30382
	movl	%esi, 1028(%eax)	 # D.30382, MEM[base: _90, index: _110, step: 4, offset: 0B]
	movl	$4, 1032(%ecx)	 #, MEM[base: _80, index: _110, step: 4, offset: 0B]
	.loc 1 74 0
	movl	$258, 16(%edx)	 #, MEM[base: _86, index: _110, step: 8, offset: 4294965248B]
	.loc 1 75 0
	movl	$258, 20(%edx)	 #, MEM[base: _86, index: _110, step: 8, offset: 4294965252B]
	.loc 1 76 0
	movl	16(%eax), %ebp	 # MEM[base: _90, index: _110, step: 8, offset: 4294965248B], MEM[base: _90, index: _110, step: 8, offset: 4294965248B]
	addl	20(%eax), %ebp	 # MEM[base: _90, index: _110, step: 8, offset: 4294965252B], D.30382
	movl	%ebp, 1032(%eax)	 # D.30382, MEM[base: _90, index: _110, step: 4, offset: 0B]
LVL19:
L26:
	leal	-512(%ebx,%ebx), %edi	 #, tmp296
	.loc 1 69 0
	leal	1(%ebx), %ebp	 #, tmp221
	movl	%edi, (%ecx,%ebx,4)	 # tmp296, MEM[base: _80, index: _110, step: 4, offset: 0B]
	.loc 1 74 0
	movl	%ebx, -2048(%edx,%ebx,8)	 # e, MEM[base: _86, index: _110, step: 8, offset: 4294965248B]
	leal	-510(%ebx,%ebx), %edi	 #, tmp302
	.loc 1 75 0
	movl	%ebx, -2044(%edx,%ebx,8)	 # e, MEM[base: _86, index: _110, step: 8, offset: 4294965252B]
	.loc 1 76 0
	movl	-2048(%eax,%ebx,8), %esi	 # MEM[base: _90, index: _110, step: 8, offset: 4294965248B], MEM[base: _90, index: _110, step: 8, offset: 4294965248B]
	addl	-2044(%eax,%ebx,8), %esi	 # MEM[base: _90, index: _110, step: 8, offset: 4294965252B], D.30382
	movl	%esi, (%eax,%ebx,4)	 # D.30382, MEM[base: _90, index: _110, step: 4, offset: 0B]
LVL20:
	movl	%edi, (%ecx,%ebp,4)	 # tmp302, MEM[base: _80, index: _110, step: 4, offset: 0B]
	leal	-508(%ebx,%ebx), %edi	 #, tmp308
	.loc 1 74 0
	movl	%ebp, -2048(%edx,%ebp,8)	 # tmp221, MEM[base: _86, index: _110, step: 8, offset: 4294965248B]
	.loc 1 75 0
	movl	%ebp, -2044(%edx,%ebp,8)	 # tmp221, MEM[base: _86, index: _110, step: 8, offset: 4294965252B]
	.loc 1 76 0
	movl	-2048(%eax,%ebp,8), %esi	 # MEM[base: _90, index: _110, step: 8, offset: 4294965248B], MEM[base: _90, index: _110, step: 8, offset: 4294965248B]
	addl	-2044(%eax,%ebp,8), %esi	 # MEM[base: _90, index: _110, step: 8, offset: 4294965252B], D.30382
	movl	%esi, (%eax,%ebp,4)	 # D.30382, MEM[base: _90, index: _110, step: 4, offset: 0B]
LVL21:
	.loc 1 69 0
	leal	2(%ebx), %ebp	 #, e
LVL22:
	movl	%edi, (%ecx,%ebp,4)	 # tmp308, MEM[base: _80, index: _110, step: 4, offset: 0B]
	.loc 1 74 0
	movl	%ebp, -2048(%edx,%ebp,8)	 # e, MEM[base: _86, index: _110, step: 8, offset: 4294965248B]
	leal	-506(%ebx,%ebx), %edi	 #, tmp314
	.loc 1 75 0
	movl	%ebp, -2044(%edx,%ebp,8)	 # e, MEM[base: _86, index: _110, step: 8, offset: 4294965252B]
	.loc 1 76 0
	movl	-2048(%eax,%ebp,8), %esi	 # MEM[base: _90, index: _110, step: 8, offset: 4294965248B], MEM[base: _90, index: _110, step: 8, offset: 4294965248B]
	addl	-2044(%eax,%ebp,8), %esi	 # MEM[base: _90, index: _110, step: 8, offset: 4294965252B], D.30382
	movl	%esi, (%eax,%ebp,4)	 # D.30382, MEM[base: _90, index: _110, step: 4, offset: 0B]
LVL23:
	.loc 1 69 0
	leal	3(%ebx), %ebp	 #, e
LVL24:
	movl	%edi, (%ecx,%ebp,4)	 # tmp314, MEM[base: _80, index: _110, step: 4, offset: 0B]
	.loc 1 74 0
	movl	%ebp, -2048(%edx,%ebp,8)	 # e, MEM[base: _86, index: _110, step: 8, offset: 4294965248B]
	leal	-504(%ebx,%ebx), %edi	 #, tmp320
	.loc 1 75 0
	movl	%ebp, -2044(%edx,%ebp,8)	 # e, MEM[base: _86, index: _110, step: 8, offset: 4294965252B]
	.loc 1 76 0
	movl	-2048(%eax,%ebp,8), %esi	 # MEM[base: _90, index: _110, step: 8, offset: 4294965248B], MEM[base: _90, index: _110, step: 8, offset: 4294965248B]
	addl	-2044(%eax,%ebp,8), %esi	 # MEM[base: _90, index: _110, step: 8, offset: 4294965252B], D.30382
	movl	%esi, (%eax,%ebp,4)	 # D.30382, MEM[base: _90, index: _110, step: 4, offset: 0B]
LVL25:
	.loc 1 69 0
	leal	4(%ebx), %ebp	 #, e
LVL26:
	movl	%edi, (%ecx,%ebp,4)	 # tmp320, MEM[base: _80, index: _110, step: 4, offset: 0B]
	.loc 1 74 0
	movl	%ebp, -2048(%edx,%ebp,8)	 # e, MEM[base: _86, index: _110, step: 8, offset: 4294965248B]
	leal	-502(%ebx,%ebx), %edi	 #, tmp326
	.loc 1 75 0
	movl	%ebp, -2044(%edx,%ebp,8)	 # e, MEM[base: _86, index: _110, step: 8, offset: 4294965252B]
	.loc 1 76 0
	movl	-2048(%eax,%ebp,8), %esi	 # MEM[base: _90, index: _110, step: 8, offset: 4294965248B], MEM[base: _90, index: _110, step: 8, offset: 4294965248B]
	addl	-2044(%eax,%ebp,8), %esi	 # MEM[base: _90, index: _110, step: 8, offset: 4294965252B], D.30382
	movl	%esi, (%eax,%ebp,4)	 # D.30382, MEM[base: _90, index: _110, step: 4, offset: 0B]
LVL27:
	.loc 1 69 0
	leal	5(%ebx), %ebp	 #, e
LVL28:
	addl	$6, %ebx	 #, e
	movl	%edi, (%ecx,%ebp,4)	 # tmp326, MEM[base: _80, index: _110, step: 4, offset: 0B]
	.loc 1 74 0
	movl	%ebp, -2048(%edx,%ebp,8)	 # e, MEM[base: _86, index: _110, step: 8, offset: 4294965248B]
	.loc 1 75 0
	movl	%ebp, -2044(%edx,%ebp,8)	 # e, MEM[base: _86, index: _110, step: 8, offset: 4294965252B]
	.loc 1 76 0
	movl	-2048(%eax,%ebp,8), %esi	 # MEM[base: _90, index: _110, step: 8, offset: 4294965248B], MEM[base: _90, index: _110, step: 8, offset: 4294965248B]
	addl	-2044(%eax,%ebp,8), %esi	 # MEM[base: _90, index: _110, step: 8, offset: 4294965252B], D.30382
	.loc 1 69 0
	cmpl	$511, %ebx	 #, e
	.loc 1 76 0
	movl	%esi, (%eax,%ebp,4)	 # D.30382, MEM[base: _90, index: _110, step: 4, offset: 0B]
LVL29:
	.loc 1 69 0
	jne	L26	 #,
	.loc 1 78 0
	movl	$536870911, 2040(%edx)	 #, MEM[(uint32_t *)_86 + 2040B]
	.loc 1 80 0
	movl	$134217728, 2044(%eax)	 #, MEM[(uint32_t *)_90 + 2044B]
LBE6:
	.loc 1 84 0
	addl	$748, %esp	 #,
	.cfi_remember_state
	.cfi_def_cfa_offset 20
	popl	%ebx	 #
	.cfi_restore 3
	.cfi_def_cfa_offset 16
	popl	%esi	 #
	.cfi_restore 6
	.cfi_def_cfa_offset 12
	popl	%edi	 #
	.cfi_restore 7
	.cfi_def_cfa_offset 8
	popl	%ebp	 #
	.cfi_restore 5
	.cfi_def_cfa_offset 4
	ret	$4	 #
LVL30:
	.p2align 4,,10
L104:
	.cfi_restore_state
LBB7:
	.loc 1 57 0 discriminator 1
	movl	$__ZGVZN3stk11compression17__huff_compressor10initializeEvE8__time_1, (%esp)	 #,
	call	___cxa_guard_acquire	 #
LVL31:
	testl	%eax, %eax	 # D.30384
	je	L15	 #,
LEHB1:
	.loc 1 57 0 is_stmt 0 discriminator 3
	call	__ZN3stk4time7time_msEv@0	 #
LEHE1:
LVL32:
	movl	%eax, 464(%esp)	 #, %sfp
	movl	%edx, 468(%esp)	 #, %sfp
	movl	468(%esp), %eax	 # %sfp,
	fildq	464(%esp)	 # %sfp
	testl	%eax, %eax	 #
	js	L105	 #,
L17:
	.loc 1 57 0 discriminator 5
	movl	$__ZGVZN3stk11compression17__huff_compressor10initializeEvE8__time_1, (%esp)	 #,
	fstpl	__ZZN3stk11compression17__huff_compressor10initializeEvE8__time_1	 # __time_1
	call	___cxa_guard_release	 #
LVL33:
	jmp	L15	 #
LVL34:
	.p2align 4,,10
L29:
	.loc 1 57 0
	movl	$256, 492(%esp)	 #, %sfp
	movl	$64, 484(%esp)	 #, %sfp
	movl	$256, 496(%esp)	 #, %sfp
	movl	$256, 488(%esp)	 #, %sfp
	.loc 1 62 0 is_stmt 1
	movl	$0, 480(%esp)	 #, %sfp
	jmp	L19	 #
	.p2align 4,,10
L28:
	.loc 1 57 0
	movl	464(%esp), %ecx	 # %sfp, D.30388
	xorl	%ebx, %ebx	 # i
LVL35:
	.p2align 4,,10
L18:
	.loc 1 62 0
	leal	1(%ebx), %esi	 #, tmp222
	leal	511(%ebx), %ebp	 #, tmp208
	leal	512(%ebx), %edi	 #, tmp269
	movl	%ebp, (%ecx,%ebx,4)	 # tmp208, MEM[base: _80, index: _189, step: 4, offset: 0B]
	.loc 1 65 0
	movl	%ebx, 2044(%edx,%ebx,4)	 # i, MEM[base: _86, index: _189, step: 4, offset: 2044B]
	.loc 1 62 0
	leal	2(%ebx), %ebp	 #, i
	.loc 1 66 0
	movl	$1, (%eax,%ebx,4)	 #, MEM[base: _90, index: _189, step: 4, offset: 0B]
	movl	%edi, (%ecx,%esi,4)	 # tmp269, MEM[base: _80, index: _189, step: 4, offset: 0B]
	leal	514(%ebx), %edi	 #, tmp273
	.loc 1 65 0
	movl	%esi, 2044(%edx,%esi,4)	 # tmp222, MEM[base: _86, index: _189, step: 4, offset: 2044B]
	.loc 1 66 0
	movl	$1, (%eax,%esi,4)	 #, MEM[base: _90, index: _189, step: 4, offset: 0B]
	leal	513(%ebx), %esi	 #, tmp271
	movl	%esi, (%ecx,%ebp,4)	 # tmp271, MEM[base: _80, index: _189, step: 4, offset: 0B]
	.loc 1 65 0
	movl	%ebp, 2044(%edx,%ebp,4)	 # i, MEM[base: _86, index: _189, step: 4, offset: 2044B]
	.loc 1 62 0
	leal	4(%ebx), %esi	 #, i
	.loc 1 66 0
	movl	$1, (%eax,%ebp,4)	 #, MEM[base: _90, index: _189, step: 4, offset: 0B]
	.loc 1 62 0
	leal	3(%ebx), %ebp	 #, i
	movl	%edi, (%ecx,%ebp,4)	 # tmp273, MEM[base: _80, index: _189, step: 4, offset: 0B]
	.loc 1 65 0
	movl	%ebp, 2044(%edx,%ebp,4)	 # i, MEM[base: _86, index: _189, step: 4, offset: 2044B]
	leal	516(%ebx), %edi	 #, tmp277
	.loc 1 66 0
	movl	$1, (%eax,%ebp,4)	 #, MEM[base: _90, index: _189, step: 4, offset: 0B]
	leal	515(%ebx), %ebp	 #, tmp275
	movl	%ebp, (%ecx,%esi,4)	 # tmp275, MEM[base: _80, index: _189, step: 4, offset: 0B]
	.loc 1 65 0
	movl	%esi, 2044(%edx,%esi,4)	 # i, MEM[base: _86, index: _189, step: 4, offset: 2044B]
	.loc 1 62 0
	leal	6(%ebx), %ebp	 #, i
	.loc 1 66 0
	movl	$1, (%eax,%esi,4)	 #, MEM[base: _90, index: _189, step: 4, offset: 0B]
	.loc 1 62 0
	leal	5(%ebx), %esi	 #, i
	movl	%edi, (%ecx,%esi,4)	 # tmp277, MEM[base: _80, index: _189, step: 4, offset: 0B]
	.loc 1 65 0
	movl	%esi, 2044(%edx,%esi,4)	 # i, MEM[base: _86, index: _189, step: 4, offset: 2044B]
	leal	518(%ebx), %edi	 #, tmp281
	.loc 1 66 0
	movl	$1, (%eax,%esi,4)	 #, MEM[base: _90, index: _189, step: 4, offset: 0B]
	leal	517(%ebx), %esi	 #, tmp279
	movl	%esi, (%ecx,%ebp,4)	 # tmp279, MEM[base: _80, index: _189, step: 4, offset: 0B]
	.loc 1 65 0
	movl	%ebp, 2044(%edx,%ebp,4)	 # i, MEM[base: _86, index: _189, step: 4, offset: 2044B]
	.loc 1 66 0
	movl	$1, (%eax,%ebp,4)	 #, MEM[base: _90, index: _189, step: 4, offset: 0B]
	.loc 1 62 0
	leal	7(%ebx), %ebp	 #, i
	addl	$8, %ebx	 #, i
	cmpl	$256, %ebx	 #, i
	movl	%edi, (%ecx,%ebp,4)	 # tmp281, MEM[base: _80, index: _189, step: 4, offset: 0B]
	.loc 1 65 0
	movl	%ebp, 2044(%edx,%ebp,4)	 # i, MEM[base: _86, index: _189, step: 4, offset: 2044B]
	.loc 1 66 0
	movl	$1, (%eax,%ebp,4)	 #, MEM[base: _90, index: _189, step: 4, offset: 0B]
LVL36:
	.loc 1 62 0
	jne	L18	 #,
	movl	%ecx, 464(%esp)	 # D.30388, %sfp
	jmp	L25	 #
LVL37:
	.p2align 4,,10
L30:
	.loc 1 66 0
	movl	$255, 488(%esp)	 #, %sfp
	.loc 1 62 0
	movl	$1, 480(%esp)	 #, %sfp
	jmp	L20	 #
LVL38:
	.p2align 4,,10
L31:
	.loc 1 66 0
	movl	$254, 488(%esp)	 #, %sfp
	.loc 1 62 0
	movl	$2, 480(%esp)	 #, %sfp
	jmp	L20	 #
LVL39:
L105:
	.loc 1 57 0 discriminator 5
	fadds	LC0	 #
	jmp	L17	 #
L32:
	movl	%eax, %ebx	 #, tmp217
	.loc 1 57 0 is_stmt 0
	movl	$__ZGVZN3stk11compression17__huff_compressor10initializeEvE8__time_1, (%esp)	 #,
	call	___cxa_guard_abort	 #
LVL40:
	movl	%ebx, (%esp)	 # tmp217,
LEHB2:
	call	__Unwind_Resume	 #
LEHE2:
LVL41:
LBE7:
	.cfi_endproc
LFE708:
	.section	.gcc_except_table,"w"
LLSDA708:
	.byte	0xff
	.byte	0xff
	.byte	0x1
	.uleb128 LLSDACSE708-LLSDACSB708
LLSDACSB708:
	.uleb128 LEHB0-LFB708
	.uleb128 LEHE0-LEHB0
	.uleb128 0
	.uleb128 0
	.uleb128 LEHB1-LFB708
	.uleb128 LEHE1-LEHB1
	.uleb128 L32-LFB708
	.uleb128 0
	.uleb128 LEHB2-LFB708
	.uleb128 LEHE2-LEHB2
	.uleb128 0
	.uleb128 0
LLSDACSE708:
	.text
	.section	.text.unlikely,"x"
LCOLDE10:
	.text
LHOTE10:
	.section	.text.unlikely,"x"
	.align 2
LCOLDB11:
	.text
LHOTB11:
	.align 2
	.p2align 4,,15
	.globl	__ZN3stk11compression17__huff_compressorC2Ev@4
	.def	__ZN3stk11compression17__huff_compressorC2Ev@4;	.scl	2;	.type	32;	.endef
__ZN3stk11compression17__huff_compressorC2Ev@4:
LFB703:
	.loc 1 29 0 is_stmt 1
	.cfi_startproc
	.cfi_personality 0,___gxx_personality_v0
	.cfi_lsda 0,LLSDA703
LVL42:
	pushl	%ebp	 #
	.cfi_def_cfa_offset 8
	.cfi_offset 5, -8
	movl	%esp, %ebp	 #,
	.cfi_def_cfa_register 5
	pushl	%ebx	 #
	subl	$756, %esp	 #,
	.cfi_offset 3, -12
LBB8:
	.loc 1 32 0
	cmpb	$0, __ZGVZN3stk11compression17__huff_compressorC4EvE8__time_1	 #, MEM[(char *)&_ZGVZN3stk11compression17__huff_compressorC4EvE8__time_1]
LBE8:
	.loc 1 29 0
	movl	8(%ebp), %ebx	 # this, this
LBB9:
	.loc 1 32 0
	je	L117	 #,
L108:
LVL43:
	.loc 1 32 0 is_stmt 0 discriminator 2
	movl	__ZZN3stk11compression17__huff_compressorC4EvE14__entered_time, %edx	 # __entered_time, tmp100
	movl	$32, 12(%esp)	 #,
	movl	$LC1, 8(%esp)	 #,
	movl	$LC2+12, 4(%esp)	 #,
	movl	$LC3, (%esp)	 #,
	addl	$1, %edx	 #, D.30396
	movl	%edx, 16(%esp)	 # D.30396,
	movl	%edx, __ZZN3stk11compression17__huff_compressorC4EvE14__entered_time	 # D.30396, __entered_time
LEHB3:
	call	__ZN3stk3con6printsEPKcz	 #
LVL44:
	.loc 1 35 0 is_stmt 1 discriminator 2
	movl	$2044, (%esp)	 #,
	call	__ZN3stk3mem5allocEj@4	 #
LVL45:
	subl	$4, %esp	 #,
	movl	%eax, (%ebx)	 # D.30399, this_19(D)->son
	.loc 1 36 0 discriminator 2
	movl	$2048, (%esp)	 #,
	call	__ZN3stk3mem5allocEj@4	 #
LVL46:
	subl	$4, %esp	 #,
	movl	%eax, 4(%ebx)	 # D.30399, this_19(D)->freq_values
	.loc 1 37 0 discriminator 2
	movl	$3068, (%esp)	 #,
	call	__ZN3stk3mem5allocEj@4	 #
LVL47:
	movl	%eax, 8(%ebx)	 # D.30399, this_19(D)->dad
	subl	$4, %esp	 #,
	.loc 1 38 0 discriminator 2
	movl	%ebx, 8(%ebp)	 # this,
LBE9:
	.loc 1 39 0 discriminator 2
	movl	-4(%ebp), %ebx	 #,
	leave
	.cfi_remember_state
	.cfi_restore 5
	.cfi_restore 3
	.cfi_def_cfa 4, 4
LBB10:
	.loc 1 38 0 discriminator 2
	jmp	__ZN3stk11compression17__huff_compressor10initializeEv@4	 #
	.cfi_def_cfa_offset 0
LEHE3:
LVL48:
	.p2align 4,,10
L117:
	.cfi_restore_state
	.loc 1 32 0 discriminator 1
	movl	$__ZGVZN3stk11compression17__huff_compressorC4EvE8__time_1, (%esp)	 #,
	call	___cxa_guard_acquire	 #
LVL49:
	testl	%eax, %eax	 # D.30396
	je	L108	 #,
LEHB4:
	.loc 1 32 0 is_stmt 0 discriminator 3
	call	__ZN3stk4time7time_msEv@0	 #
LEHE4:
LVL50:
	movl	%eax, -264(%ebp)	 #, %sfp
	movl	%edx, -260(%ebp)	 #, %sfp
	movl	-260(%ebp), %eax	 # %sfp,
	fildq	-264(%ebp)	 # %sfp
	testl	%eax, %eax	 #
	js	L118	 #,
L110:
	.loc 1 32 0 discriminator 5
	movl	$__ZGVZN3stk11compression17__huff_compressorC4EvE8__time_1, (%esp)	 #,
	fstpl	__ZZN3stk11compression17__huff_compressorC4EvE8__time_1	 # __time_1
	call	___cxa_guard_release	 #
LVL51:
	jmp	L108	 #
	.p2align 4,,10
L118:
	fadds	LC0	 #
	jmp	L110	 #
L112:
	movl	%eax, %ebx	 #, tmp99
	.loc 1 32 0
	movl	$__ZGVZN3stk11compression17__huff_compressorC4EvE8__time_1, (%esp)	 #,
	call	___cxa_guard_abort	 #
LVL52:
	movl	%ebx, (%esp)	 # tmp99,
LEHB5:
	call	__Unwind_Resume	 #
LEHE5:
LVL53:
LBE10:
	.cfi_endproc
LFE703:
	.section	.gcc_except_table,"w"
LLSDA703:
	.byte	0xff
	.byte	0xff
	.byte	0x1
	.uleb128 LLSDACSE703-LLSDACSB703
LLSDACSB703:
	.uleb128 LEHB3-LFB703
	.uleb128 LEHE3-LEHB3
	.uleb128 0
	.uleb128 0
	.uleb128 LEHB4-LFB703
	.uleb128 LEHE4-LEHB4
	.uleb128 L112-LFB703
	.uleb128 0
	.uleb128 LEHB5-LFB703
	.uleb128 LEHE5-LEHB5
	.uleb128 0
	.uleb128 0
LLSDACSE703:
	.text
	.section	.text.unlikely,"x"
LCOLDE11:
	.text
LHOTE11:
	.globl	__ZN3stk11compression17__huff_compressorC1Ev@4
	.def	__ZN3stk11compression17__huff_compressorC1Ev@4;	.scl	2;	.type	32;	.endef
	.set	__ZN3stk11compression17__huff_compressorC1Ev@4,__ZN3stk11compression17__huff_compressorC2Ev@4
	.section	.text.unlikely,"x"
	.align 2
LCOLDB12:
	.text
LHOTB12:
	.align 2
	.p2align 4,,15
	.globl	__ZN3stk11compression17__huff_compressor11reconstructEv@4
	.def	__ZN3stk11compression17__huff_compressor11reconstructEv@4;	.scl	2;	.type	32;	.endef
__ZN3stk11compression17__huff_compressor11reconstructEv@4:
LFB712:
	.loc 1 215 0 is_stmt 1
	.cfi_startproc
	.cfi_personality 0,___gxx_personality_v0
	.cfi_lsda 0,LLSDA712
LVL54:
	pushl	%ebp	 #
	.cfi_def_cfa_offset 8
	.cfi_offset 5, -8
	pushl	%edi	 #
	.cfi_def_cfa_offset 12
	.cfi_offset 7, -12
	pushl	%esi	 #
	.cfi_def_cfa_offset 16
	.cfi_offset 6, -16
	pushl	%ebx	 #
	.cfi_def_cfa_offset 20
	.cfi_offset 3, -20
	subl	$748, %esp	 #,
	.cfi_def_cfa_offset 768
LBB11:
	.loc 1 217 0
	cmpb	$0, __ZGVZN3stk11compression17__huff_compressor11reconstructEvE8__time_1	 #, MEM[(char *)&_ZGVZN3stk11compression17__huff_compressor11reconstructEvE8__time_1]
	je	L196	 #,
L121:
LVL55:
	.loc 1 217 0 is_stmt 0 discriminator 2
	movl	__ZZN3stk11compression17__huff_compressor11reconstructEvE14__entered_time, %edx	 # __entered_time, tmp288
	movl	$217, 12(%esp)	 #,
	.loc 1 222 0 is_stmt 1 discriminator 2
	xorl	%ebp, %ebp	 # e
	.loc 1 217 0 discriminator 2
	movl	$LC1, 8(%esp)	 #,
	movl	$LC2+12, 4(%esp)	 #,
	movl	$LC3, (%esp)	 #,
	addl	$1, %edx	 #, D.30452
	movl	%edx, 16(%esp)	 # D.30452,
	movl	%edx, __ZZN3stk11compression17__huff_compressor11reconstructEvE14__entered_time	 # D.30452, __entered_time
LEHB6:
	call	__ZN3stk3con6printsEPKcz	 #
LVL56:
	movl	768(%esp), %ecx	 # this, tmp289
	movl	(%ecx), %edx	 # this_30(D)->son, D.30456
	movl	4(%ecx), %eax	 # this_30(D)->freq_values, this_30(D)->freq_values
	.loc 1 224 0 discriminator 2
	movl	(%edx), %ebx	 # MEM[base: _153, index: i_106, step: 4, offset: 0B], D.30455
	cmpl	$510, %ebx	 #, D.30455
	jbe	L161	 #,
	.loc 1 225 0
	movl	%ebx, (%edx,%ebp)	 # D.30455, *_36
	.loc 1 226 0
	movl	(%eax), %edi	 # MEM[base: _191, index: i_106, step: 4, offset: 0B], tmp304
	leal	1(%edi), %esi	 #, D.30455
	shrl	%esi	 # tmp207
	movl	%esi, (%eax,%ebp)	 # tmp207, *_39
	.loc 1 227 0
	movl	$1, %ebp	 #, e
LVL57:
L161:
	.loc 1 222 0
	movl	$1, %ecx	 #, i
	.p2align 4,,10
L125:
	.loc 1 224 0
	movl	(%edx,%ecx,4), %ebx	 # MEM[base: _153, index: i_106, step: 4, offset: 0B], D.30455
	cmpl	$510, %ebx	 #, D.30455
	jbe	L124	 #,
	.loc 1 225 0
	movl	%ebx, (%edx,%ebp,4)	 # D.30455, *_36
	.loc 1 226 0
	movl	(%eax,%ecx,4), %edi	 # MEM[base: _191, index: i_106, step: 4, offset: 0B], tmp291
	leal	1(%edi), %esi	 #, D.30455
	shrl	%esi	 # tmp151
	movl	%esi, (%eax,%ebp,4)	 # tmp151, *_39
	.loc 1 227 0
	addl	$1, %ebp	 #, e
LVL58:
L124:
	.loc 1 222 0 discriminator 2
	addl	$1, %ecx	 #, tmp169
	.loc 1 224 0 discriminator 2
	movl	(%edx,%ecx,4), %ebx	 # MEM[base: _153, index: i_106, step: 4, offset: 0B], D.30455
	cmpl	$510, %ebx	 #, D.30455
	jbe	L163	 #,
	.loc 1 225 0
	movl	%ebx, (%edx,%ebp,4)	 # D.30455, *_36
	.loc 1 226 0
	movl	(%eax,%ecx,4), %edi	 # MEM[base: _191, index: i_106, step: 4, offset: 0B], tmp305
	leal	1(%edi), %esi	 #, D.30455
	shrl	%esi	 # tmp211
	movl	%esi, (%eax,%ebp,4)	 # tmp211, *_39
	.loc 1 227 0
	addl	$1, %ebp	 #, e
LVL59:
L163:
	.loc 1 222 0
	leal	1(%ecx), %ebx	 #, i
	.loc 1 224 0
	movl	(%edx,%ebx,4), %edi	 # MEM[base: _153, index: i_106, step: 4, offset: 0B], D.30455
	cmpl	$510, %edi	 #, D.30455
	jbe	L165	 #,
	.loc 1 225 0
	movl	%edi, (%edx,%ebp,4)	 # D.30455, *_36
	.loc 1 226 0
	movl	(%eax,%ebx,4), %esi	 # MEM[base: _191, index: i_106, step: 4, offset: 0B], MEM[base: _191, index: i_106, step: 4, offset: 0B]
	addl	$1, %esi	 #, D.30455
	shrl	%esi	 # tmp217
	movl	%esi, (%eax,%ebp,4)	 # tmp217, *_39
	.loc 1 227 0
	addl	$1, %ebp	 #, e
LVL60:
L165:
	.loc 1 222 0
	leal	2(%ecx), %ebx	 #, i
	.loc 1 224 0
	movl	(%edx,%ebx,4), %edi	 # MEM[base: _153, index: i_106, step: 4, offset: 0B], D.30455
	cmpl	$510, %edi	 #, D.30455
	jbe	L167	 #,
	.loc 1 225 0
	movl	%edi, (%edx,%ebp,4)	 # D.30455, *_36
	.loc 1 226 0
	movl	(%eax,%ebx,4), %esi	 # MEM[base: _191, index: i_106, step: 4, offset: 0B], MEM[base: _191, index: i_106, step: 4, offset: 0B]
	addl	$1, %esi	 #, D.30455
	shrl	%esi	 # tmp223
	movl	%esi, (%eax,%ebp,4)	 # tmp223, *_39
	.loc 1 227 0
	addl	$1, %ebp	 #, e
LVL61:
L167:
	.loc 1 222 0
	leal	3(%ecx), %ebx	 #, i
	.loc 1 224 0
	movl	(%edx,%ebx,4), %edi	 # MEM[base: _153, index: i_106, step: 4, offset: 0B], D.30455
	cmpl	$510, %edi	 #, D.30455
	jbe	L169	 #,
	.loc 1 225 0
	movl	%edi, (%edx,%ebp,4)	 # D.30455, *_36
	.loc 1 226 0
	movl	(%eax,%ebx,4), %esi	 # MEM[base: _191, index: i_106, step: 4, offset: 0B], MEM[base: _191, index: i_106, step: 4, offset: 0B]
	addl	$1, %esi	 #, D.30455
	shrl	%esi	 # tmp229
	movl	%esi, (%eax,%ebp,4)	 # tmp229, *_39
	.loc 1 227 0
	addl	$1, %ebp	 #, e
LVL62:
L169:
	.loc 1 222 0
	leal	4(%ecx), %ebx	 #, i
	.loc 1 224 0
	movl	(%edx,%ebx,4), %edi	 # MEM[base: _153, index: i_106, step: 4, offset: 0B], D.30455
	cmpl	$510, %edi	 #, D.30455
	jbe	L171	 #,
	.loc 1 225 0
	movl	%edi, (%edx,%ebp,4)	 # D.30455, *_36
	.loc 1 226 0
	movl	(%eax,%ebx,4), %esi	 # MEM[base: _191, index: i_106, step: 4, offset: 0B], MEM[base: _191, index: i_106, step: 4, offset: 0B]
	addl	$1, %esi	 #, D.30455
	shrl	%esi	 # tmp235
	movl	%esi, (%eax,%ebp,4)	 # tmp235, *_39
	.loc 1 227 0
	addl	$1, %ebp	 #, e
LVL63:
L171:
	.loc 1 222 0
	leal	5(%ecx), %ebx	 #, i
	.loc 1 224 0
	movl	(%edx,%ebx,4), %edi	 # MEM[base: _153, index: i_106, step: 4, offset: 0B], D.30455
	cmpl	$510, %edi	 #, D.30455
	jbe	L173	 #,
	.loc 1 225 0
	movl	%edi, (%edx,%ebp,4)	 # D.30455, *_36
	.loc 1 226 0
	movl	(%eax,%ebx,4), %esi	 # MEM[base: _191, index: i_106, step: 4, offset: 0B], MEM[base: _191, index: i_106, step: 4, offset: 0B]
	addl	$1, %esi	 #, D.30455
	shrl	%esi	 # tmp241
	movl	%esi, (%eax,%ebp,4)	 # tmp241, *_39
	.loc 1 227 0
	addl	$1, %ebp	 #, e
LVL64:
L173:
	.loc 1 222 0
	leal	6(%ecx), %ebx	 #, i
	.loc 1 224 0
	movl	(%edx,%ebx,4), %edi	 # MEM[base: _153, index: i_106, step: 4, offset: 0B], D.30455
	cmpl	$510, %edi	 #, D.30455
	jbe	L175	 #,
	.loc 1 225 0
	movl	%edi, (%edx,%ebp,4)	 # D.30455, *_36
	.loc 1 226 0
	movl	(%eax,%ebx,4), %esi	 # MEM[base: _191, index: i_106, step: 4, offset: 0B], MEM[base: _191, index: i_106, step: 4, offset: 0B]
	addl	$1, %esi	 #, D.30455
	shrl	%esi	 # tmp247
	movl	%esi, (%eax,%ebp,4)	 # tmp247, *_39
	.loc 1 227 0
	addl	$1, %ebp	 #, e
LVL65:
L175:
	.loc 1 222 0
	leal	7(%ecx), %ebx	 #, i
	.loc 1 224 0
	movl	(%edx,%ebx,4), %edi	 # MEM[base: _153, index: i_106, step: 4, offset: 0B], D.30455
	cmpl	$510, %edi	 #, D.30455
	jbe	L177	 #,
	.loc 1 225 0
	movl	%edi, (%edx,%ebp,4)	 # D.30455, *_36
	.loc 1 226 0
	movl	(%eax,%ebx,4), %esi	 # MEM[base: _191, index: i_106, step: 4, offset: 0B], MEM[base: _191, index: i_106, step: 4, offset: 0B]
	addl	$1, %esi	 #, D.30455
	shrl	%esi	 # tmp253
	movl	%esi, (%eax,%ebp,4)	 # tmp253, *_39
	.loc 1 227 0
	addl	$1, %ebp	 #, e
LVL66:
L177:
	.loc 1 222 0
	leal	8(%ecx), %ebx	 #, i
	.loc 1 224 0
	movl	(%edx,%ebx,4), %edi	 # MEM[base: _153, index: i_106, step: 4, offset: 0B], D.30455
	cmpl	$510, %edi	 #, D.30455
	jbe	L179	 #,
	.loc 1 225 0
	movl	%edi, (%edx,%ebp,4)	 # D.30455, *_36
	.loc 1 226 0
	movl	(%eax,%ebx,4), %esi	 # MEM[base: _191, index: i_106, step: 4, offset: 0B], MEM[base: _191, index: i_106, step: 4, offset: 0B]
	addl	$1, %esi	 #, D.30455
	shrl	%esi	 # tmp259
	movl	%esi, (%eax,%ebp,4)	 # tmp259, *_39
	.loc 1 227 0
	addl	$1, %ebp	 #, e
LVL67:
L179:
	.loc 1 222 0
	addl	$9, %ecx	 #, i
	cmpl	$511, %ecx	 #, i
	jne	L125	 #,
	movl	$256, %ebp	 #, k
LVL68:
	movl	%edx, 496(%esp)	 # D.30456, %sfp
	movl	%ebp, %edi	 # k, k
	movl	768(%esp), %ebp	 # this, this
LVL69:
	.p2align 4,,10
L129:
	.loc 1 233 0
	movl	-2044(%eax,%edi,8), %esi	 # *_53, *_49
	addl	-2048(%eax,%edi,8), %esi	 # *_49, f
	leal	-512(%edi,%edi), %edx	 #, D.30455
	.loc 1 235 0
	cmpl	-4(%eax,%edi,4), %esi	 # *_110, f
	movl	%edx, 492(%esp)	 # D.30455, %sfp
LVL70:
	.loc 1 234 0
	movl	%esi, (%eax,%edi,4)	 # f, *_57
LVL71:
	.loc 1 235 0
	jae	L126	 #,
	movl	%edi, %edx	 # k, k
LVL72:
	jmp	L127	 #
LVL73:
	.p2align 4,,10
L133:
	.loc 1 236 0
	movl	%ebx, %edx	 # k, k
LVL74:
L127:
	leal	-1(%edx), %ebx	 #, k
LVL75:
	.loc 1 235 0
	cmpl	-4(%eax,%ebx,4), %esi	 # MEM[base: _161, index: k_63, step: 4, offset: 4294967292B], f
	jb	L133	 #,
	.loc 1 238 0
	movl	%edi, %ecx	 # k, D.30455
	subl	%ebx, %ecx	 # k, D.30455
LVL76:
	.loc 1 239 0
	addl	%ecx, %ecx	 # l
LVL77:
	movl	%ecx, 480(%esp)	 # l, %sfp
	jne	L197	 #,
LVL78:
L126:
	.loc 1 231 0 discriminator 2
	addl	$1, %edi	 #, k
LVL79:
	cmpl	$511, %edi	 #, k
	je	L128	 #,
LVL80:
L198:
	movl	4(%ebp), %eax	 # this_30(D)->freq_values, this_30(D)->freq_values
	jmp	L129	 #
LVL81:
	.p2align 4,,10
L197:
	.loc 1 241 0
	leal	0(,%ebx,4), %ecx	 #, D.30455
LVL82:
	sall	$2, %edx	 #, D.30457
	.loc 1 231 0
	addl	$1, %edi	 #, k
LVL83:
	.loc 1 241 0
	movl	%edx, 496(%esp)	 # D.30457, %sfp
	movl	480(%esp), %edx	 # %sfp, l
	movl	%ecx, 500(%esp)	 # D.30455, %sfp
	leal	(%eax,%ecx), %ecx	 #, D.30458
	addl	496(%esp), %eax	 # %sfp, D.30456
	movl	%edx, 8(%esp)	 # l,
	movl	%ecx, 4(%esp)	 # D.30458,
	movl	%eax, (%esp)	 # D.30456,
	call	__ZN3stk3mem3movEPvPKvj@12	 #
	.cfi_def_cfa_offset 756
LVL84:
	subl	$12, %esp	 #,
	.cfi_def_cfa_offset 768
	.loc 1 242 0
	movl	4(%ebp), %eax	 # this_30(D)->freq_values, this_30(D)->freq_values
	.loc 1 243 0
	movl	0(%ebp), %edx	 # this_30(D)->son, D.30456
	movl	500(%esp), %ecx	 # %sfp, D.30455
	.loc 1 242 0
	movl	%esi, (%eax,%ebx,4)	 # f, *_76
	.loc 1 243 0
	movl	480(%esp), %esi	 # %sfp, l
LVL85:
	leal	(%edx,%ecx), %eax	 #, D.30458
LVL86:
	addl	496(%esp), %edx	 # %sfp, D.30456
	movl	%esi, 8(%esp)	 # l,
LVL87:
	movl	%eax, 4(%esp)	 # D.30458,
	movl	%edx, (%esp)	 # D.30456,
	call	__ZN3stk3mem3movEPvPKvj@12	 #
	.cfi_def_cfa_offset 756
LEHE6:
LVL88:
	subl	$12, %esp	 #,
	.cfi_def_cfa_offset 768
	.loc 1 244 0
	movl	0(%ebp), %edx	 # this_30(D)->son, D.30456
	.loc 1 231 0
	cmpl	$511, %edi	 #, k
	.loc 1 244 0
	movl	492(%esp), %esi	 # %sfp, D.30455
	movl	%edx, 496(%esp)	 # D.30456, %sfp
	movl	%esi, (%edx,%ebx,4)	 # D.30455, *_83
LVL89:
	.loc 1 231 0
	jne	L198	 #,
LVL90:
L128:
	movl	496(%esp), %ebp	 # %sfp, D.30456
	movl	768(%esp), %edi	 # this, tmp303
LVL91:
	.loc 1 249 0
	movl	0(%ebp), %ebx	 # MEM[base: _178, index: i_113, step: 4, offset: 0B], k
	movl	8(%edi), %ecx	 # this_30(D)->dad, D.30456
LVL92:
	.loc 1 250 0
	leal	0(,%ebx,4), %eax	 #, D.30455
	.loc 1 251 0
	cmpl	$510, %ebx	 #, k
	.loc 1 250 0
	movl	$0, (%ecx,%eax)	 #, *_93
LVL93:
	.loc 1 251 0
	ja	L141	 #,
	.loc 1 252 0
	movl	$0, 4(%ecx,%eax)	 #, *_98
L141:
	.loc 1 247 0
	movl	$1, %edx	 #, i
	.p2align 4,,10
L131:
	.loc 1 249 0
	movl	0(%ebp,%edx,4), %edi	 # MEM[base: _178, index: i_113, step: 4, offset: 0B], k
	.loc 1 251 0
	cmpl	$510, %edi	 #, k
	.loc 1 250 0
	leal	0(,%edi,4), %esi	 #, D.30455
	movl	%edx, (%ecx,%edi,4)	 # i, *_93
	.loc 1 251 0
	ja	L130	 #,
	.loc 1 252 0
	movl	%edx, 4(%ecx,%esi)	 # i, *_98
L130:
	.loc 1 247 0 discriminator 2
	addl	$1, %edx	 #, tmp168
	.loc 1 249 0 discriminator 2
	movl	0(%ebp,%edx,4), %ebx	 # MEM[base: _178, index: i_113, step: 4, offset: 0B], k
	.loc 1 251 0 discriminator 2
	cmpl	$510, %ebx	 #, k
	.loc 1 250 0 discriminator 2
	leal	0(,%ebx,4), %eax	 #, D.30455
	movl	%edx, (%ecx,%ebx,4)	 # tmp168, *_93
	.loc 1 251 0 discriminator 2
	ja	L143	 #,
	.loc 1 252 0
	movl	%edx, 4(%ecx,%eax)	 # tmp168, *_98
L143:
	.loc 1 247 0
	leal	1(%edx), %esi	 #, i
	.loc 1 249 0
	movl	0(%ebp,%esi,4), %ebx	 # MEM[base: _178, index: i_113, step: 4, offset: 0B], k
	.loc 1 251 0
	cmpl	$510, %ebx	 #, k
	.loc 1 250 0
	leal	0(,%ebx,4), %edi	 #, D.30455
	movl	%esi, (%ecx,%ebx,4)	 # i, *_93
	.loc 1 251 0
	ja	L145	 #,
	.loc 1 252 0
	movl	%esi, 4(%ecx,%edi)	 # i, *_98
L145:
	.loc 1 247 0
	leal	2(%edx), %eax	 #, i
	.loc 1 249 0
	movl	0(%ebp,%eax,4), %esi	 # MEM[base: _178, index: i_113, step: 4, offset: 0B], k
	.loc 1 251 0
	cmpl	$510, %esi	 #, k
	.loc 1 250 0
	leal	0(,%esi,4), %ebx	 #, D.30455
	movl	%eax, (%ecx,%esi,4)	 # i, *_93
	.loc 1 251 0
	ja	L147	 #,
	.loc 1 252 0
	movl	%eax, 4(%ecx,%ebx)	 # i, *_98
L147:
	.loc 1 247 0
	leal	3(%edx), %eax	 #, i
	.loc 1 249 0
	movl	0(%ebp,%eax,4), %esi	 # MEM[base: _178, index: i_113, step: 4, offset: 0B], k
	.loc 1 251 0
	cmpl	$510, %esi	 #, k
	.loc 1 250 0
	leal	0(,%esi,4), %edi	 #, D.30455
	movl	%eax, (%ecx,%esi,4)	 # i, *_93
	.loc 1 251 0
	ja	L149	 #,
	.loc 1 252 0
	movl	%eax, 4(%ecx,%edi)	 # i, *_98
L149:
	.loc 1 247 0
	leal	4(%edx), %eax	 #, i
	.loc 1 249 0
	movl	0(%ebp,%eax,4), %ebx	 # MEM[base: _178, index: i_113, step: 4, offset: 0B], k
	.loc 1 251 0
	cmpl	$510, %ebx	 #, k
	.loc 1 250 0
	leal	0(,%ebx,4), %esi	 #, D.30455
	movl	%eax, (%ecx,%ebx,4)	 # i, *_93
	.loc 1 251 0
	ja	L151	 #,
	.loc 1 252 0
	movl	%eax, 4(%ecx,%esi)	 # i, *_98
L151:
	.loc 1 247 0
	leal	5(%edx), %eax	 #, i
	.loc 1 249 0
	movl	0(%ebp,%eax,4), %ebx	 # MEM[base: _178, index: i_113, step: 4, offset: 0B], k
	.loc 1 251 0
	cmpl	$510, %ebx	 #, k
	.loc 1 250 0
	leal	0(,%ebx,4), %edi	 #, D.30455
	movl	%eax, (%ecx,%ebx,4)	 # i, *_93
	.loc 1 251 0
	ja	L153	 #,
	.loc 1 252 0
	movl	%eax, 4(%ecx,%edi)	 # i, *_98
L153:
	.loc 1 247 0
	leal	6(%edx), %esi	 #, i
	.loc 1 249 0
	movl	0(%ebp,%esi,4), %eax	 # MEM[base: _178, index: i_113, step: 4, offset: 0B], k
	.loc 1 251 0
	cmpl	$510, %eax	 #, k
	.loc 1 250 0
	leal	0(,%eax,4), %ebx	 #, D.30455
	movl	%esi, (%ecx,%eax,4)	 # i, *_93
	.loc 1 251 0
	ja	L155	 #,
	.loc 1 252 0
	movl	%esi, 4(%ecx,%ebx)	 # i, *_98
L155:
	.loc 1 247 0
	leal	7(%edx), %esi	 #, i
	.loc 1 249 0
	movl	0(%ebp,%esi,4), %eax	 # MEM[base: _178, index: i_113, step: 4, offset: 0B], k
	.loc 1 251 0
	cmpl	$510, %eax	 #, k
	.loc 1 250 0
	leal	0(,%eax,4), %edi	 #, D.30455
	movl	%esi, (%ecx,%eax,4)	 # i, *_93
	.loc 1 251 0
	ja	L157	 #,
	.loc 1 252 0
	movl	%esi, 4(%ecx,%edi)	 # i, *_98
L157:
	.loc 1 247 0
	leal	8(%edx), %esi	 #, i
	.loc 1 249 0
	movl	0(%ebp,%esi,4), %ebx	 # MEM[base: _178, index: i_113, step: 4, offset: 0B], k
	.loc 1 251 0
	cmpl	$510, %ebx	 #, k
	.loc 1 250 0
	leal	0(,%ebx,4), %eax	 #, D.30455
	movl	%esi, (%ecx,%ebx,4)	 # i, *_93
	.loc 1 251 0
	ja	L159	 #,
	.loc 1 252 0
	movl	%esi, 4(%ecx,%eax)	 # i, *_98
L159:
	.loc 1 247 0
	addl	$9, %edx	 #, i
	cmpl	$511, %edx	 #, i
	jne	L131	 #,
LBE11:
	.loc 1 255 0
	addl	$748, %esp	 #,
	.cfi_remember_state
	.cfi_def_cfa_offset 20
	popl	%ebx	 #
	.cfi_restore 3
	.cfi_def_cfa_offset 16
	popl	%esi	 #
	.cfi_restore 6
	.cfi_def_cfa_offset 12
	popl	%edi	 #
	.cfi_restore 7
	.cfi_def_cfa_offset 8
	popl	%ebp	 #
	.cfi_restore 5
	.cfi_def_cfa_offset 4
	ret	$4	 #
LVL94:
L196:
	.cfi_restore_state
LBB12:
	.loc 1 217 0 discriminator 1
	movl	$__ZGVZN3stk11compression17__huff_compressor11reconstructEvE8__time_1, (%esp)	 #,
	call	___cxa_guard_acquire	 #
LVL95:
	testl	%eax, %eax	 # D.30452
	je	L121	 #,
LEHB7:
	.loc 1 217 0 is_stmt 0 discriminator 3
	call	__ZN3stk4time7time_msEv@0	 #
LEHE7:
LVL96:
	movl	%eax, 480(%esp)	 #, %sfp
	movl	%edx, 484(%esp)	 #, %sfp
	movl	484(%esp), %eax	 # %sfp,
	fildq	480(%esp)	 # %sfp
	testl	%eax, %eax	 #
	js	L199	 #,
L123:
	.loc 1 217 0 discriminator 5
	movl	$__ZGVZN3stk11compression17__huff_compressor11reconstructEvE8__time_1, (%esp)	 #,
	fstpl	__ZZN3stk11compression17__huff_compressor11reconstructEvE8__time_1	 # __time_1
	call	___cxa_guard_release	 #
LVL97:
	jmp	L121	 #
L134:
	movl	%eax, %ebx	 #, tmp164
	.loc 1 217 0
	movl	$__ZGVZN3stk11compression17__huff_compressor11reconstructEvE8__time_1, (%esp)	 #,
	call	___cxa_guard_abort	 #
LVL98:
	movl	%ebx, (%esp)	 # tmp164,
LEHB8:
	call	__Unwind_Resume	 #
LEHE8:
LVL99:
L199:
	.loc 1 217 0 discriminator 5
	fadds	LC0	 #
	jmp	L123	 #
LBE12:
	.cfi_endproc
LFE712:
	.section	.gcc_except_table,"w"
LLSDA712:
	.byte	0xff
	.byte	0xff
	.byte	0x1
	.uleb128 LLSDACSE712-LLSDACSB712
LLSDACSB712:
	.uleb128 LEHB6-LFB712
	.uleb128 LEHE6-LEHB6
	.uleb128 0
	.uleb128 0
	.uleb128 LEHB7-LFB712
	.uleb128 LEHE7-LEHB7
	.uleb128 L134-LFB712
	.uleb128 0
	.uleb128 LEHB8-LFB712
	.uleb128 LEHE8-LEHB8
	.uleb128 0
	.uleb128 0
LLSDACSE712:
	.text
	.section	.text.unlikely,"x"
LCOLDE12:
	.text
LHOTE12:
	.section	.text.unlikely,"x"
	.align 2
LCOLDB13:
	.text
LHOTB13:
	.align 2
	.p2align 4,,15
	.globl	__ZN3stk11compression17__huff_compressor6updateEa@8
	.def	__ZN3stk11compression17__huff_compressor6updateEa@8;	.scl	2;	.type	32;	.endef
__ZN3stk11compression17__huff_compressor6updateEa@8:
LFB709:
	.loc 1 88 0 is_stmt 1
	.cfi_startproc
	.cfi_personality 0,___gxx_personality_v0
	.cfi_lsda 0,LLSDA709
LVL100:
	pushl	%ebp	 #
	.cfi_def_cfa_offset 8
	.cfi_offset 5, -8
	pushl	%edi	 #
	.cfi_def_cfa_offset 12
	.cfi_offset 7, -12
	pushl	%esi	 #
	.cfi_def_cfa_offset 16
	.cfi_offset 6, -16
	pushl	%ebx	 #
	.cfi_def_cfa_offset 20
	.cfi_offset 3, -20
	subl	$748, %esp	 #,
	.cfi_def_cfa_offset 768
LBB13:
	.loc 1 90 0
	cmpb	$0, __ZGVZN3stk11compression17__huff_compressor6updateEaE8__time_1	 #, MEM[(char *)&_ZGVZN3stk11compression17__huff_compressor6updateEaE8__time_1]
LBE13:
	.loc 1 88 0
	movl	772(%esp), %ebx	 # axdata_uncoded, axdata_uncoded
LBB14:
	.loc 1 90 0
	je	L221	 #,
L202:
LVL101:
	.loc 1 90 0 is_stmt 0 discriminator 2
	movl	__ZZN3stk11compression17__huff_compressor6updateEaE14__entered_time, %edx	 # __entered_time, tmp148
	movl	$90, 12(%esp)	 #,
	movl	$LC1, 8(%esp)	 #,
	movl	$LC2+12, 4(%esp)	 #,
	movl	$LC3, (%esp)	 #,
	addl	$1, %edx	 #, D.30470
	movl	%edx, 16(%esp)	 # D.30470,
	movl	%edx, __ZZN3stk11compression17__huff_compressor6updateEaE14__entered_time	 # D.30470, __entered_time
LEHB9:
	call	__ZN3stk3con6printsEPKcz	 #
LVL102:
	.loc 1 97 0 is_stmt 1 discriminator 2
	movl	768(%esp), %ecx	 # this, tmp149
	movl	4(%ecx), %esi	 # this_24(D)->freq_values, this_24(D)->freq_values
	cmpl	$134217727, 2040(%esi)	 #, MEM[(uint32_t *)_25 + 2040B]
	ja	L222	 #,
L205:
	.loc 1 100 0
	movsbl	%bl, %ebp	 # axdata_uncoded, D.30473
	movl	768(%esp), %ebx	 # this, tmp151
	leal	511(%ebp), %ebp	 #, exg
LVL103:
	movl	8(%ebx), %eax	 # this_24(D)->dad, D.30468
	movl	%eax, 472(%esp)	 # D.30468, %sfp
	.p2align 4,,10
L208:
	.loc 1 106 0
	movl	472(%esp), %edx	 # %sfp, D.30468
	movl	(%edx,%ebp,4), %ebp	 # *_33, exg
LVL104:
	.loc 1 108 0
	cmpl	$536870911, %ebp	 #, exg
	je	L200	 #,
	.loc 1 112 0
	movl	768(%esp), %ecx	 # this, tmp154
	leal	0(,%ebp,4), %ebx	 #, D.30473
	movl	4(%ecx), %edi	 # this_24(D)->freq_values, D.30468
	.loc 1 117 0
	movl	%ebp, %ecx	 # exg, exg
	.loc 1 112 0
	leal	(%edi,%ebx), %edx	 #, D.30468
	movl	(%edx), %eax	 # *_37, tmp155
	addl	$1, %eax	 #, D.30473
	movl	%eax, (%edx)	 # D.30473, *_37
LVL105:
	.loc 1 117 0
	jmp	L207	 #
LVL106:
	.p2align 4,,10
L214:
	.loc 1 118 0
	movl	%esi, %ecx	 # exg, exg
LVL107:
L207:
	.loc 1 117 0 discriminator 1
	leal	1(%ecx), %esi	 #, exg
	cmpl	(%edi,%esi,4), %eax	 # MEM[base: _35, index: exg_41, step: 4, offset: 0B], D.30473
	ja	L214	 #,
	.loc 1 122 0
	cmpl	%ecx, %ebp	 # exg, exg
	je	L208	 #,
	.loc 1 130 0
	cmpl	$510, %ecx	 #, exg
	movl	%eax, 496(%esp)	 # D.30473, %sfp
	movl	%edx, 500(%esp)	 # D.30468, %sfp
	.loc 1 112 0
	movl	%ebx, %esi	 # D.30473, D.30473
	movl	%ebp, 484(%esp)	 # exg, %sfp
	.loc 1 130 0
	ja	L209	 #,
	leal	0(,%ecx,4), %ebx	 #, D.30473
	movl	%ecx, %ebp	 # exg, exg
LVL108:
	leal	(%edi,%ebx), %edx	 #, D.30468
	movl	(%edx), %eax	 # *_118, D.30473
LVL109:
L209:
	.loc 1 132 0
	movl	768(%esp), %edi	 # this, tmp156
	movl	(%edi), %edi	 # this_24(D)->son, D.30468
	leal	(%esi,%edi), %ecx	 #, D.30468
	.loc 1 135 0
	addl	%edi, %ebx	 # D.30468, D.30468
	movl	%ebx, 492(%esp)	 # D.30468, %sfp
	movl	(%ebx), %ebx	 # *_51, son_exg
	.loc 1 132 0
	movl	%ecx, 488(%esp)	 # D.30468, %sfp
	movl	(%ecx), %ecx	 # *_46, son_cur
LVL110:
	.loc 1 138 0
	leal	0(,%ecx,4), %esi	 #, D.30473
	.loc 1 139 0
	cmpl	$509, %ecx	 #, son_cur
	.loc 1 138 0
	movl	%esi, %edi	 # D.30473, D.30473
	movl	472(%esp), %esi	 # %sfp, D.30468
	movl	%ebp, (%esi,%ecx,4)	 # exg, *_54
	.loc 1 139 0
	ja	L210	 #,
	.loc 1 139 0 is_stmt 0 discriminator 1
	movl	%ebp, 4(%esi,%edi)	 # exg, *_58
L210:
	.loc 1 140 0 is_stmt 1
	movl	488(%esp), %edi	 # %sfp, D.30468
	.loc 1 141 0
	movl	500(%esp), %esi	 # %sfp, D.30468
	.loc 1 145 0
	cmpl	$509, %ebx	 #, son_exg
	.loc 1 140 0
	movl	%ebx, (%edi)	 # son_exg, *_46
	.loc 1 141 0
	movl	%eax, (%esi)	 # D.30473, *_108
	.loc 1 144 0
	leal	0(,%ebx,4), %edi	 #, D.30473
	movl	472(%esp), %esi	 # %sfp, D.30468
	movl	484(%esp), %eax	 # %sfp, exg
LVL111:
	movl	%eax, (%esi,%ebx,4)	 # exg, *_63
LVL112:
	.loc 1 145 0
	ja	L211	 #,
	.loc 1 145 0 is_stmt 0 discriminator 1
	movl	%eax, 4(%esi,%edi)	 # exg, *_67
L211:
	.loc 1 146 0 is_stmt 1
	movl	492(%esp), %edi	 # %sfp, D.30468
	movl	%ecx, (%edi)	 # son_cur, *_51
	.loc 1 147 0
	movl	496(%esp), %ecx	 # %sfp, D.30473
LVL113:
	movl	%ecx, (%edx)	 # D.30473, *_119
LVL114:
	jmp	L208	 #
LVL115:
L200:
LBE14:
	.loc 1 153 0
	addl	$748, %esp	 #,
	.cfi_remember_state
	.cfi_def_cfa_offset 20
	popl	%ebx	 #
	.cfi_restore 3
	.cfi_def_cfa_offset 16
	popl	%esi	 #
	.cfi_restore 6
	.cfi_def_cfa_offset 12
	popl	%edi	 #
	.cfi_restore 7
	.cfi_def_cfa_offset 8
	popl	%ebp	 #
	.cfi_restore 5
	.cfi_def_cfa_offset 4
LVL116:
	ret	$8	 #
L222:
	.cfi_restore_state
LBB15:
	.loc 1 97 0 discriminator 1
	movl	768(%esp), %edi	 # this, tmp150
	movl	%edi, (%esp)	 # tmp150,
	call	__ZN3stk11compression17__huff_compressor11reconstructEv@4	 #
	.cfi_def_cfa_offset 764
LEHE9:
LVL117:
	subl	$4, %esp	 #,
	.cfi_def_cfa_offset 768
	jmp	L205	 #
LVL118:
L221:
	.loc 1 90 0 discriminator 1
	movl	$__ZGVZN3stk11compression17__huff_compressor6updateEaE8__time_1, (%esp)	 #,
	call	___cxa_guard_acquire	 #
LVL119:
	testl	%eax, %eax	 # D.30470
	je	L202	 #,
LEHB10:
	.loc 1 90 0 is_stmt 0 discriminator 3
	call	__ZN3stk4time7time_msEv@0	 #
LEHE10:
LVL120:
	movl	%eax, 472(%esp)	 #, %sfp
	movl	%edx, 476(%esp)	 #, %sfp
	movl	476(%esp), %eax	 # %sfp,
	fildq	472(%esp)	 # %sfp
	testl	%eax, %eax	 #
	js	L223	 #,
L204:
	.loc 1 90 0 discriminator 5
	movl	$__ZGVZN3stk11compression17__huff_compressor6updateEaE8__time_1, (%esp)	 #,
	fstpl	__ZZN3stk11compression17__huff_compressor6updateEaE8__time_1	 # __time_1
	call	___cxa_guard_release	 #
LVL121:
	jmp	L202	 #
L223:
	fadds	LC0	 #
	jmp	L204	 #
L215:
	movl	%eax, %ebp	 #, tmp136
	.loc 1 90 0
	movl	$__ZGVZN3stk11compression17__huff_compressor6updateEaE8__time_1, (%esp)	 #,
	call	___cxa_guard_abort	 #
LVL122:
	movl	%ebp, (%esp)	 # tmp136,
LEHB11:
	call	__Unwind_Resume	 #
LEHE11:
LVL123:
LBE15:
	.cfi_endproc
LFE709:
	.section	.gcc_except_table,"w"
LLSDA709:
	.byte	0xff
	.byte	0xff
	.byte	0x1
	.uleb128 LLSDACSE709-LLSDACSB709
LLSDACSB709:
	.uleb128 LEHB9-LFB709
	.uleb128 LEHE9-LEHB9
	.uleb128 0
	.uleb128 0
	.uleb128 LEHB10-LFB709
	.uleb128 LEHE10-LEHB10
	.uleb128 L215-LFB709
	.uleb128 0
	.uleb128 LEHB11-LFB709
	.uleb128 LEHE11-LEHB11
	.uleb128 0
	.uleb128 0
LLSDACSE709:
	.text
	.section	.text.unlikely,"x"
LCOLDE13:
	.text
LHOTE13:
	.section	.text.unlikely,"x"
	.align 2
LCOLDB14:
	.text
LHOTB14:
	.align 2
	.p2align 4,,15
	.globl	__ZN3stk11compression17__huff_compressor6encodeEPaaa@16
	.def	__ZN3stk11compression17__huff_compressor6encodeEPaaa@16;	.scl	2;	.type	32;	.endef
__ZN3stk11compression17__huff_compressor6encodeEPaaa@16:
LFB710:
	.loc 1 157 0 is_stmt 1
	.cfi_startproc
	.cfi_personality 0,___gxx_personality_v0
	.cfi_lsda 0,LLSDA710
LVL124:
	pushl	%ebp	 #
	.cfi_def_cfa_offset 8
	.cfi_offset 5, -8
	pushl	%edi	 #
	.cfi_def_cfa_offset 12
	.cfi_offset 7, -12
	pushl	%esi	 #
	.cfi_def_cfa_offset 16
	.cfi_offset 6, -16
	pushl	%ebx	 #
	.cfi_def_cfa_offset 20
	.cfi_offset 3, -20
	subl	$1004, %esp	 #,
	.cfi_def_cfa_offset 1024
LBB16:
	.loc 1 159 0
	cmpb	$0, __ZGVZN3stk11compression17__huff_compressor6encodeEPaaaE8__time_1	 #, MEM[(char *)&_ZGVZN3stk11compression17__huff_compressor6encodeEPaaaE8__time_1]
LBE16:
	.loc 1 157 0
	movl	1032(%esp), %eax	 # a_code_ptr_bit, a_code_ptr_bit
	movl	1036(%esp), %ebx	 # axdata_uncoded, axdata_uncoded
	movl	%eax, 492(%esp)	 # a_code_ptr_bit, %sfp
LBB17:
	.loc 1 159 0
	je	L240	 #,
L226:
LVL125:
	.loc 1 159 0 is_stmt 0 discriminator 2
	movl	__ZZN3stk11compression17__huff_compressor6encodeEPaaaE14__entered_time, %ecx	 # __entered_time, tmp143
	movl	$159, 12(%esp)	 #,
	.loc 1 162 0 is_stmt 1 discriminator 2
	movsbl	%bl, %edi	 # axdata_uncoded, axdata_uncoded
	.loc 1 159 0 discriminator 2
	movl	$LC1, 8(%esp)	 #,
	movl	$LC2+12, 4(%esp)	 #,
	.loc 1 163 0 discriminator 2
	xorl	%ebx, %ebx	 # code
	.loc 1 159 0 discriminator 2
	movl	$LC3, (%esp)	 #,
	addl	$1, %ecx	 #, D.30483
	movl	%ecx, 16(%esp)	 # D.30483,
	movl	%ecx, __ZZN3stk11compression17__huff_compressor6encodeEPaaaE14__entered_time	 # D.30483, __entered_time
LEHB12:
	call	__ZN3stk3con6printsEPKcz	 #
LVL126:
	.loc 1 162 0 discriminator 2
	movl	1024(%esp), %esi	 # this, tmp144
	xorl	%ecx, %ecx	 # tmp136
	movl	8(%esi), %eax	 # this_21(D)->dad, D.30486
	.loc 1 164 0 discriminator 2
	xorl	%esi, %esi	 # code_bits
	.loc 1 162 0 discriminator 2
	movl	2044(%eax,%edi,4), %edx	 # *_27, current_node
LVL127:
	.p2align 4,,10
L229:
	.loc 1 168 0
	movl	%edx, %ebp	 # current_node, D.30489
	addl	%ebx, %ebx	 # D.30483
	.loc 1 169 0
	addl	$1, %esi	 #, code_bits
	.loc 1 168 0
	andl	$1, %ebp	 #, D.30489
	orl	%ebp, %ebx	 # D.30489, code
	leal	0(,%edx,4), %ebp	 #, D.30488
	cmpl	$766, %edx	 #, current_node
	movl	%ebp, %edx	 # D.30488, D.30488
	cmovg	%ecx, %edx	 # D.30488,, tmp136, D.30488
	.loc 1 171 0
	movl	(%eax,%edx), %edx	 # *_36, current_node
LVL128:
	.loc 1 166 0
	cmpl	$510, %edx	 #, current_node
	jne	L229	 #,
	.loc 1 175 0
	movl	1024(%esp), %eax	 # this, tmp147
	movl	%edi, 4(%esp)	 # axdata_uncoded,
	movl	%eax, (%esp)	 # tmp147,
	call	__ZN3stk11compression17__huff_compressor6updateEa@8	 #
	.cfi_def_cfa_offset 1016
LVL129:
	subl	$8, %esp	 #,
	.cfi_def_cfa_offset 1024
	.loc 1 177 0
	movzbl	492(%esp), %ebp	 # %sfp, a_code_ptr_bit
	movl	1028(%esp), %edx	 # a_code_ptr, a_code_ptr
	leal	764(%esp), %ecx	 #, tmp131
	.loc 1 176 0
	movl	%ebx, 764(%esp)	 # code, result
	.loc 1 177 0
	movl	%esi, %ebx	 # code_bits, code_bits
	movl	$0, 12(%esp)	 #,
	movsbl	%bl, %edi	 # code_bits, code_bits
	movl	%ecx, 8(%esp)	 # tmp131,
	movl	%edi, 16(%esp)	 # code_bits,
	movl	%edx, (%esp)	 # a_code_ptr,
	movl	%ebp, 4(%esp)	 # a_code_ptr_bit,
	call	__ZN3stk3mem7bit_movEPvhPKvhj@20	 #
	.cfi_def_cfa_offset 1004
LEHE12:
LVL130:
	subl	$20, %esp	 #,
	.cfi_def_cfa_offset 1024
LBE17:
	.loc 1 179 0
	movl	%esi, %eax	 # code_bits,
	addl	$1004, %esp	 #,
	.cfi_remember_state
	.cfi_def_cfa_offset 20
	popl	%ebx	 #
	.cfi_restore 3
	.cfi_def_cfa_offset 16
	popl	%esi	 #
	.cfi_restore 6
	.cfi_def_cfa_offset 12
	popl	%edi	 #
	.cfi_restore 7
	.cfi_def_cfa_offset 8
	popl	%ebp	 #
	.cfi_restore 5
	.cfi_def_cfa_offset 4
	ret	$16	 #
LVL131:
	.p2align 4,,10
L240:
	.cfi_restore_state
LBB18:
	.loc 1 159 0 discriminator 1
	movl	$__ZGVZN3stk11compression17__huff_compressor6encodeEPaaaE8__time_1, (%esp)	 #,
	call	___cxa_guard_acquire	 #
LVL132:
	testl	%eax, %eax	 # D.30483
	je	L226	 #,
LEHB13:
	.loc 1 159 0 is_stmt 0 discriminator 3
	call	__ZN3stk4time7time_msEv@0	 #
LEHE13:
LVL133:
	movl	%edx, 500(%esp)	 #, %sfp
	movl	500(%esp), %edx	 # %sfp,
	movl	%eax, 496(%esp)	 #, %sfp
	fildq	496(%esp)	 # %sfp
	testl	%edx, %edx	 #
	js	L241	 #,
L228:
	.loc 1 159 0 discriminator 5
	movl	$__ZGVZN3stk11compression17__huff_compressor6encodeEPaaaE8__time_1, (%esp)	 #,
	fstpl	__ZZN3stk11compression17__huff_compressor6encodeEPaaaE8__time_1	 # __time_1
	call	___cxa_guard_release	 #
LVL134:
	jmp	L226	 #
L241:
	fadds	LC0	 #
	jmp	L228	 #
L231:
	movl	%eax, %esi	 #, tmp134
	.loc 1 159 0
	movl	$__ZGVZN3stk11compression17__huff_compressor6encodeEPaaaE8__time_1, (%esp)	 #,
	call	___cxa_guard_abort	 #
LVL135:
	movl	%esi, (%esp)	 # tmp134,
LEHB14:
	call	__Unwind_Resume	 #
LEHE14:
LVL136:
LBE18:
	.cfi_endproc
LFE710:
	.section	.gcc_except_table,"w"
LLSDA710:
	.byte	0xff
	.byte	0xff
	.byte	0x1
	.uleb128 LLSDACSE710-LLSDACSB710
LLSDACSB710:
	.uleb128 LEHB12-LFB710
	.uleb128 LEHE12-LEHB12
	.uleb128 0
	.uleb128 0
	.uleb128 LEHB13-LFB710
	.uleb128 LEHE13-LEHB13
	.uleb128 L231-LFB710
	.uleb128 0
	.uleb128 LEHB14-LFB710
	.uleb128 LEHE14-LEHB14
	.uleb128 0
	.uleb128 0
LLSDACSE710:
	.text
	.section	.text.unlikely,"x"
LCOLDE14:
	.text
LHOTE14:
	.section	.text.unlikely,"x"
	.align 2
LCOLDB15:
	.text
LHOTB15:
	.align 2
	.p2align 4,,15
	.globl	__ZN3stk11compression17__huff_compressor6decodeEPaPKaa@16
	.def	__ZN3stk11compression17__huff_compressor6decodeEPaPKaa@16;	.scl	2;	.type	32;	.endef
__ZN3stk11compression17__huff_compressor6decodeEPaPKaa@16:
LFB711:
	.loc 1 183 0 is_stmt 1
	.cfi_startproc
	.cfi_personality 0,___gxx_personality_v0
	.cfi_lsda 0,LLSDA711
LVL137:
	pushl	%ebp	 #
	.cfi_def_cfa_offset 8
	.cfi_offset 5, -8
	pushl	%edi	 #
	.cfi_def_cfa_offset 12
	.cfi_offset 7, -12
	pushl	%esi	 #
	.cfi_def_cfa_offset 16
	.cfi_offset 6, -16
	pushl	%ebx	 #
	.cfi_def_cfa_offset 20
	.cfi_offset 3, -20
	subl	$1004, %esp	 #,
	.cfi_def_cfa_offset 1024
LBB19:
	.loc 1 185 0
	cmpb	$0, __ZGVZN3stk11compression17__huff_compressor6decodeEPaPKaaE8__time_1	 #, MEM[(char *)&_ZGVZN3stk11compression17__huff_compressor6decodeEPaPKaaE8__time_1]
LBE19:
	.loc 1 183 0
	movl	1024(%esp), %ebx	 # this, this
	movl	1036(%esp), %esi	 # a_code_ptr_bit, a_code_ptr_bit
LBB20:
	.loc 1 185 0
	je	L258	 #,
L244:
LVL138:
	.loc 1 185 0 is_stmt 0 discriminator 2
	movl	__ZZN3stk11compression17__huff_compressor6decodeEPaPKaaE14__entered_time, %edx	 # __entered_time, tmp132
	movl	$185, 12(%esp)	 #,
	movl	$LC1, 8(%esp)	 #,
	movl	$LC2+12, 4(%esp)	 #,
	movl	$LC3, (%esp)	 #,
	addl	$1, %edx	 #, D.30499
	movl	%edx, 16(%esp)	 # D.30499,
	movl	%edx, __ZZN3stk11compression17__huff_compressor6decodeEPaPKaaE14__entered_time	 # D.30499, __entered_time
LEHB15:
	call	__ZN3stk3con6printsEPKcz	 #
LVL139:
	.loc 1 188 0 is_stmt 1 discriminator 2
	movl	(%ebx), %ecx	 # this_21(D)->son, this_21(D)->son
	.loc 1 193 0 discriminator 2
	movl	%esi, %eax	 # a_code_ptr_bit, tmp133
	movl	1032(%esp), %esi	 # a_code_ptr, a_code_ptr
	leal	764(%esp), %edx	 #, tmp122
	movzbl	%al, %edi	 # tmp133, a_code_ptr_bit
	.loc 1 188 0 discriminator 2
	movl	2040(%ecx), %ebp	 # MEM[(uint32_t *)_22 + 2040B], current_node
LVL140:
	.loc 1 193 0 discriminator 2
	movl	%edi, 12(%esp)	 # a_code_ptr_bit,
	movl	%esi, 8(%esp)	 # a_code_ptr,
	movl	$24, 16(%esp)	 #,
	.loc 1 190 0 discriminator 2
	xorl	%esi, %esi	 # code_bits
	.loc 1 193 0 discriminator 2
	movl	$0, 4(%esp)	 #,
	movl	%edx, (%esp)	 # tmp122,
	call	__ZN3stk3mem7bit_movEPvhPKvhj@20	 #
	.cfi_def_cfa_offset 1004
LVL141:
	subl	$20, %esp	 #,
	.cfi_def_cfa_offset 1024
	movl	(%ebx), %edi	 # this_21(D)->son, D.30502
	xorl	%eax, %eax	 # tmp131
	.loc 1 194 0 discriminator 2
	movl	764(%esp), %ecx	 # input_data, code
LVL142:
	.p2align 4,,10
L247:
	.loc 1 198 0
	movl	%ecx, %edx	 # code, D.30505
	.loc 1 200 0
	addl	$1, %esi	 #, code_bits
	.loc 1 199 0
	sarl	%ecx	 # code
	.loc 1 198 0
	andl	$1, %edx	 #, D.30505
	orl	%ebp, %edx	 # current_node, current_node
	leal	0(,%edx,4), %ebp	 #, D.30503
	cmpl	$510, %edx	 #, current_node
	movl	%ebp, %edx	 # D.30503, D.30503
	cmovg	%eax, %edx	 # D.30503,, tmp131, D.30503
	.loc 1 203 0
	movl	(%edi,%edx), %ebp	 # *_38, current_node
LVL143:
	.loc 1 196 0
	cmpl	$510, %ebp	 #, current_node
	jle	L247	 #,
LVL144:
	.loc 1 207 0
	leal	-511(%ebp), %ecx	 #, current_node
LVL145:
	.loc 1 208 0
	movl	1028(%esp), %edi	 # alpdata_uncoded, alpdata_uncoded
	.loc 1 209 0
	movsbl	%cl, %eax	 # current_node, D.30506
	.loc 1 208 0
	movb	%cl, (%edi)	 # current_node, *alpdata_uncoded_43(D)
	.loc 1 209 0
	movl	%eax, 4(%esp)	 # D.30506,
	movl	%ebx, (%esp)	 # this,
	call	__ZN3stk11compression17__huff_compressor6updateEa@8	 #
	.cfi_def_cfa_offset 1016
LEHE15:
LVL146:
	subl	$8, %esp	 #,
	.cfi_def_cfa_offset 1024
LBE20:
	.loc 1 211 0
	movl	%esi, %eax	 # code_bits,
	addl	$1004, %esp	 #,
	.cfi_remember_state
	.cfi_def_cfa_offset 20
	popl	%ebx	 #
	.cfi_restore 3
	.cfi_def_cfa_offset 16
	popl	%esi	 #
	.cfi_restore 6
	.cfi_def_cfa_offset 12
	popl	%edi	 #
	.cfi_restore 7
	.cfi_def_cfa_offset 8
	popl	%ebp	 #
	.cfi_restore 5
	.cfi_def_cfa_offset 4
LVL147:
	ret	$16	 #
LVL148:
	.p2align 4,,10
L258:
	.cfi_restore_state
LBB21:
	.loc 1 185 0 discriminator 1
	movl	$__ZGVZN3stk11compression17__huff_compressor6decodeEPaPKaaE8__time_1, (%esp)	 #,
	call	___cxa_guard_acquire	 #
LVL149:
	testl	%eax, %eax	 # D.30499
	je	L244	 #,
LEHB16:
	.loc 1 185 0 is_stmt 0 discriminator 3
	call	__ZN3stk4time7time_msEv@0	 #
LEHE16:
LVL150:
	movl	%eax, 496(%esp)	 #, %sfp
	movl	%edx, 500(%esp)	 #, %sfp
	movl	500(%esp), %eax	 # %sfp,
	fildq	496(%esp)	 # %sfp
	testl	%eax, %eax	 #
	js	L259	 #,
L246:
	.loc 1 185 0 discriminator 5
	movl	$__ZGVZN3stk11compression17__huff_compressor6decodeEPaPKaaE8__time_1, (%esp)	 #,
	fstpl	__ZZN3stk11compression17__huff_compressor6decodeEPaPKaaE8__time_1	 # __time_1
	call	___cxa_guard_release	 #
LVL151:
	jmp	L244	 #
L259:
	fadds	LC0	 #
	jmp	L246	 #
L249:
	movl	%eax, %ebx	 #, tmp130
	.loc 1 185 0
	movl	$__ZGVZN3stk11compression17__huff_compressor6decodeEPaPKaaE8__time_1, (%esp)	 #,
	call	___cxa_guard_abort	 #
LVL152:
	movl	%ebx, (%esp)	 # tmp130,
LEHB17:
	call	__Unwind_Resume	 #
LEHE17:
LVL153:
LBE21:
	.cfi_endproc
LFE711:
	.section	.gcc_except_table,"w"
LLSDA711:
	.byte	0xff
	.byte	0xff
	.byte	0x1
	.uleb128 LLSDACSE711-LLSDACSB711
LLSDACSB711:
	.uleb128 LEHB15-LFB711
	.uleb128 LEHE15-LEHB15
	.uleb128 0
	.uleb128 0
	.uleb128 LEHB16-LFB711
	.uleb128 LEHE16-LEHB16
	.uleb128 L249-LFB711
	.uleb128 0
	.uleb128 LEHB17-LFB711
	.uleb128 LEHE17-LEHB17
	.uleb128 0
	.uleb128 0
LLSDACSE711:
	.text
	.section	.text.unlikely,"x"
LCOLDE15:
	.text
LHOTE15:
	.data
	.align 4
__ZZN3stk11compression17__huff_compressor11reconstructEvE14__entered_time:
	.long	1
.lcomm __ZZN3stk11compression17__huff_compressor11reconstructEvE8__time_1,8,8
	.align 4
__ZZN3stk11compression17__huff_compressor6decodeEPaPKaaE14__entered_time:
	.long	1
.lcomm __ZZN3stk11compression17__huff_compressor6decodeEPaPKaaE8__time_1,8,8
	.align 4
__ZZN3stk11compression17__huff_compressor6encodeEPaaaE14__entered_time:
	.long	1
.lcomm __ZZN3stk11compression17__huff_compressor6encodeEPaaaE8__time_1,8,8
	.align 4
__ZZN3stk11compression17__huff_compressor6updateEaE14__entered_time:
	.long	1
.lcomm __ZZN3stk11compression17__huff_compressor6updateEaE8__time_1,8,8
	.align 4
__ZZN3stk11compression17__huff_compressor10initializeEvE14__entered_time:
	.long	1
.lcomm __ZZN3stk11compression17__huff_compressor10initializeEvE8__time_1,8,8
	.align 4
__ZZN3stk11compression17__huff_compressorD4EvE14__entered_time:
	.long	1
.lcomm __ZZN3stk11compression17__huff_compressorD4EvE8__time_1,8,8
	.align 4
__ZZN3stk11compression17__huff_compressorC4EvE14__entered_time:
	.long	1
.lcomm __ZZN3stk11compression17__huff_compressorC4EvE8__time_1,8,8
.lcomm __ZGVZN3stk11compression17__huff_compressor11reconstructEvE8__time_1,8,8
.lcomm __ZGVZN3stk11compression17__huff_compressor6decodeEPaPKaaE8__time_1,8,8
.lcomm __ZGVZN3stk11compression17__huff_compressor6encodeEPaaaE8__time_1,8,8
.lcomm __ZGVZN3stk11compression17__huff_compressor6updateEaE8__time_1,8,8
.lcomm __ZGVZN3stk11compression17__huff_compressor10initializeEvE8__time_1,8,8
.lcomm __ZGVZN3stk11compression17__huff_compressorD4EvE8__time_1,8,8
.lcomm __ZGVZN3stk11compression17__huff_compressorC4EvE8__time_1,8,8
	.section .rdata,"dr"
	.align 4
LC0:
	.long	1602224128
	.align 16
LC6:
	.long	0
	.long	1
	.long	2
	.long	3
	.align 16
LC7:
	.long	4
	.long	4
	.long	4
	.long	4
	.align 16
LC8:
	.long	511
	.long	511
	.long	511
	.long	511
	.align 16
LC9:
	.long	1
	.long	1
	.long	1
	.long	1
	.text
Letext0:
	.section	.text.unlikely,"x"
Letext_cold0:
	.file 2 "C:/Qt/Qt5.5.0/Tools/mingw492_32/i686-w64-mingw32/include/_mingw.h"
	.file 3 "C:/Qt/Qt5.5.0/Tools/mingw492_32/i686-w64-mingw32/include/stdint.h"
	.file 4 "C:/Qt/Qt5.5.0/Tools/mingw492_32/i686-w64-mingw32/include/stdio.h"
	.file 5 "compression/./.././time/stk_time.h"
	.file 6 "compression/stk_compression_huff.h"
	.file 7 "compression/./../io/stk_console.h"
	.file 8 "compression/./../mem/stk_mem.h"
	.file 9 "<built-in>"
	.file 10 "C:/Qt/Qt5.5.0/Tools/mingw492_32/i686-w64-mingw32/include/c++/bits/exception_ptr.h"
	.file 11 "C:/Qt/Qt5.5.0/Tools/mingw492_32/i686-w64-mingw32/include/c++/i686-w64-mingw32/bits/c++config.h"